SF:/home/openclaw/dev/yinglichina8848/sqlrustgo/crates/query-stats/src/lib.rs
FN:79,_RNCNCNvMs_CsjX6Oq24X8hN_11query_statsNtB8_15QueryNormalizer9normalize00B8_
FN:153,_RNCNvMs1_CsjX6Oq24X8hN_11query_statsNtB7_14StatsCollector9get_stats0B7_
FN:78,_RNCNvMs_CsjX6Oq24X8hN_11query_statsNtB6_15QueryNormalizer9normalize0B6_
FN:167,_RNvCsjX6Oq24X8hN_11query_stats23create_global_collector
FN:116,_RNvXs0_CsjX6Oq24X8hN_11query_statsNtB5_15QueryNormalizerNtNtCs8nPosuWgJFh_4core7default7Default7default
FN:201,_RNvNtCsjX6Oq24X8hN_11query_stats5testss_10test_reset
FN:190,_RNvNtCsjX6Oq24X8hN_11query_stats5testss_11test_record
FN:176,_RNvNtCsjX6Oq24X8hN_11query_stats5testss_23test_normalizer_numbers
FN:183,_RNvNtCsjX6Oq24X8hN_11query_stats5testss_23test_normalizer_strings
FN:28,_RNvMCsjX6Oq24X8hN_11query_statsNtB2_10QueryStats3new
FN:43,_RNvMCsjX6Oq24X8hN_11query_statsNtB2_10QueryStats6record
FN:162,_RNvMs1_CsjX6Oq24X8hN_11query_statsNtB5_14StatsCollector13total_queries
FN:128,_RNvMs1_CsjX6Oq24X8hN_11query_statsNtB5_14StatsCollector3new
FN:157,_RNvMs1_CsjX6Oq24X8hN_11query_statsNtB5_14StatsCollector5reset
FN:136,_RNvMs1_CsjX6Oq24X8hN_11query_statsNtB5_14StatsCollector6record
FN:150,_RNvMs1_CsjX6Oq24X8hN_11query_statsNtB5_14StatsCollector9get_stats
FN:65,_RNvMs_CsjX6Oq24X8hN_11query_statsNtB4_15QueryNormalizer3new
FN:72,_RNvMs_CsjX6Oq24X8hN_11query_statsNtB4_15QueryNormalizer9normalize
FN:79,_RNCNCNvMs_CsaCQb5e0P08Q_11query_statsNtB8_15QueryNormalizer9normalize00B8_
FN:153,_RNCNvMs1_CsaCQb5e0P08Q_11query_statsNtB7_14StatsCollector9get_stats0B7_
FN:78,_RNCNvMs_CsaCQb5e0P08Q_11query_statsNtB6_15QueryNormalizer9normalize0B6_
FN:167,_RNvCsaCQb5e0P08Q_11query_stats23create_global_collector
FN:28,_RNvMCsaCQb5e0P08Q_11query_statsNtB2_10QueryStats3new
FN:43,_RNvMCsaCQb5e0P08Q_11query_statsNtB2_10QueryStats6record
FN:162,_RNvMs1_CsaCQb5e0P08Q_11query_statsNtB5_14StatsCollector13total_queries
FN:128,_RNvMs1_CsaCQb5e0P08Q_11query_statsNtB5_14StatsCollector3new
FN:157,_RNvMs1_CsaCQb5e0P08Q_11query_statsNtB5_14StatsCollector5reset
FN:136,_RNvMs1_CsaCQb5e0P08Q_11query_statsNtB5_14StatsCollector6record
FN:150,_RNvMs1_CsaCQb5e0P08Q_11query_statsNtB5_14StatsCollector9get_stats
FN:65,_RNvMs_CsaCQb5e0P08Q_11query_statsNtB4_15QueryNormalizer3new
FN:72,_RNvMs_CsaCQb5e0P08Q_11query_statsNtB4_15QueryNormalizer9normalize
FN:116,_RNvXs0_CsaCQb5e0P08Q_11query_statsNtB5_15QueryNormalizerNtNtCs8nPosuWgJFh_4core7default7Default7default
FN:79,_RNCNCNvMs_Csj3h6bZLfKUj_11query_statsNtB8_15QueryNormalizer9normalize00B8_
FN:153,_RNCNvMs1_Csj3h6bZLfKUj_11query_statsNtB7_14StatsCollector9get_stats0B7_
FN:78,_RNCNvMs_Csj3h6bZLfKUj_11query_statsNtB6_15QueryNormalizer9normalize0B6_
FN:167,_RNvCsj3h6bZLfKUj_11query_stats23create_global_collector
FN:28,_RNvMCsj3h6bZLfKUj_11query_statsNtB2_10QueryStats3new
FN:43,_RNvMCsj3h6bZLfKUj_11query_statsNtB2_10QueryStats6record
FN:162,_RNvMs1_Csj3h6bZLfKUj_11query_statsNtB5_14StatsCollector13total_queries
FN:128,_RNvMs1_Csj3h6bZLfKUj_11query_statsNtB5_14StatsCollector3new
FN:157,_RNvMs1_Csj3h6bZLfKUj_11query_statsNtB5_14StatsCollector5reset
FN:136,_RNvMs1_Csj3h6bZLfKUj_11query_statsNtB5_14StatsCollector6record
FN:150,_RNvMs1_Csj3h6bZLfKUj_11query_statsNtB5_14StatsCollector9get_stats
FN:65,_RNvMs_Csj3h6bZLfKUj_11query_statsNtB4_15QueryNormalizer3new
FN:72,_RNvMs_Csj3h6bZLfKUj_11query_statsNtB4_15QueryNormalizer9normalize
FN:116,_RNvXs0_Csj3h6bZLfKUj_11query_statsNtB5_15QueryNormalizerNtNtCs8nPosuWgJFh_4core7default7Default7default
FNDA:24,_RNCNCNvMs_CsjX6Oq24X8hN_11query_statsNtB8_15QueryNormalizer9normalize00B8_
FNDA:0,_RNCNvMs1_CsjX6Oq24X8hN_11query_statsNtB7_14StatsCollector9get_stats0B7_
FNDA:22,_RNCNvMs_CsjX6Oq24X8hN_11query_statsNtB6_15QueryNormalizer9normalize0B6_
FNDA:0,_RNvCsjX6Oq24X8hN_11query_stats23create_global_collector
FNDA:0,_RNvXs0_CsjX6Oq24X8hN_11query_statsNtB5_15QueryNormalizerNtNtCs8nPosuWgJFh_4core7default7Default7default
FNDA:1,_RNvNtCsjX6Oq24X8hN_11query_stats5testss_10test_reset
FNDA:1,_RNvNtCsjX6Oq24X8hN_11query_stats5testss_11test_record
FNDA:1,_RNvNtCsjX6Oq24X8hN_11query_stats5testss_23test_normalizer_numbers
FNDA:1,_RNvNtCsjX6Oq24X8hN_11query_stats5testss_23test_normalizer_strings
FNDA:2,_RNvMCsjX6Oq24X8hN_11query_statsNtB2_10QueryStats3new
FNDA:3,_RNvMCsjX6Oq24X8hN_11query_statsNtB2_10QueryStats6record
FNDA:1,_RNvMs1_CsjX6Oq24X8hN_11query_statsNtB5_14StatsCollector13total_queries
FNDA:2,_RNvMs1_CsjX6Oq24X8hN_11query_statsNtB5_14StatsCollector3new
FNDA:1,_RNvMs1_CsjX6Oq24X8hN_11query_statsNtB5_14StatsCollector5reset
FNDA:3,_RNvMs1_CsjX6Oq24X8hN_11query_statsNtB5_14StatsCollector6record
FNDA:1,_RNvMs1_CsjX6Oq24X8hN_11query_statsNtB5_14StatsCollector9get_stats
FNDA:4,_RNvMs_CsjX6Oq24X8hN_11query_statsNtB4_15QueryNormalizer3new
FNDA:5,_RNvMs_CsjX6Oq24X8hN_11query_statsNtB4_15QueryNormalizer9normalize
FNDA:0,_RNCNCNvMs_CsaCQb5e0P08Q_11query_statsNtB8_15QueryNormalizer9normalize00B8_
FNDA:0,_RNCNvMs1_CsaCQb5e0P08Q_11query_statsNtB7_14StatsCollector9get_stats0B7_
FNDA:0,_RNCNvMs_CsaCQb5e0P08Q_11query_statsNtB6_15QueryNormalizer9normalize0B6_
FNDA:0,_RNvCsaCQb5e0P08Q_11query_stats23create_global_collector
FNDA:0,_RNvMCsaCQb5e0P08Q_11query_statsNtB2_10QueryStats3new
FNDA:0,_RNvMCsaCQb5e0P08Q_11query_statsNtB2_10QueryStats6record
FNDA:0,_RNvMs1_CsaCQb5e0P08Q_11query_statsNtB5_14StatsCollector13total_queries
FNDA:0,_RNvMs1_CsaCQb5e0P08Q_11query_statsNtB5_14StatsCollector3new
FNDA:0,_RNvMs1_CsaCQb5e0P08Q_11query_statsNtB5_14StatsCollector5reset
FNDA:0,_RNvMs1_CsaCQb5e0P08Q_11query_statsNtB5_14StatsCollector6record
FNDA:0,_RNvMs1_CsaCQb5e0P08Q_11query_statsNtB5_14StatsCollector9get_stats
FNDA:0,_RNvMs_CsaCQb5e0P08Q_11query_statsNtB4_15QueryNormalizer3new
FNDA:0,_RNvMs_CsaCQb5e0P08Q_11query_statsNtB4_15QueryNormalizer9normalize
FNDA:0,_RNvXs0_CsaCQb5e0P08Q_11query_statsNtB5_15QueryNormalizerNtNtCs8nPosuWgJFh_4core7default7Default7default
FNDA:0,_RNCNCNvMs_Csj3h6bZLfKUj_11query_statsNtB8_15QueryNormalizer9normalize00B8_
FNDA:0,_RNCNvMs1_Csj3h6bZLfKUj_11query_statsNtB7_14StatsCollector9get_stats0B7_
FNDA:0,_RNCNvMs_Csj3h6bZLfKUj_11query_statsNtB6_15QueryNormalizer9normalize0B6_
FNDA:0,_RNvCsj3h6bZLfKUj_11query_stats23create_global_collector
FNDA:0,_RNvMCsj3h6bZLfKUj_11query_statsNtB2_10QueryStats3new
FNDA:0,_RNvMCsj3h6bZLfKUj_11query_statsNtB2_10QueryStats6record
FNDA:0,_RNvMs1_Csj3h6bZLfKUj_11query_statsNtB5_14StatsCollector13total_queries
FNDA:0,_RNvMs1_Csj3h6bZLfKUj_11query_statsNtB5_14StatsCollector3new
FNDA:0,_RNvMs1_Csj3h6bZLfKUj_11query_statsNtB5_14StatsCollector5reset
FNDA:0,_RNvMs1_Csj3h6bZLfKUj_11query_statsNtB5_14StatsCollector6record
FNDA:0,_RNvMs1_Csj3h6bZLfKUj_11query_statsNtB5_14StatsCollector9get_stats
FNDA:0,_RNvMs_Csj3h6bZLfKUj_11query_statsNtB4_15QueryNormalizer3new
FNDA:0,_RNvMs_Csj3h6bZLfKUj_11query_statsNtB4_15QueryNormalizer9normalize
FNDA:0,_RNvXs0_Csj3h6bZLfKUj_11query_statsNtB5_15QueryNormalizerNtNtCs8nPosuWgJFh_4core7default7Default7default
FNF:18
FNH:15
DA:28,2
DA:29,2
DA:30,2
DA:31,2
DA:32,2
DA:33,2
DA:34,2
DA:35,2
DA:36,2
DA:37,2
DA:38,2
DA:39,2
DA:40,2
DA:41,2
DA:43,3
DA:44,3
DA:45,3
DA:46,3
DA:48,3
DA:49,2
DA:50,2
DA:51,3
DA:52,3
DA:53,3
DA:55,3
DA:56,3
DA:65,4
DA:66,4
DA:67,4
DA:68,4
DA:69,4
DA:70,4
DA:72,5
DA:73,5
DA:75,5
DA:76,5
DA:77,5
DA:78,22
DA:79,24
DA:80,4
DA:82,18
DA:84,22
DA:85,5
DA:86,5
DA:87,0
DA:89,5
DA:90,5
DA:91,5
DA:92,5
DA:94,100
DA:95,100
DA:96,1
DA:97,1
DA:98,99
DA:99,1
DA:100,1
DA:101,98
DA:102,5
DA:103,93
DA:104,93
DA:105,93
DA:108,5
DA:109,0
DA:111,5
DA:112,5
DA:116,0
DA:117,0
DA:118,0
DA:128,2
DA:129,2
DA:130,2
DA:131,2
DA:132,2
DA:133,2
DA:134,2
DA:136,3
DA:137,3
DA:139,3
DA:141,3
DA:142,1
DA:143,2
DA:144,2
DA:145,2
DA:146,2
DA:147,2
DA:148,3
DA:150,1
DA:151,1
DA:152,1
DA:153,1
DA:154,1
DA:155,1
DA:157,1
DA:158,1
DA:159,1
DA:160,1
DA:162,1
DA:163,1
DA:164,1
DA:167,0
DA:168,0
DA:169,0
DA:176,1
DA:177,1
DA:178,1
DA:179,1
DA:180,1
DA:183,1
DA:184,1
DA:185,1
DA:186,1
DA:187,1
DA:190,1
DA:191,1
DA:192,1
DA:193,1
DA:195,1
DA:196,1
DA:197,1
DA:198,1
DA:201,1
DA:202,1
DA:203,1
DA:204,1
DA:206,1
DA:207,1
BRF:0
BRH:0
LF:129
LH:120
end_of_record
SF:/home/openclaw/dev/yinglichina8848/sqlrustgo/crates/query-stats/src/slow_query_log.rs
FN:198,_RNvMs0_NtCsjX6Oq24X8hN_11query_stats14slow_query_logNtB5_12SlowQueryLog10get_recent
FN:94,_RNvMs0_NtCsjX6Oq24X8hN_11query_stats14slow_query_logNtB5_12SlowQueryLog11from_config
FN:203,_RNvMs0_NtCsjX6Oq24X8hN_11query_stats14slow_query_logNtB5_12SlowQueryLog12clear_recent
FN:180,_RNvMs0_NtCsjX6Oq24X8hN_11query_stats14slow_query_logNtB5_12SlowQueryLog12parse_record
FN:208,_RNvMs0_NtCsjX6Oq24X8hN_11query_stats14slow_query_logNtB5_12SlowQueryLog12threshold_ms
FN:85,_RNvMs0_NtCsjX6Oq24X8hN_11query_stats14slow_query_logNtB5_12SlowQueryLog3new
FN:213,_RNvMs0_NtCsjX6Oq24X8hN_11query_stats14slow_query_logNtB5_12SlowQueryLog8log_path
FN:99,_RNvMs0_NtCsjX6Oq24X8hN_11query_stats14slow_query_logNtB5_12SlowQueryLog9maybe_log
FN:129,_RNvMs0_NtCsjX6Oq24X8hN_11query_stats14slow_query_logNtB5_12SlowQueryLog9read_logs
FN:52,_RNvMs_NtCsjX6Oq24X8hN_11query_stats14slow_query_logNtB4_15SlowQueryRecord15to_mysql_format
FN:24,_RNvXNtCsjX6Oq24X8hN_11query_stats14slow_query_logNtB2_15SlowQueryConfigNtNtCs8nPosuWgJFh_4core7default7Default7default
FN:219,_RNvXs1_NtCsjX6Oq24X8hN_11query_stats14slow_query_logNtB5_12SlowQueryLogNtNtCs8nPosuWgJFh_4core7default7Default7default
FN:313,_RNvNtNtCsjX6Oq24X8hN_11query_stats14slow_query_log5testss_17test_clear_recent
FN:325,_RNvNtNtCsjX6Oq24X8hN_11query_stats14slow_query_log5testss_25test_read_logs_empty_file
FN:334,_RNvNtNtCsjX6Oq24X8hN_11query_stats14slow_query_log5testss_27test_slow_query_log_default
FN:340,_RNvNtNtCsjX6Oq24X8hN_11query_stats14slow_query_log5testss_28test_slow_query_config_debug
FN:238,_RNvNtNtCsjX6Oq24X8hN_11query_stats14slow_query_log5testss_28test_slow_query_log_creation
FN:347,_RNvNtNtCsjX6Oq24X8hN_11query_stats14slow_query_log5testss_28test_slow_query_record_debug
FN:272,_RNvNtNtCsjX6Oq24X8hN_11query_stats14slow_query_log5testss_30test_maybe_log_above_threshold
FN:256,_RNvNtNtCsjX6Oq24X8hN_11query_stats14slow_query_log5testss_30test_maybe_log_below_threshold
FN:230,_RNvNtNtCsjX6Oq24X8hN_11query_stats14slow_query_log5testss_30test_slow_query_config_default
FN:245,_RNvNtNtCsjX6Oq24X8hN_11query_stats14slow_query_log5testss_31test_slow_query_log_from_config
FN:361,_RNvNtNtCsjX6Oq24X8hN_11query_stats14slow_query_log5testss_35test_maybe_log_just_below_threshold
FN:291,_RNvNtNtCsjX6Oq24X8hN_11query_stats14slow_query_log5testss_35test_slow_query_record_mysql_format
FN:375,_RNvNtNtCsjX6Oq24X8hN_11query_stats14slow_query_log5testss_36test_slow_query_log_multiple_records
FN:266,_RNCNvNtNtCsjX6Oq24X8hN_11query_stats14slow_query_log5testss_30test_maybe_log_below_threshold0B7_
FN:198,_RNvMs0_NtCsaCQb5e0P08Q_11query_stats14slow_query_logNtB5_12SlowQueryLog10get_recent
FN:94,_RNvMs0_NtCsaCQb5e0P08Q_11query_stats14slow_query_logNtB5_12SlowQueryLog11from_config
FN:203,_RNvMs0_NtCsaCQb5e0P08Q_11query_stats14slow_query_logNtB5_12SlowQueryLog12clear_recent
FN:180,_RNvMs0_NtCsaCQb5e0P08Q_11query_stats14slow_query_logNtB5_12SlowQueryLog12parse_record
FN:208,_RNvMs0_NtCsaCQb5e0P08Q_11query_stats14slow_query_logNtB5_12SlowQueryLog12threshold_ms
FN:85,_RNvMs0_NtCsaCQb5e0P08Q_11query_stats14slow_query_logNtB5_12SlowQueryLog3new
FN:213,_RNvMs0_NtCsaCQb5e0P08Q_11query_stats14slow_query_logNtB5_12SlowQueryLog8log_path
FN:99,_RNvMs0_NtCsaCQb5e0P08Q_11query_stats14slow_query_logNtB5_12SlowQueryLog9maybe_log
FN:129,_RNvMs0_NtCsaCQb5e0P08Q_11query_stats14slow_query_logNtB5_12SlowQueryLog9read_logs
FN:52,_RNvMs_NtCsaCQb5e0P08Q_11query_stats14slow_query_logNtB4_15SlowQueryRecord15to_mysql_format
FN:24,_RNvXNtCsaCQb5e0P08Q_11query_stats14slow_query_logNtB2_15SlowQueryConfigNtNtCs8nPosuWgJFh_4core7default7Default7default
FN:219,_RNvXs1_NtCsaCQb5e0P08Q_11query_stats14slow_query_logNtB5_12SlowQueryLogNtNtCs8nPosuWgJFh_4core7default7Default7default
FN:198,_RNvMs0_NtCsj3h6bZLfKUj_11query_stats14slow_query_logNtB5_12SlowQueryLog10get_recent
FN:94,_RNvMs0_NtCsj3h6bZLfKUj_11query_stats14slow_query_logNtB5_12SlowQueryLog11from_config
FN:203,_RNvMs0_NtCsj3h6bZLfKUj_11query_stats14slow_query_logNtB5_12SlowQueryLog12clear_recent
FN:180,_RNvMs0_NtCsj3h6bZLfKUj_11query_stats14slow_query_logNtB5_12SlowQueryLog12parse_record
FN:208,_RNvMs0_NtCsj3h6bZLfKUj_11query_stats14slow_query_logNtB5_12SlowQueryLog12threshold_ms
FN:85,_RNvMs0_NtCsj3h6bZLfKUj_11query_stats14slow_query_logNtB5_12SlowQueryLog3new
FN:213,_RNvMs0_NtCsj3h6bZLfKUj_11query_stats14slow_query_logNtB5_12SlowQueryLog8log_path
FN:99,_RNvMs0_NtCsj3h6bZLfKUj_11query_stats14slow_query_logNtB5_12SlowQueryLog9maybe_log
FN:129,_RNvMs0_NtCsj3h6bZLfKUj_11query_stats14slow_query_logNtB5_12SlowQueryLog9read_logs
FN:52,_RNvMs_NtCsj3h6bZLfKUj_11query_stats14slow_query_logNtB4_15SlowQueryRecord15to_mysql_format
FN:24,_RNvXNtCsj3h6bZLfKUj_11query_stats14slow_query_logNtB2_15SlowQueryConfigNtNtCs8nPosuWgJFh_4core7default7Default7default
FN:219,_RNvXs1_NtCsj3h6bZLfKUj_11query_stats14slow_query_logNtB5_12SlowQueryLogNtNtCs8nPosuWgJFh_4core7default7Default7default
FNDA:6,_RNvMs0_NtCsjX6Oq24X8hN_11query_stats14slow_query_logNtB5_12SlowQueryLog10get_recent
FNDA:1,_RNvMs0_NtCsjX6Oq24X8hN_11query_stats14slow_query_logNtB5_12SlowQueryLog11from_config
FNDA:1,_RNvMs0_NtCsjX6Oq24X8hN_11query_stats14slow_query_logNtB5_12SlowQueryLog12clear_recent
FNDA:0,_RNvMs0_NtCsjX6Oq24X8hN_11query_stats14slow_query_logNtB5_12SlowQueryLog12parse_record
FNDA:3,_RNvMs0_NtCsjX6Oq24X8hN_11query_stats14slow_query_logNtB5_12SlowQueryLog12threshold_ms
FNDA:9,_RNvMs0_NtCsjX6Oq24X8hN_11query_stats14slow_query_logNtB5_12SlowQueryLog3new
FNDA:1,_RNvMs0_NtCsjX6Oq24X8hN_11query_stats14slow_query_logNtB5_12SlowQueryLog8log_path
FNDA:7,_RNvMs0_NtCsjX6Oq24X8hN_11query_stats14slow_query_logNtB5_12SlowQueryLog9maybe_log
FNDA:2,_RNvMs0_NtCsjX6Oq24X8hN_11query_stats14slow_query_logNtB5_12SlowQueryLog9read_logs
FNDA:6,_RNvMs_NtCsjX6Oq24X8hN_11query_stats14slow_query_logNtB4_15SlowQueryRecord15to_mysql_format
FNDA:2,_RNvXNtCsjX6Oq24X8hN_11query_stats14slow_query_logNtB2_15SlowQueryConfigNtNtCs8nPosuWgJFh_4core7default7Default7default
FNDA:1,_RNvXs1_NtCsjX6Oq24X8hN_11query_stats14slow_query_logNtB5_12SlowQueryLogNtNtCs8nPosuWgJFh_4core7default7Default7default
FNDA:1,_RNvNtNtCsjX6Oq24X8hN_11query_stats14slow_query_log5testss_17test_clear_recent
FNDA:1,_RNvNtNtCsjX6Oq24X8hN_11query_stats14slow_query_log5testss_25test_read_logs_empty_file
FNDA:1,_RNvNtNtCsjX6Oq24X8hN_11query_stats14slow_query_log5testss_27test_slow_query_log_default
FNDA:1,_RNvNtNtCsjX6Oq24X8hN_11query_stats14slow_query_log5testss_28test_slow_query_config_debug
FNDA:1,_RNvNtNtCsjX6Oq24X8hN_11query_stats14slow_query_log5testss_28test_slow_query_log_creation
FNDA:1,_RNvNtNtCsjX6Oq24X8hN_11query_stats14slow_query_log5testss_28test_slow_query_record_debug
FNDA:1,_RNvNtNtCsjX6Oq24X8hN_11query_stats14slow_query_log5testss_30test_maybe_log_above_threshold
FNDA:1,_RNvNtNtCsjX6Oq24X8hN_11query_stats14slow_query_log5testss_30test_maybe_log_below_threshold
FNDA:1,_RNvNtNtCsjX6Oq24X8hN_11query_stats14slow_query_log5testss_30test_slow_query_config_default
FNDA:1,_RNvNtNtCsjX6Oq24X8hN_11query_stats14slow_query_log5testss_31test_slow_query_log_from_config
FNDA:1,_RNvNtNtCsjX6Oq24X8hN_11query_stats14slow_query_log5testss_35test_maybe_log_just_below_threshold
FNDA:1,_RNvNtNtCsjX6Oq24X8hN_11query_stats14slow_query_log5testss_35test_slow_query_record_mysql_format
FNDA:1,_RNvNtNtCsjX6Oq24X8hN_11query_stats14slow_query_log5testss_36test_slow_query_log_multiple_records
FNDA:0,_RNCNvNtNtCsjX6Oq24X8hN_11query_stats14slow_query_log5testss_30test_maybe_log_below_threshold0B7_
FNDA:0,_RNvMs0_NtCsaCQb5e0P08Q_11query_stats14slow_query_logNtB5_12SlowQueryLog10get_recent
FNDA:0,_RNvMs0_NtCsaCQb5e0P08Q_11query_stats14slow_query_logNtB5_12SlowQueryLog11from_config
FNDA:0,_RNvMs0_NtCsaCQb5e0P08Q_11query_stats14slow_query_logNtB5_12SlowQueryLog12clear_recent
FNDA:0,_RNvMs0_NtCsaCQb5e0P08Q_11query_stats14slow_query_logNtB5_12SlowQueryLog12parse_record
FNDA:0,_RNvMs0_NtCsaCQb5e0P08Q_11query_stats14slow_query_logNtB5_12SlowQueryLog12threshold_ms
FNDA:0,_RNvMs0_NtCsaCQb5e0P08Q_11query_stats14slow_query_logNtB5_12SlowQueryLog3new
FNDA:0,_RNvMs0_NtCsaCQb5e0P08Q_11query_stats14slow_query_logNtB5_12SlowQueryLog8log_path
FNDA:0,_RNvMs0_NtCsaCQb5e0P08Q_11query_stats14slow_query_logNtB5_12SlowQueryLog9maybe_log
FNDA:0,_RNvMs0_NtCsaCQb5e0P08Q_11query_stats14slow_query_logNtB5_12SlowQueryLog9read_logs
FNDA:0,_RNvMs_NtCsaCQb5e0P08Q_11query_stats14slow_query_logNtB4_15SlowQueryRecord15to_mysql_format
FNDA:0,_RNvXNtCsaCQb5e0P08Q_11query_stats14slow_query_logNtB2_15SlowQueryConfigNtNtCs8nPosuWgJFh_4core7default7Default7default
FNDA:0,_RNvXs1_NtCsaCQb5e0P08Q_11query_stats14slow_query_logNtB5_12SlowQueryLogNtNtCs8nPosuWgJFh_4core7default7Default7default
FNDA:0,_RNvMs0_NtCsj3h6bZLfKUj_11query_stats14slow_query_logNtB5_12SlowQueryLog10get_recent
FNDA:0,_RNvMs0_NtCsj3h6bZLfKUj_11query_stats14slow_query_logNtB5_12SlowQueryLog11from_config
FNDA:0,_RNvMs0_NtCsj3h6bZLfKUj_11query_stats14slow_query_logNtB5_12SlowQueryLog12clear_recent
FNDA:0,_RNvMs0_NtCsj3h6bZLfKUj_11query_stats14slow_query_logNtB5_12SlowQueryLog12parse_record
FNDA:0,_RNvMs0_NtCsj3h6bZLfKUj_11query_stats14slow_query_logNtB5_12SlowQueryLog12threshold_ms
FNDA:0,_RNvMs0_NtCsj3h6bZLfKUj_11query_stats14slow_query_logNtB5_12SlowQueryLog3new
FNDA:0,_RNvMs0_NtCsj3h6bZLfKUj_11query_stats14slow_query_logNtB5_12SlowQueryLog8log_path
FNDA:0,_RNvMs0_NtCsj3h6bZLfKUj_11query_stats14slow_query_logNtB5_12SlowQueryLog9maybe_log
FNDA:0,_RNvMs0_NtCsj3h6bZLfKUj_11query_stats14slow_query_logNtB5_12SlowQueryLog9read_logs
FNDA:0,_RNvMs_NtCsj3h6bZLfKUj_11query_stats14slow_query_logNtB4_15SlowQueryRecord15to_mysql_format
FNDA:0,_RNvXNtCsj3h6bZLfKUj_11query_stats14slow_query_logNtB2_15SlowQueryConfigNtNtCs8nPosuWgJFh_4core7default7Default7default
FNDA:0,_RNvXs1_NtCsj3h6bZLfKUj_11query_stats14slow_query_logNtB5_12SlowQueryLogNtNtCs8nPosuWgJFh_4core7default7Default7default
FNF:26
FNH:24
DA:24,2
DA:25,2
DA:26,2
DA:27,2
DA:28,2
DA:29,2
DA:30,2
DA:52,6
DA:53,6
DA:54,6
DA:55,6
DA:56,6
DA:58,6
DA:72,6
DA:85,9
DA:86,9
DA:87,9
DA:88,9
DA:89,9
DA:90,9
DA:91,9
DA:94,1
DA:95,1
DA:96,1
DA:99,7
DA:100,7
DA:101,2
DA:102,5
DA:104,5
DA:105,5
DA:106,5
DA:107,5
DA:108,5
DA:109,5
DA:110,5
DA:111,5
DA:114,5
DA:115,5
DA:116,5
DA:117,5
DA:118,5
DA:119,5
DA:120,5
DA:121,5
DA:124,5
DA:125,5
DA:126,7
DA:129,2
DA:130,2
DA:132,2
DA:133,0
DA:134,2
DA:137,0
DA:138,0
DA:140,0
DA:141,0
DA:142,0
DA:143,0
DA:144,0
DA:147,0
DA:148,0
DA:150,0
DA:152,0
DA:153,0
DA:155,0
DA:157,0
DA:158,0
DA:159,0
DA:160,0
DA:161,0
DA:162,0
DA:163,0
DA:164,0
DA:166,0
DA:170,0
DA:171,0
DA:172,0
DA:173,0
DA:174,0
DA:176,0
DA:177,2
DA:180,0
DA:181,0
DA:182,0
DA:183,0
DA:185,0
DA:187,0
DA:188,0
DA:189,0
DA:190,0
DA:191,0
DA:192,0
DA:193,0
DA:194,0
DA:195,0
DA:198,6
DA:199,6
DA:200,6
DA:203,1
DA:204,1
DA:205,1
DA:208,3
DA:209,3
DA:210,3
DA:213,1
DA:214,1
DA:215,1
DA:219,1
DA:220,1
DA:221,1
DA:230,1
DA:231,1
DA:232,1
DA:233,1
DA:234,1
DA:235,1
DA:238,1
DA:239,1
DA:240,1
DA:241,1
DA:242,1
DA:245,1
DA:246,1
DA:247,1
DA:248,1
DA:249,1
DA:250,1
DA:251,1
DA:252,1
DA:253,1
DA:256,1
DA:257,1
DA:258,1
DA:261,1
DA:263,1
DA:265,1
DA:266,1
DA:268,1
DA:269,1
DA:272,1
DA:273,1
DA:274,1
DA:276,1
DA:278,1
DA:279,1
DA:280,1
DA:281,1
DA:284,1
DA:285,1
DA:287,1
DA:288,1
DA:291,1
DA:292,1
DA:293,1
DA:294,1
DA:295,1
DA:296,1
DA:297,1
DA:298,1
DA:299,1
DA:300,1
DA:301,1
DA:303,1
DA:304,1
DA:305,1
DA:306,1
DA:307,1
DA:308,1
DA:309,1
DA:310,1
DA:313,1
DA:314,1
DA:315,1
DA:317,1
DA:318,1
DA:320,1
DA:321,1
DA:322,1
DA:325,1
DA:326,1
DA:327,1
DA:329,1
DA:330,1
DA:331,1
DA:334,1
DA:335,1
DA:336,1
DA:337,1
DA:340,1
DA:341,1
DA:342,1
DA:343,1
DA:344,1
DA:347,1
DA:348,1
DA:349,1
DA:350,1
DA:351,1
DA:352,1
DA:353,1
DA:354,1
DA:355,1
DA:356,1
DA:357,1
DA:358,1
DA:361,1
DA:362,1
DA:363,1
DA:366,1
DA:368,1
DA:369,1
DA:371,1
DA:372,1
DA:375,1
DA:376,1
DA:377,1
DA:379,1
DA:380,1
DA:381,1
DA:383,1
DA:384,1
DA:385,1
DA:386,1
DA:387,1
DA:389,1
DA:390,1
BRF:0
BRH:0
LF:227
LH:183
end_of_record