SF:/home/openclaw/dev/yinglichina8848/sqlrustgo/crates/unified-query/src/adapters/graph.rs
FN:203,_RNCNvNtNtNtCsf7QueNzY94l_23sqlrustgo_unified_query8adapters5graph5testss_27test_graph_adapter_traverse0B9_
FN:203,_RNvNtNtNtCsf7QueNzY94l_23sqlrustgo_unified_query8adapters5graph5testss_27test_graph_adapter_traverse
FN:75,_RNvMNtNtCsf7QueNzY94l_23sqlrustgo_unified_query8adapters5graphNtB2_12GraphAdapter12bfs_traverse
FN:121,_RNvMNtNtCsf7QueNzY94l_23sqlrustgo_unified_query8adapters5graphNtB2_12GraphAdapter12dfs_traverse
FN:50,_RNvMNtNtCsf7QueNzY94l_23sqlrustgo_unified_query8adapters5graphNtB2_12GraphAdapter19resolve_start_nodes
FN:14,_RNvMNtNtCsf7QueNzY94l_23sqlrustgo_unified_query8adapters5graphNtB2_12GraphAdapter3new
FN:20,_RNvMNtNtCsf7QueNzY94l_23sqlrustgo_unified_query8adapters5graphNtB2_12GraphAdapter7execute
FN:175,_RNvMNtNtCsf7QueNzY94l_23sqlrustgo_unified_query8adapters5graphNtB2_12GraphAdapter8add_edge
FN:170,_RNvMNtNtCsf7QueNzY94l_23sqlrustgo_unified_query8adapters5graphNtB2_12GraphAdapter8add_node
FN:187,_RNvMNtNtCsf7QueNzY94l_23sqlrustgo_unified_query8adapters5graphNtB2_12GraphAdapter8get_node
FN:193,_RNvXs_NtNtCsf7QueNzY94l_23sqlrustgo_unified_query8adapters5graphNtB4_12GraphAdapterNtNtCs8nPosuWgJFh_4core7default7Default7default
FN:107,_RNCNvMNtNtCsf7QueNzY94l_23sqlrustgo_unified_query8adapters5graphNtB4_12GraphAdapter12bfs_traverse0B8_
FN:156,_RNCNvMNtNtCsf7QueNzY94l_23sqlrustgo_unified_query8adapters5graphNtB4_12GraphAdapter12dfs_traverse0B8_
FN:53,_RNCNvMNtNtCsf7QueNzY94l_23sqlrustgo_unified_query8adapters5graphNtB4_12GraphAdapter19resolve_start_nodes0B8_
FN:24,_RNCNvMNtNtCsf7QueNzY94l_23sqlrustgo_unified_query8adapters5graphNtB4_12GraphAdapter7execute0B8_
FN:183,_RNCNvMNtNtCsf7QueNzY94l_23sqlrustgo_unified_query8adapters5graphNtB4_12GraphAdapter8add_edge0B8_
FNDA:1,_RNCNvNtNtNtCsf7QueNzY94l_23sqlrustgo_unified_query8adapters5graph5testss_27test_graph_adapter_traverse0B9_
FNDA:1,_RNvNtNtNtCsf7QueNzY94l_23sqlrustgo_unified_query8adapters5graph5testss_27test_graph_adapter_traverse
FNDA:0,_RNvMNtNtCsf7QueNzY94l_23sqlrustgo_unified_query8adapters5graphNtB2_12GraphAdapter12bfs_traverse
FNDA:1,_RNvMNtNtCsf7QueNzY94l_23sqlrustgo_unified_query8adapters5graphNtB2_12GraphAdapter12dfs_traverse
FNDA:2,_RNvMNtNtCsf7QueNzY94l_23sqlrustgo_unified_query8adapters5graphNtB2_12GraphAdapter19resolve_start_nodes
FNDA:4,_RNvMNtNtCsf7QueNzY94l_23sqlrustgo_unified_query8adapters5graphNtB2_12GraphAdapter3new
FNDA:2,_RNvMNtNtCsf7QueNzY94l_23sqlrustgo_unified_query8adapters5graphNtB2_12GraphAdapter7execute
FNDA:2,_RNvMNtNtCsf7QueNzY94l_23sqlrustgo_unified_query8adapters5graphNtB2_12GraphAdapter8add_edge
FNDA:3,_RNvMNtNtCsf7QueNzY94l_23sqlrustgo_unified_query8adapters5graphNtB2_12GraphAdapter8add_node
FNDA:0,_RNvMNtNtCsf7QueNzY94l_23sqlrustgo_unified_query8adapters5graphNtB2_12GraphAdapter8get_node
FNDA:0,_RNvXs_NtNtCsf7QueNzY94l_23sqlrustgo_unified_query8adapters5graphNtB4_12GraphAdapterNtNtCs8nPosuWgJFh_4core7default7Default7default
FNDA:0,_RNCNvMNtNtCsf7QueNzY94l_23sqlrustgo_unified_query8adapters5graphNtB4_12GraphAdapter12bfs_traverse0B8_
FNDA:5,_RNCNvMNtNtCsf7QueNzY94l_23sqlrustgo_unified_query8adapters5graphNtB4_12GraphAdapter12dfs_traverse0B8_
FNDA:2,_RNCNvMNtNtCsf7QueNzY94l_23sqlrustgo_unified_query8adapters5graphNtB4_12GraphAdapter19resolve_start_nodes0B8_
FNDA:2,_RNCNvMNtNtCsf7QueNzY94l_23sqlrustgo_unified_query8adapters5graphNtB4_12GraphAdapter7execute0B8_
FNDA:0,_RNCNvMNtNtCsf7QueNzY94l_23sqlrustgo_unified_query8adapters5graphNtB4_12GraphAdapter8add_edge0B8_
FNF:16
FNH:11
DA:14,4
DA:15,4
DA:16,4
DA:17,4
DA:18,4
DA:20,2
DA:21,2
DA:22,2
DA:23,2
DA:24,2
DA:26,2
DA:27,2
DA:29,0
DA:34,2
DA:36,2
DA:37,1
DA:38,1
DA:40,1
DA:41,1
DA:42,0
DA:43,1
DA:46,1
DA:47,2
DA:50,2
DA:51,2
DA:52,2
DA:53,2
DA:55,2
DA:56,1
DA:58,1
DA:59,1
DA:60,0
DA:61,1
DA:64,1
DA:65,1
DA:66,0
DA:67,1
DA:69,1
DA:70,2
DA:71,2
DA:72,2
DA:75,0
DA:78,0
DA:79,0
DA:80,0
DA:83,0
DA:84,0
DA:85,0
DA:86,0
DA:87,0
DA:90,0
DA:91,0
DA:92,0
DA:93,0
DA:96,0
DA:97,0
DA:98,0
DA:100,0
DA:101,0
DA:104,0
DA:106,0
DA:107,0
DA:108,0
DA:109,0
DA:112,0
DA:113,0
DA:117,0
DA:118,0
DA:121,1
DA:124,1
DA:125,1
DA:126,1
DA:129,1
DA:130,1
DA:131,1
DA:132,1
DA:135,4
DA:136,3
DA:137,0
DA:138,3
DA:140,3
DA:141,0
DA:142,3
DA:143,3
DA:146,3
DA:147,3
DA:148,2
DA:149,2
DA:150,2
DA:153,2
DA:155,2
DA:156,5
DA:157,2
DA:158,2
DA:161,2
DA:162,0
DA:166,1
DA:167,1
DA:170,3
DA:171,3
DA:172,3
DA:175,2
DA:176,2
DA:177,2
DA:178,2
DA:179,2
DA:180,2
DA:181,2
DA:182,2
DA:183,2
DA:184,2
DA:187,0
DA:188,0
DA:189,0
DA:193,0
DA:194,0
DA:195,0
DA:203,1
DA:204,1
DA:207,1
DA:208,1
DA:209,1
DA:211,1
DA:212,1
DA:214,1
DA:215,1
DA:216,1
DA:217,1
DA:218,1
DA:219,1
DA:220,1
DA:221,1
DA:222,1
DA:223,1
DA:224,1
DA:225,1
DA:226,1
DA:227,1
DA:229,1
DA:230,1
DA:231,1
DA:232,1
DA:233,1
DA:234,1
DA:235,1
DA:236,1
DA:238,1
DA:239,1
DA:241,1
DA:242,1
DA:243,1
BRF:0
BRH:0
LF:158
LH:116
end_of_record
SF:/home/openclaw/dev/yinglichina8848/sqlrustgo/crates/unified-query/src/adapters/storage.rs
FN:179,_RNvNtNtNtCsf7QueNzY94l_23sqlrustgo_unified_query8adapters7storage5testss_25test_storage_adapter_scan
FN:132,_RNvXs_NtNtCsf7QueNzY94l_23sqlrustgo_unified_query8adapters7storageNtB4_14StorageAdapterNtNtCs8nPosuWgJFh_4core7default7Default7default
FN:78,_RNvMNtNtCsf7QueNzY94l_23sqlrustgo_unified_query8adapters7storageNtB2_14StorageAdapter24extract_table_from_query
FN:14,_RNvMNtNtCsf7QueNzY94l_23sqlrustgo_unified_query8adapters7storageNtB2_14StorageAdapter3new
FN:20,_RNvMNtNtCsf7QueNzY94l_23sqlrustgo_unified_query8adapters7storageNtB2_14StorageAdapter7execute
FN:104,_RNvMNtNtCsf7QueNzY94l_23sqlrustgo_unified_query8adapters7storageNtB2_14StorageAdapter9add_table
FN:138,_RNvNtNtCsf7QueNzY94l_23sqlrustgo_unified_query8adapters7storage17sql_value_to_json
FN:40,_RNCNCNvMNtNtCsf7QueNzY94l_23sqlrustgo_unified_query8adapters7storageNtB6_14StorageAdapter7execute00Ba_
FN:84,_RNCNvMNtNtCsf7QueNzY94l_23sqlrustgo_unified_query8adapters7storageNtB4_14StorageAdapter24extract_table_from_query0B8_
FN:93,_RNCNvMNtNtCsf7QueNzY94l_23sqlrustgo_unified_query8adapters7storageNtB4_14StorageAdapter24extract_table_from_querys0_0B8_
FN:89,_RNCNvMNtNtCsf7QueNzY94l_23sqlrustgo_unified_query8adapters7storageNtB4_14StorageAdapter24extract_table_from_querys_0B8_
FN:24,_RNCNvMNtNtCsf7QueNzY94l_23sqlrustgo_unified_query8adapters7storageNtB4_14StorageAdapter7execute0B8_
FN:116,_RNCNvMNtNtCsf7QueNzY94l_23sqlrustgo_unified_query8adapters7storageNtB4_14StorageAdapter9add_table0B8_
FN:179,_RNCNvNtNtNtCsf7QueNzY94l_23sqlrustgo_unified_query8adapters7storage5testss_25test_storage_adapter_scan0B9_
FNDA:1,_RNvNtNtNtCsf7QueNzY94l_23sqlrustgo_unified_query8adapters7storage5testss_25test_storage_adapter_scan
FNDA:0,_RNvXs_NtNtCsf7QueNzY94l_23sqlrustgo_unified_query8adapters7storageNtB4_14StorageAdapterNtNtCs8nPosuWgJFh_4core7default7Default7default
FNDA:4,_RNvMNtNtCsf7QueNzY94l_23sqlrustgo_unified_query8adapters7storageNtB2_14StorageAdapter24extract_table_from_query
FNDA:4,_RNvMNtNtCsf7QueNzY94l_23sqlrustgo_unified_query8adapters7storageNtB2_14StorageAdapter3new
FNDA:4,_RNvMNtNtCsf7QueNzY94l_23sqlrustgo_unified_query8adapters7storageNtB2_14StorageAdapter7execute
FNDA:1,_RNvMNtNtCsf7QueNzY94l_23sqlrustgo_unified_query8adapters7storageNtB2_14StorageAdapter9add_table
FNDA:4,_RNvNtNtCsf7QueNzY94l_23sqlrustgo_unified_query8adapters7storage17sql_value_to_json
FNDA:2,_RNCNCNvMNtNtCsf7QueNzY94l_23sqlrustgo_unified_query8adapters7storageNtB6_14StorageAdapter7execute00Ba_
FNDA:4,_RNCNvMNtNtCsf7QueNzY94l_23sqlrustgo_unified_query8adapters7storageNtB4_14StorageAdapter24extract_table_from_query0B8_
FNDA:0,_RNCNvMNtNtCsf7QueNzY94l_23sqlrustgo_unified_query8adapters7storageNtB4_14StorageAdapter24extract_table_from_querys0_0B8_
FNDA:0,_RNCNvMNtNtCsf7QueNzY94l_23sqlrustgo_unified_query8adapters7storageNtB4_14StorageAdapter24extract_table_from_querys_0B8_
FNDA:4,_RNCNvMNtNtCsf7QueNzY94l_23sqlrustgo_unified_query8adapters7storageNtB4_14StorageAdapter7execute0B8_
FNDA:2,_RNCNvMNtNtCsf7QueNzY94l_23sqlrustgo_unified_query8adapters7storageNtB4_14StorageAdapter9add_table0B8_
FNDA:1,_RNCNvNtNtNtCsf7QueNzY94l_23sqlrustgo_unified_query8adapters7storage5testss_25test_storage_adapter_scan0B9_
FNF:14
FNH:11
DA:14,4
DA:15,4
DA:16,4
DA:17,4
DA:18,4
DA:20,4
DA:21,4
DA:22,4
DA:23,4
DA:24,4
DA:25,4
DA:29,4
DA:31,4
DA:32,2
DA:33,2
DA:34,2
DA:36,2
DA:37,2
DA:38,2
DA:39,2
DA:40,2
DA:41,2
DA:43,2
DA:45,1
DA:47,1
DA:50,0
DA:55,2
DA:56,2
DA:58,2
DA:59,0
DA:60,0
DA:62,0
DA:63,0
DA:64,0
DA:65,0
DA:68,2
DA:69,2
DA:71,0
DA:75,4
DA:78,4
DA:79,4
DA:80,4
DA:83,4
DA:84,4
DA:85,2
DA:88,2
DA:89,0
DA:90,0
DA:92,0
DA:93,0
DA:94,0
DA:96,0
DA:97,0
DA:98,2
DA:100,2
DA:101,4
DA:104,1
DA:105,1
DA:106,1
DA:107,1
DA:108,1
DA:109,1
DA:112,1
DA:113,1
DA:114,1
DA:115,1
DA:116,2
DA:117,1
DA:118,1
DA:122,1
DA:125,2
DA:126,2
DA:127,2
DA:128,1
DA:132,0
DA:133,0
DA:134,0
DA:138,4
DA:139,4
DA:140,0
DA:141,0
DA:142,2
DA:143,0
DA:144,0
DA:145,0
DA:146,0
DA:148,0
DA:149,0
DA:150,0
DA:151,0
DA:152,0
DA:153,0
DA:155,2
DA:156,0
DA:157,0
DA:159,0
DA:161,0
DA:163,0
DA:165,0
DA:166,0
DA:167,0
DA:168,0
DA:171,4
DA:179,1
DA:180,1
DA:183,1
DA:184,1
DA:185,1
DA:186,1
DA:187,1
DA:188,1
DA:192,1
DA:193,1
DA:194,1
DA:195,1
DA:196,1
DA:197,1
DA:198,1
DA:199,1
DA:200,1
DA:201,1
DA:203,1
DA:204,1
DA:205,1
DA:206,1
DA:207,1
DA:208,1
DA:209,1
DA:210,1
DA:212,1
DA:213,1
DA:215,1
DA:216,1
DA:217,1
BRF:0
BRH:0
LF:142
LH:101
end_of_record
SF:/home/openclaw/dev/yinglichina8848/sqlrustgo/crates/unified-query/src/adapters/vector.rs
FN:115,_RNvMNtNtCsf7QueNzY94l_23sqlrustgo_unified_query8adapters6vectorNtB2_13VectorAdapter11build_index
FN:78,_RNvMNtNtCsf7QueNzY94l_23sqlrustgo_unified_query8adapters6vectorNtB2_13VectorAdapter17extract_embedding
FN:12,_RNvMNtNtCsf7QueNzY94l_23sqlrustgo_unified_query8adapters6vectorNtB2_13VectorAdapter3new
FN:110,_RNvMNtNtCsf7QueNzY94l_23sqlrustgo_unified_query8adapters6vectorNtB2_13VectorAdapter6insert
FN:26,_RNvMNtNtCsf7QueNzY94l_23sqlrustgo_unified_query8adapters6vectorNtB2_13VectorAdapter7execute
FN:129,_RNCNvMNtNtCsf7QueNzY94l_23sqlrustgo_unified_query8adapters6vectorNtB4_13VectorAdapter7get_all0B8_
FN:20,_RNvMNtNtCsf7QueNzY94l_23sqlrustgo_unified_query8adapters6vectorNtB2_13VectorAdapter11with_metric
FN:125,_RNvMNtNtCsf7QueNzY94l_23sqlrustgo_unified_query8adapters6vectorNtB2_13VectorAdapter7get_all
FN:120,_RNvMNtNtCsf7QueNzY94l_23sqlrustgo_unified_query8adapters6vectorNtB2_13VectorAdapter9dimension
FN:135,_RNvXs_NtNtCsf7QueNzY94l_23sqlrustgo_unified_query8adapters6vectorNtB4_13VectorAdapterNtNtCs8nPosuWgJFh_4core7default7Default7default
FN:145,_RNCNvNtNtNtCsf7QueNzY94l_23sqlrustgo_unified_query8adapters6vector5testss_26test_vector_adapter_search0B9_
FN:145,_RNvNtNtNtCsf7QueNzY94l_23sqlrustgo_unified_query8adapters6vector5testss_26test_vector_adapter_search
FN:57,_RNCNCNvMNtNtCsf7QueNzY94l_23sqlrustgo_unified_query8adapters6vectorNtB6_13VectorAdapter7execute00Ba_
FN:116,_RNCNvMNtNtCsf7QueNzY94l_23sqlrustgo_unified_query8adapters6vectorNtB4_13VectorAdapter11build_index0B8_
FN:99,_RNCNvMNtNtCsf7QueNzY94l_23sqlrustgo_unified_query8adapters6vectorNtB4_13VectorAdapter17extract_embedding0B8_
FN:111,_RNCNvMNtNtCsf7QueNzY94l_23sqlrustgo_unified_query8adapters6vectorNtB4_13VectorAdapter6insert0B8_
FN:30,_RNCNvMNtNtCsf7QueNzY94l_23sqlrustgo_unified_query8adapters6vectorNtB4_13VectorAdapter7execute0B8_
FNDA:1,_RNvMNtNtCsf7QueNzY94l_23sqlrustgo_unified_query8adapters6vectorNtB2_13VectorAdapter11build_index
FNDA:2,_RNvMNtNtCsf7QueNzY94l_23sqlrustgo_unified_query8adapters6vectorNtB2_13VectorAdapter17extract_embedding
FNDA:4,_RNvMNtNtCsf7QueNzY94l_23sqlrustgo_unified_query8adapters6vectorNtB2_13VectorAdapter3new
FNDA:3,_RNvMNtNtCsf7QueNzY94l_23sqlrustgo_unified_query8adapters6vectorNtB2_13VectorAdapter6insert
FNDA:2,_RNvMNtNtCsf7QueNzY94l_23sqlrustgo_unified_query8adapters6vectorNtB2_13VectorAdapter7execute
FNDA:0,_RNCNvMNtNtCsf7QueNzY94l_23sqlrustgo_unified_query8adapters6vectorNtB4_13VectorAdapter7get_all0B8_
FNDA:0,_RNvMNtNtCsf7QueNzY94l_23sqlrustgo_unified_query8adapters6vectorNtB2_13VectorAdapter11with_metric
FNDA:0,_RNvMNtNtCsf7QueNzY94l_23sqlrustgo_unified_query8adapters6vectorNtB2_13VectorAdapter7get_all
FNDA:0,_RNvMNtNtCsf7QueNzY94l_23sqlrustgo_unified_query8adapters6vectorNtB2_13VectorAdapter9dimension
FNDA:0,_RNvXs_NtNtCsf7QueNzY94l_23sqlrustgo_unified_query8adapters6vectorNtB4_13VectorAdapterNtNtCs8nPosuWgJFh_4core7default7Default7default
FNDA:1,_RNCNvNtNtNtCsf7QueNzY94l_23sqlrustgo_unified_query8adapters6vector5testss_26test_vector_adapter_search0B9_
FNDA:1,_RNvNtNtNtCsf7QueNzY94l_23sqlrustgo_unified_query8adapters6vector5testss_26test_vector_adapter_search
FNDA:2,_RNCNCNvMNtNtCsf7QueNzY94l_23sqlrustgo_unified_query8adapters6vectorNtB6_13VectorAdapter7execute00Ba_
FNDA:0,_RNCNvMNtNtCsf7QueNzY94l_23sqlrustgo_unified_query8adapters6vectorNtB4_13VectorAdapter11build_index0B8_
FNDA:3,_RNCNvMNtNtCsf7QueNzY94l_23sqlrustgo_unified_query8adapters6vectorNtB4_13VectorAdapter17extract_embedding0B8_
FNDA:0,_RNCNvMNtNtCsf7QueNzY94l_23sqlrustgo_unified_query8adapters6vectorNtB4_13VectorAdapter6insert0B8_
FNDA:2,_RNCNvMNtNtCsf7QueNzY94l_23sqlrustgo_unified_query8adapters6vectorNtB4_13VectorAdapter7execute0B8_
FNF:17
FNH:10
DA:12,4
DA:14,4
DA:15,4
DA:16,4
DA:17,4
DA:20,0
DA:21,0
DA:22,0
DA:23,0
DA:24,0
DA:26,2
DA:27,2
DA:28,2
DA:29,2
DA:30,2
DA:32,2
DA:33,2
DA:37,0
DA:42,2
DA:44,2
DA:45,1
DA:46,1
DA:47,1
DA:49,0
DA:52,1
DA:53,1
DA:54,1
DA:55,1
DA:56,1
DA:57,2
DA:58,2
DA:59,2
DA:60,2
DA:61,2
DA:63,2
DA:64,1
DA:66,1
DA:68,0
DA:71,1
DA:73,2
DA:78,2
DA:79,2
DA:80,2
DA:81,2
DA:82,2
DA:85,2
DA:86,2
DA:87,1
DA:88,1
DA:90,1
DA:91,1
DA:93,10
DA:94,10
DA:95,10
DA:96,10
DA:99,3
DA:100,1
DA:101,3
DA:102,3
DA:103,3
DA:104,0
DA:106,1
DA:107,2
DA:110,3
DA:111,3
DA:112,3
DA:115,1
DA:116,1
DA:117,1
DA:120,0
DA:121,0
DA:122,0
DA:125,0
DA:126,0
DA:127,0
DA:128,0
DA:129,0
DA:130,0
DA:131,0
DA:135,0
DA:136,0
DA:137,0
DA:145,1
DA:146,1
DA:149,1
DA:150,1
DA:151,1
DA:152,1
DA:154,1
DA:155,1
DA:156,1
DA:157,1
DA:158,1
DA:159,1
DA:160,1
DA:161,1
DA:162,1
DA:163,1
DA:164,1
DA:165,1
DA:166,1
DA:167,1
DA:169,1
DA:170,1
DA:171,1
DA:172,1
DA:173,1
DA:174,1
DA:175,1
DA:176,1
DA:178,1
DA:179,1
DA:181,1
DA:182,1
DA:183,1
BRF:0
BRH:0
LF:122
LH:97
end_of_record
SF:/home/openclaw/dev/yinglichina8848/sqlrustgo/crates/unified-query/src/api.rs
FN:25,_RNvXNtCsf7QueNzY94l_23sqlrustgo_unified_query3apiNtB2_7WeightsNtNtCs8nPosuWgJFh_4core7default7Default7default
FN:152,_RNvNtNtCsf7QueNzY94l_23sqlrustgo_unified_query3api5testss_20test_weights_default
FN:160,_RNvNtNtCsf7QueNzY94l_23sqlrustgo_unified_query3api5testss_24test_query_mode_variants
FN:136,_RNvNtNtCsf7QueNzY94l_23sqlrustgo_unified_query3api5testss_34test_unified_query_request_default
FNDA:10,_RNvXNtCsf7QueNzY94l_23sqlrustgo_unified_query3apiNtB2_7WeightsNtNtCs8nPosuWgJFh_4core7default7Default7default
FNDA:1,_RNvNtNtCsf7QueNzY94l_23sqlrustgo_unified_query3api5testss_20test_weights_default
FNDA:1,_RNvNtNtCsf7QueNzY94l_23sqlrustgo_unified_query3api5testss_24test_query_mode_variants
FNDA:1,_RNvNtNtCsf7QueNzY94l_23sqlrustgo_unified_query3api5testss_34test_unified_query_request_default
FNF:4
FNH:4
DA:25,10
DA:26,10
DA:27,10
DA:28,10
DA:29,10
DA:30,10
DA:31,10
DA:136,1
DA:137,1
DA:138,1
DA:139,1
DA:140,1
DA:141,1
DA:142,1
DA:143,1
DA:144,1
DA:145,1
DA:146,1
DA:147,1
DA:148,1
DA:149,1
DA:152,1
DA:153,1
DA:154,1
DA:155,1
DA:156,1
DA:157,1
DA:160,1
DA:161,1
DA:162,1
DA:163,1
DA:164,1
DA:165,1
DA:166,1
DA:167,1
DA:168,1
DA:170,1
DA:171,1
BRF:0
BRH:0
LF:38
LH:38
end_of_record
SF:/home/openclaw/dev/yinglichina8848/sqlrustgo/crates/unified-query/src/cache.rs
FN:70,_RNvNtNtCsf7QueNzY94l_23sqlrustgo_unified_query5cache5testss_15test_cache_miss
FN:52,_RNvNtNtCsf7QueNzY94l_23sqlrustgo_unified_query5cache5testss_16test_cache_basic
FN:59,_RNvNtNtCsf7QueNzY94l_23sqlrustgo_unified_query5cache5testss_23test_cache_lru_eviction
FN:41,_RNvMNtCsf7QueNzY94l_23sqlrustgo_unified_query5cacheNtB2_10QueryCache5clear
FN:20,_RNvMNtCsf7QueNzY94l_23sqlrustgo_unified_query5cacheNtB2_10QueryCache3get
FN:12,_RNvMNtCsf7QueNzY94l_23sqlrustgo_unified_query5cacheNtB2_10QueryCache3new
FN:25,_RNvMNtCsf7QueNzY94l_23sqlrustgo_unified_query5cacheNtB2_10QueryCache6insert
FNDA:1,_RNvNtNtCsf7QueNzY94l_23sqlrustgo_unified_query5cache5testss_15test_cache_miss
FNDA:1,_RNvNtNtCsf7QueNzY94l_23sqlrustgo_unified_query5cache5testss_16test_cache_basic
FNDA:1,_RNvNtNtCsf7QueNzY94l_23sqlrustgo_unified_query5cache5testss_23test_cache_lru_eviction
FNDA:0,_RNvMNtCsf7QueNzY94l_23sqlrustgo_unified_query5cacheNtB2_10QueryCache5clear
FNDA:5,_RNvMNtCsf7QueNzY94l_23sqlrustgo_unified_query5cacheNtB2_10QueryCache3get
FNDA:5,_RNvMNtCsf7QueNzY94l_23sqlrustgo_unified_query5cacheNtB2_10QueryCache3new
FNDA:4,_RNvMNtCsf7QueNzY94l_23sqlrustgo_unified_query5cacheNtB2_10QueryCache6insert
FNF:7
FNH:6
DA:12,5
DA:13,5
DA:14,5
DA:15,5
DA:16,5
DA:17,5
DA:18,5
DA:20,5
DA:21,5
DA:22,5
DA:23,5
DA:25,4
DA:26,4
DA:27,4
DA:29,4
DA:31,1
DA:32,1
DA:33,1
DA:34,1
DA:35,3
DA:37,4
DA:38,4
DA:39,4
DA:41,0
DA:42,0
DA:43,0
DA:44,0
DA:52,1
DA:53,1
DA:54,1
DA:55,1
DA:56,1
DA:59,1
DA:60,1
DA:61,1
DA:62,1
DA:63,1
DA:64,1
DA:65,1
DA:66,1
DA:67,1
DA:70,1
DA:71,1
DA:72,1
DA:73,1
BRF:0
BRH:0
LF:45
LH:41
end_of_record
SF:/home/openclaw/dev/yinglichina8848/sqlrustgo/crates/unified-query/src/engine.rs
FN:21,_RNvMNtCsf7QueNzY94l_23sqlrustgo_unified_query6engineNtB2_18UnifiedQueryEngine3new
FN:32,_RNvMNtCsf7QueNzY94l_23sqlrustgo_unified_query6engineNtB2_18UnifiedQueryEngine7execute
FN:32,_RNCNvMNtCsf7QueNzY94l_23sqlrustgo_unified_query6engineNtB4_18UnifiedQueryEngine7execute0B6_
FN:90,_RNCNvMNtCsf7QueNzY94l_23sqlrustgo_unified_query6engineNtB4_18UnifiedQueryEngine14execute_cached0B6_
FN:90,_RNvMNtCsf7QueNzY94l_23sqlrustgo_unified_query6engineNtB2_18UnifiedQueryEngine14execute_cached
FN:109,_RNvMNtCsf7QueNzY94l_23sqlrustgo_unified_query6engineNtB2_18UnifiedQueryEngine18generate_cache_key
FN:120,_RNvMNtCsf7QueNzY94l_23sqlrustgo_unified_query6engineNtB2_18UnifiedQueryEngine5stats
FN:126,_RNvXs_NtCsf7QueNzY94l_23sqlrustgo_unified_query6engineNtB4_18UnifiedQueryEngineNtNtCs8nPosuWgJFh_4core7default7Default7default
FN:155,_RNvNtNtCsf7QueNzY94l_23sqlrustgo_unified_query6engine5testss_27test_engine_execute_unified
FN:136,_RNvNtNtCsf7QueNzY94l_23sqlrustgo_unified_query6engine5testss_28test_engine_execute_sql_only
FN:155,_RNCNvNtNtCsf7QueNzY94l_23sqlrustgo_unified_query6engine5testss_27test_engine_execute_unified0B7_
FN:136,_RNCNvNtNtCsf7QueNzY94l_23sqlrustgo_unified_query6engine5testss_28test_engine_execute_sql_only0B7_
FNDA:2,_RNvMNtCsf7QueNzY94l_23sqlrustgo_unified_query6engineNtB2_18UnifiedQueryEngine3new
FNDA:2,_RNvMNtCsf7QueNzY94l_23sqlrustgo_unified_query6engineNtB2_18UnifiedQueryEngine7execute
FNDA:2,_RNCNvMNtCsf7QueNzY94l_23sqlrustgo_unified_query6engineNtB4_18UnifiedQueryEngine7execute0B6_
FNDA:0,_RNCNvMNtCsf7QueNzY94l_23sqlrustgo_unified_query6engineNtB4_18UnifiedQueryEngine14execute_cached0B6_
FNDA:0,_RNvMNtCsf7QueNzY94l_23sqlrustgo_unified_query6engineNtB2_18UnifiedQueryEngine14execute_cached
FNDA:0,_RNvMNtCsf7QueNzY94l_23sqlrustgo_unified_query6engineNtB2_18UnifiedQueryEngine18generate_cache_key
FNDA:0,_RNvMNtCsf7QueNzY94l_23sqlrustgo_unified_query6engineNtB2_18UnifiedQueryEngine5stats
FNDA:0,_RNvXs_NtCsf7QueNzY94l_23sqlrustgo_unified_query6engineNtB4_18UnifiedQueryEngineNtNtCs8nPosuWgJFh_4core7default7Default7default
FNDA:1,_RNvNtNtCsf7QueNzY94l_23sqlrustgo_unified_query6engine5testss_27test_engine_execute_unified
FNDA:1,_RNvNtNtCsf7QueNzY94l_23sqlrustgo_unified_query6engine5testss_28test_engine_execute_sql_only
FNDA:1,_RNCNvNtNtCsf7QueNzY94l_23sqlrustgo_unified_query6engine5testss_27test_engine_execute_unified0B7_
FNDA:1,_RNCNvNtNtCsf7QueNzY94l_23sqlrustgo_unified_query6engine5testss_28test_engine_execute_sql_only0B7_
FNF:12
FNH:7
DA:21,2
DA:22,2
DA:23,2
DA:24,2
DA:25,2
DA:26,2
DA:27,2
DA:28,2
DA:29,2
DA:32,2
DA:33,2
DA:36,2
DA:39,2
DA:42,2
DA:44,2
DA:47,2
DA:48,2
DA:49,2
DA:50,2
DA:51,2
DA:52,2
DA:53,2
DA:54,2
DA:55,2
DA:56,2
DA:57,2
DA:58,2
DA:59,2
DA:60,2
DA:61,2
DA:62,2
DA:63,2
DA:64,2
DA:65,2
DA:66,2
DA:67,2
DA:68,2
DA:69,2
DA:70,2
DA:71,2
DA:72,2
DA:73,2
DA:74,2
DA:75,2
DA:76,2
DA:77,2
DA:78,2
DA:79,2
DA:80,2
DA:81,2
DA:82,2
DA:83,2
DA:84,2
DA:85,2
DA:86,2
DA:87,2
DA:90,0
DA:92,0
DA:95,0
DA:96,0
DA:97,0
DA:98,0
DA:100,0
DA:105,0
DA:106,0
DA:109,0
DA:113,0
DA:114,0
DA:115,0
DA:116,0
DA:120,0
DA:121,0
DA:122,0
DA:126,0
DA:127,0
DA:128,0
DA:136,1
DA:137,1
DA:138,1
DA:139,1
DA:140,1
DA:141,1
DA:142,1
DA:143,1
DA:144,1
DA:145,1
DA:146,1
DA:147,1
DA:149,1
DA:150,1
DA:151,1
DA:152,1
DA:155,1
DA:156,1
DA:157,1
DA:158,1
DA:159,1
DA:160,1
DA:161,1
DA:162,1
DA:163,1
DA:164,1
DA:165,1
DA:166,1
DA:167,1
DA:168,1
DA:169,1
DA:170,1
DA:171,1
DA:172,1
DA:173,1
DA:174,1
DA:176,1
DA:177,1
DA:178,1
DA:179,1
BRF:0
BRH:0
LF:122
LH:101
end_of_record
SF:/home/openclaw/dev/yinglichina8848/sqlrustgo/crates/unified-query/src/error.rs
FN:24,_RNvMNtCsf7QueNzY94l_23sqlrustgo_unified_query5errorINtB2_11QueryResultINtNtCsj0gLuUEfogP_5alloc3vec3VecIB17_NtNtCskKMjfITxyFS_10serde_json5value5ValueEEE5is_okB4_
FN:42,_RNvMNtCsf7QueNzY94l_23sqlrustgo_unified_query5errorINtB2_11QueryResultINtNtCsj0gLuUEfogP_5alloc3vec3VecIB17_NtNtCskKMjfITxyFS_10serde_json5value5ValueEEE6unwrapB4_
FN:24,_RNvMNtCsf7QueNzY94l_23sqlrustgo_unified_query5errorINtB2_11QueryResultINtNtCsj0gLuUEfogP_5alloc3vec3VecNtNtB4_3api11GraphResultEE5is_okB4_
FN:42,_RNvMNtCsf7QueNzY94l_23sqlrustgo_unified_query5errorINtB2_11QueryResultINtNtCsj0gLuUEfogP_5alloc3vec3VecNtNtB4_3api11GraphResultEE6unwrapB4_
FN:24,_RNvMNtCsf7QueNzY94l_23sqlrustgo_unified_query5errorINtB2_11QueryResultINtNtCsj0gLuUEfogP_5alloc3vec3VecNtNtB4_3api12VectorResultEE5is_okB4_
FN:42,_RNvMNtCsf7QueNzY94l_23sqlrustgo_unified_query5errorINtB2_11QueryResultINtNtCsj0gLuUEfogP_5alloc3vec3VecNtNtB4_3api12VectorResultEE6unwrapB4_
FN:28,_RNvMNtCsf7QueNzY94l_23sqlrustgo_unified_query5errorINtB2_11QueryResultlE10is_partialB4_
FN:32,_RNvMNtCsf7QueNzY94l_23sqlrustgo_unified_query5errorINtB2_11QueryResultlE17unwrap_or_defaultB4_
FN:24,_RNvMNtCsf7QueNzY94l_23sqlrustgo_unified_query5errorINtB2_11QueryResultlE5is_okB4_
FN:50,_RNvMNtCsf7QueNzY94l_23sqlrustgo_unified_query5errorINtB2_11QueryResultpE6expectB4_
FN:64,_RNvNtNtCsf7QueNzY94l_23sqlrustgo_unified_query5error5testss_20test_query_result_ok
FN:78,_RNvNtNtCsf7QueNzY94l_23sqlrustgo_unified_query5error5testss_21test_query_result_err
FN:71,_RNvNtNtCsf7QueNzY94l_23sqlrustgo_unified_query5error5testss_25test_query_result_partial
FNDA:1,_RNvMNtCsf7QueNzY94l_23sqlrustgo_unified_query5errorINtB2_11QueryResultINtNtCsj0gLuUEfogP_5alloc3vec3VecIB17_NtNtCskKMjfITxyFS_10serde_json5value5ValueEEE5is_okB4_
FNDA:1,_RNvMNtCsf7QueNzY94l_23sqlrustgo_unified_query5errorINtB2_11QueryResultINtNtCsj0gLuUEfogP_5alloc3vec3VecIB17_NtNtCskKMjfITxyFS_10serde_json5value5ValueEEE6unwrapB4_
FNDA:1,_RNvMNtCsf7QueNzY94l_23sqlrustgo_unified_query5errorINtB2_11QueryResultINtNtCsj0gLuUEfogP_5alloc3vec3VecNtNtB4_3api11GraphResultEE5is_okB4_
FNDA:1,_RNvMNtCsf7QueNzY94l_23sqlrustgo_unified_query5errorINtB2_11QueryResultINtNtCsj0gLuUEfogP_5alloc3vec3VecNtNtB4_3api11GraphResultEE6unwrapB4_
FNDA:1,_RNvMNtCsf7QueNzY94l_23sqlrustgo_unified_query5errorINtB2_11QueryResultINtNtCsj0gLuUEfogP_5alloc3vec3VecNtNtB4_3api12VectorResultEE5is_okB4_
FNDA:1,_RNvMNtCsf7QueNzY94l_23sqlrustgo_unified_query5errorINtB2_11QueryResultINtNtCsj0gLuUEfogP_5alloc3vec3VecNtNtB4_3api12VectorResultEE6unwrapB4_
FNDA:2,_RNvMNtCsf7QueNzY94l_23sqlrustgo_unified_query5errorINtB2_11QueryResultlE10is_partialB4_
FNDA:2,_RNvMNtCsf7QueNzY94l_23sqlrustgo_unified_query5errorINtB2_11QueryResultlE17unwrap_or_defaultB4_
FNDA:2,_RNvMNtCsf7QueNzY94l_23sqlrustgo_unified_query5errorINtB2_11QueryResultlE5is_okB4_
FNDA:0,_RNvMNtCsf7QueNzY94l_23sqlrustgo_unified_query5errorINtB2_11QueryResultpE6expectB4_
FNDA:1,_RNvNtNtCsf7QueNzY94l_23sqlrustgo_unified_query5error5testss_20test_query_result_ok
FNDA:1,_RNvNtNtCsf7QueNzY94l_23sqlrustgo_unified_query5error5testss_21test_query_result_err
FNDA:1,_RNvNtNtCsf7QueNzY94l_23sqlrustgo_unified_query5error5testss_25test_query_result_partial
FNF:8
FNH:7
DA:24,5
DA:25,5
DA:26,5
DA:28,2
DA:29,2
DA:30,2
DA:32,2
DA:33,2
DA:34,2
DA:36,2
DA:37,1
DA:38,1
DA:40,2
DA:42,3
DA:43,3
DA:44,3
DA:45,0
DA:46,0
DA:48,3
DA:50,0
DA:51,0
DA:52,0
DA:53,0
DA:54,0
DA:56,0
DA:64,1
DA:65,1
DA:66,1
DA:67,1
DA:68,1
DA:71,1
DA:72,1
DA:73,1
DA:74,1
DA:75,1
DA:78,1
DA:79,1
DA:80,1
DA:81,1
DA:82,1
BRF:0
BRH:0
LF:40
LH:32
end_of_record
SF:/home/openclaw/dev/yinglichina8848/sqlrustgo/crates/unified-query/src/executor.rs
FN:106,_RNvNtNtCsf7QueNzY94l_23sqlrustgo_unified_query8executor5testss_31test_parallel_executor_sql_only
FN:96,_RNvXs_NtCsf7QueNzY94l_23sqlrustgo_unified_query8executorNtB4_16ParallelExecutorNtNtCs8nPosuWgJFh_4core7default7Default7default
FN:52,_RNCNCNvMNtCsf7QueNzY94l_23sqlrustgo_unified_query8executorNtB6_16ParallelExecutor7execute00B8_
FN:66,_RNCNCNvMNtCsf7QueNzY94l_23sqlrustgo_unified_query8executorNtB6_16ParallelExecutor7execute0s0_0B8_
FN:59,_RNCNCNvMNtCsf7QueNzY94l_23sqlrustgo_unified_query8executorNtB6_16ParallelExecutor7execute0s_0B8_
FN:32,_RNCNvMNtCsf7QueNzY94l_23sqlrustgo_unified_query8executorNtB4_16ParallelExecutor7execute0B6_
FN:20,_RNvMNtCsf7QueNzY94l_23sqlrustgo_unified_query8executorNtB2_16ParallelExecutor3new
FN:28,_RNvMNtCsf7QueNzY94l_23sqlrustgo_unified_query8executorNtB2_16ParallelExecutor7execute
FN:106,_RNCNvNtNtCsf7QueNzY94l_23sqlrustgo_unified_query8executor5testss_31test_parallel_executor_sql_only0B7_
FNDA:1,_RNvNtNtCsf7QueNzY94l_23sqlrustgo_unified_query8executor5testss_31test_parallel_executor_sql_only
FNDA:0,_RNvXs_NtCsf7QueNzY94l_23sqlrustgo_unified_query8executorNtB4_16ParallelExecutorNtNtCs8nPosuWgJFh_4core7default7Default7default
FNDA:3,_RNCNCNvMNtCsf7QueNzY94l_23sqlrustgo_unified_query8executorNtB6_16ParallelExecutor7execute00B8_
FNDA:3,_RNCNCNvMNtCsf7QueNzY94l_23sqlrustgo_unified_query8executorNtB6_16ParallelExecutor7execute0s0_0B8_
FNDA:3,_RNCNCNvMNtCsf7QueNzY94l_23sqlrustgo_unified_query8executorNtB6_16ParallelExecutor7execute0s_0B8_
FNDA:3,_RNCNvMNtCsf7QueNzY94l_23sqlrustgo_unified_query8executorNtB4_16ParallelExecutor7execute0B6_
FNDA:3,_RNvMNtCsf7QueNzY94l_23sqlrustgo_unified_query8executorNtB2_16ParallelExecutor3new
FNDA:3,_RNvMNtCsf7QueNzY94l_23sqlrustgo_unified_query8executorNtB2_16ParallelExecutor7execute
FNDA:1,_RNCNvNtNtCsf7QueNzY94l_23sqlrustgo_unified_query8executor5testss_31test_parallel_executor_sql_only0B7_
FNF:9
FNH:8
DA:20,3
DA:21,3
DA:22,3
DA:23,3
DA:24,3
DA:25,3
DA:26,3
DA:28,3
DA:29,3
DA:30,3
DA:31,3
DA:32,3
DA:33,3
DA:34,3
DA:36,0
DA:39,3
DA:40,1
DA:42,2
DA:45,3
DA:46,1
DA:48,2
DA:51,3
DA:52,3
DA:53,3
DA:54,3
DA:56,0
DA:58,3
DA:59,3
DA:60,3
DA:61,1
DA:63,2
DA:65,3
DA:66,3
DA:67,3
DA:68,1
DA:70,2
DA:72,3
DA:76,3
DA:77,3
DA:79,0
DA:81,3
DA:82,1
DA:84,2
DA:86,3
DA:87,1
DA:89,2
DA:92,3
DA:96,0
DA:97,0
DA:98,0
DA:106,1
DA:107,1
DA:108,1
DA:109,1
DA:110,1
DA:111,1
DA:112,1
DA:113,1
DA:114,1
DA:115,1
DA:117,1
DA:118,1
DA:119,1
DA:120,1
DA:121,1
DA:122,1
DA:123,1
DA:124,1
DA:125,1
DA:126,1
DA:128,1
DA:129,1
DA:130,1
DA:131,1
DA:132,1
BRF:0
BRH:0
LF:78
LH:72
end_of_record
SF:/home/openclaw/dev/yinglichina8848/sqlrustgo/crates/unified-query/src/fusion.rs
FN:93,_RNvXs_NtCsf7QueNzY94l_23sqlrustgo_unified_query6fusionNtB4_12ResultFusionNtNtCs8nPosuWgJFh_4core7default7Default7default
FN:57,_RNCNvMNtCsf7QueNzY94l_23sqlrustgo_unified_query6fusionNtB4_12ResultFusion4fuse0B6_
FN:72,_RNCNvMNtCsf7QueNzY94l_23sqlrustgo_unified_query6fusionNtB4_12ResultFusion4fuses0_0B6_
FN:76,_RNCNvMNtCsf7QueNzY94l_23sqlrustgo_unified_query6fusionNtB4_12ResultFusion4fuses1_0B6_
FN:67,_RNCNvMNtCsf7QueNzY94l_23sqlrustgo_unified_query6fusionNtB4_12ResultFusion4fuses_0B6_
FN:103,_RNvNtNtCsf7QueNzY94l_23sqlrustgo_unified_query6fusion5testss_23test_weights_sum_to_one
FN:13,_RNvMNtCsf7QueNzY94l_23sqlrustgo_unified_query6fusionNtB2_12ResultFusion3new
FN:17,_RNvMNtCsf7QueNzY94l_23sqlrustgo_unified_query6fusionNtB2_12ResultFusion4fuse
FNDA:0,_RNvXs_NtCsf7QueNzY94l_23sqlrustgo_unified_query6fusionNtB4_12ResultFusionNtNtCs8nPosuWgJFh_4core7default7Default7default
FNDA:0,_RNCNvMNtCsf7QueNzY94l_23sqlrustgo_unified_query6fusionNtB4_12ResultFusion4fuse0B6_
FNDA:0,_RNCNvMNtCsf7QueNzY94l_23sqlrustgo_unified_query6fusionNtB4_12ResultFusion4fuses0_0B6_
FNDA:0,_RNCNvMNtCsf7QueNzY94l_23sqlrustgo_unified_query6fusionNtB4_12ResultFusion4fuses1_0B6_
FNDA:0,_RNCNvMNtCsf7QueNzY94l_23sqlrustgo_unified_query6fusionNtB4_12ResultFusion4fuses_0B6_
FNDA:1,_RNvNtNtCsf7QueNzY94l_23sqlrustgo_unified_query6fusion5testss_23test_weights_sum_to_one
FNDA:2,_RNvMNtCsf7QueNzY94l_23sqlrustgo_unified_query6fusionNtB2_12ResultFusion3new
FNDA:2,_RNvMNtCsf7QueNzY94l_23sqlrustgo_unified_query6fusionNtB2_12ResultFusion4fuse
FNF:8
FNH:3
DA:13,2
DA:14,2
DA:15,2
DA:17,2
DA:18,2
DA:19,2
DA:20,2
DA:21,2
DA:22,2
DA:23,2
DA:25,2
DA:26,2
DA:27,0
DA:28,0
DA:29,0
DA:30,0
DA:31,0
DA:32,0
DA:33,0
DA:34,0
DA:36,1
DA:37,0
DA:38,0
DA:39,0
DA:40,0
DA:41,0
DA:42,0
DA:43,0
DA:44,2
DA:46,1
DA:47,0
DA:48,0
DA:49,0
DA:50,0
DA:51,0
DA:52,0
DA:53,0
DA:54,0
DA:55,2
DA:57,2
DA:58,0
DA:59,0
DA:60,0
DA:61,0
DA:63,2
DA:64,2
DA:65,2
DA:66,0
DA:67,0
DA:68,0
DA:69,0
DA:70,0
DA:71,0
DA:72,0
DA:75,2
DA:76,2
DA:77,0
DA:78,0
DA:79,0
DA:80,0
DA:82,2
DA:83,2
DA:85,2
DA:86,2
DA:87,2
DA:88,2
DA:89,2
DA:93,0
DA:94,0
DA:95,0
DA:103,1
DA:104,1
DA:105,1
DA:106,1
DA:107,1
BRF:0
BRH:0
LF:79
LH:34
end_of_record
SF:/home/openclaw/dev/yinglichina8848/sqlrustgo/crates/unified-query/src/router.rs
FN:17,_RNvMNtCsf7QueNzY94l_23sqlrustgo_unified_query6routerNtB2_11QueryRouter3new
FN:21,_RNvMNtCsf7QueNzY94l_23sqlrustgo_unified_query6routerNtB2_11QueryRouter5route
FN:48,_RNvXs_NtCsf7QueNzY94l_23sqlrustgo_unified_query6routerNtB4_11QueryRouterNtNtCs8nPosuWgJFh_4core7default7Default7default
FN:58,_RNvNtNtCsf7QueNzY94l_23sqlrustgo_unified_query6router5testss_20test_router_sql_mode
FN:78,_RNvNtNtCsf7QueNzY94l_23sqlrustgo_unified_query6router5testss_24test_router_unified_mode
FNDA:4,_RNvMNtCsf7QueNzY94l_23sqlrustgo_unified_query6routerNtB2_11QueryRouter3new
FNDA:4,_RNvMNtCsf7QueNzY94l_23sqlrustgo_unified_query6routerNtB2_11QueryRouter5route
FNDA:0,_RNvXs_NtCsf7QueNzY94l_23sqlrustgo_unified_query6routerNtB4_11QueryRouterNtNtCs8nPosuWgJFh_4core7default7Default7default
FNDA:1,_RNvNtNtCsf7QueNzY94l_23sqlrustgo_unified_query6router5testss_20test_router_sql_mode
FNDA:1,_RNvNtNtCsf7QueNzY94l_23sqlrustgo_unified_query6router5testss_24test_router_unified_mode
FNF:5
FNH:4
DA:17,4
DA:18,4
DA:19,4
DA:21,4
DA:22,4
DA:23,2
DA:24,0
DA:25,0
DA:26,0
DA:27,0
DA:28,0
DA:29,2
DA:32,4
DA:33,4
DA:34,4
DA:36,4
DA:37,4
DA:38,4
DA:39,4
DA:40,4
DA:41,4
DA:42,4
DA:43,4
DA:44,4
DA:48,0
DA:49,0
DA:50,0
DA:58,1
DA:59,1
DA:60,1
DA:61,1
DA:62,1
DA:63,1
DA:64,1
DA:65,1
DA:66,1
DA:67,1
DA:68,1
DA:69,1
DA:71,1
DA:72,1
DA:73,1
DA:74,1
DA:75,1
DA:78,1
DA:79,1
DA:80,1
DA:81,1
DA:82,1
DA:83,1
DA:84,1
DA:85,1
DA:86,1
DA:87,1
DA:88,1
DA:89,1
DA:91,1
DA:92,1
DA:93,1
DA:94,1
DA:95,1
BRF:0
BRH:0
LF:61
LH:53
end_of_record
SF:/home/openclaw/dev/yinglichina8848/sqlrustgo/crates/unified-query/src/stats.rs
FN:71,_RNvXs0_NtCsf7QueNzY94l_23sqlrustgo_unified_query5statsNtB5_17QueryStatsBuilderNtNtCs8nPosuWgJFh_4core7default7Default7default
FN:43,_RNvMs_NtCsf7QueNzY94l_23sqlrustgo_unified_query5statsNtB4_17QueryStatsBuilder13with_sql_time
FN:58,_RNvMs_NtCsf7QueNzY94l_23sqlrustgo_unified_query5statsNtB4_17QueryStatsBuilder14with_cache_hit
FN:53,_RNvMs_NtCsf7QueNzY94l_23sqlrustgo_unified_query5statsNtB4_17QueryStatsBuilder15with_graph_time
FN:48,_RNvMs_NtCsf7QueNzY94l_23sqlrustgo_unified_query5statsNtB4_17QueryStatsBuilder16with_vector_time
FN:37,_RNvMs_NtCsf7QueNzY94l_23sqlrustgo_unified_query5statsNtB4_17QueryStatsBuilder3new
FN:63,_RNvMs_NtCsf7QueNzY94l_23sqlrustgo_unified_query5statsNtB4_17QueryStatsBuilder5build
FN:17,_RNvXNtCsf7QueNzY94l_23sqlrustgo_unified_query5statsNtB2_10QueryStatsNtNtCs8nPosuWgJFh_4core7default7Default7default
FN:88,_RNvNtNtCsf7QueNzY94l_23sqlrustgo_unified_query5stats5testss_24test_query_stats_builder
FN:81,_RNvNtNtCsf7QueNzY94l_23sqlrustgo_unified_query5stats5testss_24test_query_stats_default
FNDA:0,_RNvXs0_NtCsf7QueNzY94l_23sqlrustgo_unified_query5statsNtB5_17QueryStatsBuilderNtNtCs8nPosuWgJFh_4core7default7Default7default
FNDA:1,_RNvMs_NtCsf7QueNzY94l_23sqlrustgo_unified_query5statsNtB4_17QueryStatsBuilder13with_sql_time
FNDA:1,_RNvMs_NtCsf7QueNzY94l_23sqlrustgo_unified_query5statsNtB4_17QueryStatsBuilder14with_cache_hit
FNDA:1,_RNvMs_NtCsf7QueNzY94l_23sqlrustgo_unified_query5statsNtB4_17QueryStatsBuilder15with_graph_time
FNDA:1,_RNvMs_NtCsf7QueNzY94l_23sqlrustgo_unified_query5statsNtB4_17QueryStatsBuilder16with_vector_time
FNDA:1,_RNvMs_NtCsf7QueNzY94l_23sqlrustgo_unified_query5statsNtB4_17QueryStatsBuilder3new
FNDA:1,_RNvMs_NtCsf7QueNzY94l_23sqlrustgo_unified_query5statsNtB4_17QueryStatsBuilder5build
FNDA:4,_RNvXNtCsf7QueNzY94l_23sqlrustgo_unified_query5statsNtB2_10QueryStatsNtNtCs8nPosuWgJFh_4core7default7Default7default
FNDA:1,_RNvNtNtCsf7QueNzY94l_23sqlrustgo_unified_query5stats5testss_24test_query_stats_builder
FNDA:1,_RNvNtNtCsf7QueNzY94l_23sqlrustgo_unified_query5stats5testss_24test_query_stats_default
FNF:10
FNH:9
DA:17,4
DA:18,4
DA:19,4
DA:20,4
DA:21,4
DA:22,4
DA:23,4
DA:24,4
DA:25,4
DA:26,4
DA:27,4
DA:28,4
DA:29,4
DA:37,1
DA:38,1
DA:39,1
DA:40,1
DA:41,1
DA:43,1
DA:44,1
DA:45,1
DA:46,1
DA:48,1
DA:49,1
DA:50,1
DA:51,1
DA:53,1
DA:54,1
DA:55,1
DA:56,1
DA:58,1
DA:59,1
DA:60,1
DA:61,1
DA:63,1
DA:64,1
DA:65,1
DA:66,1
DA:67,1
DA:71,0
DA:72,0
DA:73,0
DA:81,1
DA:82,1
DA:83,1
DA:84,1
DA:85,1
DA:88,1
DA:89,1
DA:90,1
DA:91,1
DA:92,1
DA:93,1
DA:94,1
DA:96,1
DA:97,1
DA:98,1
DA:99,1
DA:100,1
BRF:0
BRH:0
LF:59
LH:56
end_of_record