SF:/home/openclaw/dev/yinglichina8848/sqlrustgo/crates/agentsql/src/column_masking.rs
FN:118,_RNCNCNCNvMs_NtCslElCByU4boA_18sqlrustgo_agentsql14column_maskingNtBa_12ColumnMasker15mask_result_set000Bc_
FN:116,_RNCNCNvMs_NtCslElCByU4boA_18sqlrustgo_agentsql14column_maskingNtB8_12ColumnMasker15mask_result_set00Ba_
FN:112,_RNCNvMs_NtCslElCByU4boA_18sqlrustgo_agentsql14column_maskingNtB6_12ColumnMasker15mask_result_set0B8_
FN:222,_RNvMs_NtCslElCByU4boA_18sqlrustgo_agentsql14column_maskingNtB4_12ColumnMasker10list_rules
FN:106,_RNvMs_NtCslElCByU4boA_18sqlrustgo_agentsql14column_maskingNtB4_12ColumnMasker15mask_result_set
FN:79,_RNvMs_NtCslElCByU4boA_18sqlrustgo_agentsql14column_maskingNtB4_12ColumnMasker15new_with_config
FN:218,_RNvMs_NtCslElCByU4boA_18sqlrustgo_agentsql14column_maskingNtB4_12ColumnMasker8add_rule
FN:91,_RNvMs_NtCslElCByU4boA_18sqlrustgo_agentsql14column_maskingNtB4_12ColumnMasker8mask_row
FN:228,_RNvXs0_NtCslElCByU4boA_18sqlrustgo_agentsql14column_maskingNtB5_12ColumnMaskerNtNtCs8nPosuWgJFh_4core7default7Default7default
FN:257,_RNvNtNtCslElCByU4boA_18sqlrustgo_agentsql14column_masking5testss_14test_mask_full
FN:248,_RNvNtNtCslElCByU4boA_18sqlrustgo_agentsql14column_masking5testss_14test_mask_hash
FN:272,_RNvNtNtCslElCByU4boA_18sqlrustgo_agentsql14column_masking5testss_14test_mask_null
FN:265,_RNvNtNtCslElCByU4boA_18sqlrustgo_agentsql14column_masking5testss_15test_mask_range
FN:238,_RNvNtNtCslElCByU4boA_18sqlrustgo_agentsql14column_masking5testss_23test_mask_partial_email
FN:133,_RNvMs_NtCslElCByU4boA_18sqlrustgo_agentsql14column_maskingNtB4_12ColumnMasker10apply_mask
FN:204,_RNvMs_NtCslElCByU4boA_18sqlrustgo_agentsql14column_maskingNtB4_12ColumnMasker10mask_range
FN:83,_RNvMs_NtCslElCByU4boA_18sqlrustgo_agentsql14column_maskingNtB4_12ColumnMasker10mask_value
FN:155,_RNvMs_NtCslElCByU4boA_18sqlrustgo_agentsql14column_maskingNtB4_12ColumnMasker12mask_partial
FN:192,_RNvMs_NtCslElCByU4boA_18sqlrustgo_agentsql14column_maskingNtB4_12ColumnMasker13mask_truncate
FN:73,_RNvMs_NtCslElCByU4boA_18sqlrustgo_agentsql14column_maskingNtB4_12ColumnMasker3new
FN:126,_RNvMs_NtCslElCByU4boA_18sqlrustgo_agentsql14column_maskingNtB4_12ColumnMasker9find_rule
FN:145,_RNvMs_NtCslElCByU4boA_18sqlrustgo_agentsql14column_maskingNtB4_12ColumnMasker9mask_full
FN:176,_RNvMs_NtCslElCByU4boA_18sqlrustgo_agentsql14column_maskingNtB4_12ColumnMasker9mask_hash
FN:30,_RNvXNtCslElCByU4boA_18sqlrustgo_agentsql14column_maskingNtB2_13MaskingConfigNtNtCs8nPosuWgJFh_4core7default7Default7default
FN:130,_RNCNvMs_NtCslElCByU4boA_18sqlrustgo_agentsql14column_maskingNtB6_12ColumnMasker9find_rule0B8_
FNDA:0,_RNCNCNCNvMs_NtCslElCByU4boA_18sqlrustgo_agentsql14column_maskingNtBa_12ColumnMasker15mask_result_set000Bc_
FNDA:0,_RNCNCNvMs_NtCslElCByU4boA_18sqlrustgo_agentsql14column_maskingNtB8_12ColumnMasker15mask_result_set00Ba_
FNDA:0,_RNCNvMs_NtCslElCByU4boA_18sqlrustgo_agentsql14column_maskingNtB6_12ColumnMasker15mask_result_set0B8_
FNDA:0,_RNvMs_NtCslElCByU4boA_18sqlrustgo_agentsql14column_maskingNtB4_12ColumnMasker10list_rules
FNDA:0,_RNvMs_NtCslElCByU4boA_18sqlrustgo_agentsql14column_maskingNtB4_12ColumnMasker15mask_result_set
FNDA:0,_RNvMs_NtCslElCByU4boA_18sqlrustgo_agentsql14column_maskingNtB4_12ColumnMasker15new_with_config
FNDA:0,_RNvMs_NtCslElCByU4boA_18sqlrustgo_agentsql14column_maskingNtB4_12ColumnMasker8add_rule
FNDA:0,_RNvMs_NtCslElCByU4boA_18sqlrustgo_agentsql14column_maskingNtB4_12ColumnMasker8mask_row
FNDA:0,_RNvXs0_NtCslElCByU4boA_18sqlrustgo_agentsql14column_maskingNtB5_12ColumnMaskerNtNtCs8nPosuWgJFh_4core7default7Default7default
FNDA:1,_RNvNtNtCslElCByU4boA_18sqlrustgo_agentsql14column_masking5testss_14test_mask_full
FNDA:1,_RNvNtNtCslElCByU4boA_18sqlrustgo_agentsql14column_masking5testss_14test_mask_hash
FNDA:1,_RNvNtNtCslElCByU4boA_18sqlrustgo_agentsql14column_masking5testss_14test_mask_null
FNDA:1,_RNvNtNtCslElCByU4boA_18sqlrustgo_agentsql14column_masking5testss_15test_mask_range
FNDA:1,_RNvNtNtCslElCByU4boA_18sqlrustgo_agentsql14column_masking5testss_23test_mask_partial_email
FNDA:6,_RNvMs_NtCslElCByU4boA_18sqlrustgo_agentsql14column_maskingNtB4_12ColumnMasker10apply_mask
FNDA:1,_RNvMs_NtCslElCByU4boA_18sqlrustgo_agentsql14column_maskingNtB4_12ColumnMasker10mask_range
FNDA:7,_RNvMs_NtCslElCByU4boA_18sqlrustgo_agentsql14column_maskingNtB4_12ColumnMasker10mask_value
FNDA:2,_RNvMs_NtCslElCByU4boA_18sqlrustgo_agentsql14column_maskingNtB4_12ColumnMasker12mask_partial
FNDA:0,_RNvMs_NtCslElCByU4boA_18sqlrustgo_agentsql14column_maskingNtB4_12ColumnMasker13mask_truncate
FNDA:7,_RNvMs_NtCslElCByU4boA_18sqlrustgo_agentsql14column_maskingNtB4_12ColumnMasker3new
FNDA:7,_RNvMs_NtCslElCByU4boA_18sqlrustgo_agentsql14column_maskingNtB4_12ColumnMasker9find_rule
FNDA:1,_RNvMs_NtCslElCByU4boA_18sqlrustgo_agentsql14column_maskingNtB4_12ColumnMasker9mask_full
FNDA:2,_RNvMs_NtCslElCByU4boA_18sqlrustgo_agentsql14column_maskingNtB4_12ColumnMasker9mask_hash
FNDA:7,_RNvXNtCslElCByU4boA_18sqlrustgo_agentsql14column_maskingNtB2_13MaskingConfigNtNtCs8nPosuWgJFh_4core7default7Default7default
FNDA:22,_RNCNvMs_NtCslElCByU4boA_18sqlrustgo_agentsql14column_maskingNtB6_12ColumnMasker9find_rule0B8_
FNF:25
FNH:15
DA:30,7
DA:31,7
DA:32,7
DA:33,7
DA:34,7
DA:35,7
DA:36,7
DA:37,7
DA:38,7
DA:39,7
DA:40,7
DA:41,7
DA:42,7
DA:43,7
DA:44,7
DA:45,7
DA:46,7
DA:47,7
DA:48,7
DA:49,7
DA:50,7
DA:51,7
DA:52,7
DA:53,7
DA:54,7
DA:55,7
DA:56,7
DA:57,7
DA:58,7
DA:59,7
DA:60,7
DA:61,7
DA:62,7
DA:63,7
DA:64,7
DA:65,7
DA:73,7
DA:74,7
DA:75,7
DA:76,7
DA:77,7
DA:79,0
DA:80,0
DA:81,0
DA:83,7
DA:84,7
DA:85,6
DA:87,1
DA:89,7
DA:91,0
DA:92,0
DA:93,0
DA:94,0
DA:95,0
DA:96,0
DA:97,0
DA:98,0
DA:99,0
DA:100,0
DA:101,0
DA:103,0
DA:104,0
DA:106,0
DA:107,0
DA:108,0
DA:109,0
DA:110,0
DA:111,0
DA:112,0
DA:113,0
DA:114,0
DA:115,0
DA:116,0
DA:117,0
DA:118,0
DA:119,0
DA:120,0
DA:121,0
DA:122,0
DA:123,0
DA:124,0
DA:126,7
DA:127,7
DA:128,7
DA:129,7
DA:130,22
DA:131,7
DA:133,6
DA:134,6
DA:135,1
DA:136,2
DA:137,2
DA:138,0
DA:139,0
DA:140,1
DA:141,0
DA:143,6
DA:145,1
DA:146,1
DA:147,1
DA:148,0
DA:149,0
DA:151,0
DA:153,1
DA:155,2
DA:156,2
DA:157,2
DA:158,2
DA:159,0
DA:160,2
DA:161,0
DA:163,2
DA:164,2
DA:166,2
DA:167,2
DA:168,2
DA:172,0
DA:174,2
DA:176,2
DA:179,2
DA:180,2
DA:181,2
DA:182,2
DA:183,0
DA:184,0
DA:185,0
DA:186,0
DA:188,0
DA:190,2
DA:192,0
DA:193,0
DA:194,0
DA:195,0
DA:197,0
DA:200,0
DA:202,0
DA:204,1
DA:205,1
DA:206,1
DA:207,1
DA:208,1
DA:209,1
DA:210,0
DA:212,1
DA:214,0
DA:216,1
DA:218,0
DA:219,0
DA:220,0
DA:222,0
DA:223,0
DA:224,0
DA:228,0
DA:229,0
DA:230,0
DA:238,1
DA:239,1
DA:240,1
DA:241,1
DA:242,1
DA:243,1
DA:244,1
DA:245,1
DA:248,1
DA:249,1
DA:250,1
DA:251,1
DA:252,1
DA:253,1
DA:254,1
DA:257,1
DA:258,1
DA:259,1
DA:260,1
DA:261,1
DA:262,1
DA:265,1
DA:266,1
DA:267,1
DA:268,1
DA:269,1
DA:272,1
DA:273,1
DA:274,1
DA:275,1
DA:276,1
DA:277,1
BRF:0
BRH:0
LF:191
LH:121
end_of_record
SF:/home/openclaw/dev/yinglichina8848/sqlrustgo/crates/agentsql/src/error.rs
FN:25,_RNvXNtCslElCByU4boA_18sqlrustgo_agentsql5errorNtB2_13AgentSqlErrorINtNtCs8nPosuWgJFh_4core7convert4FromNtNtCsj0gLuUEfogP_5alloc6string6StringE4from
FNDA:0,_RNvXNtCslElCByU4boA_18sqlrustgo_agentsql5errorNtB2_13AgentSqlErrorINtNtCs8nPosuWgJFh_4core7convert4FromNtNtCsj0gLuUEfogP_5alloc6string6StringE4from
FNF:1
FNH:0
DA:25,0
DA:26,0
DA:27,0
BRF:0
BRH:0
LF:3
LH:0
end_of_record
SF:/home/openclaw/dev/yinglichina8848/sqlrustgo/crates/agentsql/src/explain.rs
FN:80,_RNvMs_NtCslElCByU4boA_18sqlrustgo_agentsql7explainNtB4_14ExplainService12explain_json
FN:62,_RNvMs_NtCslElCByU4boA_18sqlrustgo_agentsql7explainNtB4_14ExplainService16new_with_options
FN:374,_RNvXs0_NtCslElCByU4boA_18sqlrustgo_agentsql7explainNtB5_14ExplainServiceNtNtCs8nPosuWgJFh_4core7default7Default7default
FN:322,_RNCNvMs_NtCslElCByU4boA_18sqlrustgo_agentsql7explainNtB6_14ExplainService13estimate_rows0B8_
FN:296,_RNCNvMs_NtCslElCByU4boA_18sqlrustgo_agentsql7explainNtB6_14ExplainService18extract_table_name0B8_
FN:85,_RNvMs_NtCslElCByU4boA_18sqlrustgo_agentsql7explainNtB4_14ExplainService12explain_text
FN:306,_RNvMs_NtCslElCByU4boA_18sqlrustgo_agentsql7explainNtB4_14ExplainService13estimate_cost
FN:314,_RNvMs_NtCslElCByU4boA_18sqlrustgo_agentsql7explainNtB4_14ExplainService13estimate_rows
FN:90,_RNvMs_NtCslElCByU4boA_18sqlrustgo_agentsql7explainNtB4_14ExplainService13generate_plan
FN:329,_RNvMs_NtCslElCByU4boA_18sqlrustgo_agentsql7explainNtB4_14ExplainService14check_warnings
FN:259,_RNvMs_NtCslElCByU4boA_18sqlrustgo_agentsql7explainNtB4_14ExplainService14explain_delete
FN:203,_RNvMs_NtCslElCByU4boA_18sqlrustgo_agentsql7explainNtB4_14ExplainService14explain_insert
FN:115,_RNvMs_NtCslElCByU4boA_18sqlrustgo_agentsql7explainNtB4_14ExplainService14explain_select
FN:231,_RNvMs_NtCslElCByU4boA_18sqlrustgo_agentsql7explainNtB4_14ExplainService14explain_update
FN:355,_RNvMs_NtCslElCByU4boA_18sqlrustgo_agentsql7explainNtB4_14ExplainService16format_plan_text
FN:287,_RNvMs_NtCslElCByU4boA_18sqlrustgo_agentsql7explainNtB4_14ExplainService18extract_table_name
FN:56,_RNvMs_NtCslElCByU4boA_18sqlrustgo_agentsql7explainNtB4_14ExplainService3new
FN:66,_RNvMs_NtCslElCByU4boA_18sqlrustgo_agentsql7explainNtB4_14ExplainService7explain
FN:32,_RNvXNtCslElCByU4boA_18sqlrustgo_agentsql7explainNtB2_14ExplainOptionsNtNtCs8nPosuWgJFh_4core7default7Default7default
FN:403,_RNvNtNtCslElCByU4boA_18sqlrustgo_agentsql7explain5testss_19test_explain_insert
FN:412,_RNvNtNtCslElCByU4boA_18sqlrustgo_agentsql7explain5testss_24test_explain_text_format
FN:384,_RNvNtNtCslElCByU4boA_18sqlrustgo_agentsql7explain5testss_26test_explain_simple_select
FN:393,_RNvNtNtCslElCByU4boA_18sqlrustgo_agentsql7explain5testss_29test_explain_select_with_join
FN:420,_RNvNtNtCslElCByU4boA_18sqlrustgo_agentsql7explain5testss_29test_warnings_for_large_table
FNDA:0,_RNvMs_NtCslElCByU4boA_18sqlrustgo_agentsql7explainNtB4_14ExplainService12explain_json
FNDA:0,_RNvMs_NtCslElCByU4boA_18sqlrustgo_agentsql7explainNtB4_14ExplainService16new_with_options
FNDA:0,_RNvXs0_NtCslElCByU4boA_18sqlrustgo_agentsql7explainNtB5_14ExplainServiceNtNtCs8nPosuWgJFh_4core7default7Default7default
FNDA:7,_RNCNvMs_NtCslElCByU4boA_18sqlrustgo_agentsql7explainNtB6_14ExplainService13estimate_rows0B8_
FNDA:14,_RNCNvMs_NtCslElCByU4boA_18sqlrustgo_agentsql7explainNtB6_14ExplainService18extract_table_name0B8_
FNDA:1,_RNvMs_NtCslElCByU4boA_18sqlrustgo_agentsql7explainNtB4_14ExplainService12explain_text
FNDA:14,_RNvMs_NtCslElCByU4boA_18sqlrustgo_agentsql7explainNtB4_14ExplainService13estimate_cost
FNDA:14,_RNvMs_NtCslElCByU4boA_18sqlrustgo_agentsql7explainNtB4_14ExplainService13estimate_rows
FNDA:7,_RNvMs_NtCslElCByU4boA_18sqlrustgo_agentsql7explainNtB4_14ExplainService13generate_plan
FNDA:14,_RNvMs_NtCslElCByU4boA_18sqlrustgo_agentsql7explainNtB4_14ExplainService14check_warnings
FNDA:0,_RNvMs_NtCslElCByU4boA_18sqlrustgo_agentsql7explainNtB4_14ExplainService14explain_delete
FNDA:2,_RNvMs_NtCslElCByU4boA_18sqlrustgo_agentsql7explainNtB4_14ExplainService14explain_insert
FNDA:5,_RNvMs_NtCslElCByU4boA_18sqlrustgo_agentsql7explainNtB4_14ExplainService14explain_select
FNDA:0,_RNvMs_NtCslElCByU4boA_18sqlrustgo_agentsql7explainNtB4_14ExplainService14explain_update
FNDA:1,_RNvMs_NtCslElCByU4boA_18sqlrustgo_agentsql7explainNtB4_14ExplainService16format_plan_text
FNDA:7,_RNvMs_NtCslElCByU4boA_18sqlrustgo_agentsql7explainNtB4_14ExplainService18extract_table_name
FNDA:7,_RNvMs_NtCslElCByU4boA_18sqlrustgo_agentsql7explainNtB4_14ExplainService3new
FNDA:7,_RNvMs_NtCslElCByU4boA_18sqlrustgo_agentsql7explainNtB4_14ExplainService7explain
FNDA:7,_RNvXNtCslElCByU4boA_18sqlrustgo_agentsql7explainNtB2_14ExplainOptionsNtNtCs8nPosuWgJFh_4core7default7Default7default
FNDA:1,_RNvNtNtCslElCByU4boA_18sqlrustgo_agentsql7explain5testss_19test_explain_insert
FNDA:1,_RNvNtNtCslElCByU4boA_18sqlrustgo_agentsql7explain5testss_24test_explain_text_format
FNDA:1,_RNvNtNtCslElCByU4boA_18sqlrustgo_agentsql7explain5testss_26test_explain_simple_select
FNDA:1,_RNvNtNtCslElCByU4boA_18sqlrustgo_agentsql7explain5testss_29test_explain_select_with_join
FNDA:1,_RNvNtNtCslElCByU4boA_18sqlrustgo_agentsql7explain5testss_29test_warnings_for_large_table
FNF:24
FNH:19
DA:32,7
DA:33,7
DA:34,7
DA:35,7
DA:36,7
DA:37,7
DA:38,7
DA:56,7
DA:57,7
DA:58,7
DA:59,7
DA:60,7
DA:62,0
DA:63,0
DA:64,0
DA:66,7
DA:67,7
DA:68,7
DA:69,7
DA:70,7
DA:72,7
DA:73,7
DA:74,7
DA:75,7
DA:76,7
DA:77,7
DA:78,7
DA:80,0
DA:81,0
DA:82,0
DA:83,0
DA:85,1
DA:86,1
DA:87,1
DA:88,1
DA:90,7
DA:91,7
DA:93,7
DA:94,5
DA:95,2
DA:96,2
DA:97,0
DA:98,0
DA:99,0
DA:100,0
DA:102,0
DA:103,0
DA:104,0
DA:105,0
DA:106,0
DA:107,0
DA:108,0
DA:109,0
DA:110,0
DA:111,0
DA:113,7
DA:115,5
DA:116,5
DA:118,5
DA:119,5
DA:121,5
DA:122,1
DA:123,4
DA:125,5
DA:126,2
DA:127,3
DA:129,5
DA:130,0
DA:131,5
DA:133,5
DA:134,0
DA:135,5
DA:137,5
DA:138,0
DA:139,5
DA:141,5
DA:142,5
DA:144,5
DA:145,1
DA:146,1
DA:147,1
DA:148,1
DA:149,1
DA:150,1
DA:151,1
DA:152,1
DA:153,1
DA:154,1
DA:155,1
DA:156,1
DA:157,1
DA:158,1
DA:159,1
DA:160,1
DA:161,1
DA:162,1
DA:163,1
DA:164,1
DA:165,1
DA:166,1
DA:167,1
DA:168,1
DA:169,1
DA:170,1
DA:171,1
DA:172,1
DA:173,1
DA:174,1
DA:175,1
DA:176,4
DA:178,5
DA:179,2
DA:180,2
DA:181,2
DA:182,2
DA:183,2
DA:184,2
DA:185,2
DA:186,2
DA:187,2
DA:188,2
DA:189,3
DA:191,5
DA:192,5
DA:193,5
DA:194,5
DA:195,5
DA:196,5
DA:197,5
DA:198,5
DA:199,5
DA:200,5
DA:201,5
DA:203,2
DA:204,2
DA:206,2
DA:207,2
DA:208,2
DA:209,2
DA:210,2
DA:211,2
DA:212,2
DA:213,2
DA:214,2
DA:215,2
DA:216,2
DA:217,2
DA:218,2
DA:219,2
DA:220,2
DA:221,2
DA:222,2
DA:223,2
DA:224,2
DA:225,2
DA:226,2
DA:227,2
DA:228,2
DA:229,2
DA:231,0
DA:232,0
DA:234,0
DA:235,0
DA:236,0
DA:237,0
DA:238,0
DA:239,0
DA:240,0
DA:241,0
DA:242,0
DA:243,0
DA:244,0
DA:245,0
DA:246,0
DA:247,0
DA:248,0
DA:249,0
DA:250,0
DA:251,0
DA:252,0
DA:253,0
DA:254,0
DA:255,0
DA:256,0
DA:257,0
DA:259,0
DA:260,0
DA:262,0
DA:263,0
DA:264,0
DA:265,0
DA:266,0
DA:267,0
DA:268,0
DA:269,0
DA:270,0
DA:271,0
DA:272,0
DA:273,0
DA:274,0
DA:275,0
DA:276,0
DA:277,0
DA:278,0
DA:279,0
DA:280,0
DA:281,0
DA:282,0
DA:283,0
DA:284,0
DA:285,0
DA:287,7
DA:288,7
DA:290,7
DA:291,9
DA:292,9
DA:293,7
DA:294,7
DA:295,7
DA:296,14
DA:297,7
DA:298,7
DA:299,0
DA:300,0
DA:301,2
DA:303,0
DA:304,7
DA:306,14
DA:307,14
DA:308,14
DA:309,7
DA:310,7
DA:311,14
DA:312,14
DA:314,14
DA:315,14
DA:316,14
DA:317,8
DA:319,6
DA:320,6
DA:321,6
DA:322,7
DA:323,6
DA:324,6
DA:327,14
DA:329,14
DA:330,14
DA:332,14
DA:333,14
DA:334,0
DA:335,0
DA:336,14
DA:337,0
DA:339,14
DA:340,9
DA:341,1
DA:342,1
DA:343,1
DA:344,1
DA:345,8
DA:346,5
DA:348,14
DA:349,7
DA:350,7
DA:352,14
DA:353,14
DA:355,1
DA:356,1
DA:357,1
DA:361,1
DA:362,1
DA:365,1
DA:366,0
DA:367,0
DA:369,1
DA:370,1
DA:374,0
DA:375,0
DA:376,0
DA:384,1
DA:385,1
DA:386,1
DA:388,1
DA:389,1
DA:390,1
DA:393,1
DA:394,1
DA:395,1
DA:396,1
DA:398,1
DA:399,1
DA:400,1
DA:403,1
DA:404,1
DA:405,1
DA:406,1
DA:408,1
DA:409,1
DA:412,1
DA:413,1
DA:414,1
DA:416,1
DA:417,1
DA:420,1
DA:421,1
DA:422,1
DA:424,1
DA:425,1
BRF:0
BRH:0
LF:310
LH:223
end_of_record
SF:/home/openclaw/dev/yinglichina8848/sqlrustgo/crates/agentsql/src/gateway.rs
FN:276,_RNvNtCslElCByU4boA_18sqlrustgo_agentsql7gateway10get_schema
FN:61,_RNvNtCslElCByU4boA_18sqlrustgo_agentsql7gateway12handle_query
FN:253,_RNvNtCslElCByU4boA_18sqlrustgo_agentsql7gateway13create_router
FN:113,_RNvNtCslElCByU4boA_18sqlrustgo_agentsql7gateway14handle_explain
FN:312,_RNvNtCslElCByU4boA_18sqlrustgo_agentsql7gateway15get_query_stats
FN:299,_RNvNtCslElCByU4boA_18sqlrustgo_agentsql7gateway15get_table_stats
FN:89,_RNvNtCslElCByU4boA_18sqlrustgo_agentsql7gateway15handle_nl_query
FN:234,_RNvNtCslElCByU4boA_18sqlrustgo_agentsql7gateway15handle_optimize
FN:281,_RNvNtCslElCByU4boA_18sqlrustgo_agentsql7gateway16get_table_schema
FN:192,_RNvNtCslElCByU4boA_18sqlrustgo_agentsql7gateway17handle_mask_value
FN:208,_RNvNtCslElCByU4boA_18sqlrustgo_agentsql7gateway18handle_explain_new
FN:130,_RNvNtCslElCByU4boA_18sqlrustgo_agentsql7gateway18handle_load_memory
FN:121,_RNvNtCslElCByU4boA_18sqlrustgo_agentsql7gateway18handle_save_memory
FN:148,_RNvNtCslElCByU4boA_18sqlrustgo_agentsql7gateway19handle_clear_memory
FN:157,_RNvNtCslElCByU4boA_18sqlrustgo_agentsql7gateway19handle_memory_stats
FN:172,_RNvNtCslElCByU4boA_18sqlrustgo_agentsql7gateway19handle_policy_check
FN:139,_RNvNtCslElCByU4boA_18sqlrustgo_agentsql7gateway20handle_search_memory
FN:41,_RNvNtCslElCByU4boA_18sqlrustgo_agentsql7gateway6health
FN:294,_RNvNtCslElCByU4boA_18sqlrustgo_agentsql7gateway9get_stats
FN:317,_RNvNtCslElCByU4boA_18sqlrustgo_agentsql7gateway12start_server
FN:340,_RNCNCNvNtCslElCByU4boA_18sqlrustgo_agentsql7gateway12start_server00B7_
FN:346,_RNCNCNvNtCslElCByU4boA_18sqlrustgo_agentsql7gateway12start_server0s_0B7_
FN:246,_RNCNCNvNtCslElCByU4boA_18sqlrustgo_agentsql7gateway15handle_optimize00B7_
FN:276,_RNCNvNtCslElCByU4boA_18sqlrustgo_agentsql7gateway10get_schema0B5_
FN:64,_RNCNvNtCslElCByU4boA_18sqlrustgo_agentsql7gateway12handle_query0B5_
FN:317,_RNCNvNtCslElCByU4boA_18sqlrustgo_agentsql7gateway12start_server0B5_
FN:116,_RNCNvNtCslElCByU4boA_18sqlrustgo_agentsql7gateway14handle_explain0B5_
FN:312,_RNCNvNtCslElCByU4boA_18sqlrustgo_agentsql7gateway15get_query_stats0B5_
FN:302,_RNCNvNtCslElCByU4boA_18sqlrustgo_agentsql7gateway15get_table_stats0B5_
FN:92,_RNCNvNtCslElCByU4boA_18sqlrustgo_agentsql7gateway15handle_nl_query0B5_
FN:237,_RNCNvNtCslElCByU4boA_18sqlrustgo_agentsql7gateway15handle_optimize0B5_
FN:284,_RNCNvNtCslElCByU4boA_18sqlrustgo_agentsql7gateway16get_table_schema0B5_
FN:195,_RNCNvNtCslElCByU4boA_18sqlrustgo_agentsql7gateway17handle_mask_value0B5_
FN:211,_RNCNvNtCslElCByU4boA_18sqlrustgo_agentsql7gateway18handle_explain_new0B5_
FN:133,_RNCNvNtCslElCByU4boA_18sqlrustgo_agentsql7gateway18handle_load_memory0B5_
FN:124,_RNCNvNtCslElCByU4boA_18sqlrustgo_agentsql7gateway18handle_save_memory0B5_
FN:151,_RNCNvNtCslElCByU4boA_18sqlrustgo_agentsql7gateway19handle_clear_memory0B5_
FN:159,_RNCNvNtCslElCByU4boA_18sqlrustgo_agentsql7gateway19handle_memory_stats0B5_
FN:175,_RNCNvNtCslElCByU4boA_18sqlrustgo_agentsql7gateway19handle_policy_check0B5_
FN:142,_RNCNvNtCslElCByU4boA_18sqlrustgo_agentsql7gateway20handle_search_memory0B5_
FN:41,_RNCNvNtCslElCByU4boA_18sqlrustgo_agentsql7gateway6health0B5_
FN:294,_RNCNvNtCslElCByU4boA_18sqlrustgo_agentsql7gateway9get_stats0B5_
FNDA:0,_RNvNtCslElCByU4boA_18sqlrustgo_agentsql7gateway10get_schema
FNDA:0,_RNvNtCslElCByU4boA_18sqlrustgo_agentsql7gateway12handle_query
FNDA:0,_RNvNtCslElCByU4boA_18sqlrustgo_agentsql7gateway13create_router
FNDA:0,_RNvNtCslElCByU4boA_18sqlrustgo_agentsql7gateway14handle_explain
FNDA:0,_RNvNtCslElCByU4boA_18sqlrustgo_agentsql7gateway15get_query_stats
FNDA:0,_RNvNtCslElCByU4boA_18sqlrustgo_agentsql7gateway15get_table_stats
FNDA:0,_RNvNtCslElCByU4boA_18sqlrustgo_agentsql7gateway15handle_nl_query
FNDA:0,_RNvNtCslElCByU4boA_18sqlrustgo_agentsql7gateway15handle_optimize
FNDA:0,_RNvNtCslElCByU4boA_18sqlrustgo_agentsql7gateway16get_table_schema
FNDA:0,_RNvNtCslElCByU4boA_18sqlrustgo_agentsql7gateway17handle_mask_value
FNDA:0,_RNvNtCslElCByU4boA_18sqlrustgo_agentsql7gateway18handle_explain_new
FNDA:0,_RNvNtCslElCByU4boA_18sqlrustgo_agentsql7gateway18handle_load_memory
FNDA:0,_RNvNtCslElCByU4boA_18sqlrustgo_agentsql7gateway18handle_save_memory
FNDA:0,_RNvNtCslElCByU4boA_18sqlrustgo_agentsql7gateway19handle_clear_memory
FNDA:0,_RNvNtCslElCByU4boA_18sqlrustgo_agentsql7gateway19handle_memory_stats
FNDA:0,_RNvNtCslElCByU4boA_18sqlrustgo_agentsql7gateway19handle_policy_check
FNDA:0,_RNvNtCslElCByU4boA_18sqlrustgo_agentsql7gateway20handle_search_memory
FNDA:0,_RNvNtCslElCByU4boA_18sqlrustgo_agentsql7gateway6health
FNDA:0,_RNvNtCslElCByU4boA_18sqlrustgo_agentsql7gateway9get_stats
FNDA:0,_RNvNtCslElCByU4boA_18sqlrustgo_agentsql7gateway12start_server
FNDA:0,_RNCNCNvNtCslElCByU4boA_18sqlrustgo_agentsql7gateway12start_server00B7_
FNDA:0,_RNCNCNvNtCslElCByU4boA_18sqlrustgo_agentsql7gateway12start_server0s_0B7_
FNDA:0,_RNCNCNvNtCslElCByU4boA_18sqlrustgo_agentsql7gateway15handle_optimize00B7_
FNDA:0,_RNCNvNtCslElCByU4boA_18sqlrustgo_agentsql7gateway10get_schema0B5_
FNDA:0,_RNCNvNtCslElCByU4boA_18sqlrustgo_agentsql7gateway12handle_query0B5_
FNDA:0,_RNCNvNtCslElCByU4boA_18sqlrustgo_agentsql7gateway12start_server0B5_
FNDA:0,_RNCNvNtCslElCByU4boA_18sqlrustgo_agentsql7gateway14handle_explain0B5_
FNDA:0,_RNCNvNtCslElCByU4boA_18sqlrustgo_agentsql7gateway15get_query_stats0B5_
FNDA:0,_RNCNvNtCslElCByU4boA_18sqlrustgo_agentsql7gateway15get_table_stats0B5_
FNDA:0,_RNCNvNtCslElCByU4boA_18sqlrustgo_agentsql7gateway15handle_nl_query0B5_
FNDA:0,_RNCNvNtCslElCByU4boA_18sqlrustgo_agentsql7gateway15handle_optimize0B5_
FNDA:0,_RNCNvNtCslElCByU4boA_18sqlrustgo_agentsql7gateway16get_table_schema0B5_
FNDA:0,_RNCNvNtCslElCByU4boA_18sqlrustgo_agentsql7gateway17handle_mask_value0B5_
FNDA:0,_RNCNvNtCslElCByU4boA_18sqlrustgo_agentsql7gateway18handle_explain_new0B5_
FNDA:0,_RNCNvNtCslElCByU4boA_18sqlrustgo_agentsql7gateway18handle_load_memory0B5_
FNDA:0,_RNCNvNtCslElCByU4boA_18sqlrustgo_agentsql7gateway18handle_save_memory0B5_
FNDA:0,_RNCNvNtCslElCByU4boA_18sqlrustgo_agentsql7gateway19handle_clear_memory0B5_
FNDA:0,_RNCNvNtCslElCByU4boA_18sqlrustgo_agentsql7gateway19handle_memory_stats0B5_
FNDA:0,_RNCNvNtCslElCByU4boA_18sqlrustgo_agentsql7gateway19handle_policy_check0B5_
FNDA:0,_RNCNvNtCslElCByU4boA_18sqlrustgo_agentsql7gateway20handle_search_memory0B5_
FNDA:0,_RNCNvNtCslElCByU4boA_18sqlrustgo_agentsql7gateway6health0B5_
FNDA:0,_RNCNvNtCslElCByU4boA_18sqlrustgo_agentsql7gateway9get_stats0B5_
FNF:42
FNH:0
DA:41,0
DA:42,0
DA:43,0
DA:44,0
DA:45,0
DA:46,0
DA:61,0
DA:62,0
DA:63,0
DA:64,0
DA:65,0
DA:66,0
DA:67,0
DA:68,0
DA:69,0
DA:70,0
DA:71,0
DA:89,0
DA:90,0
DA:91,0
DA:92,0
DA:93,0
DA:95,0
DA:96,0
DA:97,0
DA:99,0
DA:101,0
DA:102,0
DA:103,0
DA:104,0
DA:106,0
DA:113,0
DA:114,0
DA:115,0
DA:116,0
DA:117,0
DA:118,0
DA:119,0
DA:121,0
DA:122,0
DA:123,0
DA:124,0
DA:125,0
DA:126,0
DA:127,0
DA:128,0
DA:130,0
DA:131,0
DA:132,0
DA:133,0
DA:134,0
DA:135,0
DA:136,0
DA:137,0
DA:139,0
DA:140,0
DA:141,0
DA:142,0
DA:143,0
DA:144,0
DA:145,0
DA:146,0
DA:148,0
DA:149,0
DA:150,0
DA:151,0
DA:152,0
DA:153,0
DA:154,0
DA:155,0
DA:157,0
DA:158,0
DA:159,0
DA:160,0
DA:161,0
DA:162,0
DA:163,0
DA:172,0
DA:173,0
DA:174,0
DA:175,0
DA:176,0
DA:177,0
DA:178,0
DA:179,0
DA:180,0
DA:181,0
DA:182,0
DA:183,0
DA:184,0
DA:192,0
DA:193,0
DA:194,0
DA:195,0
DA:196,0
DA:197,0
DA:198,0
DA:208,0
DA:209,0
DA:210,0
DA:211,0
DA:212,0
DA:213,0
DA:214,0
DA:215,0
DA:216,0
DA:217,0
DA:218,0
DA:219,0
DA:234,0
DA:235,0
DA:236,0
DA:237,0
DA:238,0
DA:240,0
DA:241,0
DA:242,0
DA:243,0
DA:244,0
DA:245,0
DA:246,0
DA:247,0
DA:248,0
DA:249,0
DA:251,0
DA:253,0
DA:254,0
DA:255,0
DA:256,0
DA:257,0
DA:258,0
DA:259,0
DA:260,0
DA:261,0
DA:262,0
DA:263,0
DA:264,0
DA:265,0
DA:266,0
DA:267,0
DA:268,0
DA:269,0
DA:270,0
DA:271,0
DA:272,0
DA:273,0
DA:274,0
DA:276,0
DA:277,0
DA:278,0
DA:279,0
DA:281,0
DA:282,0
DA:283,0
DA:284,0
DA:285,0
DA:286,0
DA:287,0
DA:288,0
DA:289,0
DA:290,0
DA:292,0
DA:294,0
DA:295,0
DA:296,0
DA:297,0
DA:299,0
DA:300,0
DA:301,0
DA:302,0
DA:303,0
DA:304,0
DA:305,0
DA:306,0
DA:307,0
DA:308,0
DA:310,0
DA:312,0
DA:313,0
DA:314,0
DA:315,0
DA:317,0
DA:318,0
DA:319,0
DA:320,0
DA:321,0
DA:322,0
DA:323,0
DA:324,0
DA:325,0
DA:327,0
DA:328,0
DA:329,0
DA:330,0
DA:331,0
DA:332,0
DA:333,0
DA:334,0
DA:335,0
DA:336,0
DA:338,0
DA:339,0
DA:340,0
DA:342,0
DA:344,0
DA:345,0
DA:346,0
DA:348,0
DA:349,0
BRF:0
BRH:0
LF:231
LH:0
end_of_record
SF:/home/openclaw/dev/yinglichina8848/sqlrustgo/crates/agentsql/src/lib.rs
FN:164,_RNvNtCslElCByU4boA_18sqlrustgo_agentsql5testss_17test_memory_stats
FN:139,_RNvNtCslElCByU4boA_18sqlrustgo_agentsql5testss_18test_memory_search
FN:233,_RNvNtCslElCByU4boA_18sqlrustgo_agentsql5testss_19test_explain_insert
FN:225,_RNvNtCslElCByU4boA_18sqlrustgo_agentsql5testss_20test_explain_service
FN:90,_RNvNtCslElCByU4boA_18sqlrustgo_agentsql5testss_22test_nl2sql_with_limit
FN:99,_RNvNtCslElCByU4boA_18sqlrustgo_agentsql5testss_22test_nl2sql_with_where
FN:247,_RNvNtCslElCByU4boA_18sqlrustgo_agentsql5testss_22test_optimizer_analyze
FN:240,_RNvNtCslElCByU4boA_18sqlrustgo_agentsql5testss_22test_optimizer_service
FN:63,_RNvNtCslElCByU4boA_18sqlrustgo_agentsql5testss_22test_stats_service_new
FN:217,_RNvNtCslElCByU4boA_18sqlrustgo_agentsql5testss_23test_column_masker_hash
FN:196,_RNvNtCslElCByU4boA_18sqlrustgo_agentsql5testss_23test_policy_engine_deny
FN:36,_RNvNtCslElCByU4boA_18sqlrustgo_agentsql5testss_23test_schema_service_new
FN:183,_RNvNtCslElCByU4boA_18sqlrustgo_agentsql5testss_24test_policy_engine_check
FN:109,_RNvNtCslElCByU4boA_18sqlrustgo_agentsql5testss_25test_memory_save_and_load
FN:79,_RNvNtCslElCByU4boA_18sqlrustgo_agentsql5testss_25test_nl2sql_simple_select
FN:46,_RNvNtCslElCByU4boA_18sqlrustgo_agentsql5testss_25test_schema_service_views
FN:209,_RNvNtCslElCByU4boA_18sqlrustgo_agentsql5testss_26test_column_masker_partial
FN:254,_RNvNtCslElCByU4boA_18sqlrustgo_agentsql5testss_26test_optimizer_select_star
FN:30,_RNvNtCslElCByU4boA_18sqlrustgo_agentsql5testss_27test_agentsql_error_display
FN:54,_RNvNtCslElCByU4boA_18sqlrustgo_agentsql5testss_29test_schema_service_get_table
FN:71,_RNvNtCslElCByU4boA_18sqlrustgo_agentsql5testss_30test_stats_service_query_stats
FN:243,_RNCNvNtCslElCByU4boA_18sqlrustgo_agentsql5testss_22test_optimizer_service0B5_
FN:260,_RNCNvNtCslElCByU4boA_18sqlrustgo_agentsql5testss_26test_optimizer_select_star0B5_
FNDA:1,_RNvNtCslElCByU4boA_18sqlrustgo_agentsql5testss_17test_memory_stats
FNDA:1,_RNvNtCslElCByU4boA_18sqlrustgo_agentsql5testss_18test_memory_search
FNDA:1,_RNvNtCslElCByU4boA_18sqlrustgo_agentsql5testss_19test_explain_insert
FNDA:1,_RNvNtCslElCByU4boA_18sqlrustgo_agentsql5testss_20test_explain_service
FNDA:1,_RNvNtCslElCByU4boA_18sqlrustgo_agentsql5testss_22test_nl2sql_with_limit
FNDA:1,_RNvNtCslElCByU4boA_18sqlrustgo_agentsql5testss_22test_nl2sql_with_where
FNDA:1,_RNvNtCslElCByU4boA_18sqlrustgo_agentsql5testss_22test_optimizer_analyze
FNDA:1,_RNvNtCslElCByU4boA_18sqlrustgo_agentsql5testss_22test_optimizer_service
FNDA:1,_RNvNtCslElCByU4boA_18sqlrustgo_agentsql5testss_22test_stats_service_new
FNDA:1,_RNvNtCslElCByU4boA_18sqlrustgo_agentsql5testss_23test_column_masker_hash
FNDA:1,_RNvNtCslElCByU4boA_18sqlrustgo_agentsql5testss_23test_policy_engine_deny
FNDA:1,_RNvNtCslElCByU4boA_18sqlrustgo_agentsql5testss_23test_schema_service_new
FNDA:1,_RNvNtCslElCByU4boA_18sqlrustgo_agentsql5testss_24test_policy_engine_check
FNDA:1,_RNvNtCslElCByU4boA_18sqlrustgo_agentsql5testss_25test_memory_save_and_load
FNDA:1,_RNvNtCslElCByU4boA_18sqlrustgo_agentsql5testss_25test_nl2sql_simple_select
FNDA:1,_RNvNtCslElCByU4boA_18sqlrustgo_agentsql5testss_25test_schema_service_views
FNDA:1,_RNvNtCslElCByU4boA_18sqlrustgo_agentsql5testss_26test_column_masker_partial
FNDA:1,_RNvNtCslElCByU4boA_18sqlrustgo_agentsql5testss_26test_optimizer_select_star
FNDA:1,_RNvNtCslElCByU4boA_18sqlrustgo_agentsql5testss_27test_agentsql_error_display
FNDA:1,_RNvNtCslElCByU4boA_18sqlrustgo_agentsql5testss_29test_schema_service_get_table
FNDA:1,_RNvNtCslElCByU4boA_18sqlrustgo_agentsql5testss_30test_stats_service_query_stats
FNDA:1,_RNCNvNtCslElCByU4boA_18sqlrustgo_agentsql5testss_22test_optimizer_service0B5_
FNDA:2,_RNCNvNtCslElCByU4boA_18sqlrustgo_agentsql5testss_26test_optimizer_select_star0B5_
FNF:23
FNH:23
DA:30,1
DA:31,1
DA:32,1
DA:33,1
DA:36,1
DA:37,1
DA:38,1
DA:39,1
DA:40,1
DA:41,1
DA:42,1
DA:43,1
DA:46,1
DA:47,1
DA:48,1
DA:49,1
DA:50,1
DA:51,1
DA:54,1
DA:55,1
DA:56,1
DA:57,1
DA:58,1
DA:59,1
DA:60,1
DA:63,1
DA:64,1
DA:65,1
DA:66,1
DA:67,1
DA:68,1
DA:71,1
DA:72,1
DA:73,1
DA:74,1
DA:75,1
DA:76,1
DA:79,1
DA:80,1
DA:81,1
DA:82,1
DA:84,1
DA:85,1
DA:86,1
DA:87,1
DA:90,1
DA:91,1
DA:92,1
DA:93,1
DA:95,1
DA:96,1
DA:99,1
DA:100,1
DA:101,1
DA:102,1
DA:104,1
DA:105,1
DA:106,1
DA:109,1
DA:110,1
DA:111,1
DA:113,1
DA:114,1
DA:115,1
DA:116,1
DA:117,1
DA:118,1
DA:119,1
DA:120,1
DA:121,1
DA:123,1
DA:125,1
DA:126,1
DA:127,1
DA:128,1
DA:129,1
DA:130,1
DA:131,1
DA:132,1
DA:134,1
DA:135,1
DA:136,1
DA:139,1
DA:140,1
DA:142,1
DA:143,1
DA:144,1
DA:145,1
DA:146,1
DA:147,1
DA:148,1
DA:149,1
DA:150,1
DA:152,1
DA:153,1
DA:154,1
DA:155,1
DA:156,1
DA:157,1
DA:159,1
DA:160,1
DA:161,1
DA:164,1
DA:165,1
DA:167,1
DA:168,1
DA:169,1
DA:170,1
DA:171,1
DA:172,1
DA:173,1
DA:174,1
DA:175,1
DA:177,1
DA:178,1
DA:179,1
DA:180,1
DA:183,1
DA:184,1
DA:185,1
DA:186,1
DA:187,1
DA:188,1
DA:189,1
DA:190,1
DA:191,1
DA:192,1
DA:193,1
DA:196,1
DA:197,1
DA:198,1
DA:199,1
DA:200,1
DA:201,1
DA:202,1
DA:203,1
DA:204,1
DA:205,1
DA:206,1
DA:209,1
DA:210,1
DA:211,1
DA:212,1
DA:213,1
DA:214,1
DA:217,1
DA:218,1
DA:219,1
DA:220,1
DA:221,1
DA:222,1
DA:225,1
DA:226,1
DA:227,1
DA:228,1
DA:229,1
DA:230,1
DA:233,1
DA:234,1
DA:235,1
DA:236,1
DA:237,1
DA:240,1
DA:241,1
DA:242,1
DA:243,1
DA:244,1
DA:247,1
DA:248,1
DA:249,1
DA:250,1
DA:251,1
DA:254,1
DA:255,1
DA:256,1
DA:257,1
DA:258,1
DA:259,1
DA:260,2
DA:261,1
BRF:0
BRH:0
LF:182
LH:182
end_of_record
SF:/home/openclaw/dev/yinglichina8848/sqlrustgo/crates/agentsql/src/memory.rs
FN:380,_RNvMNtCslElCByU4boA_18sqlrustgo_agentsql6memoryNtB2_13MemoryService10get_memory
FN:171,_RNvMNtCslElCByU4boA_18sqlrustgo_agentsql6memoryNtB2_13MemoryService11load_memory
FN:112,_RNvMNtCslElCByU4boA_18sqlrustgo_agentsql6memoryNtB2_13MemoryService11save_memory
FN:306,_RNvMNtCslElCByU4boA_18sqlrustgo_agentsql6memoryNtB2_13MemoryService12clear_memory
FN:384,_RNvMNtCslElCByU4boA_18sqlrustgo_agentsql6memoryNtB2_13MemoryService13delete_memory
FN:217,_RNvMNtCslElCByU4boA_18sqlrustgo_agentsql6memoryNtB2_13MemoryService13search_memory
FN:102,_RNvMNtCslElCByU4boA_18sqlrustgo_agentsql6memoryNtB2_13MemoryService3new
FN:364,_RNvMNtCslElCByU4boA_18sqlrustgo_agentsql6memoryNtB2_13MemoryService9get_stats
FN:427,_RNvNtCslElCByU4boA_18sqlrustgo_agentsql6memory22generate_random_suffix
FN:436,_RNvNtCslElCByU4boA_18sqlrustgo_agentsql6memory27generate_doc_id_from_mem_id
FN:674,_RNCNvNtNtCslElCByU4boA_18sqlrustgo_agentsql6memory5testss_26test_search_memory_chinese0B7_
FN:712,_RNCNvNtNtCslElCByU4boA_18sqlrustgo_agentsql6memory5testss_31test_search_memory_multilingual0B7_
FN:725,_RNCNvNtNtCslElCByU4boA_18sqlrustgo_agentsql6memory5testss_31test_search_memory_multilinguals_0B7_
FN:413,_RNvXs_NtCslElCByU4boA_18sqlrustgo_agentsql6memoryNtB4_13MemoryServiceNtNtCs8nPosuWgJFh_4core7default7Default7default
FN:176,_RNCNvMNtCslElCByU4boA_18sqlrustgo_agentsql6memoryNtB4_13MemoryService11load_memory0B6_
FN:190,_RNCNvMNtCslElCByU4boA_18sqlrustgo_agentsql6memoryNtB4_13MemoryService11load_memorys0_0B6_
FN:196,_RNCNvMNtCslElCByU4boA_18sqlrustgo_agentsql6memoryNtB4_13MemoryService11load_memorys1_0B6_
FN:202,_RNCNvMNtCslElCByU4boA_18sqlrustgo_agentsql6memoryNtB4_13MemoryService11load_memorys2_0B6_
FN:205,_RNCNvMNtCslElCByU4boA_18sqlrustgo_agentsql6memoryNtB4_13MemoryService11load_memorys3_0B6_
FN:186,_RNCNvMNtCslElCByU4boA_18sqlrustgo_agentsql6memoryNtB4_13MemoryService11load_memorys_0B6_
FN:342,_RNCNvMNtCslElCByU4boA_18sqlrustgo_agentsql6memoryNtB4_13MemoryService12clear_memory0B6_
FN:352,_RNCNvMNtCslElCByU4boA_18sqlrustgo_agentsql6memoryNtB4_13MemoryService12clear_memorys0_0B6_
FN:347,_RNCNvMNtCslElCByU4boA_18sqlrustgo_agentsql6memoryNtB4_13MemoryService12clear_memorys_0B6_
FN:392,_RNCNvMNtCslElCByU4boA_18sqlrustgo_agentsql6memoryNtB4_13MemoryService13delete_memory0B6_
FN:402,_RNCNvMNtCslElCByU4boA_18sqlrustgo_agentsql6memoryNtB4_13MemoryService13delete_memorys0_0B6_
FN:397,_RNCNvMNtCslElCByU4boA_18sqlrustgo_agentsql6memoryNtB4_13MemoryService13delete_memorys_0B6_
FN:223,_RNCNvMNtCslElCByU4boA_18sqlrustgo_agentsql6memoryNtB4_13MemoryService13search_memory0B6_
FN:254,_RNCNvMNtCslElCByU4boA_18sqlrustgo_agentsql6memoryNtB4_13MemoryService13search_memorys0_0B6_
FN:296,_RNCNvMNtCslElCByU4boA_18sqlrustgo_agentsql6memoryNtB4_13MemoryService13search_memorys1_0B6_
FN:300,_RNCNvMNtCslElCByU4boA_18sqlrustgo_agentsql6memoryNtB4_13MemoryService13search_memorys2_0B6_
FN:240,_RNCNvMNtCslElCByU4boA_18sqlrustgo_agentsql6memoryNtB4_13MemoryService13search_memorys_0B6_
FN:468,_RNvNtNtCslElCByU4boA_18sqlrustgo_agentsql6memory5testss_16test_load_memory
FN:450,_RNvNtNtCslElCByU4boA_18sqlrustgo_agentsql6memory5testss_16test_save_memory
FN:530,_RNvNtNtCslElCByU4boA_18sqlrustgo_agentsql6memory5testss_17test_clear_memory
FN:555,_RNvNtNtCslElCByU4boA_18sqlrustgo_agentsql6memory5testss_17test_memory_stats
FN:584,_RNvNtNtCslElCByU4boA_18sqlrustgo_agentsql6memory5testss_18test_delete_memory
FN:495,_RNvNtNtCslElCByU4boA_18sqlrustgo_agentsql6memory5testss_18test_search_memory
FN:603,_RNvNtNtCslElCByU4boA_18sqlrustgo_agentsql6memory5testss_25test_load_with_session_id
FN:640,_RNvNtNtCslElCByU4boA_18sqlrustgo_agentsql6memory5testss_26test_search_memory_chinese
FN:678,_RNvNtNtCslElCByU4boA_18sqlrustgo_agentsql6memory5testss_31test_search_memory_multilingual
FNDA:1,_RNvMNtCslElCByU4boA_18sqlrustgo_agentsql6memoryNtB2_13MemoryService10get_memory
FNDA:3,_RNvMNtCslElCByU4boA_18sqlrustgo_agentsql6memoryNtB2_13MemoryService11load_memory
FNDA:17,_RNvMNtCslElCByU4boA_18sqlrustgo_agentsql6memoryNtB2_13MemoryService11save_memory
FNDA:1,_RNvMNtCslElCByU4boA_18sqlrustgo_agentsql6memoryNtB2_13MemoryService12clear_memory
FNDA:1,_RNvMNtCslElCByU4boA_18sqlrustgo_agentsql6memoryNtB2_13MemoryService13delete_memory
FNDA:5,_RNvMNtCslElCByU4boA_18sqlrustgo_agentsql6memoryNtB2_13MemoryService13search_memory
FNDA:12,_RNvMNtCslElCByU4boA_18sqlrustgo_agentsql6memoryNtB2_13MemoryService3new
FNDA:2,_RNvMNtCslElCByU4boA_18sqlrustgo_agentsql6memoryNtB2_13MemoryService9get_stats
FNDA:17,_RNvNtCslElCByU4boA_18sqlrustgo_agentsql6memory22generate_random_suffix
FNDA:25,_RNvNtCslElCByU4boA_18sqlrustgo_agentsql6memory27generate_doc_id_from_mem_id
FNDA:1,_RNCNvNtNtCslElCByU4boA_18sqlrustgo_agentsql6memory5testss_26test_search_memory_chinese0B7_
FNDA:1,_RNCNvNtNtCslElCByU4boA_18sqlrustgo_agentsql6memory5testss_31test_search_memory_multilingual0B7_
FNDA:1,_RNCNvNtNtCslElCByU4boA_18sqlrustgo_agentsql6memory5testss_31test_search_memory_multilinguals_0B7_
FNDA:0,_RNvXs_NtCslElCByU4boA_18sqlrustgo_agentsql6memoryNtB4_13MemoryServiceNtNtCs8nPosuWgJFh_4core7default7Default7default
FNDA:2,_RNCNvMNtCslElCByU4boA_18sqlrustgo_agentsql6memoryNtB4_13MemoryService11load_memory0B6_
FNDA:0,_RNCNvMNtCslElCByU4boA_18sqlrustgo_agentsql6memoryNtB4_13MemoryService11load_memorys0_0B6_
FNDA:0,_RNCNvMNtCslElCByU4boA_18sqlrustgo_agentsql6memoryNtB4_13MemoryService11load_memorys1_0B6_
FNDA:0,_RNCNvMNtCslElCByU4boA_18sqlrustgo_agentsql6memoryNtB4_13MemoryService11load_memorys2_0B6_
FNDA:0,_RNCNvMNtCslElCByU4boA_18sqlrustgo_agentsql6memoryNtB4_13MemoryService11load_memorys3_0B6_
FNDA:2,_RNCNvMNtCslElCByU4boA_18sqlrustgo_agentsql6memoryNtB4_13MemoryService11load_memorys_0B6_
FNDA:1,_RNCNvMNtCslElCByU4boA_18sqlrustgo_agentsql6memoryNtB4_13MemoryService12clear_memory0B6_
FNDA:0,_RNCNvMNtCslElCByU4boA_18sqlrustgo_agentsql6memoryNtB4_13MemoryService12clear_memorys0_0B6_
FNDA:0,_RNCNvMNtCslElCByU4boA_18sqlrustgo_agentsql6memoryNtB4_13MemoryService12clear_memorys_0B6_
FNDA:0,_RNCNvMNtCslElCByU4boA_18sqlrustgo_agentsql6memoryNtB4_13MemoryService13delete_memory0B6_
FNDA:0,_RNCNvMNtCslElCByU4boA_18sqlrustgo_agentsql6memoryNtB4_13MemoryService13delete_memorys0_0B6_
FNDA:0,_RNCNvMNtCslElCByU4boA_18sqlrustgo_agentsql6memoryNtB4_13MemoryService13delete_memorys_0B6_
FNDA:9,_RNCNvMNtCslElCByU4boA_18sqlrustgo_agentsql6memoryNtB4_13MemoryService13search_memory0B6_
FNDA:6,_RNCNvMNtCslElCByU4boA_18sqlrustgo_agentsql6memoryNtB4_13MemoryService13search_memorys0_0B6_
FNDA:0,_RNCNvMNtCslElCByU4boA_18sqlrustgo_agentsql6memoryNtB4_13MemoryService13search_memorys1_0B6_
FNDA:5,_RNCNvMNtCslElCByU4boA_18sqlrustgo_agentsql6memoryNtB4_13MemoryService13search_memorys2_0B6_
FNDA:0,_RNCNvMNtCslElCByU4boA_18sqlrustgo_agentsql6memoryNtB4_13MemoryService13search_memorys_0B6_
FNDA:1,_RNvNtNtCslElCByU4boA_18sqlrustgo_agentsql6memory5testss_16test_load_memory
FNDA:1,_RNvNtNtCslElCByU4boA_18sqlrustgo_agentsql6memory5testss_16test_save_memory
FNDA:1,_RNvNtNtCslElCByU4boA_18sqlrustgo_agentsql6memory5testss_17test_clear_memory
FNDA:1,_RNvNtNtCslElCByU4boA_18sqlrustgo_agentsql6memory5testss_17test_memory_stats
FNDA:1,_RNvNtNtCslElCByU4boA_18sqlrustgo_agentsql6memory5testss_18test_delete_memory
FNDA:1,_RNvNtNtCslElCByU4boA_18sqlrustgo_agentsql6memory5testss_18test_search_memory
FNDA:1,_RNvNtNtCslElCByU4boA_18sqlrustgo_agentsql6memory5testss_25test_load_with_session_id
FNDA:1,_RNvNtNtCslElCByU4boA_18sqlrustgo_agentsql6memory5testss_26test_search_memory_chinese
FNDA:1,_RNvNtNtCslElCByU4boA_18sqlrustgo_agentsql6memory5testss_31test_search_memory_multilingual
FNF:40
FNH:28
DA:102,12
DA:103,12
DA:104,12
DA:105,12
DA:106,12
DA:107,12
DA:108,12
DA:109,12
DA:110,12
DA:112,17
DA:113,17
DA:114,17
DA:115,17
DA:117,17
DA:118,17
DA:119,17
DA:120,17
DA:122,17
DA:124,17
DA:125,17
DA:126,17
DA:127,17
DA:128,17
DA:129,17
DA:130,17
DA:131,17
DA:132,17
DA:133,17
DA:134,17
DA:136,17
DA:139,17
DA:140,17
DA:141,17
DA:143,17
DA:144,14
DA:145,14
DA:146,14
DA:147,14
DA:148,14
DA:150,17
DA:151,2
DA:152,2
DA:153,2
DA:154,2
DA:155,15
DA:157,17
DA:158,2
DA:159,2
DA:160,2
DA:161,2
DA:162,2
DA:164,17
DA:165,17
DA:166,17
DA:167,17
DA:168,17
DA:169,17
DA:171,3
DA:172,3
DA:174,3
DA:175,2
DA:176,2
DA:178,0
DA:179,0
DA:180,0
DA:181,0
DA:183,1
DA:185,3
DA:186,2
DA:187,2
DA:189,3
DA:190,0
DA:191,3
DA:193,3
DA:194,0
DA:195,0
DA:196,0
DA:197,0
DA:199,3
DA:201,3
DA:202,0
DA:203,3
DA:205,3
DA:207,3
DA:208,3
DA:210,3
DA:211,3
DA:212,3
DA:213,3
DA:214,3
DA:215,3
DA:217,5
DA:219,5
DA:220,5
DA:221,5
DA:222,5
DA:223,9
DA:224,5
DA:226,0
DA:227,0
DA:228,0
DA:229,0
DA:230,0
DA:233,0
DA:237,5
DA:238,0
DA:239,0
DA:240,0
DA:241,0
DA:243,5
DA:247,5
DA:248,5
DA:251,5
DA:252,5
DA:254,6
DA:255,6
DA:256,6
DA:257,6
DA:258,5
DA:259,5
DA:260,5
DA:261,5
DA:262,5
DA:266,5
DA:267,0
DA:268,0
DA:270,0
DA:271,0
DA:272,0
DA:273,0
DA:275,0
DA:276,0
DA:277,0
DA:278,0
DA:279,0
DA:280,0
DA:281,0
DA:282,0
DA:285,0
DA:286,0
DA:287,0
DA:289,0
DA:290,0
DA:291,0
DA:292,0
DA:294,5
DA:296,5
DA:297,5
DA:300,5
DA:301,5
DA:302,5
DA:304,5
DA:306,1
DA:307,1
DA:309,1
DA:310,1
DA:311,1
DA:312,1
DA:313,0
DA:315,1
DA:316,0
DA:317,0
DA:318,0
DA:319,0
DA:320,0
DA:322,0
DA:323,1
DA:325,1
DA:326,0
DA:327,0
DA:328,0
DA:329,0
DA:331,1
DA:333,1
DA:334,1
DA:335,1
DA:337,1
DA:338,1
DA:340,1
DA:341,1
DA:342,1
DA:343,0
DA:344,0
DA:345,1
DA:346,0
DA:347,0
DA:348,0
DA:349,1
DA:350,1
DA:351,0
DA:352,0
DA:353,0
DA:355,0
DA:358,1
DA:359,1
DA:360,1
DA:361,1
DA:362,1
DA:364,2
DA:365,2
DA:366,3
DA:367,3
DA:368,3
DA:369,3
DA:371,2
DA:372,2
DA:373,2
DA:374,2
DA:375,2
DA:376,2
DA:377,2
DA:378,2
DA:380,1
DA:381,1
DA:382,1
DA:384,1
DA:385,1
DA:387,1
DA:388,1
DA:390,1
DA:391,0
DA:392,0
DA:393,0
DA:394,1
DA:395,1
DA:396,0
DA:397,0
DA:398,0
DA:399,1
DA:400,1
DA:401,0
DA:402,0
DA:403,0
DA:405,1
DA:407,0
DA:409,1
DA:413,0
DA:414,0
DA:415,0
DA:427,17
DA:429,17
DA:430,17
DA:431,17
DA:432,17
DA:433,17
DA:436,25
DA:440,25
DA:441,25
DA:442,25
DA:443,25
DA:450,1
DA:451,1
DA:452,1
DA:453,1
DA:454,1
DA:455,1
DA:456,1
DA:457,1
DA:458,1
DA:459,1
DA:460,1
DA:462,1
DA:463,1
DA:464,1
DA:465,1
DA:468,1
DA:469,1
DA:471,1
DA:472,1
DA:473,1
DA:474,1
DA:475,1
DA:476,1
DA:477,1
DA:478,1
DA:479,1
DA:481,1
DA:482,1
DA:483,1
DA:484,1
DA:485,1
DA:486,1
DA:487,1
DA:488,1
DA:490,1
DA:491,1
DA:492,1
DA:495,1
DA:496,1
DA:498,1
DA:499,1
DA:500,1
DA:501,1
DA:502,1
DA:503,1
DA:504,1
DA:505,1
DA:506,1
DA:508,1
DA:509,1
DA:510,1
DA:511,1
DA:512,1
DA:513,1
DA:514,1
DA:515,1
DA:516,1
DA:518,1
DA:519,1
DA:520,1
DA:521,1
DA:522,1
DA:523,1
DA:525,1
DA:526,1
DA:527,1
DA:530,1
DA:531,1
DA:533,1
DA:534,1
DA:535,1
DA:536,1
DA:537,1
DA:538,1
DA:539,1
DA:540,1
DA:541,1
DA:543,1
DA:544,1
DA:545,1
DA:546,1
DA:547,1
DA:548,1
DA:550,1
DA:551,1
DA:552,1
DA:555,1
DA:556,1
DA:558,1
DA:559,1
DA:560,1
DA:561,1
DA:562,1
DA:563,1
DA:564,1
DA:565,1
DA:566,1
DA:568,1
DA:569,1
DA:570,1
DA:571,1
DA:572,1
DA:573,1
DA:574,1
DA:575,1
DA:576,1
DA:578,1
DA:579,1
DA:580,1
DA:581,1
DA:584,1
DA:585,1
DA:587,1
DA:588,1
DA:589,1
DA:590,1
DA:591,1
DA:592,1
DA:593,1
DA:594,1
DA:595,1
DA:597,1
DA:598,1
DA:599,1
DA:600,1
DA:603,1
DA:604,1
DA:606,1
DA:607,1
DA:608,1
DA:609,1
DA:610,1
DA:611,1
DA:612,1
DA:613,1
DA:614,1
DA:616,1
DA:617,1
DA:618,1
DA:619,1
DA:620,1
DA:621,1
DA:622,1
DA:623,1
DA:624,1
DA:626,1
DA:627,1
DA:628,1
DA:629,1
DA:630,1
DA:631,1
DA:632,1
DA:633,1
DA:635,1
DA:636,1
DA:637,1
DA:640,1
DA:641,1
DA:644,1
DA:645,1
DA:646,1
DA:647,1
DA:648,1
DA:649,1
DA:650,1
DA:651,1
DA:652,1
DA:654,1
DA:655,1
DA:656,1
DA:657,1
DA:658,1
DA:659,1
DA:660,1
DA:661,1
DA:662,1
DA:665,1
DA:666,1
DA:667,1
DA:668,1
DA:669,1
DA:670,1
DA:673,1
DA:674,1
DA:675,1
DA:678,1
DA:679,1
DA:681,1
DA:682,1
DA:683,1
DA:684,1
DA:685,1
DA:686,1
DA:687,1
DA:688,1
DA:689,1
DA:691,1
DA:692,1
DA:693,1
DA:694,1
DA:695,1
DA:696,1
DA:697,1
DA:698,1
DA:699,1
DA:702,1
DA:703,1
DA:704,1
DA:705,1
DA:706,1
DA:707,1
DA:708,1
DA:709,1
DA:710,1
DA:711,1
DA:712,1
DA:715,1
DA:716,1
DA:717,1
DA:718,1
DA:719,1
DA:720,1
DA:721,1
DA:722,1
DA:723,1
DA:724,1
DA:725,1
DA:726,1
BRF:0
BRH:0
LF:499
LH:414
end_of_record
SF:/home/openclaw/dev/yinglichina8848/sqlrustgo/crates/agentsql/src/nl2sql.rs
FN:518,_RNvNtNtCslElCByU4boA_18sqlrustgo_agentsql6nl2sql5testss_16test_explain_sql
FN:494,_RNvNtNtCslElCByU4boA_18sqlrustgo_agentsql6nl2sql5testss_17test_nl2sql_count
FN:510,_RNvNtNtCslElCByU4boA_18sqlrustgo_agentsql6nl2sql5testss_18test_nl2sql_orders
FN:502,_RNvNtNtCslElCByU4boA_18sqlrustgo_agentsql6nl2sql5testss_20test_nl2sql_products
FN:468,_RNvNtNtCslElCByU4boA_18sqlrustgo_agentsql6nl2sql5testss_22test_nl2sql_with_limit
FN:476,_RNvNtNtCslElCByU4boA_18sqlrustgo_agentsql6nl2sql5testss_22test_nl2sql_with_where
FN:485,_RNvNtNtCslElCByU4boA_18sqlrustgo_agentsql6nl2sql5testss_23test_nl2sql_with_status
FN:458,_RNvNtNtCslElCByU4boA_18sqlrustgo_agentsql6nl2sql5testss_25test_nl2sql_simple_select
FN:527,_RNvNtNtCslElCByU4boA_18sqlrustgo_agentsql6nl2sql5testss_26test_explain_sql_with_join
FN:536,_RNvNtNtCslElCByU4boA_18sqlrustgo_agentsql6nl2sql5testss_27test_confidence_calculation
FN:170,_RNCNvMNtCslElCByU4boA_18sqlrustgo_agentsql6nl2sqlNtB4_13Nl2SqlService23natural_language_to_sql0B6_
FN:188,_RNCNvMNtCslElCByU4boA_18sqlrustgo_agentsql6nl2sqlNtB4_13Nl2SqlService23natural_language_to_sqls0_0B6_
FN:196,_RNCNvMNtCslElCByU4boA_18sqlrustgo_agentsql6nl2sqlNtB4_13Nl2SqlService23natural_language_to_sqls1_0B6_
FN:223,_RNCNvMNtCslElCByU4boA_18sqlrustgo_agentsql6nl2sqlNtB4_13Nl2SqlService23natural_language_to_sqls2_0B6_
FN:226,_RNCNvMNtCslElCByU4boA_18sqlrustgo_agentsql6nl2sqlNtB4_13Nl2SqlService23natural_language_to_sqls3_0B6_
FN:231,_RNCNvMNtCslElCByU4boA_18sqlrustgo_agentsql6nl2sqlNtB4_13Nl2SqlService23natural_language_to_sqls4_0B6_
FN:264,_RNCNvMNtCslElCByU4boA_18sqlrustgo_agentsql6nl2sqlNtB4_13Nl2SqlService23natural_language_to_sqls5_0B6_
FN:180,_RNCNvMNtCslElCByU4boA_18sqlrustgo_agentsql6nl2sqlNtB4_13Nl2SqlService23natural_language_to_sqls_0B6_
FN:390,_RNvMNtCslElCByU4boA_18sqlrustgo_agentsql6nl2sqlNtB2_13Nl2SqlService11explain_sql
FN:329,_RNvMNtCslElCByU4boA_18sqlrustgo_agentsql6nl2sqlNtB2_13Nl2SqlService16find_table_match
FN:343,_RNvMNtCslElCByU4boA_18sqlrustgo_agentsql6nl2sqlNtB2_13Nl2SqlService17find_column_hints
FN:356,_RNvMNtCslElCByU4boA_18sqlrustgo_agentsql6nl2sqlNtB2_13Nl2SqlService20calculate_confidence
FN:138,_RNvMNtCslElCByU4boA_18sqlrustgo_agentsql6nl2sqlNtB2_13Nl2SqlService23natural_language_to_sql
FN:38,_RNvMNtCslElCByU4boA_18sqlrustgo_agentsql6nl2sqlNtB2_13Nl2SqlService3new
FN:448,_RNvXs_NtCslElCByU4boA_18sqlrustgo_agentsql6nl2sqlNtB4_13Nl2SqlServiceNtNtCs8nPosuWgJFh_4core7default7Default7default
FNDA:1,_RNvNtNtCslElCByU4boA_18sqlrustgo_agentsql6nl2sql5testss_16test_explain_sql
FNDA:1,_RNvNtNtCslElCByU4boA_18sqlrustgo_agentsql6nl2sql5testss_17test_nl2sql_count
FNDA:1,_RNvNtNtCslElCByU4boA_18sqlrustgo_agentsql6nl2sql5testss_18test_nl2sql_orders
FNDA:1,_RNvNtNtCslElCByU4boA_18sqlrustgo_agentsql6nl2sql5testss_20test_nl2sql_products
FNDA:1,_RNvNtNtCslElCByU4boA_18sqlrustgo_agentsql6nl2sql5testss_22test_nl2sql_with_limit
FNDA:1,_RNvNtNtCslElCByU4boA_18sqlrustgo_agentsql6nl2sql5testss_22test_nl2sql_with_where
FNDA:1,_RNvNtNtCslElCByU4boA_18sqlrustgo_agentsql6nl2sql5testss_23test_nl2sql_with_status
FNDA:1,_RNvNtNtCslElCByU4boA_18sqlrustgo_agentsql6nl2sql5testss_25test_nl2sql_simple_select
FNDA:1,_RNvNtNtCslElCByU4boA_18sqlrustgo_agentsql6nl2sql5testss_26test_explain_sql_with_join
FNDA:1,_RNvNtNtCslElCByU4boA_18sqlrustgo_agentsql6nl2sql5testss_27test_confidence_calculation
FNDA:0,_RNCNvMNtCslElCByU4boA_18sqlrustgo_agentsql6nl2sqlNtB4_13Nl2SqlService23natural_language_to_sql0B6_
FNDA:0,_RNCNvMNtCslElCByU4boA_18sqlrustgo_agentsql6nl2sqlNtB4_13Nl2SqlService23natural_language_to_sqls0_0B6_
FNDA:0,_RNCNvMNtCslElCByU4boA_18sqlrustgo_agentsql6nl2sqlNtB4_13Nl2SqlService23natural_language_to_sqls1_0B6_
FNDA:3,_RNCNvMNtCslElCByU4boA_18sqlrustgo_agentsql6nl2sqlNtB4_13Nl2SqlService23natural_language_to_sqls2_0B6_
FNDA:1,_RNCNvMNtCslElCByU4boA_18sqlrustgo_agentsql6nl2sqlNtB4_13Nl2SqlService23natural_language_to_sqls3_0B6_
FNDA:0,_RNCNvMNtCslElCByU4boA_18sqlrustgo_agentsql6nl2sqlNtB4_13Nl2SqlService23natural_language_to_sqls4_0B6_
FNDA:36,_RNCNvMNtCslElCByU4boA_18sqlrustgo_agentsql6nl2sqlNtB4_13Nl2SqlService23natural_language_to_sqls5_0B6_
FNDA:0,_RNCNvMNtCslElCByU4boA_18sqlrustgo_agentsql6nl2sqlNtB4_13Nl2SqlService23natural_language_to_sqls_0B6_
FNDA:2,_RNvMNtCslElCByU4boA_18sqlrustgo_agentsql6nl2sqlNtB2_13Nl2SqlService11explain_sql
FNDA:47,_RNvMNtCslElCByU4boA_18sqlrustgo_agentsql6nl2sqlNtB2_13Nl2SqlService16find_table_match
FNDA:47,_RNvMNtCslElCByU4boA_18sqlrustgo_agentsql6nl2sqlNtB2_13Nl2SqlService17find_column_hints
FNDA:12,_RNvMNtCslElCByU4boA_18sqlrustgo_agentsql6nl2sqlNtB2_13Nl2SqlService20calculate_confidence
FNDA:12,_RNvMNtCslElCByU4boA_18sqlrustgo_agentsql6nl2sqlNtB2_13Nl2SqlService23natural_language_to_sql
FNDA:13,_RNvMNtCslElCByU4boA_18sqlrustgo_agentsql6nl2sqlNtB2_13Nl2SqlService3new
FNDA:10,_RNvXs_NtCslElCByU4boA_18sqlrustgo_agentsql6nl2sqlNtB4_13Nl2SqlServiceNtNtCs8nPosuWgJFh_4core7default7Default7default
FNF:25
FNH:20
DA:38,13
DA:39,13
DA:40,13
DA:41,13
DA:42,13
DA:43,13
DA:44,13
DA:45,13
DA:46,13
DA:47,13
DA:48,13
DA:49,13
DA:50,13
DA:51,13
DA:52,13
DA:53,13
DA:54,13
DA:55,13
DA:56,13
DA:57,13
DA:58,13
DA:59,13
DA:60,13
DA:61,13
DA:62,13
DA:63,13
DA:64,13
DA:65,13
DA:66,13
DA:67,13
DA:68,13
DA:69,13
DA:70,13
DA:71,13
DA:72,13
DA:73,13
DA:74,13
DA:75,13
DA:76,13
DA:77,13
DA:78,13
DA:79,13
DA:80,13
DA:81,13
DA:83,13
DA:84,13
DA:85,13
DA:86,13
DA:87,13
DA:88,13
DA:90,13
DA:91,13
DA:92,13
DA:94,13
DA:96,13
DA:97,13
DA:98,13
DA:99,13
DA:100,13
DA:102,13
DA:103,13
DA:104,13
DA:106,13
DA:108,13
DA:109,13
DA:110,13
DA:111,13
DA:112,13
DA:113,13
DA:114,13
DA:115,13
DA:116,13
DA:119,13
DA:120,13
DA:121,13
DA:122,13
DA:123,13
DA:124,13
DA:125,13
DA:128,13
DA:131,13
DA:132,13
DA:133,13
DA:134,13
DA:135,13
DA:136,13
DA:138,12
DA:139,12
DA:140,12
DA:142,12
DA:143,12
DA:144,12
DA:145,12
DA:146,12
DA:147,12
DA:148,12
DA:149,12
DA:151,47
DA:152,47
DA:153,12
DA:154,12
DA:155,12
DA:156,35
DA:157,47
DA:158,7
DA:159,7
DA:160,7
DA:161,7
DA:163,45
DA:166,12
DA:167,1
DA:168,1
DA:169,11
DA:170,0
DA:171,0
DA:172,0
DA:173,0
DA:174,0
DA:175,0
DA:176,0
DA:177,0
DA:178,0
DA:179,11
DA:180,0
DA:181,0
DA:182,0
DA:183,0
DA:184,0
DA:185,0
DA:186,0
DA:187,11
DA:188,0
DA:189,0
DA:190,0
DA:191,0
DA:192,0
DA:193,0
DA:194,0
DA:195,11
DA:196,0
DA:197,0
DA:198,0
DA:199,0
DA:200,0
DA:201,0
DA:202,0
DA:203,11
DA:205,12
DA:206,8
DA:207,8
DA:209,4
DA:210,4
DA:211,4
DA:212,1
DA:213,1
DA:214,1
DA:215,1
DA:217,3
DA:218,3
DA:219,3
DA:220,3
DA:222,0
DA:223,4
DA:224,0
DA:225,4
DA:226,4
DA:227,0
DA:228,0
DA:229,4
DA:230,4
DA:231,0
DA:232,0
DA:233,0
DA:234,4
DA:235,8
DA:237,12
DA:238,1
DA:239,1
DA:240,1
DA:241,1
DA:242,1
DA:243,1
DA:244,1
DA:245,0
DA:246,1
DA:247,1
DA:248,1
DA:249,0
DA:250,11
DA:252,12
DA:253,0
DA:254,0
DA:255,0
DA:256,0
DA:257,0
DA:258,0
DA:259,0
DA:260,0
DA:261,0
DA:262,12
DA:264,36
DA:265,3
DA:266,3
DA:267,3
DA:268,3
DA:269,0
DA:270,9
DA:272,12
DA:273,1
DA:274,11
DA:276,12
DA:277,12
DA:278,10
DA:279,10
DA:280,0
DA:281,10
DA:282,0
DA:283,2
DA:285,12
DA:286,12
DA:288,12
DA:289,1
DA:290,1
DA:291,1
DA:292,0
DA:293,0
DA:294,11
DA:296,12
DA:297,4
DA:298,4
DA:299,8
DA:301,12
DA:302,0
DA:303,12
DA:305,12
DA:306,1
DA:307,1
DA:308,1
DA:309,1
DA:310,11
DA:312,12
DA:313,3
DA:314,9
DA:316,12
DA:318,12
DA:320,12
DA:321,12
DA:322,12
DA:323,12
DA:324,12
DA:325,12
DA:326,12
DA:327,12
DA:329,47
DA:330,47
DA:331,126
DA:332,126
DA:333,126
DA:334,11
DA:335,115
DA:336,115
DA:337,1
DA:338,114
DA:340,35
DA:341,47
DA:343,47
DA:344,139
DA:345,276
DA:346,917
DA:347,917
DA:348,2
DA:349,915
DA:353,45
DA:354,47
DA:356,12
DA:357,12
DA:359,12
DA:360,12
DA:361,12
DA:363,12
DA:364,12
DA:365,2
DA:366,2
DA:367,10
DA:368,10
DA:369,10
DA:371,12
DA:372,4
DA:373,8
DA:375,12
DA:376,0
DA:377,12
DA:379,12
DA:380,3
DA:381,9
DA:383,12
DA:384,3
DA:385,9
DA:387,12
DA:388,12
DA:390,2
DA:391,2
DA:392,2
DA:393,2
DA:394,2
DA:396,2
DA:397,6
DA:398,6
DA:399,3
DA:400,3
DA:403,2
DA:404,1
DA:405,1
DA:406,2
DA:407,1
DA:408,1
DA:409,2
DA:410,0
DA:411,2
DA:412,2
DA:413,0
DA:414,2
DA:415,2
DA:416,0
DA:417,2
DA:418,2
DA:419,0
DA:420,2
DA:421,2
DA:422,0
DA:423,2
DA:424,2
DA:425,0
DA:426,2
DA:427,2
DA:428,0
DA:429,2
DA:431,2
DA:432,0
DA:434,2
DA:437,2
DA:438,2
DA:439,2
DA:440,2
DA:441,2
DA:442,2
DA:443,2
DA:444,2
DA:448,10
DA:449,10
DA:450,10
DA:458,1
DA:459,1
DA:460,1
DA:462,1
DA:463,1
DA:464,1
DA:465,1
DA:468,1
DA:469,1
DA:470,1
DA:472,1
DA:473,1
DA:476,1
DA:477,1
DA:478,1
DA:480,1
DA:481,1
DA:482,1
DA:485,1
DA:486,1
DA:487,1
DA:489,1
DA:490,1
DA:491,1
DA:494,1
DA:495,1
DA:496,1
DA:498,1
DA:499,1
DA:502,1
DA:503,1
DA:504,1
DA:506,1
DA:507,1
DA:510,1
DA:511,1
DA:512,1
DA:514,1
DA:515,1
DA:518,1
DA:519,1
DA:520,1
DA:522,1
DA:523,1
DA:524,1
DA:527,1
DA:528,1
DA:529,1
DA:530,1
DA:532,1
DA:533,1
DA:536,1
DA:537,1
DA:539,1
DA:540,1
DA:541,1
DA:543,1
DA:544,1
BRF:0
BRH:0
LF:417
LH:349
end_of_record
SF:/home/openclaw/dev/yinglichina8848/sqlrustgo/crates/agentsql/src/optimizer.rs
FN:300,_RNvXs_NtCslElCByU4boA_18sqlrustgo_agentsql9optimizerNtB4_16OptimizerServiceNtNtCs8nPosuWgJFh_4core7default7Default7default
FN:140,_RNCNvMNtCslElCByU4boA_18sqlrustgo_agentsql9optimizerNtB4_16OptimizerService7analyze0B6_
FN:326,_RNCNvNtNtCslElCByU4boA_18sqlrustgo_agentsql9optimizer5testss_25test_optimize_select_star0B7_
FN:314,_RNCNvNtNtCslElCByU4boA_18sqlrustgo_agentsql9optimizer5testss_27test_optimize_missing_limit0B7_
FN:191,_RNvMNtCslElCByU4boA_18sqlrustgo_agentsql9optimizerNtB2_16OptimizerService15apply_add_limit
FN:240,_RNvMNtCslElCByU4boA_18sqlrustgo_agentsql9optimizerNtB2_16OptimizerService16apply_index_hint
FN:268,_RNvMNtCslElCByU4boA_18sqlrustgo_agentsql9optimizerNtB2_16OptimizerService16apply_join_order
FN:244,_RNvMNtCslElCByU4boA_18sqlrustgo_agentsql9optimizerNtB2_16OptimizerService16check_join_order
FN:218,_RNvMNtCslElCByU4boA_18sqlrustgo_agentsql9optimizerNtB2_16OptimizerService17apply_select_star
FN:199,_RNvMNtCslElCByU4boA_18sqlrustgo_agentsql9optimizerNtB2_16OptimizerService17check_select_star
FN:294,_RNvMNtCslElCByU4boA_18sqlrustgo_agentsql9optimizerNtB2_16OptimizerService19apply_explicit_join
FN:272,_RNvMNtCslElCByU4boA_18sqlrustgo_agentsql9optimizerNtB2_16OptimizerService19check_implicit_join
FN:222,_RNvMNtCslElCByU4boA_18sqlrustgo_agentsql9optimizerNtB2_16OptimizerService19check_missing_index
FN:170,_RNvMNtCslElCByU4boA_18sqlrustgo_agentsql9optimizerNtB2_16OptimizerService19check_missing_limit
FN:144,_RNvMNtCslElCByU4boA_18sqlrustgo_agentsql9optimizerNtB2_16OptimizerService19estimate_query_time
FN:64,_RNvMNtCslElCByU4boA_18sqlrustgo_agentsql9optimizerNtB2_16OptimizerService3new
FN:137,_RNvMNtCslElCByU4boA_18sqlrustgo_agentsql9optimizerNtB2_16OptimizerService7analyze
FN:106,_RNvMNtCslElCByU4boA_18sqlrustgo_agentsql9optimizerNtB2_16OptimizerService8optimize
FN:330,_RNvNtNtCslElCByU4boA_18sqlrustgo_agentsql9optimizer5testss_20test_analyze_queries
FN:319,_RNvNtNtCslElCByU4boA_18sqlrustgo_agentsql9optimizer5testss_25test_optimize_select_star
FN:338,_RNvNtNtCslElCByU4boA_18sqlrustgo_agentsql9optimizer5testss_25test_performance_estimate
FN:346,_RNvNtNtCslElCByU4boA_18sqlrustgo_agentsql9optimizer5testss_26test_suggestion_priorities
FN:310,_RNvNtNtCslElCByU4boA_18sqlrustgo_agentsql9optimizer5testss_27test_optimize_missing_limit
FNDA:0,_RNvXs_NtCslElCByU4boA_18sqlrustgo_agentsql9optimizerNtB4_16OptimizerServiceNtNtCs8nPosuWgJFh_4core7default7Default7default
FNDA:15,_RNCNvMNtCslElCByU4boA_18sqlrustgo_agentsql9optimizerNtB4_16OptimizerService7analyze0B6_
FNDA:2,_RNCNvNtNtCslElCByU4boA_18sqlrustgo_agentsql9optimizer5testss_25test_optimize_select_star0B7_
FNDA:1,_RNCNvNtNtCslElCByU4boA_18sqlrustgo_agentsql9optimizer5testss_27test_optimize_missing_limit0B7_
FNDA:5,_RNvMNtCslElCByU4boA_18sqlrustgo_agentsql9optimizerNtB2_16OptimizerService15apply_add_limit
FNDA:1,_RNvMNtCslElCByU4boA_18sqlrustgo_agentsql9optimizerNtB2_16OptimizerService16apply_index_hint
FNDA:0,_RNvMNtCslElCByU4boA_18sqlrustgo_agentsql9optimizerNtB2_16OptimizerService16apply_join_order
FNDA:8,_RNvMNtCslElCByU4boA_18sqlrustgo_agentsql9optimizerNtB2_16OptimizerService16check_join_order
FNDA:5,_RNvMNtCslElCByU4boA_18sqlrustgo_agentsql9optimizerNtB2_16OptimizerService17apply_select_star
FNDA:8,_RNvMNtCslElCByU4boA_18sqlrustgo_agentsql9optimizerNtB2_16OptimizerService17check_select_star
FNDA:0,_RNvMNtCslElCByU4boA_18sqlrustgo_agentsql9optimizerNtB2_16OptimizerService19apply_explicit_join
FNDA:8,_RNvMNtCslElCByU4boA_18sqlrustgo_agentsql9optimizerNtB2_16OptimizerService19check_implicit_join
FNDA:8,_RNvMNtCslElCByU4boA_18sqlrustgo_agentsql9optimizerNtB2_16OptimizerService19check_missing_index
FNDA:8,_RNvMNtCslElCByU4boA_18sqlrustgo_agentsql9optimizerNtB2_16OptimizerService19check_missing_limit
FNDA:10,_RNvMNtCslElCByU4boA_18sqlrustgo_agentsql9optimizerNtB2_16OptimizerService19estimate_query_time
FNDA:8,_RNvMNtCslElCByU4boA_18sqlrustgo_agentsql9optimizerNtB2_16OptimizerService3new
FNDA:3,_RNvMNtCslElCByU4boA_18sqlrustgo_agentsql9optimizerNtB2_16OptimizerService7analyze
FNDA:5,_RNvMNtCslElCByU4boA_18sqlrustgo_agentsql9optimizerNtB2_16OptimizerService8optimize
FNDA:1,_RNvNtNtCslElCByU4boA_18sqlrustgo_agentsql9optimizer5testss_20test_analyze_queries
FNDA:1,_RNvNtNtCslElCByU4boA_18sqlrustgo_agentsql9optimizer5testss_25test_optimize_select_star
FNDA:1,_RNvNtNtCslElCByU4boA_18sqlrustgo_agentsql9optimizer5testss_25test_performance_estimate
FNDA:1,_RNvNtNtCslElCByU4boA_18sqlrustgo_agentsql9optimizer5testss_26test_suggestion_priorities
FNDA:1,_RNvNtNtCslElCByU4boA_18sqlrustgo_agentsql9optimizer5testss_27test_optimize_missing_limit
FNF:23
FNH:20
DA:64,8
DA:65,8
DA:66,8
DA:67,8
DA:68,8
DA:69,8
DA:70,8
DA:71,8
DA:72,8
DA:73,8
DA:74,8
DA:75,8
DA:76,8
DA:77,8
DA:78,8
DA:79,8
DA:80,8
DA:81,8
DA:82,8
DA:83,8
DA:84,8
DA:85,8
DA:86,8
DA:87,8
DA:88,8
DA:89,8
DA:90,8
DA:91,8
DA:92,8
DA:93,8
DA:94,8
DA:95,8
DA:96,8
DA:97,8
DA:98,8
DA:99,8
DA:100,8
DA:103,8
DA:104,8
DA:106,5
DA:107,5
DA:108,5
DA:110,25
DA:111,25
DA:112,11
DA:113,11
DA:114,14
DA:117,5
DA:118,5
DA:119,5
DA:120,5
DA:122,0
DA:125,5
DA:126,5
DA:127,5
DA:128,5
DA:129,5
DA:130,5
DA:131,5
DA:132,5
DA:133,5
DA:134,5
DA:135,5
DA:137,3
DA:138,3
DA:139,3
DA:140,15
DA:141,3
DA:142,3
DA:144,10
DA:145,10
DA:146,10
DA:148,10
DA:149,10
DA:150,10
DA:151,10
DA:152,0
DA:153,10
DA:154,10
DA:155,0
DA:156,10
DA:157,10
DA:158,8
DA:159,8
DA:160,10
DA:161,0
DA:162,10
DA:163,10
DA:164,0
DA:165,10
DA:167,10
DA:168,10
DA:170,8
DA:171,8
DA:172,8
DA:173,8
DA:174,8
DA:176,8
DA:177,8
DA:178,8
DA:179,8
DA:180,8
DA:181,8
DA:182,8
DA:183,8
DA:184,8
DA:185,8
DA:187,0
DA:189,8
DA:191,5
DA:192,5
DA:193,0
DA:195,5
DA:197,5
DA:199,8
DA:200,8
DA:201,8
DA:202,8
DA:203,8
DA:204,8
DA:205,8
DA:206,8
DA:207,8
DA:208,8
DA:209,8
DA:210,8
DA:211,8
DA:212,8
DA:214,0
DA:216,8
DA:218,5
DA:219,5
DA:220,5
DA:222,8
DA:223,8
DA:225,8
DA:226,3
DA:227,3
DA:228,3
DA:229,3
DA:230,3
DA:231,3
DA:232,3
DA:233,3
DA:234,3
DA:235,3
DA:236,5
DA:237,5
DA:238,8
DA:240,1
DA:241,1
DA:242,1
DA:244,8
DA:245,8
DA:246,8
DA:247,8
DA:248,8
DA:249,0
DA:250,0
DA:251,8
DA:252,0
DA:253,0
DA:254,0
DA:255,0
DA:256,0
DA:257,0
DA:258,0
DA:259,0
DA:260,0
DA:261,0
DA:262,0
DA:263,8
DA:264,0
DA:265,8
DA:266,8
DA:268,0
DA:269,0
DA:270,0
DA:272,8
DA:273,8
DA:274,8
DA:275,8
DA:276,3
DA:277,0
DA:279,0
DA:280,0
DA:281,0
DA:282,0
DA:283,0
DA:284,0
DA:285,0
DA:286,0
DA:287,0
DA:288,0
DA:289,0
DA:290,8
DA:291,8
DA:292,8
DA:294,0
DA:295,0
DA:296,0
DA:300,0
DA:301,0
DA:302,0
DA:310,1
DA:311,1
DA:312,1
DA:314,1
DA:315,1
DA:316,1
DA:319,1
DA:320,1
DA:321,1
DA:323,1
DA:324,1
DA:325,1
DA:326,2
DA:327,1
DA:330,1
DA:331,1
DA:332,1
DA:334,1
DA:335,1
DA:338,1
DA:339,1
DA:340,1
DA:342,1
DA:343,1
DA:346,1
DA:347,1
DA:348,1
DA:350,2
DA:351,2
DA:352,2
DA:356,1
BRF:0
BRH:0
LF:238
LH:195
end_of_record
SF:/home/openclaw/dev/yinglichina8848/sqlrustgo/crates/agentsql/src/policy_engine.rs
FN:208,_RNCNvMNtCslElCByU4boA_18sqlrustgo_agentsql13policy_engineNtB4_12PolicyEngine11simple_like0B6_
FN:202,_RNCNvMNtCslElCByU4boA_18sqlrustgo_agentsql13policy_engineNtB4_12PolicyEngine15compare_numeric0B6_
FN:212,_RNvMNtCslElCByU4boA_18sqlrustgo_agentsql13policy_engineNtB2_12PolicyEngine10add_policy
FN:216,_RNvMNtCslElCByU4boA_18sqlrustgo_agentsql13policy_engineNtB2_12PolicyEngine13list_policies
FN:222,_RNvXs_NtCslElCByU4boA_18sqlrustgo_agentsql13policy_engineNtB4_12PolicyEngineNtNtCs8nPosuWgJFh_4core7default7Default7default
FN:248,_RNvNtNtCslElCByU4boA_18sqlrustgo_agentsql13policy_engine5testss_23test_policy_engine_deny
FN:232,_RNvNtNtCslElCByU4boA_18sqlrustgo_agentsql13policy_engine5testss_24test_policy_engine_check
FN:267,_RNvNtNtCslElCByU4boA_18sqlrustgo_agentsql13policy_engine5testss_34test_policy_engine_with_conditions
FN:205,_RNvMNtCslElCByU4boA_18sqlrustgo_agentsql13policy_engineNtB2_12PolicyEngine11simple_like
FN:124,_RNvMNtCslElCByU4boA_18sqlrustgo_agentsql13policy_engineNtB2_12PolicyEngine14policy_matches
FN:199,_RNvMNtCslElCByU4boA_18sqlrustgo_agentsql13policy_engineNtB2_12PolicyEngine15compare_numeric
FN:69,_RNvMNtCslElCByU4boA_18sqlrustgo_agentsql13policy_engineNtB2_12PolicyEngine16default_policies
FN:146,_RNvMNtCslElCByU4boA_18sqlrustgo_agentsql13policy_engineNtB2_12PolicyEngine16resource_matches
FN:158,_RNvMNtCslElCByU4boA_18sqlrustgo_agentsql13policy_engineNtB2_12PolicyEngine17condition_matches
FN:64,_RNvMNtCslElCByU4boA_18sqlrustgo_agentsql13policy_engineNtB2_12PolicyEngine3new
FN:106,_RNvMNtCslElCByU4boA_18sqlrustgo_agentsql13policy_engineNtB2_12PolicyEngine5check
FNDA:0,_RNCNvMNtCslElCByU4boA_18sqlrustgo_agentsql13policy_engineNtB4_12PolicyEngine11simple_like0B6_
FNDA:0,_RNCNvMNtCslElCByU4boA_18sqlrustgo_agentsql13policy_engineNtB4_12PolicyEngine15compare_numeric0B6_
FNDA:0,_RNvMNtCslElCByU4boA_18sqlrustgo_agentsql13policy_engineNtB2_12PolicyEngine10add_policy
FNDA:0,_RNvMNtCslElCByU4boA_18sqlrustgo_agentsql13policy_engineNtB2_12PolicyEngine13list_policies
FNDA:0,_RNvXs_NtCslElCByU4boA_18sqlrustgo_agentsql13policy_engineNtB4_12PolicyEngineNtNtCs8nPosuWgJFh_4core7default7Default7default
FNDA:1,_RNvNtNtCslElCByU4boA_18sqlrustgo_agentsql13policy_engine5testss_23test_policy_engine_deny
FNDA:1,_RNvNtNtCslElCByU4boA_18sqlrustgo_agentsql13policy_engine5testss_24test_policy_engine_check
FNDA:1,_RNvNtNtCslElCByU4boA_18sqlrustgo_agentsql13policy_engine5testss_34test_policy_engine_with_conditions
FNDA:0,_RNvMNtCslElCByU4boA_18sqlrustgo_agentsql13policy_engineNtB2_12PolicyEngine11simple_like
FNDA:10,_RNvMNtCslElCByU4boA_18sqlrustgo_agentsql13policy_engineNtB2_12PolicyEngine14policy_matches
FNDA:0,_RNvMNtCslElCByU4boA_18sqlrustgo_agentsql13policy_engineNtB2_12PolicyEngine15compare_numeric
FNDA:5,_RNvMNtCslElCByU4boA_18sqlrustgo_agentsql13policy_engineNtB2_12PolicyEngine16default_policies
FNDA:10,_RNvMNtCslElCByU4boA_18sqlrustgo_agentsql13policy_engineNtB2_12PolicyEngine16resource_matches
FNDA:1,_RNvMNtCslElCByU4boA_18sqlrustgo_agentsql13policy_engineNtB2_12PolicyEngine17condition_matches
FNDA:5,_RNvMNtCslElCByU4boA_18sqlrustgo_agentsql13policy_engineNtB2_12PolicyEngine3new
FNDA:5,_RNvMNtCslElCByU4boA_18sqlrustgo_agentsql13policy_engineNtB2_12PolicyEngine5check
FNF:16
FNH:9
DA:64,5
DA:65,5
DA:66,5
DA:67,5
DA:69,5
DA:70,5
DA:71,5
DA:72,5
DA:73,5
DA:74,5
DA:75,5
DA:76,5
DA:77,5
DA:78,5
DA:79,5
DA:80,5
DA:81,5
DA:82,5
DA:83,5
DA:84,5
DA:85,5
DA:86,5
DA:87,5
DA:88,5
DA:89,5
DA:90,5
DA:91,5
DA:92,5
DA:93,5
DA:94,5
DA:95,5
DA:96,5
DA:97,5
DA:98,5
DA:99,5
DA:100,5
DA:101,5
DA:102,5
DA:104,5
DA:106,5
DA:107,10
DA:108,10
DA:109,5
DA:110,5
DA:111,5
DA:112,5
DA:113,5
DA:114,5
DA:117,0
DA:118,0
DA:119,0
DA:120,0
DA:121,0
DA:122,5
DA:124,10
DA:125,10
DA:126,2
DA:127,8
DA:129,8
DA:130,3
DA:131,5
DA:133,5
DA:134,1
DA:135,1
DA:136,0
DA:137,1
DA:139,4
DA:140,0
DA:141,4
DA:143,5
DA:144,10
DA:146,10
DA:147,10
DA:148,3
DA:149,7
DA:151,7
DA:152,5
DA:153,2
DA:155,2
DA:156,10
DA:158,1
DA:159,1
DA:160,1
DA:161,1
DA:162,1
DA:163,0
DA:166,1
DA:167,1
DA:168,0
DA:169,0
DA:170,0
DA:171,0
DA:172,0
DA:174,0
DA:175,0
DA:177,0
DA:181,0
DA:182,0
DA:184,0
DA:188,0
DA:189,0
DA:191,0
DA:194,0
DA:195,0
DA:197,1
DA:199,0
DA:200,0
DA:201,0
DA:202,0
DA:203,0
DA:205,0
DA:206,0
DA:207,0
DA:208,0
DA:209,0
DA:210,0
DA:212,0
DA:213,0
DA:214,0
DA:216,0
DA:217,0
DA:218,0
DA:222,0
DA:223,0
DA:224,0
DA:232,1
DA:233,1
DA:235,1
DA:236,1
DA:237,1
DA:238,1
DA:239,1
DA:240,1
DA:242,1
DA:243,1
DA:244,1
DA:245,1
DA:248,1
DA:249,1
DA:251,1
DA:252,1
DA:253,1
DA:254,1
DA:255,1
DA:256,1
DA:258,1
DA:259,1
DA:260,1
DA:262,1
DA:264,1
DA:267,1
DA:268,1
DA:270,1
DA:271,1
DA:273,1
DA:274,1
DA:275,1
DA:276,1
DA:277,1
DA:278,1
DA:280,1
DA:281,1
DA:282,1
BRF:0
BRH:0
LF:165
LH:119
end_of_record
SF:/home/openclaw/dev/yinglichina8848/sqlrustgo/crates/agentsql/src/schema.rs
FN:452,_RNvMNtCslElCByU4boA_18sqlrustgo_agentsql6schemaNtB2_13SchemaService19get_view_definition
FN:458,_RNvXs_NtCslElCByU4boA_18sqlrustgo_agentsql6schemaNtB4_13SchemaServiceNtNtCs8nPosuWgJFh_4core7default7Default7default
FN:325,_RNvMNtCslElCByU4boA_18sqlrustgo_agentsql6schemaNtB2_13SchemaService10get_schema
FN:448,_RNvMNtCslElCByU4boA_18sqlrustgo_agentsql6schemaNtB2_13SchemaService10list_views
FN:444,_RNvMNtCslElCByU4boA_18sqlrustgo_agentsql6schemaNtB2_13SchemaService11list_tables
FN:407,_RNvMNtCslElCByU4boA_18sqlrustgo_agentsql6schemaNtB2_13SchemaService16get_table_schema
FN:48,_RNvMNtCslElCByU4boA_18sqlrustgo_agentsql6schemaNtB2_13SchemaService3new
FN:333,_RNCNCNvMNtCslElCByU4boA_18sqlrustgo_agentsql6schemaNtB6_13SchemaService10get_schema00B8_
FN:366,_RNCNCNvMNtCslElCByU4boA_18sqlrustgo_agentsql6schemaNtB6_13SchemaService10get_schema0s_0B8_
FN:412,_RNCNCNvMNtCslElCByU4boA_18sqlrustgo_agentsql6schemaNtB6_13SchemaService16get_table_schema00B8_
FN:426,_RNCNCNvMNtCslElCByU4boA_18sqlrustgo_agentsql6schemaNtB6_13SchemaService16get_table_schema0s_0B8_
FN:329,_RNCNvMNtCslElCByU4boA_18sqlrustgo_agentsql6schemaNtB4_13SchemaService10get_schema0B6_
FN:391,_RNCNvMNtCslElCByU4boA_18sqlrustgo_agentsql6schemaNtB4_13SchemaService10get_schemas_0B6_
FN:408,_RNCNvMNtCslElCByU4boA_18sqlrustgo_agentsql6schemaNtB4_13SchemaService16get_table_schema0B6_
FNDA:0,_RNvMNtCslElCByU4boA_18sqlrustgo_agentsql6schemaNtB2_13SchemaService19get_view_definition
FNDA:0,_RNvXs_NtCslElCByU4boA_18sqlrustgo_agentsql6schemaNtB4_13SchemaServiceNtNtCs8nPosuWgJFh_4core7default7Default7default
FNDA:0,_RNvMNtCslElCByU4boA_18sqlrustgo_agentsql6schemaNtB2_13SchemaService10get_schema
FNDA:1,_RNvMNtCslElCByU4boA_18sqlrustgo_agentsql6schemaNtB2_13SchemaService10list_views
FNDA:50,_RNvMNtCslElCByU4boA_18sqlrustgo_agentsql6schemaNtB2_13SchemaService11list_tables
FNDA:1,_RNvMNtCslElCByU4boA_18sqlrustgo_agentsql6schemaNtB2_13SchemaService16get_table_schema
FNDA:16,_RNvMNtCslElCByU4boA_18sqlrustgo_agentsql6schemaNtB2_13SchemaService3new
FNDA:0,_RNCNCNvMNtCslElCByU4boA_18sqlrustgo_agentsql6schemaNtB6_13SchemaService10get_schema00B8_
FNDA:0,_RNCNCNvMNtCslElCByU4boA_18sqlrustgo_agentsql6schemaNtB6_13SchemaService10get_schema0s_0B8_
FNDA:5,_RNCNCNvMNtCslElCByU4boA_18sqlrustgo_agentsql6schemaNtB6_13SchemaService16get_table_schema00B8_
FNDA:1,_RNCNCNvMNtCslElCByU4boA_18sqlrustgo_agentsql6schemaNtB6_13SchemaService16get_table_schema0s_0B8_
FNDA:0,_RNCNvMNtCslElCByU4boA_18sqlrustgo_agentsql6schemaNtB4_13SchemaService10get_schema0B6_
FNDA:0,_RNCNvMNtCslElCByU4boA_18sqlrustgo_agentsql6schemaNtB4_13SchemaService10get_schemas_0B6_
FNDA:1,_RNCNvMNtCslElCByU4boA_18sqlrustgo_agentsql6schemaNtB4_13SchemaService16get_table_schema0B6_
FNF:14
FNH:7
DA:48,16
DA:49,16
DA:51,16
DA:52,16
DA:53,16
DA:54,16
DA:55,16
DA:56,16
DA:57,16
DA:58,16
DA:59,16
DA:60,16
DA:61,16
DA:62,16
DA:63,16
DA:64,16
DA:65,16
DA:66,16
DA:67,16
DA:68,16
DA:69,16
DA:70,16
DA:71,16
DA:72,16
DA:73,16
DA:74,16
DA:75,16
DA:76,16
DA:77,16
DA:78,16
DA:79,16
DA:80,16
DA:81,16
DA:82,16
DA:83,16
DA:84,16
DA:85,16
DA:86,16
DA:87,16
DA:88,16
DA:89,16
DA:90,16
DA:91,16
DA:92,16
DA:93,16
DA:94,16
DA:95,16
DA:96,16
DA:97,16
DA:98,16
DA:99,16
DA:100,16
DA:101,16
DA:102,16
DA:103,16
DA:104,16
DA:105,16
DA:106,16
DA:107,16
DA:108,16
DA:109,16
DA:110,16
DA:111,16
DA:112,16
DA:113,16
DA:114,16
DA:115,16
DA:116,16
DA:117,16
DA:118,16
DA:119,16
DA:120,16
DA:121,16
DA:122,16
DA:123,16
DA:124,16
DA:127,16
DA:128,16
DA:129,16
DA:130,16
DA:131,16
DA:132,16
DA:133,16
DA:134,16
DA:135,16
DA:136,16
DA:137,16
DA:138,16
DA:139,16
DA:140,16
DA:141,16
DA:142,16
DA:143,16
DA:144,16
DA:145,16
DA:146,16
DA:147,16
DA:148,16
DA:149,16
DA:150,16
DA:151,16
DA:152,16
DA:153,16
DA:154,16
DA:155,16
DA:156,16
DA:157,16
DA:158,16
DA:159,16
DA:160,16
DA:161,16
DA:162,16
DA:163,16
DA:164,16
DA:165,16
DA:166,16
DA:167,16
DA:168,16
DA:169,16
DA:170,16
DA:171,16
DA:172,16
DA:173,16
DA:174,16
DA:175,16
DA:176,16
DA:177,16
DA:178,16
DA:179,16
DA:180,16
DA:181,16
DA:182,16
DA:183,16
DA:184,16
DA:185,16
DA:186,16
DA:187,16
DA:188,16
DA:189,16
DA:190,16
DA:191,16
DA:192,16
DA:193,16
DA:194,16
DA:195,16
DA:198,16
DA:199,16
DA:200,16
DA:201,16
DA:202,16
DA:203,16
DA:204,16
DA:205,16
DA:206,16
DA:207,16
DA:208,16
DA:209,16
DA:210,16
DA:211,16
DA:212,16
DA:213,16
DA:214,16
DA:215,16
DA:216,16
DA:217,16
DA:218,16
DA:219,16
DA:220,16
DA:221,16
DA:222,16
DA:223,16
DA:224,16
DA:225,16
DA:226,16
DA:227,16
DA:228,16
DA:229,16
DA:230,16
DA:231,16
DA:232,16
DA:233,16
DA:234,16
DA:235,16
DA:236,16
DA:237,16
DA:238,16
DA:239,16
DA:240,16
DA:241,16
DA:242,16
DA:243,16
DA:244,16
DA:245,16
DA:246,16
DA:247,16
DA:248,16
DA:249,16
DA:250,16
DA:251,16
DA:252,16
DA:253,16
DA:254,16
DA:255,16
DA:256,16
DA:257,16
DA:258,16
DA:259,16
DA:260,16
DA:261,16
DA:262,16
DA:263,16
DA:264,16
DA:265,16
DA:266,16
DA:267,16
DA:268,16
DA:269,16
DA:270,16
DA:271,16
DA:272,16
DA:273,16
DA:274,16
DA:275,16
DA:276,16
DA:277,16
DA:278,16
DA:279,16
DA:280,16
DA:281,16
DA:282,16
DA:283,16
DA:284,16
DA:285,16
DA:286,16
DA:287,16
DA:288,16
DA:289,16
DA:290,16
DA:291,16
DA:292,16
DA:293,16
DA:294,16
DA:295,16
DA:296,16
DA:297,16
DA:298,16
DA:299,16
DA:300,16
DA:301,16
DA:302,16
DA:303,16
DA:304,16
DA:305,16
DA:306,16
DA:307,16
DA:308,16
DA:309,16
DA:310,16
DA:311,16
DA:312,16
DA:313,16
DA:316,16
DA:317,16
DA:318,16
DA:319,16
DA:320,16
DA:322,16
DA:323,16
DA:325,0
DA:326,0
DA:327,0
DA:328,0
DA:329,0
DA:330,0
DA:331,0
DA:332,0
DA:333,0
DA:334,0
DA:335,0
DA:336,0
DA:337,0
DA:338,0
DA:339,0
DA:341,0
DA:342,0
DA:343,0
DA:344,0
DA:345,0
DA:346,0
DA:347,0
DA:348,0
DA:349,0
DA:350,0
DA:351,0
DA:352,0
DA:353,0
DA:354,0
DA:355,0
DA:356,0
DA:357,0
DA:358,0
DA:359,0
DA:360,0
DA:361,0
DA:363,0
DA:364,0
DA:365,0
DA:366,0
DA:367,0
DA:368,0
DA:369,0
DA:370,0
DA:371,0
DA:373,0
DA:374,0
DA:376,0
DA:377,0
DA:378,0
DA:379,0
DA:381,0
DA:382,0
DA:383,0
DA:384,0
DA:385,0
DA:386,0
DA:388,0
DA:389,0
DA:390,0
DA:391,0
DA:392,0
DA:393,0
DA:394,0
DA:396,0
DA:397,0
DA:399,0
DA:400,0
DA:401,0
DA:402,0
DA:403,0
DA:405,0
DA:407,1
DA:408,1
DA:409,1
DA:410,1
DA:411,1
DA:412,5
DA:413,5
DA:414,5
DA:415,5
DA:416,5
DA:417,5
DA:418,5
DA:420,5
DA:421,1
DA:423,1
DA:424,1
DA:425,1
DA:426,1
DA:427,1
DA:428,1
DA:429,1
DA:430,1
DA:431,1
DA:433,1
DA:434,1
DA:436,1
DA:437,1
DA:438,1
DA:439,1
DA:441,1
DA:442,1
DA:444,50
DA:445,50
DA:446,50
DA:448,1
DA:449,1
DA:450,1
DA:452,0
DA:453,0
DA:454,0
DA:458,0
DA:459,0
DA:460,0
BRF:0
BRH:0
LF:390
LH:308
end_of_record
SF:/home/openclaw/dev/yinglichina8848/sqlrustgo/crates/agentsql/src/stats.rs
FN:173,_RNvXs_NtCslElCByU4boA_18sqlrustgo_agentsql5statsNtB4_12StatsServiceNtNtCs8nPosuWgJFh_4core7default7Default7default
FN:158,_RNvMNtCslElCByU4boA_18sqlrustgo_agentsql5statsNtB2_12StatsService15get_query_stats
FN:137,_RNvMNtCslElCByU4boA_18sqlrustgo_agentsql5statsNtB2_12StatsService15get_table_stats
FN:34,_RNvMNtCslElCByU4boA_18sqlrustgo_agentsql5statsNtB2_12StatsService3new
FN:95,_RNvMNtCslElCByU4boA_18sqlrustgo_agentsql5statsNtB2_12StatsService9get_stats
FN:178,_RNvNtCslElCByU4boA_18sqlrustgo_agentsql5stats17current_timestamp
FN:138,_RNCNvMNtCslElCByU4boA_18sqlrustgo_agentsql5statsNtB4_12StatsService15get_table_stats0B6_
FN:99,_RNCNvMNtCslElCByU4boA_18sqlrustgo_agentsql5statsNtB4_12StatsService9get_stats0B6_
FNDA:0,_RNvXs_NtCslElCByU4boA_18sqlrustgo_agentsql5statsNtB4_12StatsServiceNtNtCs8nPosuWgJFh_4core7default7Default7default
FNDA:1,_RNvMNtCslElCByU4boA_18sqlrustgo_agentsql5statsNtB2_12StatsService15get_query_stats
FNDA:0,_RNvMNtCslElCByU4boA_18sqlrustgo_agentsql5statsNtB2_12StatsService15get_table_stats
FNDA:2,_RNvMNtCslElCByU4boA_18sqlrustgo_agentsql5statsNtB2_12StatsService3new
FNDA:1,_RNvMNtCslElCByU4boA_18sqlrustgo_agentsql5statsNtB2_12StatsService9get_stats
FNDA:1,_RNvNtCslElCByU4boA_18sqlrustgo_agentsql5stats17current_timestamp
FNDA:0,_RNCNvMNtCslElCByU4boA_18sqlrustgo_agentsql5statsNtB4_12StatsService15get_table_stats0B6_
FNDA:3,_RNCNvMNtCslElCByU4boA_18sqlrustgo_agentsql5statsNtB4_12StatsService9get_stats0B6_
FNF:8
FNH:5
DA:34,2
DA:35,2
DA:37,2
DA:38,2
DA:39,2
DA:40,2
DA:41,2
DA:42,2
DA:43,2
DA:44,2
DA:45,2
DA:46,2
DA:47,2
DA:48,2
DA:51,2
DA:52,2
DA:53,2
DA:54,2
DA:55,2
DA:56,2
DA:57,2
DA:58,2
DA:59,2
DA:60,2
DA:61,2
DA:62,2
DA:65,2
DA:66,2
DA:67,2
DA:68,2
DA:69,2
DA:70,2
DA:71,2
DA:72,2
DA:73,2
DA:74,2
DA:75,2
DA:76,2
DA:79,2
DA:80,2
DA:81,2
DA:82,2
DA:83,2
DA:84,2
DA:85,2
DA:86,2
DA:87,2
DA:89,2
DA:90,2
DA:91,2
DA:92,2
DA:93,2
DA:95,1
DA:96,1
DA:97,1
DA:98,1
DA:99,3
DA:100,3
DA:101,3
DA:102,3
DA:103,3
DA:104,3
DA:105,3
DA:106,3
DA:107,3
DA:109,3
DA:110,3
DA:111,3
DA:112,3
DA:113,3
DA:114,3
DA:115,3
DA:116,3
DA:117,1
DA:119,1
DA:120,1
DA:121,1
DA:122,1
DA:123,1
DA:124,1
DA:125,1
DA:126,1
DA:127,1
DA:128,1
DA:129,1
DA:130,1
DA:131,1
DA:132,1
DA:135,1
DA:137,0
DA:138,0
DA:139,0
DA:140,0
DA:141,0
DA:142,0
DA:143,0
DA:144,0
DA:145,0
DA:146,0
DA:148,0
DA:149,0
DA:150,0
DA:151,0
DA:152,0
DA:153,0
DA:154,0
DA:155,0
DA:156,0
DA:158,1
DA:159,1
DA:160,1
DA:161,1
DA:162,1
DA:163,1
DA:164,1
DA:165,1
DA:166,1
DA:167,1
DA:169,1
DA:173,0
DA:174,0
DA:175,0
DA:178,1
DA:179,1
DA:180,1
DA:181,1
DA:182,1
DA:183,1
DA:184,1
BRF:0
BRH:0
LF:131
LH:108
end_of_record