SF:/home/openclaw/dev/yinglichina8848/sqlrustgo/crates/security/src/alert.rs
FN:76,_RNvMNtCs2XZViv7ZMYs_18sqlrustgo_security5alertNtB2_5Alert11acknowledge
FN:61,_RNvMNtCs2XZViv7ZMYs_18sqlrustgo_security5alertNtB2_5Alert14with_source_ip
FN:66,_RNvMNtCs2XZViv7ZMYs_18sqlrustgo_security5alertNtB2_5Alert16with_sql_pattern
FN:43,_RNvMNtCs2XZViv7ZMYs_18sqlrustgo_security5alertNtB2_5Alert3new
FN:71,_RNvMNtCs2XZViv7ZMYs_18sqlrustgo_security5alertNtB2_5Alert9with_user
FN:249,_RNvMs0_NtCs2XZViv7ZMYs_18sqlrustgo_security5alertNtB5_12AlertManager10get_alerts
FN:133,_RNvMs0_NtCs2XZViv7ZMYs_18sqlrustgo_security5alertNtB5_12AlertManager10send_alert
FN:257,_RNvMs0_NtCs2XZViv7ZMYs_18sqlrustgo_security5alertNtB5_12AlertManager12clear_alerts
FN:261,_RNvMs0_NtCs2XZViv7ZMYs_18sqlrustgo_security5alertNtB5_12AlertManager17acknowledge_alert
FN:183,_RNvMs0_NtCs2XZViv7ZMYs_18sqlrustgo_security5alertNtB5_12AlertManager18send_timeout_alert
FN:234,_RNvMs0_NtCs2XZViv7ZMYs_18sqlrustgo_security5alertNtB5_12AlertManager21send_ip_blocked_alert
FN:213,_RNvMs0_NtCs2XZViv7ZMYs_18sqlrustgo_security5alertNtB5_12AlertManager24send_batch_blocked_alert
FN:162,_RNvMs0_NtCs2XZViv7ZMYs_18sqlrustgo_security5alertNtB5_12AlertManager24send_sql_injection_alert
FN:198,_RNvMs0_NtCs2XZViv7ZMYs_18sqlrustgo_security5alertNtB5_12AlertManager26send_full_table_scan_alert
FN:125,_RNvMs0_NtCs2XZViv7ZMYs_18sqlrustgo_security5alertNtB5_12AlertManager3new
FN:274,_RNvMs0_NtCs2XZViv7ZMYs_18sqlrustgo_security5alertNtB5_12AlertManager9get_stats
FN:95,_RNvXs_NtCs2XZViv7ZMYs_18sqlrustgo_security5alertNtB4_11AlertConfigNtNtCs8nPosuWgJFh_4core7default7Default7default
FN:262,_RNCNvMs0_NtCs2XZViv7ZMYs_18sqlrustgo_security5alertNtB7_12AlertManager17acknowledge_alert0B9_
FN:229,_RNCNvMs0_NtCs2XZViv7ZMYs_18sqlrustgo_security5alertNtB7_12AlertManager24send_batch_blocked_alert0B9_
FN:177,_RNCNvMs0_NtCs2XZViv7ZMYs_18sqlrustgo_security5alertNtB7_12AlertManager24send_sql_injection_alert0B9_
FN:178,_RNCNvMs0_NtCs2XZViv7ZMYs_18sqlrustgo_security5alertNtB7_12AlertManager24send_sql_injection_alerts_0B9_
FN:282,_RNvMs0_NtCs2XZViv7ZMYs_18sqlrustgo_security5alertNtB5_12AlertManager10get_config
FN:278,_RNvMs0_NtCs2XZViv7ZMYs_18sqlrustgo_security5alertNtB5_12AlertManager13update_config
FN:253,_RNvMs0_NtCs2XZViv7ZMYs_18sqlrustgo_security5alertNtB5_12AlertManager14get_alerts_mut
FN:295,_RNvNtCs2XZViv7ZMYs_18sqlrustgo_security5alert27create_shared_alert_manager
FN:288,_RNvXs1_NtCs2XZViv7ZMYs_18sqlrustgo_security5alertNtB5_12AlertManagerNtNtCs8nPosuWgJFh_4core7default7Default7default
FNDA:2,_RNvMNtCs2XZViv7ZMYs_18sqlrustgo_security5alertNtB2_5Alert11acknowledge
FNDA:5,_RNvMNtCs2XZViv7ZMYs_18sqlrustgo_security5alertNtB2_5Alert14with_source_ip
FNDA:6,_RNvMNtCs2XZViv7ZMYs_18sqlrustgo_security5alertNtB2_5Alert16with_sql_pattern
FNDA:16,_RNvMNtCs2XZViv7ZMYs_18sqlrustgo_security5alertNtB2_5Alert3new
FNDA:1,_RNvMNtCs2XZViv7ZMYs_18sqlrustgo_security5alertNtB2_5Alert9with_user
FNDA:7,_RNvMs0_NtCs2XZViv7ZMYs_18sqlrustgo_security5alertNtB5_12AlertManager10get_alerts
FNDA:13,_RNvMs0_NtCs2XZViv7ZMYs_18sqlrustgo_security5alertNtB5_12AlertManager10send_alert
FNDA:1,_RNvMs0_NtCs2XZViv7ZMYs_18sqlrustgo_security5alertNtB5_12AlertManager12clear_alerts
FNDA:2,_RNvMs0_NtCs2XZViv7ZMYs_18sqlrustgo_security5alertNtB5_12AlertManager17acknowledge_alert
FNDA:1,_RNvMs0_NtCs2XZViv7ZMYs_18sqlrustgo_security5alertNtB5_12AlertManager18send_timeout_alert
FNDA:1,_RNvMs0_NtCs2XZViv7ZMYs_18sqlrustgo_security5alertNtB5_12AlertManager21send_ip_blocked_alert
FNDA:1,_RNvMs0_NtCs2XZViv7ZMYs_18sqlrustgo_security5alertNtB5_12AlertManager24send_batch_blocked_alert
FNDA:2,_RNvMs0_NtCs2XZViv7ZMYs_18sqlrustgo_security5alertNtB5_12AlertManager24send_sql_injection_alert
FNDA:1,_RNvMs0_NtCs2XZViv7ZMYs_18sqlrustgo_security5alertNtB5_12AlertManager26send_full_table_scan_alert
FNDA:9,_RNvMs0_NtCs2XZViv7ZMYs_18sqlrustgo_security5alertNtB5_12AlertManager3new
FNDA:3,_RNvMs0_NtCs2XZViv7ZMYs_18sqlrustgo_security5alertNtB5_12AlertManager9get_stats
FNDA:10,_RNvXs_NtCs2XZViv7ZMYs_18sqlrustgo_security5alertNtB4_11AlertConfigNtNtCs8nPosuWgJFh_4core7default7Default7default
FNDA:1,_RNCNvMs0_NtCs2XZViv7ZMYs_18sqlrustgo_security5alertNtB7_12AlertManager17acknowledge_alert0B9_
FNDA:0,_RNCNvMs0_NtCs2XZViv7ZMYs_18sqlrustgo_security5alertNtB7_12AlertManager24send_batch_blocked_alert0B9_
FNDA:1,_RNCNvMs0_NtCs2XZViv7ZMYs_18sqlrustgo_security5alertNtB7_12AlertManager24send_sql_injection_alert0B9_
FNDA:1,_RNCNvMs0_NtCs2XZViv7ZMYs_18sqlrustgo_security5alertNtB7_12AlertManager24send_sql_injection_alerts_0B9_
FNDA:0,_RNvMs0_NtCs2XZViv7ZMYs_18sqlrustgo_security5alertNtB5_12AlertManager10get_config
FNDA:0,_RNvMs0_NtCs2XZViv7ZMYs_18sqlrustgo_security5alertNtB5_12AlertManager13update_config
FNDA:0,_RNvMs0_NtCs2XZViv7ZMYs_18sqlrustgo_security5alertNtB5_12AlertManager14get_alerts_mut
FNDA:0,_RNvNtCs2XZViv7ZMYs_18sqlrustgo_security5alert27create_shared_alert_manager
FNDA:0,_RNvXs1_NtCs2XZViv7ZMYs_18sqlrustgo_security5alertNtB5_12AlertManagerNtNtCs8nPosuWgJFh_4core7default7Default7default
FNF:26
FNH:20
DA:43,16
DA:44,16
DA:45,16
DA:46,16
DA:47,16
DA:48,16
DA:49,16
DA:50,16
DA:51,16
DA:52,16
DA:53,16
DA:54,16
DA:55,16
DA:56,16
DA:57,16
DA:58,16
DA:59,16
DA:61,5
DA:62,5
DA:63,5
DA:64,5
DA:66,6
DA:67,6
DA:68,6
DA:69,6
DA:71,1
DA:72,1
DA:73,1
DA:74,1
DA:76,2
DA:77,2
DA:78,2
DA:95,10
DA:96,10
DA:97,10
DA:98,10
DA:99,10
DA:100,10
DA:101,10
DA:102,10
DA:103,10
DA:104,10
DA:105,10
DA:106,10
DA:107,10
DA:125,9
DA:126,9
DA:127,9
DA:128,9
DA:129,9
DA:130,9
DA:131,9
DA:133,13
DA:134,13
DA:135,1
DA:136,12
DA:138,12
DA:139,1
DA:140,11
DA:142,11
DA:143,1
DA:144,10
DA:146,10
DA:147,10
DA:148,10
DA:149,10
DA:150,10
DA:151,10
DA:152,10
DA:153,10
DA:154,10
DA:155,10
DA:156,10
DA:158,10
DA:159,10
DA:160,13
DA:162,2
DA:163,2
DA:164,2
DA:165,2
DA:166,2
DA:167,2
DA:168,2
DA:169,0
DA:170,2
DA:172,2
DA:173,2
DA:174,2
DA:175,2
DA:177,2
DA:178,2
DA:180,2
DA:181,2
DA:183,1
DA:184,1
DA:185,0
DA:186,1
DA:188,1
DA:189,1
DA:190,1
DA:191,1
DA:193,1
DA:195,1
DA:196,1
DA:198,1
DA:199,1
DA:200,0
DA:201,1
DA:203,1
DA:204,1
DA:205,1
DA:206,1
DA:208,1
DA:210,1
DA:211,1
DA:213,1
DA:214,1
DA:215,1
DA:216,1
DA:217,1
DA:218,1
DA:219,1
DA:220,0
DA:221,1
DA:223,1
DA:224,1
DA:225,1
DA:226,1
DA:228,1
DA:229,1
DA:231,1
DA:232,1
DA:234,1
DA:235,1
DA:236,0
DA:237,1
DA:239,1
DA:240,1
DA:241,1
DA:242,1
DA:244,1
DA:246,1
DA:247,1
DA:249,7
DA:250,7
DA:251,7
DA:253,0
DA:254,0
DA:255,0
DA:257,1
DA:258,1
DA:259,1
DA:261,2
DA:262,2
DA:263,1
DA:264,1
DA:265,1
DA:267,1
DA:268,1
DA:269,1
DA:270,1
DA:272,2
DA:274,3
DA:275,3
DA:276,3
DA:278,0
DA:279,0
DA:280,0
DA:282,0
DA:283,0
DA:284,0
DA:288,0
DA:289,0
DA:290,0
DA:295,0
DA:296,0
DA:297,0
BRF:0
BRH:0
LF:181
LH:160
end_of_record
SF:/home/openclaw/dev/yinglichina8848/sqlrustgo/crates/security/src/audit.rs
FN:40,_RNvMNtCs2XZViv7ZMYs_18sqlrustgo_security5auditNtB2_11AuditRecord12with_session
FN:45,_RNvMNtCs2XZViv7ZMYs_18sqlrustgo_security5auditNtB2_11AuditRecord13with_duration
FN:26,_RNvMNtCs2XZViv7ZMYs_18sqlrustgo_security5auditNtB2_11AuditRecord3new
FN:55,_RNvMNtCs2XZViv7ZMYs_18sqlrustgo_security5auditNtB2_11AuditRecord7to_json
FN:59,_RNvMNtCs2XZViv7ZMYs_18sqlrustgo_security5auditNtB2_11AuditRecord9from_json
FN:50,_RNvMNtCs2XZViv7ZMYs_18sqlrustgo_security5auditNtB2_11AuditRecord9with_rows
FN:274,_RNvMs1_NtCs2XZViv7ZMYs_18sqlrustgo_security5auditNtB5_12AuditManager10add_record
FN:292,_RNvMs1_NtCs2XZViv7ZMYs_18sqlrustgo_security5auditNtB5_12AuditManager13write_to_file
FN:229,_RNvMs1_NtCs2XZViv7ZMYs_18sqlrustgo_security5auditNtB5_12AuditManager3new
FN:317,_RNvMs1_NtCs2XZViv7ZMYs_18sqlrustgo_security5auditNtB5_12AuditManager7log_sql
FN:267,_RNvMs1_NtCs2XZViv7ZMYs_18sqlrustgo_security5auditNtB5_12AuditManager7next_id
FN:375,_RNvMs1_NtCs2XZViv7ZMYs_18sqlrustgo_security5auditNtB5_12AuditManager9get_stats
FN:241,_RNvMs1_NtCs2XZViv7ZMYs_18sqlrustgo_security5auditNtB5_12AuditManager9log_event
FN:302,_RNvMs1_NtCs2XZViv7ZMYs_18sqlrustgo_security5auditNtB5_12AuditManager9log_login
FN:444,_RNvMs2_NtCs2XZViv7ZMYs_18sqlrustgo_security5auditNtB5_11AuditFilter10with_users
FN:439,_RNvMs2_NtCs2XZViv7ZMYs_18sqlrustgo_security5auditNtB5_11AuditFilter16with_event_types
FN:429,_RNvMs2_NtCs2XZViv7ZMYs_18sqlrustgo_security5auditNtB5_11AuditFilter3new
FN:460,_RNvMs2_NtCs2XZViv7ZMYs_18sqlrustgo_security5auditNtB5_11AuditFilter7matches
FN:120,_RNvMs_NtCs2XZViv7ZMYs_18sqlrustgo_security5auditNtB4_10AuditEvent9to_record
FN:510,_RNvNtCs2XZViv7ZMYs_18sqlrustgo_security5audit17current_timestamp
FN:205,_RNvXs0_NtCs2XZViv7ZMYs_18sqlrustgo_security5auditNtB5_11AuditConfigNtNtCs8nPosuWgJFh_4core7default7Default7default
FN:541,_RNvNtNtCs2XZViv7ZMYs_18sqlrustgo_security5audit5testss_17test_audit_filter
FN:557,_RNvNtNtCs2XZViv7ZMYs_18sqlrustgo_security5audit5testss_18test_audit_manager
FN:600,_RNvNtNtCs2XZViv7ZMYs_18sqlrustgo_security5audit5testss_23test_audit_filter_empty
FN:574,_RNvNtNtCs2XZViv7ZMYs_18sqlrustgo_security5audit5testss_23test_json_serialization
FN:529,_RNvNtNtCs2XZViv7ZMYs_18sqlrustgo_security5audit5testss_26test_audit_event_to_record
FN:522,_RNvNtNtCs2XZViv7ZMYs_18sqlrustgo_security5audit5testss_26test_audit_record_creation
FN:608,_RNvNtNtCs2XZViv7ZMYs_18sqlrustgo_security5audit5testss_32test_audit_filter_multiple_users
FN:582,_RNvNtNtCs2XZViv7ZMYs_18sqlrustgo_security5audit5testss_33test_audit_record_builder_pattern
FN:594,_RNvNtNtCs2XZViv7ZMYs_18sqlrustgo_security5audit5testss_35test_audit_record_from_json_invalid
FN:379,_RNCNvMs1_NtCs2XZViv7ZMYs_18sqlrustgo_security5auditNtB7_12AuditManager9get_stats0B9_
FN:384,_RNCNvMs1_NtCs2XZViv7ZMYs_18sqlrustgo_security5auditNtB7_12AuditManager9get_statss0_0B9_
FN:385,_RNCNvMs1_NtCs2XZViv7ZMYs_18sqlrustgo_security5auditNtB7_12AuditManager9get_statss1_0B9_
FN:382,_RNCNvMs1_NtCs2XZViv7ZMYs_18sqlrustgo_security5auditNtB7_12AuditManager9get_statss_0B9_
FN:445,_RNCNvMs2_NtCs2XZViv7ZMYs_18sqlrustgo_security5auditNtB7_11AuditFilter10with_users0B9_
FN:440,_RNCNvMs2_NtCs2XZViv7ZMYs_18sqlrustgo_security5auditNtB7_11AuditFilter16with_event_types0B9_
FN:365,_RNCNvMs1_NtCs2XZViv7ZMYs_18sqlrustgo_security5auditNtB7_12AuditManager10query_logs0B9_
FN:370,_RNvMs1_NtCs2XZViv7ZMYs_18sqlrustgo_security5auditNtB5_12AuditManager10get_recent
FN:310,_RNvMs1_NtCs2XZViv7ZMYs_18sqlrustgo_security5auditNtB5_12AuditManager10log_logout
FN:344,_RNvMs1_NtCs2XZViv7ZMYs_18sqlrustgo_security5auditNtB5_12AuditManager10log_revoke
FN:361,_RNvMs1_NtCs2XZViv7ZMYs_18sqlrustgo_security5auditNtB5_12AuditManager10query_logs
FN:413,_RNvMs1_NtCs2XZViv7ZMYs_18sqlrustgo_security5auditNtB5_12AuditManager12clear_memory
FN:237,_RNvMs1_NtCs2XZViv7ZMYs_18sqlrustgo_security5auditNtB5_12AuditManager19with_default_config
FN:396,_RNvMs1_NtCs2XZViv7ZMYs_18sqlrustgo_security5auditNtB5_12AuditManager5flush
FN:327,_RNvMs1_NtCs2XZViv7ZMYs_18sqlrustgo_security5auditNtB5_12AuditManager7log_ddl
FN:353,_RNvMs1_NtCs2XZViv7ZMYs_18sqlrustgo_security5auditNtB5_12AuditManager9log_error
FN:335,_RNvMs1_NtCs2XZViv7ZMYs_18sqlrustgo_security5auditNtB5_12AuditManager9log_grant
FN:455,_RNvMs2_NtCs2XZViv7ZMYs_18sqlrustgo_security5auditNtB5_11AuditFilter12with_session
FN:449,_RNvMs2_NtCs2XZViv7ZMYs_18sqlrustgo_security5auditNtB5_11AuditFilter15with_time_range
FN:496,_RNvXs3_NtCs2XZViv7ZMYs_18sqlrustgo_security5auditNtB5_11AuditFilterNtNtCs8nPosuWgJFh_4core7default7Default7default
FNDA:2,_RNvMNtCs2XZViv7ZMYs_18sqlrustgo_security5auditNtB2_11AuditRecord12with_session
FNDA:2,_RNvMNtCs2XZViv7ZMYs_18sqlrustgo_security5auditNtB2_11AuditRecord13with_duration
FNDA:13,_RNvMNtCs2XZViv7ZMYs_18sqlrustgo_security5auditNtB2_11AuditRecord3new
FNDA:3,_RNvMNtCs2XZViv7ZMYs_18sqlrustgo_security5auditNtB2_11AuditRecord7to_json
FNDA:2,_RNvMNtCs2XZViv7ZMYs_18sqlrustgo_security5auditNtB2_11AuditRecord9from_json
FNDA:2,_RNvMNtCs2XZViv7ZMYs_18sqlrustgo_security5auditNtB2_11AuditRecord9with_rows
FNDA:2,_RNvMs1_NtCs2XZViv7ZMYs_18sqlrustgo_security5auditNtB5_12AuditManager10add_record
FNDA:2,_RNvMs1_NtCs2XZViv7ZMYs_18sqlrustgo_security5auditNtB5_12AuditManager13write_to_file
FNDA:1,_RNvMs1_NtCs2XZViv7ZMYs_18sqlrustgo_security5auditNtB5_12AuditManager3new
FNDA:1,_RNvMs1_NtCs2XZViv7ZMYs_18sqlrustgo_security5auditNtB5_12AuditManager7log_sql
FNDA:4,_RNvMs1_NtCs2XZViv7ZMYs_18sqlrustgo_security5auditNtB5_12AuditManager7next_id
FNDA:1,_RNvMs1_NtCs2XZViv7ZMYs_18sqlrustgo_security5auditNtB5_12AuditManager9get_stats
FNDA:2,_RNvMs1_NtCs2XZViv7ZMYs_18sqlrustgo_security5auditNtB5_12AuditManager9log_event
FNDA:1,_RNvMs1_NtCs2XZViv7ZMYs_18sqlrustgo_security5auditNtB5_12AuditManager9log_login
FNDA:2,_RNvMs2_NtCs2XZViv7ZMYs_18sqlrustgo_security5auditNtB5_11AuditFilter10with_users
FNDA:1,_RNvMs2_NtCs2XZViv7ZMYs_18sqlrustgo_security5auditNtB5_11AuditFilter16with_event_types
FNDA:3,_RNvMs2_NtCs2XZViv7ZMYs_18sqlrustgo_security5auditNtB5_11AuditFilter3new
FNDA:7,_RNvMs2_NtCs2XZViv7ZMYs_18sqlrustgo_security5auditNtB5_11AuditFilter7matches
FNDA:3,_RNvMs_NtCs2XZViv7ZMYs_18sqlrustgo_security5auditNtB4_10AuditEvent9to_record
FNDA:13,_RNvNtCs2XZViv7ZMYs_18sqlrustgo_security5audit17current_timestamp
FNDA:1,_RNvXs0_NtCs2XZViv7ZMYs_18sqlrustgo_security5auditNtB5_11AuditConfigNtNtCs8nPosuWgJFh_4core7default7Default7default
FNDA:1,_RNvNtNtCs2XZViv7ZMYs_18sqlrustgo_security5audit5testss_17test_audit_filter
FNDA:1,_RNvNtNtCs2XZViv7ZMYs_18sqlrustgo_security5audit5testss_18test_audit_manager
FNDA:1,_RNvNtNtCs2XZViv7ZMYs_18sqlrustgo_security5audit5testss_23test_audit_filter_empty
FNDA:1,_RNvNtNtCs2XZViv7ZMYs_18sqlrustgo_security5audit5testss_23test_json_serialization
FNDA:1,_RNvNtNtCs2XZViv7ZMYs_18sqlrustgo_security5audit5testss_26test_audit_event_to_record
FNDA:1,_RNvNtNtCs2XZViv7ZMYs_18sqlrustgo_security5audit5testss_26test_audit_record_creation
FNDA:1,_RNvNtNtCs2XZViv7ZMYs_18sqlrustgo_security5audit5testss_32test_audit_filter_multiple_users
FNDA:1,_RNvNtNtCs2XZViv7ZMYs_18sqlrustgo_security5audit5testss_33test_audit_record_builder_pattern
FNDA:1,_RNvNtNtCs2XZViv7ZMYs_18sqlrustgo_security5audit5testss_35test_audit_record_from_json_invalid
FNDA:2,_RNCNvMs1_NtCs2XZViv7ZMYs_18sqlrustgo_security5auditNtB7_12AuditManager9get_stats0B9_
FNDA:2,_RNCNvMs1_NtCs2XZViv7ZMYs_18sqlrustgo_security5auditNtB7_12AuditManager9get_statss0_0B9_
FNDA:2,_RNCNvMs1_NtCs2XZViv7ZMYs_18sqlrustgo_security5auditNtB7_12AuditManager9get_statss1_0B9_
FNDA:2,_RNCNvMs1_NtCs2XZViv7ZMYs_18sqlrustgo_security5auditNtB7_12AuditManager9get_statss_0B9_
FNDA:3,_RNCNvMs2_NtCs2XZViv7ZMYs_18sqlrustgo_security5auditNtB7_11AuditFilter10with_users0B9_
FNDA:2,_RNCNvMs2_NtCs2XZViv7ZMYs_18sqlrustgo_security5auditNtB7_11AuditFilter16with_event_types0B9_
FNDA:0,_RNCNvMs1_NtCs2XZViv7ZMYs_18sqlrustgo_security5auditNtB7_12AuditManager10query_logs0B9_
FNDA:0,_RNvMs1_NtCs2XZViv7ZMYs_18sqlrustgo_security5auditNtB5_12AuditManager10get_recent
FNDA:0,_RNvMs1_NtCs2XZViv7ZMYs_18sqlrustgo_security5auditNtB5_12AuditManager10log_logout
FNDA:0,_RNvMs1_NtCs2XZViv7ZMYs_18sqlrustgo_security5auditNtB5_12AuditManager10log_revoke
FNDA:0,_RNvMs1_NtCs2XZViv7ZMYs_18sqlrustgo_security5auditNtB5_12AuditManager10query_logs
FNDA:0,_RNvMs1_NtCs2XZViv7ZMYs_18sqlrustgo_security5auditNtB5_12AuditManager12clear_memory
FNDA:0,_RNvMs1_NtCs2XZViv7ZMYs_18sqlrustgo_security5auditNtB5_12AuditManager19with_default_config
FNDA:0,_RNvMs1_NtCs2XZViv7ZMYs_18sqlrustgo_security5auditNtB5_12AuditManager5flush
FNDA:0,_RNvMs1_NtCs2XZViv7ZMYs_18sqlrustgo_security5auditNtB5_12AuditManager7log_ddl
FNDA:0,_RNvMs1_NtCs2XZViv7ZMYs_18sqlrustgo_security5auditNtB5_12AuditManager9log_error
FNDA:0,_RNvMs1_NtCs2XZViv7ZMYs_18sqlrustgo_security5auditNtB5_12AuditManager9log_grant
FNDA:0,_RNvMs2_NtCs2XZViv7ZMYs_18sqlrustgo_security5auditNtB5_11AuditFilter12with_session
FNDA:0,_RNvMs2_NtCs2XZViv7ZMYs_18sqlrustgo_security5auditNtB5_11AuditFilter15with_time_range
FNDA:0,_RNvXs3_NtCs2XZViv7ZMYs_18sqlrustgo_security5auditNtB5_11AuditFilterNtNtCs8nPosuWgJFh_4core7default7Default7default
FNF:50
FNH:36
DA:26,13
DA:27,13
DA:28,13
DA:29,13
DA:30,13
DA:31,13
DA:32,13
DA:33,13
DA:34,13
DA:35,13
DA:36,13
DA:37,13
DA:38,13
DA:40,2
DA:41,2
DA:42,2
DA:43,2
DA:45,2
DA:46,2
DA:47,2
DA:48,2
DA:50,2
DA:51,2
DA:52,2
DA:53,2
DA:55,3
DA:56,3
DA:57,3
DA:59,2
DA:60,2
DA:61,2
DA:120,3
DA:121,3
DA:122,2
DA:123,2
DA:125,0
DA:126,0
DA:127,0
DA:130,1
DA:131,1
DA:132,1
DA:133,1
DA:134,1
DA:135,1
DA:136,1
DA:137,1
DA:138,1
DA:140,0
DA:141,0
DA:142,0
DA:143,0
DA:145,0
DA:146,0
DA:147,0
DA:148,0
DA:149,0
DA:150,0
DA:152,0
DA:153,0
DA:154,0
DA:155,0
DA:156,0
DA:157,0
DA:158,0
DA:159,0
DA:160,0
DA:163,0
DA:164,0
DA:165,0
DA:166,0
DA:167,0
DA:168,0
DA:169,0
DA:170,0
DA:171,0
DA:174,0
DA:175,0
DA:176,0
DA:177,0
DA:178,0
DA:179,0
DA:181,0
DA:182,0
DA:183,0
DA:186,3
DA:205,1
DA:206,1
DA:207,1
DA:208,1
DA:209,1
DA:210,1
DA:211,1
DA:212,1
DA:213,1
DA:214,1
DA:215,1
DA:216,1
DA:217,1
DA:218,1
DA:219,1
DA:229,1
DA:230,1
DA:231,1
DA:232,1
DA:233,1
DA:234,1
DA:235,1
DA:237,0
DA:238,0
DA:239,0
DA:241,2
DA:242,2
DA:243,0
DA:244,2
DA:246,2
DA:247,1
DA:248,0
DA:249,1
DA:250,0
DA:251,0
DA:252,0
DA:253,0
DA:254,0
DA:257,2
DA:258,0
DA:259,2
DA:261,2
DA:262,2
DA:264,2
DA:265,2
DA:267,4
DA:268,4
DA:269,4
DA:270,4
DA:271,4
DA:272,4
DA:274,2
DA:275,2
DA:276,2
DA:277,2
DA:279,2
DA:280,0
DA:281,2
DA:283,2
DA:285,2
DA:286,2
DA:287,0
DA:288,2
DA:289,0
DA:290,2
DA:292,2
DA:293,2
DA:294,2
DA:295,2
DA:296,2
DA:298,2
DA:299,2
DA:300,2
DA:302,1
DA:303,1
DA:304,1
DA:305,1
DA:306,1
DA:307,1
DA:308,1
DA:310,0
DA:311,0
DA:312,0
DA:313,0
DA:314,0
DA:315,0
DA:317,1
DA:318,1
DA:319,1
DA:320,1
DA:321,1
DA:322,1
DA:323,1
DA:324,1
DA:325,1
DA:327,0
DA:328,0
DA:329,0
DA:330,0
DA:331,0
DA:332,0
DA:333,0
DA:335,0
DA:336,0
DA:337,0
DA:338,0
DA:339,0
DA:340,0
DA:341,0
DA:342,0
DA:344,0
DA:345,0
DA:346,0
DA:347,0
DA:348,0
DA:349,0
DA:350,0
DA:351,0
DA:353,0
DA:354,0
DA:355,0
DA:356,0
DA:357,0
DA:358,0
DA:359,0
DA:361,0
DA:362,0
DA:363,0
DA:364,0
DA:365,0
DA:366,0
DA:367,0
DA:368,0
DA:370,0
DA:371,0
DA:372,0
DA:373,0
DA:375,1
DA:376,1
DA:377,1
DA:379,2
DA:380,1
DA:381,1
DA:382,2
DA:383,1
DA:384,2
DA:385,2
DA:387,1
DA:388,1
DA:389,1
DA:390,1
DA:391,1
DA:392,1
DA:393,1
DA:394,1
DA:396,0
DA:397,0
DA:398,0
DA:399,0
DA:402,0
DA:403,0
DA:404,0
DA:405,0
DA:407,0
DA:408,0
DA:410,0
DA:411,0
DA:413,0
DA:414,0
DA:415,0
DA:416,0
DA:429,3
DA:430,3
DA:431,3
DA:432,3
DA:433,3
DA:434,3
DA:435,3
DA:436,3
DA:437,3
DA:439,1
DA:440,2
DA:441,1
DA:442,1
DA:444,2
DA:445,3
DA:446,2
DA:447,2
DA:449,0
DA:450,0
DA:451,0
DA:452,0
DA:453,0
DA:455,0
DA:456,0
DA:457,0
DA:458,0
DA:460,7
DA:461,7
DA:462,3
DA:463,1
DA:464,2
DA:465,4
DA:467,6
DA:468,5
DA:469,2
DA:470,3
DA:471,1
DA:473,4
DA:474,0
DA:475,0
DA:476,0
DA:477,4
DA:479,4
DA:480,0
DA:481,0
DA:482,0
DA:483,4
DA:485,4
DA:486,0
DA:487,0
DA:488,0
DA:489,4
DA:491,4
DA:492,7
DA:496,0
DA:497,0
DA:498,0
DA:510,13
DA:511,13
DA:512,13
DA:513,13
DA:514,13
DA:515,13
DA:522,1
DA:523,1
DA:524,1
DA:525,1
DA:526,1
DA:529,1
DA:530,1
DA:531,1
DA:532,1
DA:533,1
DA:534,1
DA:535,1
DA:536,1
DA:537,1
DA:538,1
DA:541,1
DA:542,1
DA:543,1
DA:544,1
DA:546,1
DA:547,1
DA:549,1
DA:550,1
DA:552,1
DA:553,1
DA:554,1
DA:557,1
DA:558,1
DA:559,1
DA:560,1
DA:561,1
DA:562,1
DA:563,1
DA:565,1
DA:566,1
DA:568,1
DA:569,1
DA:570,1
DA:571,1
DA:574,1
DA:575,1
DA:576,1
DA:577,1
DA:578,1
DA:579,1
DA:582,1
DA:583,1
DA:584,1
DA:585,1
DA:586,1
DA:588,1
DA:589,1
DA:590,1
DA:591,1
DA:594,1
DA:595,1
DA:596,1
DA:597,1
DA:600,1
DA:601,1
DA:602,1
DA:604,1
DA:605,1
DA:608,1
DA:609,1
DA:610,1
DA:611,1
DA:612,1
DA:614,1
DA:615,1
DA:616,1
DA:617,1
BRF:0
BRH:0
LF:398
LH:258
end_of_record
SF:/home/openclaw/dev/yinglichina8848/sqlrustgo/crates/security/src/cancel.rs
FN:231,_RNvNtNtCs2XZViv7ZMYs_18sqlrustgo_security6cancel5testss_17test_cancel_guard
FN:203,_RNvNtNtCs2XZViv7ZMYs_18sqlrustgo_security6cancel5testss_17test_cancel_query
FN:261,_RNvNtNtCs2XZViv7ZMYs_18sqlrustgo_security6cancel5testss_17test_check_cancel
FN:212,_RNvNtNtCs2XZViv7ZMYs_18sqlrustgo_security6cancel5testss_20test_kill_connection
FN:195,_RNvNtNtCs2XZViv7ZMYs_18sqlrustgo_security6cancel5testss_21test_cancel_token_new
FN:221,_RNvNtNtCs2XZViv7ZMYs_18sqlrustgo_security6cancel5testss_26test_reset_query_cancelled
FN:273,_RNvNtNtCs2XZViv7ZMYs_18sqlrustgo_security6cancel5testss_35test_check_cancel_connection_killed
FN:245,_RNvNtNtCs2XZViv7ZMYs_18sqlrustgo_security6cancel5testss_42test_cancel_guard_preserves_previous_state
FN:139,_RNvXs1_NtCs2XZViv7ZMYs_18sqlrustgo_security6cancelNtB5_11CancelGuardNtNtNtCs8nPosuWgJFh_4core3ops4drop4Drop4drop
FN:43,_RNvMNtCs2XZViv7ZMYs_18sqlrustgo_security6cancelNtB2_11CancelToken12cancel_query
FN:58,_RNvMNtCs2XZViv7ZMYs_18sqlrustgo_security6cancelNtB2_11CancelToken15kill_connection
FN:50,_RNvMNtCs2XZViv7ZMYs_18sqlrustgo_security6cancelNtB2_11CancelToken18is_query_cancelled
FN:63,_RNvMNtCs2XZViv7ZMYs_18sqlrustgo_security6cancelNtB2_11CancelToken20is_connection_killed
FN:70,_RNvMNtCs2XZViv7ZMYs_18sqlrustgo_security6cancelNtB2_11CancelToken21reset_query_cancelled
FN:32,_RNvMNtCs2XZViv7ZMYs_18sqlrustgo_security6cancelNtB2_11CancelToken3new
FN:77,_RNvMNtCs2XZViv7ZMYs_18sqlrustgo_security6cancelNtB2_11CancelToken9is_active
FN:115,_RNvMs0_NtCs2XZViv7ZMYs_18sqlrustgo_security6cancelNtB5_11CancelGuard7disable
FN:156,_RNvMs2_NtCs2XZViv7ZMYs_18sqlrustgo_security6cancelNtB5_8SqlError15query_cancelled
FN:162,_RNvMs2_NtCs2XZViv7ZMYs_18sqlrustgo_security6cancelNtB5_8SqlError17connection_killed
FN:171,_RNvNtCs2XZViv7ZMYs_18sqlrustgo_security6cancel12check_cancelB3_
FN:82,_RNvMNtCs2XZViv7ZMYs_18sqlrustgo_security6cancelNtB2_11CancelToken20query_cancelled_flag
FN:86,_RNvMNtCs2XZViv7ZMYs_18sqlrustgo_security6cancelNtB2_11CancelToken22connection_killed_flag
FN:133,_RNvMs0_NtCs2XZViv7ZMYs_18sqlrustgo_security6cancelNtB5_11CancelGuard13was_cancelled
FN:126,_RNvMs0_NtCs2XZViv7ZMYs_18sqlrustgo_security6cancelNtB5_11CancelGuard6enable
FN:183,_RNvNtCs2XZViv7ZMYs_18sqlrustgo_security6cancel20check_cancel_guardedB3_
FN:92,_RNvXs_NtCs2XZViv7ZMYs_18sqlrustgo_security6cancelNtB4_11CancelTokenNtNtCs8nPosuWgJFh_4core7default7Default7default
FNDA:1,_RNvNtNtCs2XZViv7ZMYs_18sqlrustgo_security6cancel5testss_17test_cancel_guard
FNDA:1,_RNvNtNtCs2XZViv7ZMYs_18sqlrustgo_security6cancel5testss_17test_cancel_query
FNDA:1,_RNvNtNtCs2XZViv7ZMYs_18sqlrustgo_security6cancel5testss_17test_check_cancel
FNDA:1,_RNvNtNtCs2XZViv7ZMYs_18sqlrustgo_security6cancel5testss_20test_kill_connection
FNDA:1,_RNvNtNtCs2XZViv7ZMYs_18sqlrustgo_security6cancel5testss_21test_cancel_token_new
FNDA:1,_RNvNtNtCs2XZViv7ZMYs_18sqlrustgo_security6cancel5testss_26test_reset_query_cancelled
FNDA:1,_RNvNtNtCs2XZViv7ZMYs_18sqlrustgo_security6cancel5testss_35test_check_cancel_connection_killed
FNDA:1,_RNvNtNtCs2XZViv7ZMYs_18sqlrustgo_security6cancel5testss_42test_cancel_guard_preserves_previous_state
FNDA:2,_RNvXs1_NtCs2XZViv7ZMYs_18sqlrustgo_security6cancelNtB5_11CancelGuardNtNtNtCs8nPosuWgJFh_4core3ops4drop4Drop4drop
FNDA:4,_RNvMNtCs2XZViv7ZMYs_18sqlrustgo_security6cancelNtB2_11CancelToken12cancel_query
FNDA:2,_RNvMNtCs2XZViv7ZMYs_18sqlrustgo_security6cancelNtB2_11CancelToken15kill_connection
FNDA:10,_RNvMNtCs2XZViv7ZMYs_18sqlrustgo_security6cancelNtB2_11CancelToken18is_query_cancelled
FNDA:7,_RNvMNtCs2XZViv7ZMYs_18sqlrustgo_security6cancelNtB2_11CancelToken20is_connection_killed
FNDA:1,_RNvMNtCs2XZViv7ZMYs_18sqlrustgo_security6cancelNtB2_11CancelToken21reset_query_cancelled
FNDA:24,_RNvMNtCs2XZViv7ZMYs_18sqlrustgo_security6cancelNtB2_11CancelToken3new
FNDA:7,_RNvMNtCs2XZViv7ZMYs_18sqlrustgo_security6cancelNtB2_11CancelToken9is_active
FNDA:2,_RNvMs0_NtCs2XZViv7ZMYs_18sqlrustgo_security6cancelNtB5_11CancelGuard7disable
FNDA:2,_RNvMs2_NtCs2XZViv7ZMYs_18sqlrustgo_security6cancelNtB5_8SqlError15query_cancelled
FNDA:1,_RNvMs2_NtCs2XZViv7ZMYs_18sqlrustgo_security6cancelNtB5_8SqlError17connection_killed
FNDA:4,_RNvNtCs2XZViv7ZMYs_18sqlrustgo_security6cancel12check_cancelB3_
FNDA:0,_RNvMNtCs2XZViv7ZMYs_18sqlrustgo_security6cancelNtB2_11CancelToken20query_cancelled_flag
FNDA:0,_RNvMNtCs2XZViv7ZMYs_18sqlrustgo_security6cancelNtB2_11CancelToken22connection_killed_flag
FNDA:0,_RNvMs0_NtCs2XZViv7ZMYs_18sqlrustgo_security6cancelNtB5_11CancelGuard13was_cancelled
FNDA:0,_RNvMs0_NtCs2XZViv7ZMYs_18sqlrustgo_security6cancelNtB5_11CancelGuard6enable
FNDA:0,_RNvNtCs2XZViv7ZMYs_18sqlrustgo_security6cancel20check_cancel_guardedB3_
FNDA:0,_RNvXs_NtCs2XZViv7ZMYs_18sqlrustgo_security6cancelNtB4_11CancelTokenNtNtCs8nPosuWgJFh_4core7default7Default7default
FNF:26
FNH:20
DA:32,24
DA:33,24
DA:34,24
DA:35,24
DA:36,24
DA:37,24
DA:43,4
DA:44,4
DA:45,4
DA:50,10
DA:51,10
DA:52,10
DA:58,2
DA:59,2
DA:60,2
DA:63,7
DA:64,7
DA:65,7
DA:70,1
DA:71,1
DA:72,1
DA:77,7
DA:78,7
DA:79,5
DA:80,7
DA:82,0
DA:83,0
DA:84,0
DA:86,0
DA:87,0
DA:88,0
DA:92,0
DA:93,0
DA:94,0
DA:115,2
DA:116,2
DA:117,2
DA:118,2
DA:119,2
DA:120,2
DA:121,2
DA:126,0
DA:127,0
DA:128,0
DA:129,0
DA:130,0
DA:133,0
DA:134,0
DA:135,0
DA:139,2
DA:141,2
DA:142,2
DA:143,2
DA:144,2
DA:156,2
DA:157,2
DA:158,2
DA:159,2
DA:160,2
DA:162,1
DA:163,1
DA:164,1
DA:165,1
DA:166,1
DA:171,4
DA:172,4
DA:173,1
DA:174,3
DA:175,3
DA:176,2
DA:177,1
DA:178,1
DA:179,4
DA:183,0
DA:184,0
DA:185,0
DA:186,0
DA:187,0
DA:188,0
DA:195,1
DA:196,1
DA:197,1
DA:198,1
DA:199,1
DA:200,1
DA:203,1
DA:204,1
DA:205,1
DA:206,1
DA:207,1
DA:208,1
DA:209,1
DA:212,1
DA:213,1
DA:214,1
DA:215,1
DA:216,1
DA:217,1
DA:218,1
DA:221,1
DA:222,1
DA:223,1
DA:224,1
DA:225,1
DA:226,1
DA:227,1
DA:228,1
DA:231,1
DA:232,1
DA:233,1
DA:236,1
DA:237,1
DA:240,1
DA:241,1
DA:242,1
DA:245,1
DA:246,1
DA:249,1
DA:250,1
DA:253,1
DA:256,1
DA:257,1
DA:258,1
DA:261,1
DA:262,1
DA:263,1
DA:265,1
DA:266,1
DA:268,1
DA:269,1
DA:270,1
DA:273,1
DA:274,1
DA:275,1
DA:277,1
DA:278,1
DA:279,1
BRF:0
BRH:0
LF:137
LH:114
end_of_record
SF:/home/openclaw/dev/yinglichina8848/sqlrustgo/crates/security/src/firewall.rs
FN:224,_RNvMs0_NtCs2XZViv7ZMYs_18sqlrustgo_security8firewallNtB5_11SqlFirewall14is_whitelisted
FN:255,_RNvMs0_NtCs2XZViv7ZMYs_18sqlrustgo_security8firewallNtB5_11SqlFirewall15check_row_limit
FN:233,_RNvMs0_NtCs2XZViv7ZMYs_18sqlrustgo_security8firewallNtB5_11SqlFirewall15matches_pattern
FN:135,_RNvMs0_NtCs2XZViv7ZMYs_18sqlrustgo_security8firewallNtB5_11SqlFirewall17default_blacklist
FN:248,_RNvMs0_NtCs2XZViv7ZMYs_18sqlrustgo_security8firewallNtB5_11SqlFirewall19check_query_timeout
FN:308,_RNvMs0_NtCs2XZViv7ZMYs_18sqlrustgo_security8firewallNtB5_11SqlFirewall21add_blacklist_pattern
FN:312,_RNvMs0_NtCs2XZViv7ZMYs_18sqlrustgo_security8firewallNtB5_11SqlFirewall21add_whitelist_pattern
FN:284,_RNvMs0_NtCs2XZViv7ZMYs_18sqlrustgo_security8firewallNtB5_11SqlFirewall21check_batch_operation
FN:115,_RNvMs0_NtCs2XZViv7ZMYs_18sqlrustgo_security8firewallNtB5_11SqlFirewall3new
FN:316,_RNvMs0_NtCs2XZViv7ZMYs_18sqlrustgo_security8firewallNtB5_11SqlFirewall8block_ip
FN:241,_RNvMs0_NtCs2XZViv7ZMYs_18sqlrustgo_security8firewallNtB5_11SqlFirewall8check_ip
FN:180,_RNvMs0_NtCs2XZViv7ZMYs_18sqlrustgo_security8firewallNtB5_11SqlFirewall9check_sql
FN:324,_RNvMs0_NtCs2XZViv7ZMYs_18sqlrustgo_security8firewallNtB5_11SqlFirewall9get_stats
FN:93,_RNvMs_NtCs2XZViv7ZMYs_18sqlrustgo_security8firewallNtB4_11IpBlacklist3add
FN:87,_RNvMs_NtCs2XZViv7ZMYs_18sqlrustgo_security8firewallNtB4_11IpBlacklist3new
FN:101,_RNvMs_NtCs2XZViv7ZMYs_18sqlrustgo_security8firewallNtB4_11IpBlacklist8contains
FN:38,_RNvXNtCs2XZViv7ZMYs_18sqlrustgo_security8firewallNtB2_14FirewallConfigNtNtCs8nPosuWgJFh_4core7default7Default7default
FN:328,_RNvMs0_NtCs2XZViv7ZMYs_18sqlrustgo_security8firewallNtB5_11SqlFirewall10get_config
FN:320,_RNvMs0_NtCs2XZViv7ZMYs_18sqlrustgo_security8firewallNtB5_11SqlFirewall10unblock_ip
FN:332,_RNvMs0_NtCs2XZViv7ZMYs_18sqlrustgo_security8firewallNtB5_11SqlFirewall13update_config
FN:125,_RNvMs0_NtCs2XZViv7ZMYs_18sqlrustgo_security8firewallNtB5_11SqlFirewall14with_blacklist
FN:130,_RNvMs0_NtCs2XZViv7ZMYs_18sqlrustgo_security8firewallNtB5_11SqlFirewall14with_whitelist
FN:262,_RNvMs0_NtCs2XZViv7ZMYs_18sqlrustgo_security8firewallNtB5_11SqlFirewall21check_full_table_scan
FN:97,_RNvMs_NtCs2XZViv7ZMYs_18sqlrustgo_security8firewallNtB4_11IpBlacklist6remove
FN:345,_RNvNtCs2XZViv7ZMYs_18sqlrustgo_security8firewall22create_shared_firewall
FN:338,_RNvXs1_NtCs2XZViv7ZMYs_18sqlrustgo_security8firewallNtB5_11SqlFirewallNtNtCs8nPosuWgJFh_4core7default7Default7default
FNDA:14,_RNvMs0_NtCs2XZViv7ZMYs_18sqlrustgo_security8firewallNtB5_11SqlFirewall14is_whitelisted
FNDA:2,_RNvMs0_NtCs2XZViv7ZMYs_18sqlrustgo_security8firewallNtB5_11SqlFirewall15check_row_limit
FNDA:73,_RNvMs0_NtCs2XZViv7ZMYs_18sqlrustgo_security8firewallNtB5_11SqlFirewall15matches_pattern
FNDA:22,_RNvMs0_NtCs2XZViv7ZMYs_18sqlrustgo_security8firewallNtB5_11SqlFirewall17default_blacklist
FNDA:2,_RNvMs0_NtCs2XZViv7ZMYs_18sqlrustgo_security8firewallNtB5_11SqlFirewall19check_query_timeout
FNDA:1,_RNvMs0_NtCs2XZViv7ZMYs_18sqlrustgo_security8firewallNtB5_11SqlFirewall21add_blacklist_pattern
FNDA:1,_RNvMs0_NtCs2XZViv7ZMYs_18sqlrustgo_security8firewallNtB5_11SqlFirewall21add_whitelist_pattern
FNDA:3,_RNvMs0_NtCs2XZViv7ZMYs_18sqlrustgo_security8firewallNtB5_11SqlFirewall21check_batch_operation
FNDA:22,_RNvMs0_NtCs2XZViv7ZMYs_18sqlrustgo_security8firewallNtB5_11SqlFirewall3new
FNDA:1,_RNvMs0_NtCs2XZViv7ZMYs_18sqlrustgo_security8firewallNtB5_11SqlFirewall8block_ip
FNDA:2,_RNvMs0_NtCs2XZViv7ZMYs_18sqlrustgo_security8firewallNtB5_11SqlFirewall8check_ip
FNDA:15,_RNvMs0_NtCs2XZViv7ZMYs_18sqlrustgo_security8firewallNtB5_11SqlFirewall9check_sql
FNDA:1,_RNvMs0_NtCs2XZViv7ZMYs_18sqlrustgo_security8firewallNtB5_11SqlFirewall9get_stats
FNDA:1,_RNvMs_NtCs2XZViv7ZMYs_18sqlrustgo_security8firewallNtB4_11IpBlacklist3add
FNDA:22,_RNvMs_NtCs2XZViv7ZMYs_18sqlrustgo_security8firewallNtB4_11IpBlacklist3new
FNDA:2,_RNvMs_NtCs2XZViv7ZMYs_18sqlrustgo_security8firewallNtB4_11IpBlacklist8contains
FNDA:22,_RNvXNtCs2XZViv7ZMYs_18sqlrustgo_security8firewallNtB2_14FirewallConfigNtNtCs8nPosuWgJFh_4core7default7Default7default
FNDA:0,_RNvMs0_NtCs2XZViv7ZMYs_18sqlrustgo_security8firewallNtB5_11SqlFirewall10get_config
FNDA:0,_RNvMs0_NtCs2XZViv7ZMYs_18sqlrustgo_security8firewallNtB5_11SqlFirewall10unblock_ip
FNDA:0,_RNvMs0_NtCs2XZViv7ZMYs_18sqlrustgo_security8firewallNtB5_11SqlFirewall13update_config
FNDA:0,_RNvMs0_NtCs2XZViv7ZMYs_18sqlrustgo_security8firewallNtB5_11SqlFirewall14with_blacklist
FNDA:0,_RNvMs0_NtCs2XZViv7ZMYs_18sqlrustgo_security8firewallNtB5_11SqlFirewall14with_whitelist
FNDA:0,_RNvMs0_NtCs2XZViv7ZMYs_18sqlrustgo_security8firewallNtB5_11SqlFirewall21check_full_table_scan
FNDA:0,_RNvMs_NtCs2XZViv7ZMYs_18sqlrustgo_security8firewallNtB4_11IpBlacklist6remove
FNDA:0,_RNvNtCs2XZViv7ZMYs_18sqlrustgo_security8firewall22create_shared_firewall
FNDA:0,_RNvXs1_NtCs2XZViv7ZMYs_18sqlrustgo_security8firewallNtB5_11SqlFirewallNtNtCs8nPosuWgJFh_4core7default7Default7default
FNF:26
FNH:17
DA:38,22
DA:39,22
DA:40,22
DA:41,22
DA:42,22
DA:43,22
DA:44,22
DA:45,22
DA:46,22
DA:47,22
DA:48,22
DA:87,22
DA:88,22
DA:89,22
DA:90,22
DA:91,22
DA:93,1
DA:94,1
DA:95,1
DA:97,0
DA:98,0
DA:99,0
DA:101,2
DA:102,2
DA:103,2
DA:115,22
DA:116,22
DA:117,22
DA:118,22
DA:119,22
DA:120,22
DA:121,22
DA:122,22
DA:123,22
DA:125,0
DA:126,0
DA:127,0
DA:128,0
DA:130,0
DA:131,0
DA:132,0
DA:133,0
DA:135,22
DA:136,22
DA:137,22
DA:138,22
DA:139,22
DA:140,22
DA:141,22
DA:142,22
DA:143,22
DA:144,22
DA:145,22
DA:146,22
DA:147,22
DA:148,22
DA:149,22
DA:150,22
DA:151,22
DA:152,22
DA:153,22
DA:154,22
DA:155,22
DA:156,22
DA:157,22
DA:158,22
DA:159,22
DA:160,22
DA:161,22
DA:162,22
DA:163,22
DA:164,22
DA:165,22
DA:166,22
DA:167,22
DA:168,22
DA:169,22
DA:170,22
DA:171,22
DA:172,22
DA:173,22
DA:174,22
DA:175,22
DA:176,22
DA:178,22
DA:180,15
DA:181,15
DA:183,15
DA:184,1
DA:185,14
DA:187,14
DA:188,14
DA:190,14
DA:191,1
DA:192,13
DA:194,72
DA:195,72
DA:196,8
DA:197,8
DA:198,8
DA:199,8
DA:200,64
DA:203,5
DA:204,5
DA:205,5
DA:206,5
DA:207,5
DA:208,5
DA:209,5
DA:210,5
DA:211,5
DA:212,5
DA:213,30
DA:214,30
DA:215,1
DA:216,1
DA:217,29
DA:219,0
DA:221,4
DA:222,15
DA:224,14
DA:225,14
DA:226,1
DA:227,1
DA:228,0
DA:230,13
DA:231,14
DA:233,73
DA:234,73
DA:235,73
DA:237,0
DA:239,73
DA:241,2
DA:242,2
DA:243,1
DA:244,1
DA:245,1
DA:246,2
DA:248,2
DA:249,2
DA:250,1
DA:251,1
DA:252,1
DA:253,2
DA:255,2
DA:256,2
DA:257,1
DA:258,1
DA:259,1
DA:260,2
DA:262,0
DA:263,0
DA:264,0
DA:265,0
DA:266,0
DA:267,0
DA:268,0
DA:269,0
DA:271,0
DA:272,0
DA:273,0
DA:275,0
DA:277,0
DA:278,0
DA:279,0
DA:281,0
DA:282,0
DA:284,3
DA:285,3
DA:287,3
DA:288,2
DA:289,2
DA:291,1
DA:292,1
DA:293,1
DA:294,2
DA:296,2
DA:297,1
DA:298,1
DA:300,1
DA:301,1
DA:302,1
DA:303,1
DA:305,1
DA:306,3
DA:308,1
DA:309,1
DA:310,1
DA:312,1
DA:313,1
DA:314,1
DA:316,1
DA:317,1
DA:318,1
DA:320,0
DA:321,0
DA:322,0
DA:324,1
DA:325,1
DA:326,1
DA:328,0
DA:329,0
DA:330,0
DA:332,0
DA:333,0
DA:334,0
DA:338,0
DA:339,0
DA:340,0
DA:345,0
DA:346,0
DA:347,0
BRF:0
BRH:0
LF:212
LH:166
end_of_record
SF:/home/openclaw/dev/yinglichina8848/sqlrustgo/crates/security/src/session.rs
FN:255,_RNCNvMs0_NtCs2XZViv7ZMYs_18sqlrustgo_security7sessionNtB7_14SessionManager17get_user_sessions0B9_
FN:236,_RNCNvMs0_NtCs2XZViv7ZMYs_18sqlrustgo_security7sessionNtB7_14SessionManager19get_active_sessions0B9_
FN:246,_RNCNvMs0_NtCs2XZViv7ZMYs_18sqlrustgo_security7sessionNtB7_14SessionManager20get_processlist_rows0B9_
FN:292,_RNCNvMs0_NtCs2XZViv7ZMYs_18sqlrustgo_security7sessionNtB7_14SessionManager23cleanup_closed_sessions0B9_
FN:86,_RNvMNtCs2XZViv7ZMYs_18sqlrustgo_security7sessionNtB2_7Session15update_activity
FN:126,_RNvMNtCs2XZViv7ZMYs_18sqlrustgo_security7sessionNtB2_7Session17idle_time_seconds
FN:42,_RNvMNtCs2XZViv7ZMYs_18sqlrustgo_security7sessionNtB2_7Session3new
FN:118,_RNvMNtCs2XZViv7ZMYs_18sqlrustgo_security7sessionNtB2_7Session5close
FN:122,_RNvMNtCs2XZViv7ZMYs_18sqlrustgo_security7sessionNtB2_7Session9is_active
FN:201,_RNvMs0_NtCs2XZViv7ZMYs_18sqlrustgo_security7sessionNtB5_14SessionManager11get_session
FN:220,_RNvMs0_NtCs2XZViv7ZMYs_18sqlrustgo_security7sessionNtB5_14SessionManager13close_session
FN:186,_RNvMs0_NtCs2XZViv7ZMYs_18sqlrustgo_security7sessionNtB5_14SessionManager14create_session
FN:205,_RNvMs0_NtCs2XZViv7ZMYs_18sqlrustgo_security7sessionNtB5_14SessionManager15get_session_mut
FN:209,_RNvMs0_NtCs2XZViv7ZMYs_18sqlrustgo_security7sessionNtB5_14SessionManager15update_activity
FN:260,_RNvMs0_NtCs2XZViv7ZMYs_18sqlrustgo_security7sessionNtB5_14SessionManager17get_session_count
FN:250,_RNvMs0_NtCs2XZViv7ZMYs_18sqlrustgo_security7sessionNtB5_14SessionManager17get_user_sessions
FN:231,_RNvMs0_NtCs2XZViv7ZMYs_18sqlrustgo_security7sessionNtB5_14SessionManager19get_active_sessions
FN:241,_RNvMs0_NtCs2XZViv7ZMYs_18sqlrustgo_security7sessionNtB5_14SessionManager20get_processlist_rows
FN:289,_RNvMs0_NtCs2XZViv7ZMYs_18sqlrustgo_security7sessionNtB5_14SessionManager23cleanup_closed_sessions
FN:173,_RNvMs0_NtCs2XZViv7ZMYs_18sqlrustgo_security7sessionNtB5_14SessionManager3new
FN:144,_RNvMs_NtCs2XZViv7ZMYs_18sqlrustgo_security7sessionNtB4_7Session18to_processlist_row
FN:377,_RNvNtCs2XZViv7ZMYs_18sqlrustgo_security7session17current_timestamp
FN:312,_RNCNvMs0_NtCs2XZViv7ZMYs_18sqlrustgo_security7sessionNtB7_14SessionManager18get_sessions_by_ip0B9_
FN:269,_RNCNvMs0_NtCs2XZViv7ZMYs_18sqlrustgo_security7sessionNtB7_14SessionManager24get_active_session_count0B9_
FN:322,_RNCNvMs0_NtCs2XZViv7ZMYs_18sqlrustgo_security7sessionNtB7_14SessionManager25get_concurrent_user_count0B9_
FN:353,_RNCNvMs0_NtCs2XZViv7ZMYs_18sqlrustgo_security7sessionNtB7_14SessionManager8can_kill0B9_
FN:82,_RNvMNtCs2XZViv7ZMYs_18sqlrustgo_security7sessionNtB2_7Session11cancel_flag
FN:66,_RNvMNtCs2XZViv7ZMYs_18sqlrustgo_security7sessionNtB2_7Session12cancel_query
FN:58,_RNvMNtCs2XZViv7ZMYs_18sqlrustgo_security7sessionNtB2_7Session12cancel_token
FN:93,_RNvMNtCs2XZViv7ZMYs_18sqlrustgo_security7sessionNtB2_7Session13has_privilege
FN:97,_RNvMNtCs2XZViv7ZMYs_18sqlrustgo_security7sessionNtB2_7Session15grant_privilege
FN:74,_RNvMNtCs2XZViv7ZMYs_18sqlrustgo_security7sessionNtB2_7Session15kill_connection
FN:101,_RNvMNtCs2XZViv7ZMYs_18sqlrustgo_security7sessionNtB2_7Session16revoke_privilege
FN:62,_RNvMNtCs2XZViv7ZMYs_18sqlrustgo_security7sessionNtB2_7Session18is_query_cancelled
FN:109,_RNvMNtCs2XZViv7ZMYs_18sqlrustgo_security7sessionNtB2_7Session20can_view_processlist
FN:70,_RNvMNtCs2XZViv7ZMYs_18sqlrustgo_security7sessionNtB2_7Session20is_connection_killed
FN:78,_RNvMNtCs2XZViv7ZMYs_18sqlrustgo_security7sessionNtB2_7Session21reset_query_cancelled
FN:105,_RNvMNtCs2XZViv7ZMYs_18sqlrustgo_security7sessionNtB2_7Session8can_kill
FN:114,_RNvMNtCs2XZViv7ZMYs_18sqlrustgo_security7sessionNtB2_7Session8set_idle
FN:338,_RNvMs0_NtCs2XZViv7ZMYs_18sqlrustgo_security7sessionNtB5_14SessionManager10kill_query
FN:326,_RNvMs0_NtCs2XZViv7ZMYs_18sqlrustgo_security7sessionNtB5_14SessionManager12kill_session
FN:181,_RNvMs0_NtCs2XZViv7ZMYs_18sqlrustgo_security7sessionNtB5_14SessionManager13with_max_idle
FN:227,_RNvMs0_NtCs2XZViv7ZMYs_18sqlrustgo_security7sessionNtB5_14SessionManager14remove_session
FN:303,_RNvMs0_NtCs2XZViv7ZMYs_18sqlrustgo_security7sessionNtB5_14SessionManager16get_all_sessions
FN:307,_RNvMs0_NtCs2XZViv7ZMYs_18sqlrustgo_security7sessionNtB5_14SessionManager18get_sessions_by_ip
FN:273,_RNvMs0_NtCs2XZViv7ZMYs_18sqlrustgo_security7sessionNtB5_14SessionManager19close_idle_sessions
FN:296,_RNvMs0_NtCs2XZViv7ZMYs_18sqlrustgo_security7sessionNtB5_14SessionManager20set_session_database
FN:264,_RNvMs0_NtCs2XZViv7ZMYs_18sqlrustgo_security7sessionNtB5_14SessionManager24get_active_session_count
FN:317,_RNvMs0_NtCs2XZViv7ZMYs_18sqlrustgo_security7sessionNtB5_14SessionManager25get_concurrent_user_count
FN:349,_RNvMs0_NtCs2XZViv7ZMYs_18sqlrustgo_security7sessionNtB5_14SessionManager8can_kill
FN:372,_RNvXs1_NtCs2XZViv7ZMYs_18sqlrustgo_security7sessionNtB5_14SessionManagerNtNtCs8nPosuWgJFh_4core7default7Default7default
FN:398,_RNvNtNtCs2XZViv7ZMYs_18sqlrustgo_security7session5testss_16test_get_session
FN:407,_RNvNtNtCs2XZViv7ZMYs_18sqlrustgo_security7session5testss_18test_close_session
FN:431,_RNvNtNtCs2XZViv7ZMYs_18sqlrustgo_security7session5testss_18test_user_sessions
FN:454,_RNvNtNtCs2XZViv7ZMYs_18sqlrustgo_security7session5testss_19test_cleanup_closed
FN:389,_RNvNtNtCs2XZViv7ZMYs_18sqlrustgo_security7session5testss_19test_create_session
FN:418,_RNvNtNtCs2XZViv7ZMYs_18sqlrustgo_security7session5testss_20test_active_sessions
FN:442,_RNvNtNtCs2XZViv7ZMYs_18sqlrustgo_security7session5testss_21test_session_activity
FN:484,_RNvNtNtCs2XZViv7ZMYs_18sqlrustgo_security7session5testss_25test_get_processlist_rows
FN:502,_RNvNtNtCs2XZViv7ZMYs_18sqlrustgo_security7session5testss_26test_kill_permission_check
FN:467,_RNvNtNtCs2XZViv7ZMYs_18sqlrustgo_security7session5testss_33test_processlist_row_from_session
FN:494,_RNCNvNtNtCs2XZViv7ZMYs_18sqlrustgo_security7session5testss_25test_get_processlist_rows0B7_
FN:495,_RNCNvNtNtCs2XZViv7ZMYs_18sqlrustgo_security7session5testss_25test_get_processlist_rowss_0B7_
FNDA:3,_RNCNvMs0_NtCs2XZViv7ZMYs_18sqlrustgo_security7sessionNtB7_14SessionManager17get_user_sessions0B9_
FNDA:2,_RNCNvMs0_NtCs2XZViv7ZMYs_18sqlrustgo_security7sessionNtB7_14SessionManager19get_active_sessions0B9_
FNDA:2,_RNCNvMs0_NtCs2XZViv7ZMYs_18sqlrustgo_security7sessionNtB7_14SessionManager20get_processlist_rows0B9_
FNDA:2,_RNCNvMs0_NtCs2XZViv7ZMYs_18sqlrustgo_security7sessionNtB7_14SessionManager23cleanup_closed_sessions0B9_
FNDA:1,_RNvMNtCs2XZViv7ZMYs_18sqlrustgo_security7sessionNtB2_7Session15update_activity
FNDA:3,_RNvMNtCs2XZViv7ZMYs_18sqlrustgo_security7sessionNtB2_7Session17idle_time_seconds
FNDA:16,_RNvMNtCs2XZViv7ZMYs_18sqlrustgo_security7sessionNtB2_7Session3new
FNDA:5,_RNvMNtCs2XZViv7ZMYs_18sqlrustgo_security7sessionNtB2_7Session5close
FNDA:4,_RNvMNtCs2XZViv7ZMYs_18sqlrustgo_security7sessionNtB2_7Session9is_active
FNDA:8,_RNvMs0_NtCs2XZViv7ZMYs_18sqlrustgo_security7sessionNtB5_14SessionManager11get_session
FNDA:5,_RNvMs0_NtCs2XZViv7ZMYs_18sqlrustgo_security7sessionNtB5_14SessionManager13close_session
FNDA:16,_RNvMs0_NtCs2XZViv7ZMYs_18sqlrustgo_security7sessionNtB5_14SessionManager14create_session
FNDA:1,_RNvMs0_NtCs2XZViv7ZMYs_18sqlrustgo_security7sessionNtB5_14SessionManager15get_session_mut
FNDA:1,_RNvMs0_NtCs2XZViv7ZMYs_18sqlrustgo_security7sessionNtB5_14SessionManager15update_activity
FNDA:2,_RNvMs0_NtCs2XZViv7ZMYs_18sqlrustgo_security7sessionNtB5_14SessionManager17get_session_count
FNDA:1,_RNvMs0_NtCs2XZViv7ZMYs_18sqlrustgo_security7sessionNtB5_14SessionManager17get_user_sessions
FNDA:1,_RNvMs0_NtCs2XZViv7ZMYs_18sqlrustgo_security7sessionNtB5_14SessionManager19get_active_sessions
FNDA:1,_RNvMs0_NtCs2XZViv7ZMYs_18sqlrustgo_security7sessionNtB5_14SessionManager20get_processlist_rows
FNDA:1,_RNvMs0_NtCs2XZViv7ZMYs_18sqlrustgo_security7sessionNtB5_14SessionManager23cleanup_closed_sessions
FNDA:10,_RNvMs0_NtCs2XZViv7ZMYs_18sqlrustgo_security7sessionNtB5_14SessionManager3new
FNDA:3,_RNvMs_NtCs2XZViv7ZMYs_18sqlrustgo_security7sessionNtB4_7Session18to_processlist_row
FNDA:20,_RNvNtCs2XZViv7ZMYs_18sqlrustgo_security7session17current_timestamp
FNDA:0,_RNCNvMs0_NtCs2XZViv7ZMYs_18sqlrustgo_security7sessionNtB7_14SessionManager18get_sessions_by_ip0B9_
FNDA:0,_RNCNvMs0_NtCs2XZViv7ZMYs_18sqlrustgo_security7sessionNtB7_14SessionManager24get_active_session_count0B9_
FNDA:0,_RNCNvMs0_NtCs2XZViv7ZMYs_18sqlrustgo_security7sessionNtB7_14SessionManager25get_concurrent_user_count0B9_
FNDA:0,_RNCNvMs0_NtCs2XZViv7ZMYs_18sqlrustgo_security7sessionNtB7_14SessionManager8can_kill0B9_
FNDA:0,_RNvMNtCs2XZViv7ZMYs_18sqlrustgo_security7sessionNtB2_7Session11cancel_flag
FNDA:0,_RNvMNtCs2XZViv7ZMYs_18sqlrustgo_security7sessionNtB2_7Session12cancel_query
FNDA:0,_RNvMNtCs2XZViv7ZMYs_18sqlrustgo_security7sessionNtB2_7Session12cancel_token
FNDA:0,_RNvMNtCs2XZViv7ZMYs_18sqlrustgo_security7sessionNtB2_7Session13has_privilege
FNDA:0,_RNvMNtCs2XZViv7ZMYs_18sqlrustgo_security7sessionNtB2_7Session15grant_privilege
FNDA:0,_RNvMNtCs2XZViv7ZMYs_18sqlrustgo_security7sessionNtB2_7Session15kill_connection
FNDA:0,_RNvMNtCs2XZViv7ZMYs_18sqlrustgo_security7sessionNtB2_7Session16revoke_privilege
FNDA:0,_RNvMNtCs2XZViv7ZMYs_18sqlrustgo_security7sessionNtB2_7Session18is_query_cancelled
FNDA:0,_RNvMNtCs2XZViv7ZMYs_18sqlrustgo_security7sessionNtB2_7Session20can_view_processlist
FNDA:0,_RNvMNtCs2XZViv7ZMYs_18sqlrustgo_security7sessionNtB2_7Session20is_connection_killed
FNDA:0,_RNvMNtCs2XZViv7ZMYs_18sqlrustgo_security7sessionNtB2_7Session21reset_query_cancelled
FNDA:0,_RNvMNtCs2XZViv7ZMYs_18sqlrustgo_security7sessionNtB2_7Session8can_kill
FNDA:0,_RNvMNtCs2XZViv7ZMYs_18sqlrustgo_security7sessionNtB2_7Session8set_idle
FNDA:0,_RNvMs0_NtCs2XZViv7ZMYs_18sqlrustgo_security7sessionNtB5_14SessionManager10kill_query
FNDA:0,_RNvMs0_NtCs2XZViv7ZMYs_18sqlrustgo_security7sessionNtB5_14SessionManager12kill_session
FNDA:0,_RNvMs0_NtCs2XZViv7ZMYs_18sqlrustgo_security7sessionNtB5_14SessionManager13with_max_idle
FNDA:0,_RNvMs0_NtCs2XZViv7ZMYs_18sqlrustgo_security7sessionNtB5_14SessionManager14remove_session
FNDA:0,_RNvMs0_NtCs2XZViv7ZMYs_18sqlrustgo_security7sessionNtB5_14SessionManager16get_all_sessions
FNDA:0,_RNvMs0_NtCs2XZViv7ZMYs_18sqlrustgo_security7sessionNtB5_14SessionManager18get_sessions_by_ip
FNDA:0,_RNvMs0_NtCs2XZViv7ZMYs_18sqlrustgo_security7sessionNtB5_14SessionManager19close_idle_sessions
FNDA:0,_RNvMs0_NtCs2XZViv7ZMYs_18sqlrustgo_security7sessionNtB5_14SessionManager20set_session_database
FNDA:0,_RNvMs0_NtCs2XZViv7ZMYs_18sqlrustgo_security7sessionNtB5_14SessionManager24get_active_session_count
FNDA:0,_RNvMs0_NtCs2XZViv7ZMYs_18sqlrustgo_security7sessionNtB5_14SessionManager25get_concurrent_user_count
FNDA:0,_RNvMs0_NtCs2XZViv7ZMYs_18sqlrustgo_security7sessionNtB5_14SessionManager8can_kill
FNDA:0,_RNvXs1_NtCs2XZViv7ZMYs_18sqlrustgo_security7sessionNtB5_14SessionManagerNtNtCs8nPosuWgJFh_4core7default7Default7default
FNDA:1,_RNvNtNtCs2XZViv7ZMYs_18sqlrustgo_security7session5testss_16test_get_session
FNDA:1,_RNvNtNtCs2XZViv7ZMYs_18sqlrustgo_security7session5testss_18test_close_session
FNDA:1,_RNvNtNtCs2XZViv7ZMYs_18sqlrustgo_security7session5testss_18test_user_sessions
FNDA:1,_RNvNtNtCs2XZViv7ZMYs_18sqlrustgo_security7session5testss_19test_cleanup_closed
FNDA:1,_RNvNtNtCs2XZViv7ZMYs_18sqlrustgo_security7session5testss_19test_create_session
FNDA:1,_RNvNtNtCs2XZViv7ZMYs_18sqlrustgo_security7session5testss_20test_active_sessions
FNDA:1,_RNvNtNtCs2XZViv7ZMYs_18sqlrustgo_security7session5testss_21test_session_activity
FNDA:1,_RNvNtNtCs2XZViv7ZMYs_18sqlrustgo_security7session5testss_25test_get_processlist_rows
FNDA:1,_RNvNtNtCs2XZViv7ZMYs_18sqlrustgo_security7session5testss_26test_kill_permission_check
FNDA:1,_RNvNtNtCs2XZViv7ZMYs_18sqlrustgo_security7session5testss_33test_processlist_row_from_session
FNDA:2,_RNCNvNtNtCs2XZViv7ZMYs_18sqlrustgo_security7session5testss_25test_get_processlist_rows0B7_
FNDA:2,_RNCNvNtNtCs2XZViv7ZMYs_18sqlrustgo_security7session5testss_25test_get_processlist_rowss_0B7_
FNF:63
FNH:34
DA:42,16
DA:43,16
DA:44,16
DA:45,16
DA:46,16
DA:47,16
DA:48,16
DA:49,16
DA:50,16
DA:51,16
DA:52,16
DA:53,16
DA:54,16
DA:55,16
DA:56,16
DA:58,0
DA:59,0
DA:60,0
DA:62,0
DA:63,0
DA:64,0
DA:66,0
DA:67,0
DA:68,0
DA:70,0
DA:71,0
DA:72,0
DA:74,0
DA:75,0
DA:76,0
DA:78,0
DA:79,0
DA:80,0
DA:82,0
DA:83,0
DA:84,0
DA:86,1
DA:87,1
DA:88,1
DA:89,0
DA:90,1
DA:91,1
DA:93,0
DA:94,0
DA:95,0
DA:97,0
DA:98,0
DA:99,0
DA:101,0
DA:102,0
DA:103,0
DA:105,0
DA:106,0
DA:107,0
DA:109,0
DA:110,0
DA:111,0
DA:112,0
DA:114,0
DA:115,0
DA:116,0
DA:118,5
DA:119,5
DA:120,5
DA:122,4
DA:123,4
DA:124,4
DA:126,3
DA:127,3
DA:128,3
DA:144,3
DA:145,3
DA:146,2
DA:147,0
DA:148,0
DA:149,1
DA:152,3
DA:153,3
DA:154,3
DA:155,3
DA:156,3
DA:157,3
DA:158,3
DA:159,3
DA:160,3
DA:161,3
DA:162,3
DA:173,10
DA:174,10
DA:175,10
DA:176,10
DA:177,10
DA:178,10
DA:179,10
DA:181,0
DA:182,0
DA:183,0
DA:184,0
DA:186,16
DA:187,16
DA:188,16
DA:189,16
DA:190,16
DA:191,16
DA:194,16
DA:196,16
DA:198,16
DA:199,16
DA:201,8
DA:202,8
DA:203,8
DA:205,1
DA:206,1
DA:207,1
DA:209,1
DA:210,1
DA:211,1
DA:212,1
DA:213,1
DA:214,1
DA:215,1
DA:216,1
DA:217,0
DA:218,1
DA:220,5
DA:221,5
DA:222,5
DA:223,5
DA:224,5
DA:225,5
DA:227,0
DA:228,0
DA:229,0
DA:231,1
DA:232,1
DA:233,1
DA:234,1
DA:235,1
DA:236,2
DA:237,1
DA:238,1
DA:239,1
DA:241,1
DA:242,1
DA:243,1
DA:244,1
DA:245,1
DA:246,2
DA:247,1
DA:248,1
DA:250,1
DA:251,1
DA:252,1
DA:253,1
DA:254,1
DA:255,3
DA:256,1
DA:257,1
DA:258,1
DA:260,2
DA:261,2
DA:262,2
DA:264,0
DA:265,0
DA:266,0
DA:267,0
DA:268,0
DA:269,0
DA:270,0
DA:271,0
DA:273,0
DA:274,0
DA:275,0
DA:277,0
DA:278,0
DA:279,0
DA:280,0
DA:281,0
DA:282,0
DA:283,0
DA:284,0
DA:286,0
DA:287,0
DA:289,1
DA:290,1
DA:291,1
DA:292,2
DA:293,1
DA:294,1
DA:296,0
DA:297,0
DA:298,0
DA:299,0
DA:300,0
DA:301,0
DA:303,0
DA:304,0
DA:305,0
DA:307,0
DA:308,0
DA:309,0
DA:310,0
DA:311,0
DA:312,0
DA:313,0
DA:314,0
DA:315,0
DA:317,0
DA:318,0
DA:319,0
DA:320,0
DA:321,0
DA:322,0
DA:323,0
DA:324,0
DA:326,0
DA:327,0
DA:328,0
DA:329,0
DA:330,0
DA:331,0
DA:332,0
DA:334,0
DA:336,0
DA:338,0
DA:339,0
DA:340,0
DA:341,0
DA:342,0
DA:343,0
DA:345,0
DA:347,0
DA:349,0
DA:350,0
DA:351,0
DA:352,0
DA:353,0
DA:355,0
DA:356,0
DA:357,0
DA:359,0
DA:360,0
DA:361,0
DA:363,0
DA:364,0
DA:366,0
DA:368,0
DA:372,0
DA:373,0
DA:374,0
DA:377,20
DA:378,20
DA:379,20
DA:380,20
DA:381,20
DA:382,20
DA:389,1
DA:390,1
DA:391,1
DA:393,1
DA:394,1
DA:395,1
DA:398,1
DA:399,1
DA:400,1
DA:402,1
DA:403,1
DA:404,1
DA:407,1
DA:408,1
DA:409,1
DA:411,1
DA:413,1
DA:414,1
DA:415,1
DA:418,1
DA:419,1
DA:420,1
DA:421,1
DA:423,1
DA:425,1
DA:426,1
DA:427,1
DA:428,1
DA:431,1
DA:432,1
DA:433,1
DA:434,1
DA:435,1
DA:437,1
DA:438,1
DA:439,1
DA:442,1
DA:443,1
DA:444,1
DA:446,1
DA:447,1
DA:448,1
DA:450,1
DA:451,1
DA:454,1
DA:455,1
DA:456,1
DA:457,1
DA:459,1
DA:460,1
DA:462,1
DA:463,1
DA:464,1
DA:467,1
DA:468,1
DA:469,1
DA:471,1
DA:472,1
DA:474,1
DA:475,1
DA:476,1
DA:477,1
DA:478,1
DA:479,1
DA:480,0
DA:481,1
DA:484,1
DA:485,1
DA:486,1
DA:487,1
DA:489,1
DA:491,1
DA:493,1
DA:494,2
DA:495,2
DA:496,1
DA:497,1
DA:498,1
DA:499,1
DA:502,1
DA:503,1
DA:504,1
DA:505,1
DA:507,1
DA:509,1
DA:510,1
DA:512,1
DA:513,1
DA:515,1
DA:516,1
DA:517,1
DA:518,1
BRF:0
BRH:0
LF:358
LH:220
end_of_record
SF:/home/openclaw/dev/yinglichina8848/sqlrustgo/crates/security/src/tls.rs
FN:97,_RNCNvMs0_NtCs2XZViv7ZMYs_18sqlrustgo_security3tlsNtB7_18CertificateManager13load_identity0B9_
FN:105,_RNCNvMs0_NtCs2XZViv7ZMYs_18sqlrustgo_security3tlsNtB7_18CertificateManager13load_identitys0_0B9_
FN:99,_RNCNvMs0_NtCs2XZViv7ZMYs_18sqlrustgo_security3tlsNtB7_18CertificateManager13load_identitys_0B9_
FN:110,_RNCNvMs0_NtCs2XZViv7ZMYs_18sqlrustgo_security3tlsNtB7_18CertificateManager19load_ca_certificate0B9_
FN:171,_RNvNtNtCs2XZViv7ZMYs_18sqlrustgo_security3tls5testss_23test_tls_config_builder
FN:164,_RNvNtNtCs2XZViv7ZMYs_18sqlrustgo_security3tls5testss_23test_tls_config_default
FN:188,_RNvNtNtCs2XZViv7ZMYs_18sqlrustgo_security3tls5testss_36test_certificate_manager_no_identity
FN:92,_RNvMs0_NtCs2XZViv7ZMYs_18sqlrustgo_security3tlsNtB5_18CertificateManager13load_identity
FN:81,_RNvMs0_NtCs2XZViv7ZMYs_18sqlrustgo_security3tlsNtB5_18CertificateManager17load_certificates
FN:108,_RNvMs0_NtCs2XZViv7ZMYs_18sqlrustgo_security3tlsNtB5_18CertificateManager19load_ca_certificate
FN:71,_RNvMs0_NtCs2XZViv7ZMYs_18sqlrustgo_security3tlsNtB5_18CertificateManager3new
FN:113,_RNvMs0_NtCs2XZViv7ZMYs_18sqlrustgo_security3tlsNtB5_18CertificateManager9read_file
FN:48,_RNvMs_NtCs2XZViv7ZMYs_18sqlrustgo_security3tlsNtB4_9TlsConfig12with_ca_cert
FN:58,_RNvMs_NtCs2XZViv7ZMYs_18sqlrustgo_security3tlsNtB4_9TlsConfig20accept_invalid_certs
FN:53,_RNvMs_NtCs2XZViv7ZMYs_18sqlrustgo_security3tlsNtB4_9TlsConfig20with_min_tls_version
FN:40,_RNvMs_NtCs2XZViv7ZMYs_18sqlrustgo_security3tlsNtB4_9TlsConfig3new
FN:28,_RNvXNtCs2XZViv7ZMYs_18sqlrustgo_security3tlsNtB2_9TlsConfigNtNtCs8nPosuWgJFh_4core7default7Default7default
FN:124,_RNvMs0_NtCs2XZViv7ZMYs_18sqlrustgo_security3tlsNtB5_18CertificateManager12get_ca_certs
FN:120,_RNvMs0_NtCs2XZViv7ZMYs_18sqlrustgo_security3tlsNtB5_18CertificateManager12get_identity
FN:128,_RNvMs0_NtCs2XZViv7ZMYs_18sqlrustgo_security3tlsNtB5_18CertificateManager13verify_client
FN:140,_RNvMs0_NtCs2XZViv7ZMYs_18sqlrustgo_security3tlsNtB5_18CertificateManager15create_acceptor
FNDA:0,_RNCNvMs0_NtCs2XZViv7ZMYs_18sqlrustgo_security3tlsNtB7_18CertificateManager13load_identity0B9_
FNDA:0,_RNCNvMs0_NtCs2XZViv7ZMYs_18sqlrustgo_security3tlsNtB7_18CertificateManager13load_identitys0_0B9_
FNDA:0,_RNCNvMs0_NtCs2XZViv7ZMYs_18sqlrustgo_security3tlsNtB7_18CertificateManager13load_identitys_0B9_
FNDA:0,_RNCNvMs0_NtCs2XZViv7ZMYs_18sqlrustgo_security3tlsNtB7_18CertificateManager19load_ca_certificate0B9_
FNDA:1,_RNvNtNtCs2XZViv7ZMYs_18sqlrustgo_security3tls5testss_23test_tls_config_builder
FNDA:1,_RNvNtNtCs2XZViv7ZMYs_18sqlrustgo_security3tls5testss_23test_tls_config_default
FNDA:1,_RNvNtNtCs2XZViv7ZMYs_18sqlrustgo_security3tls5testss_36test_certificate_manager_no_identity
FNDA:1,_RNvMs0_NtCs2XZViv7ZMYs_18sqlrustgo_security3tlsNtB5_18CertificateManager13load_identity
FNDA:1,_RNvMs0_NtCs2XZViv7ZMYs_18sqlrustgo_security3tlsNtB5_18CertificateManager17load_certificates
FNDA:0,_RNvMs0_NtCs2XZViv7ZMYs_18sqlrustgo_security3tlsNtB5_18CertificateManager19load_ca_certificate
FNDA:1,_RNvMs0_NtCs2XZViv7ZMYs_18sqlrustgo_security3tlsNtB5_18CertificateManager3new
FNDA:1,_RNvMs0_NtCs2XZViv7ZMYs_18sqlrustgo_security3tlsNtB5_18CertificateManager9read_file
FNDA:1,_RNvMs_NtCs2XZViv7ZMYs_18sqlrustgo_security3tlsNtB4_9TlsConfig12with_ca_cert
FNDA:1,_RNvMs_NtCs2XZViv7ZMYs_18sqlrustgo_security3tlsNtB4_9TlsConfig20accept_invalid_certs
FNDA:1,_RNvMs_NtCs2XZViv7ZMYs_18sqlrustgo_security3tlsNtB4_9TlsConfig20with_min_tls_version
FNDA:1,_RNvMs_NtCs2XZViv7ZMYs_18sqlrustgo_security3tlsNtB4_9TlsConfig3new
FNDA:3,_RNvXNtCs2XZViv7ZMYs_18sqlrustgo_security3tlsNtB2_9TlsConfigNtNtCs8nPosuWgJFh_4core7default7Default7default
FNDA:0,_RNvMs0_NtCs2XZViv7ZMYs_18sqlrustgo_security3tlsNtB5_18CertificateManager12get_ca_certs
FNDA:0,_RNvMs0_NtCs2XZViv7ZMYs_18sqlrustgo_security3tlsNtB5_18CertificateManager12get_identity
FNDA:0,_RNvMs0_NtCs2XZViv7ZMYs_18sqlrustgo_security3tlsNtB5_18CertificateManager13verify_client
FNDA:0,_RNvMs0_NtCs2XZViv7ZMYs_18sqlrustgo_security3tlsNtB5_18CertificateManager15create_acceptor
FNF:21
FNH:12
DA:28,3
DA:29,3
DA:30,3
DA:31,3
DA:32,3
DA:33,3
DA:34,3
DA:35,3
DA:36,3
DA:40,1
DA:41,1
DA:42,1
DA:43,1
DA:44,1
DA:45,1
DA:46,1
DA:48,1
DA:49,1
DA:50,1
DA:51,1
DA:53,1
DA:54,1
DA:55,1
DA:56,1
DA:58,1
DA:59,1
DA:60,1
DA:61,1
DA:71,1
DA:72,1
DA:73,1
DA:74,1
DA:75,1
DA:76,1
DA:77,1
DA:78,0
DA:79,1
DA:81,1
DA:82,1
DA:84,0
DA:85,0
DA:86,0
DA:87,0
DA:89,0
DA:90,1
DA:92,1
DA:93,1
DA:94,0
DA:96,0
DA:97,0
DA:98,0
DA:99,0
DA:101,0
DA:102,0
DA:104,0
DA:105,0
DA:106,1
DA:108,0
DA:109,0
DA:110,0
DA:111,0
DA:113,1
DA:114,1
DA:115,0
DA:116,0
DA:117,0
DA:118,1
DA:120,0
DA:121,0
DA:122,0
DA:124,0
DA:125,0
DA:126,0
DA:128,0
DA:129,0
DA:130,0
DA:131,0
DA:133,0
DA:134,0
DA:135,0
DA:137,0
DA:138,0
DA:140,0
DA:141,0
DA:143,0
DA:144,0
DA:164,1
DA:165,1
DA:166,1
DA:167,1
DA:168,1
DA:171,1
DA:172,1
DA:173,1
DA:174,1
DA:176,1
DA:177,1
DA:178,1
DA:180,1
DA:181,1
DA:182,1
DA:183,1
DA:184,1
DA:185,1
DA:188,1
DA:189,1
DA:190,1
DA:191,1
DA:192,1
BRF:0
BRH:0
LF:113
LH:68
end_of_record