SF:/home/openclaw/dev/yinglichina8848/sqlrustgo/crates/planner/src/converter.rs
FN:79,_RNCNvMs0_NtCsk6zXnftdXdR_17sqlrustgo_planner9converterNtB7_18StatementConverter14convert_select0B9_
FN:123,_RNCNvMs0_NtCsk6zXnftdXdR_17sqlrustgo_planner9converterNtB7_18StatementConverter18convert_expression0B9_
FN:178,_RNCNvMs0_NtCsk6zXnftdXdR_17sqlrustgo_planner9converterNtB7_18StatementConverter18convert_expressions_0B9_
FN:44,_RNvMs0_NtCsk6zXnftdXdR_17sqlrustgo_planner9converterNtB5_18StatementConverter14convert_select
FN:194,_RNvMs0_NtCsk6zXnftdXdR_17sqlrustgo_planner9converterNtB5_18StatementConverter16convert_operator
FN:92,_RNvMs0_NtCsk6zXnftdXdR_17sqlrustgo_planner9converterNtB5_18StatementConverter18convert_expression
FN:216,_RNvMs0_NtCsk6zXnftdXdR_17sqlrustgo_planner9converterNtB5_18StatementConverter26convert_aggregate_function
FN:28,_RNvMs0_NtCsk6zXnftdXdR_17sqlrustgo_planner9converterNtB5_18StatementConverter3new
FN:33,_RNvMs0_NtCsk6zXnftdXdR_17sqlrustgo_planner9converterNtB5_18StatementConverter7convert
FN:246,_RNvNtNtCsk6zXnftdXdR_17sqlrustgo_planner9converter5testss_26test_convert_simple_select
FN:288,_RNvNtNtCsk6zXnftdXdR_17sqlrustgo_planner9converter5testss_28test_convert_exists_subquery
FN:297,_RNvNtNtCsk6zXnftdXdR_17sqlrustgo_planner9converter5testss_29test_convert_any_all_subquery
FN:255,_RNvNtNtCsk6zXnftdXdR_17sqlrustgo_planner9converter5testss_30test_convert_select_with_where
FN:264,_RNvNtNtCsk6zXnftdXdR_17sqlrustgo_planner9converter5testss_31test_convert_expression_literal
FN:276,_RNvNtNtCsk6zXnftdXdR_17sqlrustgo_planner9converter5testss_34test_convert_expression_identifier
FN:15,_RNvXNtCsk6zXnftdXdR_17sqlrustgo_planner9converterNtB2_15ConversionErrorNtNtCs8nPosuWgJFh_4core3fmt7Display3fmt
FN:235,_RNvXs1_NtCsk6zXnftdXdR_17sqlrustgo_planner9converterNtB5_18StatementConverterNtNtCs8nPosuWgJFh_4core7default7Default7default
FNDA:6,_RNCNvMs0_NtCsk6zXnftdXdR_17sqlrustgo_planner9converterNtB7_18StatementConverter14convert_select0B9_
FNDA:0,_RNCNvMs0_NtCsk6zXnftdXdR_17sqlrustgo_planner9converterNtB7_18StatementConverter18convert_expression0B9_
FNDA:0,_RNCNvMs0_NtCsk6zXnftdXdR_17sqlrustgo_planner9converterNtB7_18StatementConverter18convert_expressions_0B9_
FNDA:6,_RNvMs0_NtCsk6zXnftdXdR_17sqlrustgo_planner9converterNtB5_18StatementConverter14convert_select
FNDA:3,_RNvMs0_NtCsk6zXnftdXdR_17sqlrustgo_planner9converterNtB5_18StatementConverter16convert_operator
FNDA:11,_RNvMs0_NtCsk6zXnftdXdR_17sqlrustgo_planner9converterNtB5_18StatementConverter18convert_expression
FNDA:0,_RNvMs0_NtCsk6zXnftdXdR_17sqlrustgo_planner9converterNtB5_18StatementConverter26convert_aggregate_function
FNDA:6,_RNvMs0_NtCsk6zXnftdXdR_17sqlrustgo_planner9converterNtB5_18StatementConverter3new
FNDA:6,_RNvMs0_NtCsk6zXnftdXdR_17sqlrustgo_planner9converterNtB5_18StatementConverter7convert
FNDA:1,_RNvNtNtCsk6zXnftdXdR_17sqlrustgo_planner9converter5testss_26test_convert_simple_select
FNDA:1,_RNvNtNtCsk6zXnftdXdR_17sqlrustgo_planner9converter5testss_28test_convert_exists_subquery
FNDA:1,_RNvNtNtCsk6zXnftdXdR_17sqlrustgo_planner9converter5testss_29test_convert_any_all_subquery
FNDA:1,_RNvNtNtCsk6zXnftdXdR_17sqlrustgo_planner9converter5testss_30test_convert_select_with_where
FNDA:1,_RNvNtNtCsk6zXnftdXdR_17sqlrustgo_planner9converter5testss_31test_convert_expression_literal
FNDA:1,_RNvNtNtCsk6zXnftdXdR_17sqlrustgo_planner9converter5testss_34test_convert_expression_identifier
FNDA:0,_RNvXNtCsk6zXnftdXdR_17sqlrustgo_planner9converterNtB2_15ConversionErrorNtNtCs8nPosuWgJFh_4core3fmt7Display3fmt
FNDA:0,_RNvXs1_NtCsk6zXnftdXdR_17sqlrustgo_planner9converterNtB5_18StatementConverterNtNtCs8nPosuWgJFh_4core7default7Default7default
FNF:17
FNH:12
DA:15,0
DA:16,0
DA:17,0
DA:28,6
DA:29,6
DA:30,6
DA:33,6
DA:34,6
DA:35,6
DA:36,0
DA:37,0
DA:38,0
DA:39,0
DA:41,6
DA:44,6
DA:46,6
DA:47,0
DA:49,6
DA:53,6
DA:54,6
DA:55,6
DA:59,6
DA:60,6
DA:61,6
DA:62,6
DA:63,6
DA:66,6
DA:67,4
DA:68,4
DA:69,4
DA:70,4
DA:71,4
DA:72,2
DA:75,6
DA:76,6
DA:77,6
DA:78,6
DA:79,6
DA:80,6
DA:81,6
DA:82,6
DA:83,6
DA:84,6
DA:86,0
DA:88,6
DA:89,6
DA:92,11
DA:93,11
DA:94,2
DA:96,2
DA:97,2
DA:98,0
DA:99,0
DA:100,0
DA:101,0
DA:102,0
DA:103,0
DA:105,0
DA:108,6
DA:109,0
DA:110,0
DA:111,0
DA:112,0
DA:113,2
DA:114,2
DA:115,2
DA:116,2
DA:117,2
DA:119,0
DA:120,0
DA:121,0
DA:122,0
DA:123,0
DA:125,0
DA:126,0
DA:129,0
DA:130,0
DA:131,0
DA:132,0
DA:133,0
DA:134,0
DA:135,0
DA:137,0
DA:138,0
DA:139,0
DA:142,1
DA:143,1
DA:144,1
DA:145,1
DA:147,1
DA:148,1
DA:149,1
DA:151,1
DA:152,1
DA:153,1
DA:154,1
DA:155,0
DA:157,1
DA:161,0
DA:162,0
DA:163,0
DA:165,0
DA:166,0
DA:167,0
DA:168,0
DA:169,0
DA:170,0
DA:171,0
DA:172,0
DA:173,0
DA:175,0
DA:176,0
DA:177,0
DA:178,0
DA:179,0
DA:181,0
DA:182,0
DA:186,0
DA:187,0
DA:188,0
DA:189,0
DA:191,11
DA:194,3
DA:195,3
DA:196,3
DA:197,2
DA:198,2
DA:199,0
DA:200,0
DA:201,0
DA:202,0
DA:203,0
DA:204,0
DA:205,0
DA:206,0
DA:207,0
DA:208,0
DA:209,0
DA:210,0
DA:211,0
DA:213,3
DA:216,0
DA:217,0
DA:218,0
DA:219,0
DA:220,0
DA:221,0
DA:222,0
DA:223,0
DA:224,0
DA:225,0
DA:226,0
DA:227,0
DA:228,0
DA:229,0
DA:231,0
DA:235,0
DA:236,0
DA:237,0
DA:246,1
DA:247,1
DA:248,1
DA:249,1
DA:250,1
DA:251,1
DA:252,1
DA:255,1
DA:256,1
DA:257,1
DA:258,1
DA:259,1
DA:260,1
DA:261,1
DA:264,1
DA:265,1
DA:266,1
DA:267,1
DA:268,1
DA:269,1
DA:270,1
DA:271,0
DA:273,1
DA:276,1
DA:277,1
DA:278,1
DA:279,1
DA:280,1
DA:281,1
DA:282,1
DA:283,0
DA:285,1
DA:288,1
DA:289,1
DA:290,1
DA:291,1
DA:292,1
DA:293,1
DA:294,1
DA:297,1
DA:298,1
DA:299,1
DA:300,1
DA:301,1
DA:302,1
DA:304,1
DA:305,1
DA:306,1
DA:307,1
DA:308,1
BRF:0
BRH:0
LF:212
LH:116
end_of_record
SF:/home/openclaw/dev/yinglichina8848/sqlrustgo/crates/planner/src/lib.rs
FN:478,_RNvCsk6zXnftdXdR_17sqlrustgo_planner17evaluate_unary_op
FN:447,_RNvCsk6zXnftdXdR_17sqlrustgo_planner18evaluate_binary_op
FN:165,_RNvMCsk6zXnftdXdR_17sqlrustgo_plannerNtB2_6Column13new_qualified
FN:158,_RNvMCsk6zXnftdXdR_17sqlrustgo_plannerNtB2_6Column3new
FN:285,_RNvMs0_Csk6zXnftdXdR_17sqlrustgo_plannerNtB5_4Expr11binary_expr
FN:277,_RNvMs0_Csk6zXnftdXdR_17sqlrustgo_plannerNtB5_4Expr6column
FN:281,_RNvMs0_Csk6zXnftdXdR_17sqlrustgo_plannerNtB5_4Expr7literal
FN:363,_RNvMs0_Csk6zXnftdXdR_17sqlrustgo_plannerNtB5_4Expr7matches
FN:293,_RNvMs0_Csk6zXnftdXdR_17sqlrustgo_plannerNtB5_4Expr8evaluate
FN:711,_RNvMs7_Csk6zXnftdXdR_17sqlrustgo_plannerNtB5_6Schema11field_index
FN:699,_RNvMs7_Csk6zXnftdXdR_17sqlrustgo_plannerNtB5_6Schema3new
FN:703,_RNvMs7_Csk6zXnftdXdR_17sqlrustgo_plannerNtB5_6Schema5empty
FN:707,_RNvMs7_Csk6zXnftdXdR_17sqlrustgo_plannerNtB5_6Schema5field
FN:732,_RNvMs8_Csk6zXnftdXdR_17sqlrustgo_plannerNtB5_5Field12new_not_null
FN:724,_RNvMs8_Csk6zXnftdXdR_17sqlrustgo_plannerNtB5_5Field3new
FN:767,_RNvMs9_Csk6zXnftdXdR_17sqlrustgo_plannerNtB5_8DataType13estimate_size
FN:754,_RNvMs9_Csk6zXnftdXdR_17sqlrustgo_plannerNtB5_8DataType13from_sql_type
FN:490,_RNvXs1_Csk6zXnftdXdR_17sqlrustgo_plannerNtB5_4ExprNtNtCs8nPosuWgJFh_4core3fmt7Display3fmt
FN:601,_RNvXs2_Csk6zXnftdXdR_17sqlrustgo_plannerNtB5_8OperatorNtNtCs8nPosuWgJFh_4core3fmt7Display3fmt
FN:624,_RNvXs3_Csk6zXnftdXdR_17sqlrustgo_plannerNtB5_8SortExprNtNtCs8nPosuWgJFh_4core3fmt7Display3fmt
FN:630,_RNvXs4_Csk6zXnftdXdR_17sqlrustgo_plannerNtB5_11WindowFrameNtNtCs8nPosuWgJFh_4core3fmt7Display3fmt
FN:670,_RNvXs5_Csk6zXnftdXdR_17sqlrustgo_plannerNtB5_10FrameBoundNtNtCs8nPosuWgJFh_4core3fmt7Display3fmt
FN:682,_RNvXs6_Csk6zXnftdXdR_17sqlrustgo_plannerNtB5_11ExcludeModeNtNtCs8nPosuWgJFh_4core3fmt7Display3fmt
FN:174,_RNvXs_Csk6zXnftdXdR_17sqlrustgo_plannerNtB4_6ColumnNtNtCs8nPosuWgJFh_4core3fmt7Display3fmt
FN:782,_RNvXsa_Csk6zXnftdXdR_17sqlrustgo_plannerNtB5_8DataTypeNtNtCs8nPosuWgJFh_4core3fmt7Display3fmt
FN:905,_RNvNtCsk6zXnftdXdR_17sqlrustgo_planner5testss_14test_field_new
FN:961,_RNvNtCsk6zXnftdXdR_17sqlrustgo_planner5testss_14test_sort_expr
FN:802,_RNvNtCsk6zXnftdXdR_17sqlrustgo_planner5testss_15test_column_new
FN:872,_RNvNtCsk6zXnftdXdR_17sqlrustgo_planner5testss_15test_schema_new
FN:825,_RNvNtCsk6zXnftdXdR_17sqlrustgo_planner5testss_16test_expr_column
FN:847,_RNvNtCsk6zXnftdXdR_17sqlrustgo_planner5testss_17test_expr_display
FN:831,_RNvNtCsk6zXnftdXdR_17sqlrustgo_planner5testss_17test_expr_literal
FN:1132,_RNvNtCsk6zXnftdXdR_17sqlrustgo_planner5testss_17test_expr_matches
FN:878,_RNvNtCsk6zXnftdXdR_17sqlrustgo_planner5testss_17test_schema_empty
FN:884,_RNvNtCsk6zXnftdXdR_17sqlrustgo_planner5testss_17test_schema_field
FN:816,_RNvNtCsk6zXnftdXdR_17sqlrustgo_planner5testss_19test_column_display
FN:1170,_RNvNtCsk6zXnftdXdR_17sqlrustgo_planner5testss_19test_schema_default
FN:933,_RNvNtCsk6zXnftdXdR_17sqlrustgo_planner5testss_21test_datatype_display
FN:837,_RNvNtCsk6zXnftdXdR_17sqlrustgo_planner5testss_21test_expr_binary_expr
FN:853,_RNvNtCsk6zXnftdXdR_17sqlrustgo_planner5testss_21test_operator_display
FN:1747,_RNvNtCsk6zXnftdXdR_17sqlrustgo_planner5testss_22test_frame_bound_clone
FN:1754,_RNvNtCsk6zXnftdXdR_17sqlrustgo_planner5testss_23test_exclude_mode_clone
FN:998,_RNvNtCsk6zXnftdXdR_17sqlrustgo_planner5testss_23test_expr_display_alias
FN:972,_RNvNtCsk6zXnftdXdR_17sqlrustgo_planner5testss_23test_expr_display_unary
FN:913,_RNvNtCsk6zXnftdXdR_17sqlrustgo_planner5testss_23test_field_new_not_null
FN:943,_RNvNtCsk6zXnftdXdR_17sqlrustgo_planner5testss_23test_join_type_variants
FN:894,_RNvNtCsk6zXnftdXdR_17sqlrustgo_planner5testss_23test_schema_field_index
FN:1736,_RNvNtCsk6zXnftdXdR_17sqlrustgo_planner5testss_23test_window_frame_clone
FN:1514,_RNvNtCsk6zXnftdXdR_17sqlrustgo_planner5testss_24test_expr_display_exists
FN:1120,_RNvNtCsk6zXnftdXdR_17sqlrustgo_planner5testss_24test_expr_evaluate_alias
FN:1712,_RNvNtCsk6zXnftdXdR_17sqlrustgo_planner5testss_24test_frame_bound_display
FN:809,_RNvNtCsk6zXnftdXdR_17sqlrustgo_planner5testss_25test_column_new_qualified
FN:1727,_RNvNtCsk6zXnftdXdR_17sqlrustgo_planner5testss_25test_exclude_mode_display
FN:1526,_RNvNtCsk6zXnftdXdR_17sqlrustgo_planner5testss_25test_expr_display_any_all
FN:1027,_RNvNtCsk6zXnftdXdR_17sqlrustgo_planner5testss_25test_expr_evaluate_column
FN:1642,_RNvNtCsk6zXnftdXdR_17sqlrustgo_planner5testss_25test_frame_bound_variants
FN:1018,_RNvNtCsk6zXnftdXdR_17sqlrustgo_planner5testss_25test_operator_display_all
FN:1220,_RNvNtCsk6zXnftdXdR_17sqlrustgo_planner5testss_26test_datatype_all_variants
FN:1657,_RNvNtCsk6zXnftdXdR_17sqlrustgo_planner5testss_26test_exclude_mode_variants
FN:1007,_RNvNtCsk6zXnftdXdR_17sqlrustgo_planner5testss_26test_expr_display_wildcard
FN:1036,_RNvNtCsk6zXnftdXdR_17sqlrustgo_planner5testss_26test_expr_evaluate_literal
FN:1197,_RNvNtCsk6zXnftdXdR_17sqlrustgo_planner5testss_26test_operator_all_variants
FN:1617,_RNvNtCsk6zXnftdXdR_17sqlrustgo_planner5testss_26test_window_frame_variants
FN:920,_RNvNtCsk6zXnftdXdR_17sqlrustgo_planner5testss_27test_datatype_from_sql_type
FN:981,_RNvNtCsk6zXnftdXdR_17sqlrustgo_planner5testss_27test_expr_display_aggregate
FN:1476,_RNvNtCsk6zXnftdXdR_17sqlrustgo_planner5testss_27test_subquery_type_variants
FN:1498,_RNvNtCsk6zXnftdXdR_17sqlrustgo_planner5testss_29test_expr_display_in_subquery
FN:1045,_RNvNtCsk6zXnftdXdR_17sqlrustgo_planner5testss_30test_expr_evaluate_binary_expr
FN:1666,_RNvNtCsk6zXnftdXdR_17sqlrustgo_planner5testss_30test_window_frame_display_rows
FN:1152,_RNvNtCsk6zXnftdXdR_17sqlrustgo_planner5testss_31test_evaluate_binary_op_integer
FN:1686,_RNvNtCsk6zXnftdXdR_17sqlrustgo_planner5testss_31test_window_frame_display_range
FN:952,_RNvNtCsk6zXnftdXdR_17sqlrustgo_planner5testss_32test_aggregate_function_variants
FN:1233,_RNvNtCsk6zXnftdXdR_17sqlrustgo_planner5testss_32test_field_with_nullable_default
FN:1699,_RNvNtCsk6zXnftdXdR_17sqlrustgo_planner5testss_32test_window_frame_display_groups
FN:1486,_RNvNtCsk6zXnftdXdR_17sqlrustgo_planner5testss_33test_expr_display_scalar_subquery
FN:1096,_RNvNtCsk6zXnftdXdR_17sqlrustgo_planner5testss_33test_expr_evaluate_unary_expr_not
FN:1176,_RNvNtCsk6zXnftdXdR_17sqlrustgo_planner5testss_33test_join_type_variants_left_semi
FN:1448,_RNvNtCsk6zXnftdXdR_17sqlrustgo_planner5testss_34test_evaluate_binary_op_arithmetic
FN:1426,_RNvNtCsk6zXnftdXdR_17sqlrustgo_planner5testss_34test_evaluate_binary_op_text_gt_eq
FN:1404,_RNvNtCsk6zXnftdXdR_17sqlrustgo_planner5testss_34test_evaluate_binary_op_text_lt_eq
FN:1163,_RNvNtCsk6zXnftdXdR_17sqlrustgo_planner5testss_34test_evaluate_unary_op_not_boolean
FN:1598,_RNvNtCsk6zXnftdXdR_17sqlrustgo_planner5testss_34test_scalar_subquery_physical_plan
FN:1108,_RNvNtCsk6zXnftdXdR_17sqlrustgo_planner5testss_35test_expr_evaluate_unary_expr_minus
FN:1184,_RNvNtCsk6zXnftdXdR_17sqlrustgo_planner5testss_36test_aggregate_function_all_variants
FN:1307,_RNvNtCsk6zXnftdXdR_17sqlrustgo_planner5testss_37test_expr_evaluate_aggregate_function
FN:1294,_RNvNtCsk6zXnftdXdR_17sqlrustgo_planner5testss_37test_expr_evaluate_qualified_wildcard
FN:1270,_RNvNtCsk6zXnftdXdR_17sqlrustgo_planner5testss_39test_expr_evaluate_unary_op_unsupported
FN:1466,_RNvNtCsk6zXnftdXdR_17sqlrustgo_planner5testss_40test_evaluate_binary_op_division_by_zero
FN:1365,_RNvNtCsk6zXnftdXdR_17sqlrustgo_planner5testss_40test_evaluate_binary_op_text_comparisons
FN:1554,_RNvNtCsk6zXnftdXdR_17sqlrustgo_planner5testss_40test_expr_evaluate_subquery_returns_none
FN:1322,_RNvNtCsk6zXnftdXdR_17sqlrustgo_planner5testss_40test_expr_matches_returns_false_for_none
FN:1144,_RNvNtCsk6zXnftdXdR_17sqlrustgo_planner5testss_40test_expr_matches_returns_false_for_null
FN:1338,_RNvNtCsk6zXnftdXdR_17sqlrustgo_planner5testss_43test_evaluate_binary_op_integer_comparisons
FN:1084,_RNvNtCsk6zXnftdXdR_17sqlrustgo_planner5testss_45test_expr_evaluate_binary_expr_divide_by_zero
FN:1069,_RNvNtCsk6zXnftdXdR_17sqlrustgo_planner5testss_46test_expr_evaluate_binary_expr_text_comparison
FN:1244,_RNvNtCsk6zXnftdXdR_17sqlrustgo_planner5testss_46test_expr_evaluate_binary_op_unsupported_types
FN:1057,_RNvNtCsk6zXnftdXdR_17sqlrustgo_planner5testss_49test_expr_evaluate_binary_expr_integer_comparison
FN:381,_RNCNvMs0_Csk6zXnftdXdR_17sqlrustgo_plannerNtB7_4Expr17contains_subquery0B7_
FN:389,_RNCNvMs0_Csk6zXnftdXdR_17sqlrustgo_plannerNtB7_4Expr17contains_subquerys0_0B7_
FN:390,_RNCNvMs0_Csk6zXnftdXdR_17sqlrustgo_plannerNtB7_4Expr17contains_subquerys1_0B7_
FN:399,_RNCNvMs0_Csk6zXnftdXdR_17sqlrustgo_plannerNtB7_4Expr17contains_subquerys2_0B7_
FN:402,_RNCNvMs0_Csk6zXnftdXdR_17sqlrustgo_plannerNtB7_4Expr17contains_subquerys3_0B7_
FN:388,_RNCNvMs0_Csk6zXnftdXdR_17sqlrustgo_plannerNtB7_4Expr17contains_subquerys_0B7_
FN:418,_RNCNvMs0_Csk6zXnftdXdR_17sqlrustgo_plannerNtB7_4Expr24contains_outer_reference0B7_
FN:427,_RNCNvMs0_Csk6zXnftdXdR_17sqlrustgo_plannerNtB7_4Expr24contains_outer_references0_0B7_
FN:428,_RNCNvMs0_Csk6zXnftdXdR_17sqlrustgo_plannerNtB7_4Expr24contains_outer_references1_0B7_
FN:437,_RNCNvMs0_Csk6zXnftdXdR_17sqlrustgo_plannerNtB7_4Expr24contains_outer_references2_0B7_
FN:440,_RNCNvMs0_Csk6zXnftdXdR_17sqlrustgo_plannerNtB7_4Expr24contains_outer_references3_0B7_
FN:426,_RNCNvMs0_Csk6zXnftdXdR_17sqlrustgo_plannerNtB7_4Expr24contains_outer_references_0B7_
FN:371,_RNvMs0_Csk6zXnftdXdR_17sqlrustgo_plannerNtB5_4Expr17contains_subquery
FN:408,_RNvMs0_Csk6zXnftdXdR_17sqlrustgo_plannerNtB5_4Expr24contains_outer_reference
FN:712,_RNCNvMs7_Csk6zXnftdXdR_17sqlrustgo_plannerNtB7_6Schema11field_index0B7_
FN:708,_RNCNvMs7_Csk6zXnftdXdR_17sqlrustgo_plannerNtB7_6Schema5field0B7_
FN:511,_RNCNvXs1_Csk6zXnftdXdR_17sqlrustgo_plannerNtB7_4ExprNtNtCs8nPosuWgJFh_4core3fmt7Display3fmt0B7_
FN:542,_RNCNvXs1_Csk6zXnftdXdR_17sqlrustgo_plannerNtB7_4ExprNtNtCs8nPosuWgJFh_4core3fmt7Display3fmts0_0B7_
FN:548,_RNCNvXs1_Csk6zXnftdXdR_17sqlrustgo_plannerNtB7_4ExprNtNtCs8nPosuWgJFh_4core3fmt7Display3fmts1_0B7_
FN:580,_RNCNvXs1_Csk6zXnftdXdR_17sqlrustgo_plannerNtB7_4ExprNtNtCs8nPosuWgJFh_4core3fmt7Display3fmts2_0B7_
FN:536,_RNCNvXs1_Csk6zXnftdXdR_17sqlrustgo_plannerNtB7_4ExprNtNtCs8nPosuWgJFh_4core3fmt7Display3fmts_0B7_
FNDA:5,_RNvCsk6zXnftdXdR_17sqlrustgo_planner17evaluate_unary_op
FNDA:26,_RNvCsk6zXnftdXdR_17sqlrustgo_planner18evaluate_binary_op
FNDA:2,_RNvMCsk6zXnftdXdR_17sqlrustgo_plannerNtB2_6Column13new_qualified
FNDA:241,_RNvMCsk6zXnftdXdR_17sqlrustgo_plannerNtB2_6Column3new
FNDA:26,_RNvMs0_Csk6zXnftdXdR_17sqlrustgo_plannerNtB5_4Expr11binary_expr
FNDA:215,_RNvMs0_Csk6zXnftdXdR_17sqlrustgo_plannerNtB5_4Expr6column
FNDA:21,_RNvMs0_Csk6zXnftdXdR_17sqlrustgo_plannerNtB5_4Expr7literal
FNDA:3,_RNvMs0_Csk6zXnftdXdR_17sqlrustgo_plannerNtB5_4Expr7matches
FNDA:41,_RNvMs0_Csk6zXnftdXdR_17sqlrustgo_plannerNtB5_4Expr8evaluate
FNDA:38,_RNvMs7_Csk6zXnftdXdR_17sqlrustgo_plannerNtB5_6Schema11field_index
FNDA:336,_RNvMs7_Csk6zXnftdXdR_17sqlrustgo_plannerNtB5_6Schema3new
FNDA:12,_RNvMs7_Csk6zXnftdXdR_17sqlrustgo_plannerNtB5_6Schema5empty
FNDA:2,_RNvMs7_Csk6zXnftdXdR_17sqlrustgo_plannerNtB5_6Schema5field
FNDA:2,_RNvMs8_Csk6zXnftdXdR_17sqlrustgo_plannerNtB5_5Field12new_not_null
FNDA:383,_RNvMs8_Csk6zXnftdXdR_17sqlrustgo_plannerNtB5_5Field3new
FNDA:0,_RNvMs9_Csk6zXnftdXdR_17sqlrustgo_plannerNtB5_8DataType13estimate_size
FNDA:9,_RNvMs9_Csk6zXnftdXdR_17sqlrustgo_plannerNtB5_8DataType13from_sql_type
FNDA:20,_RNvXs1_Csk6zXnftdXdR_17sqlrustgo_plannerNtB5_4ExprNtNtCs8nPosuWgJFh_4core3fmt7Display3fmt
FNDA:23,_RNvXs2_Csk6zXnftdXdR_17sqlrustgo_plannerNtB5_8OperatorNtNtCs8nPosuWgJFh_4core3fmt7Display3fmt
FNDA:0,_RNvXs3_Csk6zXnftdXdR_17sqlrustgo_plannerNtB5_8SortExprNtNtCs8nPosuWgJFh_4core3fmt7Display3fmt
FNDA:4,_RNvXs4_Csk6zXnftdXdR_17sqlrustgo_plannerNtB5_11WindowFrameNtNtCs8nPosuWgJFh_4core3fmt7Display3fmt
FNDA:13,_RNvXs5_Csk6zXnftdXdR_17sqlrustgo_plannerNtB5_10FrameBoundNtNtCs8nPosuWgJFh_4core3fmt7Display3fmt
FNDA:7,_RNvXs6_Csk6zXnftdXdR_17sqlrustgo_plannerNtB5_11ExcludeModeNtNtCs8nPosuWgJFh_4core3fmt7Display3fmt
FNDA:10,_RNvXs_Csk6zXnftdXdR_17sqlrustgo_plannerNtB4_6ColumnNtNtCs8nPosuWgJFh_4core3fmt7Display3fmt
FNDA:6,_RNvXsa_Csk6zXnftdXdR_17sqlrustgo_plannerNtB5_8DataTypeNtNtCs8nPosuWgJFh_4core3fmt7Display3fmt
FNDA:1,_RNvNtCsk6zXnftdXdR_17sqlrustgo_planner5testss_14test_field_new
FNDA:1,_RNvNtCsk6zXnftdXdR_17sqlrustgo_planner5testss_14test_sort_expr
FNDA:1,_RNvNtCsk6zXnftdXdR_17sqlrustgo_planner5testss_15test_column_new
FNDA:1,_RNvNtCsk6zXnftdXdR_17sqlrustgo_planner5testss_15test_schema_new
FNDA:1,_RNvNtCsk6zXnftdXdR_17sqlrustgo_planner5testss_16test_expr_column
FNDA:1,_RNvNtCsk6zXnftdXdR_17sqlrustgo_planner5testss_17test_expr_display
FNDA:1,_RNvNtCsk6zXnftdXdR_17sqlrustgo_planner5testss_17test_expr_literal
FNDA:1,_RNvNtCsk6zXnftdXdR_17sqlrustgo_planner5testss_17test_expr_matches
FNDA:1,_RNvNtCsk6zXnftdXdR_17sqlrustgo_planner5testss_17test_schema_empty
FNDA:1,_RNvNtCsk6zXnftdXdR_17sqlrustgo_planner5testss_17test_schema_field
FNDA:1,_RNvNtCsk6zXnftdXdR_17sqlrustgo_planner5testss_19test_column_display
FNDA:1,_RNvNtCsk6zXnftdXdR_17sqlrustgo_planner5testss_19test_schema_default
FNDA:1,_RNvNtCsk6zXnftdXdR_17sqlrustgo_planner5testss_21test_datatype_display
FNDA:1,_RNvNtCsk6zXnftdXdR_17sqlrustgo_planner5testss_21test_expr_binary_expr
FNDA:1,_RNvNtCsk6zXnftdXdR_17sqlrustgo_planner5testss_21test_operator_display
FNDA:1,_RNvNtCsk6zXnftdXdR_17sqlrustgo_planner5testss_22test_frame_bound_clone
FNDA:1,_RNvNtCsk6zXnftdXdR_17sqlrustgo_planner5testss_23test_exclude_mode_clone
FNDA:1,_RNvNtCsk6zXnftdXdR_17sqlrustgo_planner5testss_23test_expr_display_alias
FNDA:1,_RNvNtCsk6zXnftdXdR_17sqlrustgo_planner5testss_23test_expr_display_unary
FNDA:1,_RNvNtCsk6zXnftdXdR_17sqlrustgo_planner5testss_23test_field_new_not_null
FNDA:1,_RNvNtCsk6zXnftdXdR_17sqlrustgo_planner5testss_23test_join_type_variants
FNDA:1,_RNvNtCsk6zXnftdXdR_17sqlrustgo_planner5testss_23test_schema_field_index
FNDA:1,_RNvNtCsk6zXnftdXdR_17sqlrustgo_planner5testss_23test_window_frame_clone
FNDA:1,_RNvNtCsk6zXnftdXdR_17sqlrustgo_planner5testss_24test_expr_display_exists
FNDA:1,_RNvNtCsk6zXnftdXdR_17sqlrustgo_planner5testss_24test_expr_evaluate_alias
FNDA:1,_RNvNtCsk6zXnftdXdR_17sqlrustgo_planner5testss_24test_frame_bound_display
FNDA:1,_RNvNtCsk6zXnftdXdR_17sqlrustgo_planner5testss_25test_column_new_qualified
FNDA:1,_RNvNtCsk6zXnftdXdR_17sqlrustgo_planner5testss_25test_exclude_mode_display
FNDA:1,_RNvNtCsk6zXnftdXdR_17sqlrustgo_planner5testss_25test_expr_display_any_all
FNDA:1,_RNvNtCsk6zXnftdXdR_17sqlrustgo_planner5testss_25test_expr_evaluate_column
FNDA:1,_RNvNtCsk6zXnftdXdR_17sqlrustgo_planner5testss_25test_frame_bound_variants
FNDA:1,_RNvNtCsk6zXnftdXdR_17sqlrustgo_planner5testss_25test_operator_display_all
FNDA:1,_RNvNtCsk6zXnftdXdR_17sqlrustgo_planner5testss_26test_datatype_all_variants
FNDA:1,_RNvNtCsk6zXnftdXdR_17sqlrustgo_planner5testss_26test_exclude_mode_variants
FNDA:1,_RNvNtCsk6zXnftdXdR_17sqlrustgo_planner5testss_26test_expr_display_wildcard
FNDA:1,_RNvNtCsk6zXnftdXdR_17sqlrustgo_planner5testss_26test_expr_evaluate_literal
FNDA:1,_RNvNtCsk6zXnftdXdR_17sqlrustgo_planner5testss_26test_operator_all_variants
FNDA:1,_RNvNtCsk6zXnftdXdR_17sqlrustgo_planner5testss_26test_window_frame_variants
FNDA:1,_RNvNtCsk6zXnftdXdR_17sqlrustgo_planner5testss_27test_datatype_from_sql_type
FNDA:1,_RNvNtCsk6zXnftdXdR_17sqlrustgo_planner5testss_27test_expr_display_aggregate
FNDA:1,_RNvNtCsk6zXnftdXdR_17sqlrustgo_planner5testss_27test_subquery_type_variants
FNDA:1,_RNvNtCsk6zXnftdXdR_17sqlrustgo_planner5testss_29test_expr_display_in_subquery
FNDA:1,_RNvNtCsk6zXnftdXdR_17sqlrustgo_planner5testss_30test_expr_evaluate_binary_expr
FNDA:1,_RNvNtCsk6zXnftdXdR_17sqlrustgo_planner5testss_30test_window_frame_display_rows
FNDA:1,_RNvNtCsk6zXnftdXdR_17sqlrustgo_planner5testss_31test_evaluate_binary_op_integer
FNDA:1,_RNvNtCsk6zXnftdXdR_17sqlrustgo_planner5testss_31test_window_frame_display_range
FNDA:1,_RNvNtCsk6zXnftdXdR_17sqlrustgo_planner5testss_32test_aggregate_function_variants
FNDA:1,_RNvNtCsk6zXnftdXdR_17sqlrustgo_planner5testss_32test_field_with_nullable_default
FNDA:1,_RNvNtCsk6zXnftdXdR_17sqlrustgo_planner5testss_32test_window_frame_display_groups
FNDA:1,_RNvNtCsk6zXnftdXdR_17sqlrustgo_planner5testss_33test_expr_display_scalar_subquery
FNDA:1,_RNvNtCsk6zXnftdXdR_17sqlrustgo_planner5testss_33test_expr_evaluate_unary_expr_not
FNDA:1,_RNvNtCsk6zXnftdXdR_17sqlrustgo_planner5testss_33test_join_type_variants_left_semi
FNDA:1,_RNvNtCsk6zXnftdXdR_17sqlrustgo_planner5testss_34test_evaluate_binary_op_arithmetic
FNDA:1,_RNvNtCsk6zXnftdXdR_17sqlrustgo_planner5testss_34test_evaluate_binary_op_text_gt_eq
FNDA:1,_RNvNtCsk6zXnftdXdR_17sqlrustgo_planner5testss_34test_evaluate_binary_op_text_lt_eq
FNDA:1,_RNvNtCsk6zXnftdXdR_17sqlrustgo_planner5testss_34test_evaluate_unary_op_not_boolean
FNDA:1,_RNvNtCsk6zXnftdXdR_17sqlrustgo_planner5testss_34test_scalar_subquery_physical_plan
FNDA:1,_RNvNtCsk6zXnftdXdR_17sqlrustgo_planner5testss_35test_expr_evaluate_unary_expr_minus
FNDA:1,_RNvNtCsk6zXnftdXdR_17sqlrustgo_planner5testss_36test_aggregate_function_all_variants
FNDA:1,_RNvNtCsk6zXnftdXdR_17sqlrustgo_planner5testss_37test_expr_evaluate_aggregate_function
FNDA:1,_RNvNtCsk6zXnftdXdR_17sqlrustgo_planner5testss_37test_expr_evaluate_qualified_wildcard
FNDA:1,_RNvNtCsk6zXnftdXdR_17sqlrustgo_planner5testss_39test_expr_evaluate_unary_op_unsupported
FNDA:1,_RNvNtCsk6zXnftdXdR_17sqlrustgo_planner5testss_40test_evaluate_binary_op_division_by_zero
FNDA:1,_RNvNtCsk6zXnftdXdR_17sqlrustgo_planner5testss_40test_evaluate_binary_op_text_comparisons
FNDA:1,_RNvNtCsk6zXnftdXdR_17sqlrustgo_planner5testss_40test_expr_evaluate_subquery_returns_none
FNDA:1,_RNvNtCsk6zXnftdXdR_17sqlrustgo_planner5testss_40test_expr_matches_returns_false_for_none
FNDA:1,_RNvNtCsk6zXnftdXdR_17sqlrustgo_planner5testss_40test_expr_matches_returns_false_for_null
FNDA:1,_RNvNtCsk6zXnftdXdR_17sqlrustgo_planner5testss_43test_evaluate_binary_op_integer_comparisons
FNDA:1,_RNvNtCsk6zXnftdXdR_17sqlrustgo_planner5testss_45test_expr_evaluate_binary_expr_divide_by_zero
FNDA:1,_RNvNtCsk6zXnftdXdR_17sqlrustgo_planner5testss_46test_expr_evaluate_binary_expr_text_comparison
FNDA:1,_RNvNtCsk6zXnftdXdR_17sqlrustgo_planner5testss_46test_expr_evaluate_binary_op_unsupported_types
FNDA:1,_RNvNtCsk6zXnftdXdR_17sqlrustgo_planner5testss_49test_expr_evaluate_binary_expr_integer_comparison
FNDA:0,_RNCNvMs0_Csk6zXnftdXdR_17sqlrustgo_plannerNtB7_4Expr17contains_subquery0B7_
FNDA:0,_RNCNvMs0_Csk6zXnftdXdR_17sqlrustgo_plannerNtB7_4Expr17contains_subquerys0_0B7_
FNDA:0,_RNCNvMs0_Csk6zXnftdXdR_17sqlrustgo_plannerNtB7_4Expr17contains_subquerys1_0B7_
FNDA:0,_RNCNvMs0_Csk6zXnftdXdR_17sqlrustgo_plannerNtB7_4Expr17contains_subquerys2_0B7_
FNDA:0,_RNCNvMs0_Csk6zXnftdXdR_17sqlrustgo_plannerNtB7_4Expr17contains_subquerys3_0B7_
FNDA:0,_RNCNvMs0_Csk6zXnftdXdR_17sqlrustgo_plannerNtB7_4Expr17contains_subquerys_0B7_
FNDA:0,_RNCNvMs0_Csk6zXnftdXdR_17sqlrustgo_plannerNtB7_4Expr24contains_outer_reference0B7_
FNDA:0,_RNCNvMs0_Csk6zXnftdXdR_17sqlrustgo_plannerNtB7_4Expr24contains_outer_references0_0B7_
FNDA:0,_RNCNvMs0_Csk6zXnftdXdR_17sqlrustgo_plannerNtB7_4Expr24contains_outer_references1_0B7_
FNDA:0,_RNCNvMs0_Csk6zXnftdXdR_17sqlrustgo_plannerNtB7_4Expr24contains_outer_references2_0B7_
FNDA:0,_RNCNvMs0_Csk6zXnftdXdR_17sqlrustgo_plannerNtB7_4Expr24contains_outer_references3_0B7_
FNDA:0,_RNCNvMs0_Csk6zXnftdXdR_17sqlrustgo_plannerNtB7_4Expr24contains_outer_references_0B7_
FNDA:0,_RNvMs0_Csk6zXnftdXdR_17sqlrustgo_plannerNtB5_4Expr17contains_subquery
FNDA:0,_RNvMs0_Csk6zXnftdXdR_17sqlrustgo_plannerNtB5_4Expr24contains_outer_reference
FNDA:54,_RNCNvMs7_Csk6zXnftdXdR_17sqlrustgo_plannerNtB7_6Schema11field_index0B7_
FNDA:3,_RNCNvMs7_Csk6zXnftdXdR_17sqlrustgo_plannerNtB7_6Schema5field0B7_
FNDA:2,_RNCNvXs1_Csk6zXnftdXdR_17sqlrustgo_plannerNtB7_4ExprNtNtCs8nPosuWgJFh_4core3fmt7Display3fmt0B7_
FNDA:0,_RNCNvXs1_Csk6zXnftdXdR_17sqlrustgo_plannerNtB7_4ExprNtNtCs8nPosuWgJFh_4core3fmt7Display3fmts0_0B7_
FNDA:0,_RNCNvXs1_Csk6zXnftdXdR_17sqlrustgo_plannerNtB7_4ExprNtNtCs8nPosuWgJFh_4core3fmt7Display3fmts1_0B7_
FNDA:0,_RNCNvXs1_Csk6zXnftdXdR_17sqlrustgo_plannerNtB7_4ExprNtNtCs8nPosuWgJFh_4core3fmt7Display3fmts2_0B7_
FNDA:0,_RNCNvXs1_Csk6zXnftdXdR_17sqlrustgo_plannerNtB7_4ExprNtNtCs8nPosuWgJFh_4core3fmt7Display3fmts_0B7_
FNF:118
FNH:98
DA:158,241
DA:159,241
DA:160,241
DA:161,241
DA:162,241
DA:163,241
DA:165,2
DA:166,2
DA:167,2
DA:168,2
DA:169,2
DA:170,2
DA:174,10
DA:175,10
DA:176,1
DA:177,9
DA:179,10
DA:277,215
DA:278,215
DA:279,215
DA:281,21
DA:282,21
DA:283,21
DA:285,26
DA:286,26
DA:287,26
DA:288,26
DA:289,26
DA:290,26
DA:291,26
DA:293,41
DA:294,41
DA:295,19
DA:296,19
DA:297,19
DA:299,2
DA:300,7
DA:301,7
DA:302,7
DA:303,7
DA:305,4
DA:306,4
DA:307,4
DA:309,2
DA:310,0
DA:311,1
DA:312,1
DA:313,1
DA:315,1
DA:316,1
DA:317,1
DA:318,1
DA:320,0
DA:322,0
DA:323,0
DA:324,0
DA:325,0
DA:326,0
DA:327,0
DA:328,0
DA:329,0
DA:330,0
DA:334,0
DA:335,0
DA:336,0
DA:337,0
DA:338,0
DA:339,0
DA:340,0
DA:342,0
DA:346,0
DA:347,0
DA:349,0
DA:350,0
DA:351,0
DA:352,0
DA:354,0
DA:355,0
DA:357,0
DA:361,41
DA:363,3
DA:364,3
DA:365,1
DA:367,2
DA:369,3
DA:371,0
DA:372,0
DA:373,0
DA:374,0
DA:375,0
DA:376,0
DA:377,0
DA:378,0
DA:380,0
DA:381,0
DA:383,0
DA:384,0
DA:385,0
DA:388,0
DA:389,0
DA:390,0
DA:392,0
DA:394,0
DA:395,0
DA:397,0
DA:398,0
DA:399,0
DA:400,0
DA:401,0
DA:402,0
DA:404,0
DA:406,0
DA:408,0
DA:409,0
DA:410,0
DA:411,0
DA:412,0
DA:413,0
DA:414,0
DA:416,0
DA:417,0
DA:418,0
DA:421,0
DA:422,0
DA:423,0
DA:426,0
DA:427,0
DA:428,0
DA:430,0
DA:432,0
DA:433,0
DA:435,0
DA:436,0
DA:437,0
DA:438,0
DA:439,0
DA:440,0
DA:442,0
DA:444,0
DA:447,26
DA:451,26
DA:452,0
DA:453,0
DA:454,2
DA:455,1
DA:456,3
DA:457,1
DA:458,1
DA:459,1
DA:460,2
DA:461,2
DA:462,1
DA:463,2
DA:464,2
DA:465,2
DA:466,2
DA:467,2
DA:468,2
DA:469,0
DA:471,2
DA:474,2
DA:476,26
DA:478,5
DA:481,5
DA:482,1
DA:483,1
DA:484,1
DA:485,2
DA:487,5
DA:490,20
DA:491,20
DA:492,8
DA:493,1
DA:494,0
DA:495,0
DA:497,1
DA:499,2
DA:500,2
DA:501,2
DA:503,2
DA:504,1
DA:505,1
DA:506,0
DA:507,0
DA:508,0
DA:510,2
DA:511,2
DA:512,2
DA:515,0
DA:516,0
DA:517,0
DA:518,0
DA:519,0
DA:521,0
DA:522,0
DA:523,0
DA:524,0
DA:525,0
DA:526,0
DA:527,0
DA:528,0
DA:529,0
DA:530,0
DA:531,0
DA:532,0
DA:533,0
DA:534,0
DA:536,0
DA:537,0
DA:540,0
DA:541,0
DA:542,0
DA:543,0
DA:544,0
DA:547,0
DA:548,0
DA:549,0
DA:550,0
DA:553,0
DA:554,0
DA:555,0
DA:557,0
DA:559,1
DA:560,1
DA:561,1
DA:562,1
DA:563,1
DA:564,1
DA:566,2
DA:568,2
DA:569,1
DA:570,1
DA:571,0
DA:573,2
DA:575,0
DA:576,0
DA:577,0
DA:579,0
DA:580,0
DA:581,0
DA:584,0
DA:585,0
DA:587,0
DA:588,0
DA:589,0
DA:591,0
DA:592,0
DA:593,0
DA:594,0
DA:597,20
DA:601,23
DA:602,23
DA:603,1
DA:604,1
DA:605,1
DA:606,1
DA:607,3
DA:608,1
DA:609,2
DA:610,3
DA:611,1
DA:612,1
DA:613,1
DA:614,2
DA:615,2
DA:616,1
DA:617,2
DA:618,0
DA:620,23
DA:624,0
DA:625,0
DA:626,0
DA:630,4
DA:631,4
DA:633,2
DA:634,2
DA:635,2
DA:637,2
DA:638,2
DA:639,1
DA:640,1
DA:641,2
DA:644,1
DA:645,1
DA:646,1
DA:648,1
DA:649,1
DA:650,0
DA:651,1
DA:652,1
DA:655,1
DA:656,1
DA:657,1
DA:659,1
DA:660,1
DA:661,1
DA:662,0
DA:663,1
DA:666,4
DA:670,13
DA:671,13
DA:672,4
DA:673,2
DA:674,3
DA:675,2
DA:676,2
DA:678,13
DA:682,7
DA:683,7
DA:684,1
DA:685,2
DA:686,1
DA:687,2
DA:688,1
DA:690,7
DA:699,336
DA:700,336
DA:701,336
DA:703,12
DA:704,12
DA:705,12
DA:707,2
DA:708,3
DA:709,2
DA:711,38
DA:712,54
DA:713,38
DA:724,383
DA:725,383
DA:726,383
DA:727,383
DA:728,383
DA:729,383
DA:730,383
DA:732,2
DA:733,2
DA:734,2
DA:735,2
DA:736,2
DA:737,2
DA:738,2
DA:754,9
DA:755,9
DA:756,9
DA:757,7
DA:758,5
DA:759,5
DA:760,3
DA:761,3
DA:762,2
DA:763,1
DA:765,9
DA:767,0
DA:768,0
DA:769,0
DA:770,0
DA:771,0
DA:772,0
DA:773,0
DA:774,0
DA:775,0
DA:776,0
DA:778,0
DA:782,6
DA:783,6
DA:784,1
DA:785,1
DA:786,1
DA:787,0
DA:788,1
DA:789,0
DA:790,1
DA:791,1
DA:793,6
DA:802,1
DA:803,1
DA:804,1
DA:805,1
DA:806,1
DA:809,1
DA:810,1
DA:811,1
DA:812,1
DA:813,1
DA:816,1
DA:817,1
DA:818,1
DA:820,1
DA:821,1
DA:822,1
DA:825,1
DA:826,1
DA:827,1
DA:828,1
DA:831,1
DA:832,1
DA:833,1
DA:834,1
DA:837,1
DA:838,1
DA:839,1
DA:840,1
DA:841,1
DA:843,1
DA:844,1
DA:847,1
DA:848,1
DA:849,1
DA:850,1
DA:853,1
DA:854,1
DA:855,1
DA:856,1
DA:857,1
DA:858,1
DA:859,1
DA:860,1
DA:861,1
DA:862,1
DA:863,1
DA:864,1
DA:865,1
DA:866,1
DA:867,1
DA:868,1
DA:869,1
DA:872,1
DA:873,1
DA:874,1
DA:875,1
DA:878,1
DA:879,1
DA:880,1
DA:881,1
DA:884,1
DA:885,1
DA:886,1
DA:887,1
DA:889,1
DA:890,1
DA:891,1
DA:894,1
DA:895,1
DA:896,1
DA:897,1
DA:899,1
DA:900,1
DA:901,1
DA:902,1
DA:905,1
DA:906,1
DA:907,1
DA:908,1
DA:909,1
DA:910,1
DA:913,1
DA:914,1
DA:915,1
DA:916,1
DA:917,1
DA:920,1
DA:921,1
DA:922,1
DA:923,1
DA:924,1
DA:925,1
DA:926,1
DA:927,1
DA:928,1
DA:929,1
DA:930,1
DA:933,1
DA:934,1
DA:935,1
DA:936,1
DA:937,1
DA:938,1
DA:939,1
DA:940,1
DA:943,1
DA:944,1
DA:945,1
DA:946,1
DA:947,1
DA:948,1
DA:949,1
DA:952,1
DA:953,1
DA:954,1
DA:955,1
DA:956,1
DA:957,1
DA:958,1
DA:961,1
DA:962,1
DA:963,1
DA:964,1
DA:965,1
DA:966,1
DA:967,1
DA:968,1
DA:969,1
DA:972,1
DA:973,1
DA:974,1
DA:975,1
DA:976,1
DA:977,1
DA:978,1
DA:981,1
DA:982,1
DA:983,1
DA:984,1
DA:985,1
DA:986,1
DA:987,1
DA:989,1
DA:990,1
DA:991,1
DA:992,1
DA:993,1
DA:994,1
DA:995,1
DA:998,1
DA:999,1
DA:1000,1
DA:1001,1
DA:1002,1
DA:1003,1
DA:1004,1
DA:1007,1
DA:1008,1
DA:1009,1
DA:1011,1
DA:1012,1
DA:1013,1
DA:1014,1
DA:1015,1
DA:1018,1
DA:1019,1
DA:1020,1
DA:1021,1
DA:1022,1
DA:1023,1
DA:1024,1
DA:1027,1
DA:1028,1
DA:1029,1
DA:1030,1
DA:1031,1
DA:1032,1
DA:1033,1
DA:1036,1
DA:1037,1
DA:1038,1
DA:1039,1
DA:1040,1
DA:1041,1
DA:1042,1
DA:1045,1
DA:1046,1
DA:1047,1
DA:1048,1
DA:1050,1
DA:1051,1
DA:1052,1
DA:1053,1
DA:1054,1
DA:1057,1
DA:1058,1
DA:1059,1
DA:1060,1
DA:1062,1
DA:1063,1
DA:1064,1
DA:1065,1
DA:1066,1
DA:1069,1
DA:1070,1
DA:1071,1
DA:1072,1
DA:1074,1
DA:1075,1
DA:1076,1
DA:1077,1
DA:1079,1
DA:1080,1
DA:1081,1
DA:1084,1
DA:1085,1
DA:1086,1
DA:1087,1
DA:1089,1
DA:1090,1
DA:1091,1
DA:1092,1
DA:1093,1
DA:1096,1
DA:1097,1
DA:1098,1
DA:1099,1
DA:1100,1
DA:1101,1
DA:1102,1
DA:1103,1
DA:1104,1
DA:1105,1
DA:1108,1
DA:1109,1
DA:1110,1
DA:1111,1
DA:1112,1
DA:1113,1
DA:1114,1
DA:1115,1
DA:1116,1
DA:1117,1
DA:1120,1
DA:1121,1
DA:1122,1
DA:1123,1
DA:1124,1
DA:1125,1
DA:1126,1
DA:1127,1
DA:1128,1
DA:1129,1
DA:1132,1
DA:1133,1
DA:1134,1
DA:1135,1
DA:1136,1
DA:1137,1
DA:1139,1
DA:1140,1
DA:1141,1
DA:1144,1
DA:1145,1
DA:1146,1
DA:1147,1
DA:1148,1
DA:1149,1
DA:1152,1
DA:1155,1
DA:1156,1
DA:1158,1
DA:1159,1
DA:1160,1
DA:1163,1
DA:1165,1
DA:1166,1
DA:1167,1
DA:1170,1
DA:1171,1
DA:1172,1
DA:1173,1
DA:1176,1
DA:1177,1
DA:1178,1
DA:1179,1
DA:1180,1
DA:1181,1
DA:1184,1
DA:1186,1
DA:1187,1
DA:1188,1
DA:1189,1
DA:1190,1
DA:1191,1
DA:1193,1
DA:1194,1
DA:1197,1
DA:1199,1
DA:1200,1
DA:1201,1
DA:1202,1
DA:1203,1
DA:1204,1
DA:1205,1
DA:1206,1
DA:1207,1
DA:1208,1
DA:1209,1
DA:1210,1
DA:1211,1
DA:1212,1
DA:1213,1
DA:1214,1
DA:1216,1
DA:1217,1
DA:1220,1
DA:1221,1
DA:1222,1
DA:1223,1
DA:1224,1
DA:1225,1
DA:1226,1
DA:1227,1
DA:1229,1
DA:1230,1
DA:1233,1
DA:1234,1
DA:1235,1
DA:1237,1
DA:1238,1
DA:1239,1
DA:1244,1
DA:1247,1
DA:1248,1
DA:1249,1
DA:1251,1
DA:1254,1
DA:1255,1
DA:1256,1
DA:1259,1
DA:1260,1
DA:1261,1
DA:1263,1
DA:1264,1
DA:1265,1
DA:1266,1
DA:1267,1
DA:1270,1
DA:1273,1
DA:1274,1
DA:1277,1
DA:1278,1
DA:1279,1
DA:1280,1
DA:1281,1
DA:1282,1
DA:1285,1
DA:1286,1
DA:1287,1
DA:1288,1
DA:1289,1
DA:1290,1
DA:1291,1
DA:1294,1
DA:1296,1
DA:1297,1
DA:1299,1
DA:1300,1
DA:1301,1
DA:1302,1
DA:1303,1
DA:1304,1
DA:1307,1
DA:1309,1
DA:1310,1
DA:1312,1
DA:1313,1
DA:1314,1
DA:1315,1
DA:1316,1
DA:1317,1
DA:1318,1
DA:1319,1
DA:1322,1
DA:1324,1
DA:1325,1
DA:1328,1
DA:1329,1
DA:1330,1
DA:1331,1
DA:1332,1
DA:1333,1
DA:1334,1
DA:1335,1
DA:1338,1
DA:1342,1
DA:1343,1
DA:1346,1
DA:1347,1
DA:1350,1
DA:1351,1
DA:1354,1
DA:1355,1
DA:1358,1
DA:1359,1
DA:1362,1
DA:1365,1
DA:1369,1
DA:1370,1
DA:1371,1
DA:1372,1
DA:1373,1
DA:1377,1
DA:1378,1
DA:1379,1
DA:1380,1
DA:1381,1
DA:1385,1
DA:1386,1
DA:1387,1
DA:1388,1
DA:1389,1
DA:1393,1
DA:1394,1
DA:1395,1
DA:1396,1
DA:1397,1
DA:1401,1
DA:1404,1
DA:1407,1
DA:1408,1
DA:1409,1
DA:1410,1
DA:1411,1
DA:1415,1
DA:1416,1
DA:1417,1
DA:1418,1
DA:1419,1
DA:1423,1
DA:1426,1
DA:1429,1
DA:1430,1
DA:1431,1
DA:1432,1
DA:1433,1
DA:1437,1
DA:1438,1
DA:1439,1
DA:1440,1
DA:1441,1
DA:1445,1
DA:1448,1
DA:1451,1
DA:1452,1
DA:1455,1
DA:1456,1
DA:1459,1
DA:1460,1
DA:1463,1
DA:1466,1
DA:1469,1
DA:1470,1
DA:1471,1
DA:1476,1
DA:1478,1
DA:1479,1
DA:1480,1
DA:1481,1
DA:1482,1
DA:1483,1
DA:1486,1
DA:1487,1
DA:1488,1
DA:1489,1
DA:1490,1
DA:1491,1
DA:1492,1
DA:1493,1
DA:1494,1
DA:1495,1
DA:1498,1
DA:1499,1
DA:1500,1
DA:1501,1
DA:1502,1
DA:1503,1
DA:1504,1
DA:1505,1
DA:1506,1
DA:1507,1
DA:1508,1
DA:1509,1
DA:1510,1
DA:1511,1
DA:1514,1
DA:1515,1
DA:1516,1
DA:1517,1
DA:1518,1
DA:1519,1
DA:1520,1
DA:1521,1
DA:1522,1
DA:1523,1
DA:1526,1
DA:1527,1
DA:1528,1
DA:1529,1
DA:1530,1
DA:1531,1
DA:1532,1
DA:1533,1
DA:1534,1
DA:1535,1
DA:1536,1
DA:1537,1
DA:1538,1
DA:1540,1
DA:1541,1
DA:1542,1
DA:1543,1
DA:1544,1
DA:1545,1
DA:1546,1
DA:1547,1
DA:1548,1
DA:1549,1
DA:1550,1
DA:1551,1
DA:1554,1
DA:1556,1
DA:1557,1
DA:1558,1
DA:1560,1
DA:1561,1
DA:1562,1
DA:1563,1
DA:1564,1
DA:1565,1
DA:1567,1
DA:1568,1
DA:1569,1
DA:1570,1
DA:1571,1
DA:1572,1
DA:1573,1
DA:1574,1
DA:1575,1
DA:1577,1
DA:1578,1
DA:1579,1
DA:1580,1
DA:1581,1
DA:1582,1
DA:1584,1
DA:1585,1
DA:1586,1
DA:1587,1
DA:1588,1
DA:1589,1
DA:1590,1
DA:1591,1
DA:1592,1
DA:1593,1
DA:1594,1
DA:1595,1
DA:1598,1
DA:1599,1
DA:1600,1
DA:1601,1
DA:1602,1
DA:1603,1
DA:1604,1
DA:1605,1
DA:1606,1
DA:1607,1
DA:1608,1
DA:1609,1
DA:1610,1
DA:1611,1
DA:1612,1
DA:1617,1
DA:1619,1
DA:1620,1
DA:1621,1
DA:1622,1
DA:1623,1
DA:1624,1
DA:1626,1
DA:1627,1
DA:1628,1
DA:1629,1
DA:1630,1
DA:1631,1
DA:1633,1
DA:1634,1
DA:1635,1
DA:1636,1
DA:1637,1
DA:1638,1
DA:1639,1
DA:1642,1
DA:1643,1
DA:1644,1
DA:1647,1
DA:1648,1
DA:1649,1
DA:1650,1
DA:1651,1
DA:1654,1
DA:1657,1
DA:1658,1
DA:1659,1
DA:1660,1
DA:1661,1
DA:1662,1
DA:1663,1
DA:1666,1
DA:1667,1
DA:1668,1
DA:1669,1
DA:1670,1
DA:1671,1
DA:1672,1
DA:1674,1
DA:1675,1
DA:1676,1
DA:1677,1
DA:1678,1
DA:1679,1
DA:1680,1
DA:1683,1
DA:1686,1
DA:1687,1
DA:1688,1
DA:1689,1
DA:1690,1
DA:1691,1
DA:1692,1
DA:1693,1
DA:1696,1
DA:1699,1
DA:1700,1
DA:1701,1
DA:1702,1
DA:1703,1
DA:1704,1
DA:1705,1
DA:1706,1
DA:1709,1
DA:1712,1
DA:1713,1
DA:1714,1
DA:1717,1
DA:1718,1
DA:1719,1
DA:1720,1
DA:1721,1
DA:1724,1
DA:1727,1
DA:1728,1
DA:1729,1
DA:1730,1
DA:1731,1
DA:1732,1
DA:1733,1
DA:1736,1
DA:1737,1
DA:1738,1
DA:1739,1
DA:1740,1
DA:1741,1
DA:1742,1
DA:1743,1
DA:1744,1
DA:1747,1
DA:1748,1
DA:1749,1
DA:1750,1
DA:1751,1
DA:1754,1
DA:1755,1
DA:1756,1
DA:1757,1
DA:1758,1
BRF:0
BRH:0
LF:1080
LH:905
end_of_record
SF:/home/openclaw/dev/yinglichina8848/sqlrustgo/crates/planner/src/logical_plan.rs
FN:317,_RNvNtNtCsk6zXnftdXdR_17sqlrustgo_planner12logical_plan5testss_23test_logical_plan_debug
FN:218,_RNvNtNtCsk6zXnftdXdR_17sqlrustgo_planner12logical_plan5testss_29test_logical_plan_schema_join
FN:240,_RNvNtNtCsk6zXnftdXdR_17sqlrustgo_planner12logical_plan5testss_29test_logical_plan_schema_sort
FN:255,_RNvNtNtCsk6zXnftdXdR_17sqlrustgo_planner12logical_plan5testss_30test_logical_plan_schema_limit
FN:289,_RNvNtNtCsk6zXnftdXdR_17sqlrustgo_planner12logical_plan5testss_31test_logical_plan_schema_delete
FN:176,_RNvNtNtCsk6zXnftdXdR_17sqlrustgo_planner12logical_plan5testss_31test_logical_plan_schema_filter
FN:298,_RNvNtNtCsk6zXnftdXdR_17sqlrustgo_planner12logical_plan5testss_31test_logical_plan_schema_update
FN:197,_RNvNtNtCsk6zXnftdXdR_17sqlrustgo_planner12logical_plan5testss_31test_logical_plan_schema_values
FN:271,_RNvNtNtCsk6zXnftdXdR_17sqlrustgo_planner12logical_plan5testss_34test_logical_plan_schema_aggregate
FN:308,_RNvNtNtCsk6zXnftdXdR_17sqlrustgo_planner12logical_plan5testss_35test_logical_plan_schema_drop_table
FN:160,_RNvNtNtCsk6zXnftdXdR_17sqlrustgo_planner12logical_plan5testss_35test_logical_plan_schema_projection
FN:149,_RNvNtNtCsk6zXnftdXdR_17sqlrustgo_planner12logical_plan5testss_35test_logical_plan_schema_table_scan
FN:207,_RNvNtNtCsk6zXnftdXdR_17sqlrustgo_planner12logical_plan5testss_37test_logical_plan_schema_create_table
FN:191,_RNvNtNtCsk6zXnftdXdR_17sqlrustgo_planner12logical_plan5testss_39test_logical_plan_schema_empty_relation
FN:120,_RNvMNtCsk6zXnftdXdR_17sqlrustgo_planner12logical_planNtB2_11LogicalPlan6schema
FNDA:1,_RNvNtNtCsk6zXnftdXdR_17sqlrustgo_planner12logical_plan5testss_23test_logical_plan_debug
FNDA:1,_RNvNtNtCsk6zXnftdXdR_17sqlrustgo_planner12logical_plan5testss_29test_logical_plan_schema_join
FNDA:1,_RNvNtNtCsk6zXnftdXdR_17sqlrustgo_planner12logical_plan5testss_29test_logical_plan_schema_sort
FNDA:1,_RNvNtNtCsk6zXnftdXdR_17sqlrustgo_planner12logical_plan5testss_30test_logical_plan_schema_limit
FNDA:1,_RNvNtNtCsk6zXnftdXdR_17sqlrustgo_planner12logical_plan5testss_31test_logical_plan_schema_delete
FNDA:1,_RNvNtNtCsk6zXnftdXdR_17sqlrustgo_planner12logical_plan5testss_31test_logical_plan_schema_filter
FNDA:1,_RNvNtNtCsk6zXnftdXdR_17sqlrustgo_planner12logical_plan5testss_31test_logical_plan_schema_update
FNDA:1,_RNvNtNtCsk6zXnftdXdR_17sqlrustgo_planner12logical_plan5testss_31test_logical_plan_schema_values
FNDA:1,_RNvNtNtCsk6zXnftdXdR_17sqlrustgo_planner12logical_plan5testss_34test_logical_plan_schema_aggregate
FNDA:1,_RNvNtNtCsk6zXnftdXdR_17sqlrustgo_planner12logical_plan5testss_35test_logical_plan_schema_drop_table
FNDA:1,_RNvNtNtCsk6zXnftdXdR_17sqlrustgo_planner12logical_plan5testss_35test_logical_plan_schema_projection
FNDA:1,_RNvNtNtCsk6zXnftdXdR_17sqlrustgo_planner12logical_plan5testss_35test_logical_plan_schema_table_scan
FNDA:1,_RNvNtNtCsk6zXnftdXdR_17sqlrustgo_planner12logical_plan5testss_37test_logical_plan_schema_create_table
FNDA:1,_RNvNtNtCsk6zXnftdXdR_17sqlrustgo_planner12logical_plan5testss_39test_logical_plan_schema_empty_relation
FNDA:16,_RNvMNtCsk6zXnftdXdR_17sqlrustgo_planner12logical_planNtB2_11LogicalPlan6schema
FNF:15
FNH:15
DA:120,16
DA:121,16
DA:122,4
DA:123,1
DA:124,1
DA:125,1
DA:126,0
DA:127,1
DA:128,1
DA:129,1
DA:130,1
DA:131,1
DA:132,1
DA:133,0
DA:134,1
DA:135,1
DA:136,1
DA:137,0
DA:138,0
DA:140,16
DA:149,1
DA:150,1
DA:151,1
DA:152,1
DA:153,1
DA:154,1
DA:155,1
DA:156,1
DA:157,1
DA:160,1
DA:161,1
DA:162,1
DA:163,1
DA:164,1
DA:165,1
DA:166,1
DA:167,1
DA:168,1
DA:169,1
DA:170,1
DA:171,1
DA:172,1
DA:173,1
DA:176,1
DA:177,1
DA:178,1
DA:179,1
DA:180,1
DA:181,1
DA:182,1
DA:183,1
DA:184,1
DA:185,1
DA:186,1
DA:187,1
DA:188,1
DA:191,1
DA:192,1
DA:193,1
DA:194,1
DA:197,1
DA:198,1
DA:199,1
DA:200,1
DA:201,1
DA:202,1
DA:203,1
DA:204,1
DA:207,1
DA:208,1
DA:209,1
DA:210,1
DA:211,1
DA:212,1
DA:213,1
DA:214,1
DA:215,1
DA:218,1
DA:219,1
DA:220,1
DA:221,1
DA:222,1
DA:223,1
DA:224,1
DA:225,1
DA:226,1
DA:227,1
DA:228,1
DA:229,1
DA:230,1
DA:231,1
DA:232,1
DA:233,1
DA:234,1
DA:235,1
DA:236,1
DA:237,1
DA:240,1
DA:241,1
DA:242,1
DA:243,1
DA:244,1
DA:245,1
DA:246,1
DA:247,1
DA:248,1
DA:249,1
DA:250,1
DA:251,1
DA:252,1
DA:255,1
DA:256,1
DA:257,1
DA:258,1
DA:259,1
DA:260,1
DA:261,1
DA:262,1
DA:263,1
DA:264,1
DA:265,1
DA:266,1
DA:267,1
DA:268,1
DA:271,1
DA:272,1
DA:273,1
DA:274,1
DA:275,1
DA:276,1
DA:277,1
DA:278,1
DA:279,1
DA:280,1
DA:281,1
DA:282,1
DA:283,1
DA:284,1
DA:285,1
DA:286,1
DA:289,1
DA:290,1
DA:291,1
DA:292,1
DA:293,1
DA:294,1
DA:295,1
DA:298,1
DA:299,1
DA:300,1
DA:301,1
DA:302,1
DA:303,1
DA:304,1
DA:305,1
DA:308,1
DA:309,1
DA:310,1
DA:311,1
DA:312,1
DA:313,1
DA:314,1
DA:317,1
DA:318,1
DA:319,1
DA:320,1
DA:321,1
DA:322,1
DA:323,1
DA:324,1
DA:325,1
DA:326,1
BRF:0
BRH:0
LF:172
LH:168
end_of_record
SF:/home/openclaw/dev/yinglichina8848/sqlrustgo/crates/planner/src/optimizer.rs
FN:384,_RNvMs9_NtCsk6zXnftdXdR_17sqlrustgo_planner9optimizerNtB5_16DefaultOptimizer17enable_cost_based
FN:389,_RNvMs9_NtCsk6zXnftdXdR_17sqlrustgo_planner9optimizerNtB5_16DefaultOptimizer17enable_index_scan
FN:394,_RNvMs9_NtCsk6zXnftdXdR_17sqlrustgo_planner9optimizerNtB5_16DefaultOptimizer21is_index_scan_enabled
FN:435,_RNvXsd_NtCsk6zXnftdXdR_17sqlrustgo_planner9optimizerNtB5_13NoOpOptimizerNtNtCs8nPosuWgJFh_4core7default7Default7default
FN:95,_RNvMNtCsk6zXnftdXdR_17sqlrustgo_planner9optimizerNtB2_17PredicatePushdown16can_push_to_left
FN:99,_RNvMNtCsk6zXnftdXdR_17sqlrustgo_planner9optimizerNtB2_17PredicatePushdown17can_push_to_right
FN:38,_RNvMNtCsk6zXnftdXdR_17sqlrustgo_planner9optimizerNtB2_17PredicatePushdown3new
FN:43,_RNvMNtCsk6zXnftdXdR_17sqlrustgo_planner9optimizerNtB2_17PredicatePushdown8pushdown
FN:157,_RNvMs1_NtCsk6zXnftdXdR_17sqlrustgo_planner9optimizerNtB5_17ProjectionPruning15collect_columns
FN:165,_RNvMs1_NtCsk6zXnftdXdR_17sqlrustgo_planner9optimizerNtB5_17ProjectionPruning17collect_from_expr
FN:124,_RNvMs1_NtCsk6zXnftdXdR_17sqlrustgo_planner9optimizerNtB5_17ProjectionPruning3new
FN:128,_RNvMs1_NtCsk6zXnftdXdR_17sqlrustgo_planner9optimizerNtB5_17ProjectionPruning5prune
FN:215,_RNvMs4_NtCsk6zXnftdXdR_17sqlrustgo_planner9optimizerNtB5_9ColumnSet3add
FN:208,_RNvMs4_NtCsk6zXnftdXdR_17sqlrustgo_planner9optimizerNtB5_9ColumnSet3new
FN:324,_RNvMs6_NtCsk6zXnftdXdR_17sqlrustgo_planner9optimizerNtB5_15ConstantFolding13eval_unary_op
FN:266,_RNvMs6_NtCsk6zXnftdXdR_17sqlrustgo_planner9optimizerNtB5_15ConstantFolding13simplify_expr
FN:300,_RNvMs6_NtCsk6zXnftdXdR_17sqlrustgo_planner9optimizerNtB5_15ConstantFolding14eval_binary_op
FN:230,_RNvMs6_NtCsk6zXnftdXdR_17sqlrustgo_planner9optimizerNtB5_15ConstantFolding3new
FN:234,_RNvMs6_NtCsk6zXnftdXdR_17sqlrustgo_planner9optimizerNtB5_15ConstantFolding4fold
FN:376,_RNvMs9_NtCsk6zXnftdXdR_17sqlrustgo_planner9optimizerNtB5_16DefaultOptimizer10with_rules
FN:363,_RNvMs9_NtCsk6zXnftdXdR_17sqlrustgo_planner9optimizerNtB5_16DefaultOptimizer3new
FN:429,_RNvMsc_NtCsk6zXnftdXdR_17sqlrustgo_planner9optimizerNtB5_13NoOpOptimizer3new
FN:111,_RNvXs0_NtCsk6zXnftdXdR_17sqlrustgo_planner9optimizerNtB5_17PredicatePushdownNtB5_13OptimizerRule4name
FN:115,_RNvXs0_NtCsk6zXnftdXdR_17sqlrustgo_planner9optimizerNtB5_17PredicatePushdownNtB5_13OptimizerRule5apply
FN:185,_RNvXs2_NtCsk6zXnftdXdR_17sqlrustgo_planner9optimizerNtB5_17ProjectionPruningNtNtCs8nPosuWgJFh_4core7default7Default7default
FN:191,_RNvXs3_NtCsk6zXnftdXdR_17sqlrustgo_planner9optimizerNtB5_17ProjectionPruningNtB5_13OptimizerRule4name
FN:195,_RNvXs3_NtCsk6zXnftdXdR_17sqlrustgo_planner9optimizerNtB5_17ProjectionPruningNtB5_13OptimizerRule5apply
FN:221,_RNvXs5_NtCsk6zXnftdXdR_17sqlrustgo_planner9optimizerNtB5_9ColumnSetNtNtCs8nPosuWgJFh_4core7default7Default7default
FN:340,_RNvXs7_NtCsk6zXnftdXdR_17sqlrustgo_planner9optimizerNtB5_15ConstantFoldingNtNtCs8nPosuWgJFh_4core7default7Default7default
FN:346,_RNvXs8_NtCsk6zXnftdXdR_17sqlrustgo_planner9optimizerNtB5_15ConstantFoldingNtB5_13OptimizerRule4name
FN:350,_RNvXs8_NtCsk6zXnftdXdR_17sqlrustgo_planner9optimizerNtB5_15ConstantFoldingNtB5_13OptimizerRule5apply
FN:105,_RNvXs_NtCsk6zXnftdXdR_17sqlrustgo_planner9optimizerNtB4_17PredicatePushdownNtNtCs8nPosuWgJFh_4core7default7Default7default
FN:400,_RNvXsa_NtCsk6zXnftdXdR_17sqlrustgo_planner9optimizerNtB5_16DefaultOptimizerNtNtCs8nPosuWgJFh_4core7default7Default7default
FN:406,_RNvXsb_NtCsk6zXnftdXdR_17sqlrustgo_planner9optimizerNtB5_16DefaultOptimizerNtB5_9Optimizer8optimize
FN:441,_RNvXse_NtCsk6zXnftdXdR_17sqlrustgo_planner9optimizerNtB5_13NoOpOptimizerNtB5_9Optimizer8optimize
FN:572,_RNvNtNtCsk6zXnftdXdR_17sqlrustgo_planner9optimizer5testss_19test_column_set_add
FN:565,_RNvNtNtCsk6zXnftdXdR_17sqlrustgo_planner9optimizer5testss_19test_column_set_new
FN:523,_RNvNtNtCsk6zXnftdXdR_17sqlrustgo_planner9optimizer5testss_19test_noop_optimizer
FN:549,_RNvNtNtCsk6zXnftdXdR_17sqlrustgo_planner9optimizer5testss_20test_optimizer_error
FN:555,_RNvNtNtCsk6zXnftdXdR_17sqlrustgo_planner9optimizer5testss_21test_optimizer_result
FN:1582,_RNvNtNtCsk6zXnftdXdR_17sqlrustgo_planner9optimizer5testss_24test_eval_binary_op_gteq
FN:1597,_RNvNtNtCsk6zXnftdXdR_17sqlrustgo_planner9optimizer5testss_24test_eval_binary_op_lteq
FN:592,_RNvNtNtCsk6zXnftdXdR_17sqlrustgo_planner9optimizer5testss_25test_constant_folding_new
FN:1415,_RNvNtNtCsk6zXnftdXdR_17sqlrustgo_planner9optimizer5testss_25test_eval_binary_op_float
FN:1324,_RNvNtNtCsk6zXnftdXdR_17sqlrustgo_planner9optimizer5testss_26test_collect_columns_alias
FN:842,_RNvNtNtCsk6zXnftdXdR_17sqlrustgo_planner9optimizer5testss_26test_constant_folding_join
FN:492,_RNvNtNtCsk6zXnftdXdR_17sqlrustgo_planner9optimizer5testss_26test_constant_folding_name
FN:876,_RNvNtNtCsk6zXnftdXdR_17sqlrustgo_planner9optimizer5testss_26test_constant_folding_sort
FN:511,_RNvNtNtCsk6zXnftdXdR_17sqlrustgo_planner9optimizer5testss_26test_default_optimizer_new
FN:498,_RNvNtNtCsk6zXnftdXdR_17sqlrustgo_planner9optimizer5testss_27test_constant_folding_apply
FN:903,_RNvNtNtCsk6zXnftdXdR_17sqlrustgo_planner9optimizer5testss_27test_constant_folding_limit
FN:580,_RNvNtNtCsk6zXnftdXdR_17sqlrustgo_planner9optimizer5testss_27test_predicate_pushdown_new
FN:586,_RNvNtNtCsk6zXnftdXdR_17sqlrustgo_planner9optimizer5testss_27test_projection_pruning_new
FN:793,_RNvNtNtCsk6zXnftdXdR_17sqlrustgo_planner9optimizer5testss_28test_constant_folding_filter
FN:627,_RNvNtNtCsk6zXnftdXdR_17sqlrustgo_planner9optimizer5testss_28test_predicate_pushdown_join
FN:454,_RNvNtNtCsk6zXnftdXdR_17sqlrustgo_planner9optimizer5testss_28test_predicate_pushdown_name
FN:666,_RNvNtNtCsk6zXnftdXdR_17sqlrustgo_planner9optimizer5testss_28test_predicate_pushdown_sort
FN:767,_RNvNtNtCsk6zXnftdXdR_17sqlrustgo_planner9optimizer5testss_28test_projection_pruning_join
FN:473,_RNvNtNtCsk6zXnftdXdR_17sqlrustgo_planner9optimizer5testss_28test_projection_pruning_name
FN:1253,_RNvNtNtCsk6zXnftdXdR_17sqlrustgo_planner9optimizer5testss_28test_projection_pruning_sort
FN:1336,_RNvNtNtCsk6zXnftdXdR_17sqlrustgo_planner9optimizer5testss_29test_column_set_default_trait
FN:460,_RNvNtNtCsk6zXnftdXdR_17sqlrustgo_planner9optimizer5testss_29test_predicate_pushdown_apply
FN:696,_RNvNtNtCsk6zXnftdXdR_17sqlrustgo_planner9optimizer5testss_29test_predicate_pushdown_limit
FN:479,_RNvNtNtCsk6zXnftdXdR_17sqlrustgo_planner9optimizer5testss_29test_projection_pruning_apply
FN:1277,_RNvNtNtCsk6zXnftdXdR_17sqlrustgo_planner9optimizer5testss_29test_projection_pruning_limit
FN:744,_RNvNtNtCsk6zXnftdXdR_17sqlrustgo_planner9optimizer5testss_30test_projection_pruning_filter
FN:1298,_RNvNtNtCsk6zXnftdXdR_17sqlrustgo_planner9optimizer5testss_31test_collect_columns_unary_expr
FN:1343,_RNvNtNtCsk6zXnftdXdR_17sqlrustgo_planner9optimizer5testss_31test_constant_folding_aggregate
FN:536,_RNvNtNtCsk6zXnftdXdR_17sqlrustgo_planner9optimizer5testss_31test_default_optimizer_optimize
FN:1085,_RNvNtNtCsk6zXnftdXdR_17sqlrustgo_planner9optimizer5testss_31test_projection_pruning_default
FN:817,_RNvNtNtCsk6zXnftdXdR_17sqlrustgo_planner9optimizer5testss_32test_constant_folding_projection
FN:1155,_RNvNtNtCsk6zXnftdXdR_17sqlrustgo_planner9optimizer5testss_32test_noop_optimizer_returns_plan
FN:1116,_RNvNtNtCsk6zXnftdXdR_17sqlrustgo_planner9optimizer5testss_33test_constant_folding_unary_minus
FN:930,_RNvNtNtCsk6zXnftdXdR_17sqlrustgo_planner9optimizer5testss_33test_default_optimizer_iterations
FN:517,_RNvNtNtCsk6zXnftdXdR_17sqlrustgo_planner9optimizer5testss_33test_default_optimizer_with_rules
FN:984,_RNvNtNtCsk6zXnftdXdR_17sqlrustgo_planner9optimizer5testss_33test_predicate_pushdown_with_sort
FN:1230,_RNvNtNtCsk6zXnftdXdR_17sqlrustgo_planner9optimizer5testss_33test_projection_pruning_aggregate
FN:1456,_RNvNtNtCsk6zXnftdXdR_17sqlrustgo_planner9optimizer5testss_34test_eval_unary_op_not_implemented
FN:598,_RNvNtNtCsk6zXnftdXdR_17sqlrustgo_planner9optimizer5testss_34test_predicate_pushdown_projection
FN:1007,_RNvNtNtCsk6zXnftdXdR_17sqlrustgo_planner9optimizer5testss_34test_predicate_pushdown_with_limit
FN:1481,_RNvNtNtCsk6zXnftdXdR_17sqlrustgo_planner9optimizer5testss_35test_constant_folding_default_trait
FN:1494,_RNvNtNtCsk6zXnftdXdR_17sqlrustgo_planner9optimizer5testss_36test_default_optimizer_default_trait
FN:1217,_RNvNtNtCsk6zXnftdXdR_17sqlrustgo_planner9optimizer5testss_37test_predicate_pushdown_default_trait
FN:961,_RNvNtNtCsk6zXnftdXdR_17sqlrustgo_planner9optimizer5testss_38test_predicate_pushdown_with_aggregate
FN:1310,_RNvNtNtCsk6zXnftdXdR_17sqlrustgo_planner9optimizer5testss_39test_collect_columns_aggregate_function
FN:1392,_RNvNtNtCsk6zXnftdXdR_17sqlrustgo_planner9optimizer5testss_39test_constant_folding_unary_not_literal
FN:1139,_RNvNtNtCsk6zXnftdXdR_17sqlrustgo_planner9optimizer5testss_39test_default_optimizer_with_empty_rules
FN:1437,_RNvNtNtCsk6zXnftdXdR_17sqlrustgo_planner9optimizer5testss_39test_eval_binary_op_integer_comparisons
FN:1062,_RNvNtNtCsk6zXnftdXdR_17sqlrustgo_planner9optimizer5testss_39test_projection_pruning_with_projection
FN:1027,_RNvNtNtCsk6zXnftdXdR_17sqlrustgo_planner9optimizer5testss_42test_predicate_pushdown_join_can_push_left
FN:1045,_RNvNtNtCsk6zXnftdXdR_17sqlrustgo_planner9optimizer5testss_43test_predicate_pushdown_join_can_push_right
FN:1172,_RNvNtNtCsk6zXnftdXdR_17sqlrustgo_planner9optimizer5testss_43test_predicate_pushdown_with_join_condition
FN:1509,_RNvNtNtCsk6zXnftdXdR_17sqlrustgo_planner9optimizer5testss_44test_predicate_pushdown_filter_on_table_scan
FN:1535,_RNvNtNtCsk6zXnftdXdR_17sqlrustgo_planner9optimizer5testss_44test_predicate_pushdown_join_left_right_push
FN:723,_RNvNtNtCsk6zXnftdXdR_17sqlrustgo_planner9optimizer5testss_45test_projection_pruning_projection_table_scan
FN:1365,_RNvNtNtCsk6zXnftdXdR_17sqlrustgo_planner9optimizer5testss_46test_constant_folding_binary_not_both_literals
FN:1091,_RNvNtNtCsk6zXnftdXdR_17sqlrustgo_planner9optimizer5testss_46test_constant_folding_with_literal_expressions
FNDA:0,_RNvMs9_NtCsk6zXnftdXdR_17sqlrustgo_planner9optimizerNtB5_16DefaultOptimizer17enable_cost_based
FNDA:0,_RNvMs9_NtCsk6zXnftdXdR_17sqlrustgo_planner9optimizerNtB5_16DefaultOptimizer17enable_index_scan
FNDA:0,_RNvMs9_NtCsk6zXnftdXdR_17sqlrustgo_planner9optimizerNtB5_16DefaultOptimizer21is_index_scan_enabled
FNDA:0,_RNvXsd_NtCsk6zXnftdXdR_17sqlrustgo_planner9optimizerNtB5_13NoOpOptimizerNtNtCs8nPosuWgJFh_4core7default7Default7default
FNDA:3,_RNvMNtCsk6zXnftdXdR_17sqlrustgo_planner9optimizerNtB2_17PredicatePushdown16can_push_to_left
FNDA:3,_RNvMNtCsk6zXnftdXdR_17sqlrustgo_planner9optimizerNtB2_17PredicatePushdown17can_push_to_right
FNDA:10,_RNvMNtCsk6zXnftdXdR_17sqlrustgo_planner9optimizerNtB2_17PredicatePushdown3new
FNDA:37,_RNvMNtCsk6zXnftdXdR_17sqlrustgo_planner9optimizerNtB2_17PredicatePushdown8pushdown
FNDA:16,_RNvMs1_NtCsk6zXnftdXdR_17sqlrustgo_planner9optimizerNtB5_17ProjectionPruning15collect_columns
FNDA:39,_RNvMs1_NtCsk6zXnftdXdR_17sqlrustgo_planner9optimizerNtB5_17ProjectionPruning17collect_from_expr
FNDA:9,_RNvMs1_NtCsk6zXnftdXdR_17sqlrustgo_planner9optimizerNtB5_17ProjectionPruning3new
FNDA:47,_RNvMs1_NtCsk6zXnftdXdR_17sqlrustgo_planner9optimizerNtB5_17ProjectionPruning5prune
FNDA:7,_RNvMs4_NtCsk6zXnftdXdR_17sqlrustgo_planner9optimizerNtB5_9ColumnSet3add
FNDA:19,_RNvMs4_NtCsk6zXnftdXdR_17sqlrustgo_planner9optimizerNtB5_9ColumnSet3new
FNDA:5,_RNvMs6_NtCsk6zXnftdXdR_17sqlrustgo_planner9optimizerNtB5_15ConstantFolding13eval_unary_op
FNDA:52,_RNvMs6_NtCsk6zXnftdXdR_17sqlrustgo_planner9optimizerNtB5_15ConstantFolding13simplify_expr
FNDA:25,_RNvMs6_NtCsk6zXnftdXdR_17sqlrustgo_planner9optimizerNtB5_15ConstantFolding14eval_binary_op
FNDA:12,_RNvMs6_NtCsk6zXnftdXdR_17sqlrustgo_planner9optimizerNtB5_15ConstantFolding3new
FNDA:32,_RNvMs6_NtCsk6zXnftdXdR_17sqlrustgo_planner9optimizerNtB5_15ConstantFolding4fold
FNDA:3,_RNvMs9_NtCsk6zXnftdXdR_17sqlrustgo_planner9optimizerNtB5_16DefaultOptimizer10with_rules
FNDA:28,_RNvMs9_NtCsk6zXnftdXdR_17sqlrustgo_planner9optimizerNtB5_16DefaultOptimizer3new
FNDA:23,_RNvMsc_NtCsk6zXnftdXdR_17sqlrustgo_planner9optimizerNtB5_13NoOpOptimizer3new
FNDA:2,_RNvXs0_NtCsk6zXnftdXdR_17sqlrustgo_planner9optimizerNtB5_17PredicatePushdownNtB5_13OptimizerRule4name
FNDA:25,_RNvXs0_NtCsk6zXnftdXdR_17sqlrustgo_planner9optimizerNtB5_17PredicatePushdownNtB5_13OptimizerRule5apply
FNDA:1,_RNvXs2_NtCsk6zXnftdXdR_17sqlrustgo_planner9optimizerNtB5_17ProjectionPruningNtNtCs8nPosuWgJFh_4core7default7Default7default
FNDA:3,_RNvXs3_NtCsk6zXnftdXdR_17sqlrustgo_planner9optimizerNtB5_17ProjectionPruningNtB5_13OptimizerRule4name
FNDA:21,_RNvXs3_NtCsk6zXnftdXdR_17sqlrustgo_planner9optimizerNtB5_17ProjectionPruningNtB5_13OptimizerRule5apply
FNDA:1,_RNvXs5_NtCsk6zXnftdXdR_17sqlrustgo_planner9optimizerNtB5_9ColumnSetNtNtCs8nPosuWgJFh_4core7default7Default7default
FNDA:1,_RNvXs7_NtCsk6zXnftdXdR_17sqlrustgo_planner9optimizerNtB5_15ConstantFoldingNtNtCs8nPosuWgJFh_4core7default7Default7default
FNDA:2,_RNvXs8_NtCsk6zXnftdXdR_17sqlrustgo_planner9optimizerNtB5_15ConstantFoldingNtB5_13OptimizerRule4name
FNDA:25,_RNvXs8_NtCsk6zXnftdXdR_17sqlrustgo_planner9optimizerNtB5_15ConstantFoldingNtB5_13OptimizerRule5apply
FNDA:1,_RNvXs_NtCsk6zXnftdXdR_17sqlrustgo_planner9optimizerNtB4_17PredicatePushdownNtNtCs8nPosuWgJFh_4core7default7Default7default
FNDA:1,_RNvXsa_NtCsk6zXnftdXdR_17sqlrustgo_planner9optimizerNtB5_16DefaultOptimizerNtNtCs8nPosuWgJFh_4core7default7Default7default
FNDA:5,_RNvXsb_NtCsk6zXnftdXdR_17sqlrustgo_planner9optimizerNtB5_16DefaultOptimizerNtB5_9Optimizer8optimize
FNDA:2,_RNvXse_NtCsk6zXnftdXdR_17sqlrustgo_planner9optimizerNtB5_13NoOpOptimizerNtB5_9Optimizer8optimize
FNDA:1,_RNvNtNtCsk6zXnftdXdR_17sqlrustgo_planner9optimizer5testss_19test_column_set_add
FNDA:1,_RNvNtNtCsk6zXnftdXdR_17sqlrustgo_planner9optimizer5testss_19test_column_set_new
FNDA:1,_RNvNtNtCsk6zXnftdXdR_17sqlrustgo_planner9optimizer5testss_19test_noop_optimizer
FNDA:1,_RNvNtNtCsk6zXnftdXdR_17sqlrustgo_planner9optimizer5testss_20test_optimizer_error
FNDA:1,_RNvNtNtCsk6zXnftdXdR_17sqlrustgo_planner9optimizer5testss_21test_optimizer_result
FNDA:1,_RNvNtNtCsk6zXnftdXdR_17sqlrustgo_planner9optimizer5testss_24test_eval_binary_op_gteq
FNDA:1,_RNvNtNtCsk6zXnftdXdR_17sqlrustgo_planner9optimizer5testss_24test_eval_binary_op_lteq
FNDA:1,_RNvNtNtCsk6zXnftdXdR_17sqlrustgo_planner9optimizer5testss_25test_constant_folding_new
FNDA:1,_RNvNtNtCsk6zXnftdXdR_17sqlrustgo_planner9optimizer5testss_25test_eval_binary_op_float
FNDA:1,_RNvNtNtCsk6zXnftdXdR_17sqlrustgo_planner9optimizer5testss_26test_collect_columns_alias
FNDA:1,_RNvNtNtCsk6zXnftdXdR_17sqlrustgo_planner9optimizer5testss_26test_constant_folding_join
FNDA:1,_RNvNtNtCsk6zXnftdXdR_17sqlrustgo_planner9optimizer5testss_26test_constant_folding_name
FNDA:1,_RNvNtNtCsk6zXnftdXdR_17sqlrustgo_planner9optimizer5testss_26test_constant_folding_sort
FNDA:1,_RNvNtNtCsk6zXnftdXdR_17sqlrustgo_planner9optimizer5testss_26test_default_optimizer_new
FNDA:1,_RNvNtNtCsk6zXnftdXdR_17sqlrustgo_planner9optimizer5testss_27test_constant_folding_apply
FNDA:1,_RNvNtNtCsk6zXnftdXdR_17sqlrustgo_planner9optimizer5testss_27test_constant_folding_limit
FNDA:1,_RNvNtNtCsk6zXnftdXdR_17sqlrustgo_planner9optimizer5testss_27test_predicate_pushdown_new
FNDA:1,_RNvNtNtCsk6zXnftdXdR_17sqlrustgo_planner9optimizer5testss_27test_projection_pruning_new
FNDA:1,_RNvNtNtCsk6zXnftdXdR_17sqlrustgo_planner9optimizer5testss_28test_constant_folding_filter
FNDA:1,_RNvNtNtCsk6zXnftdXdR_17sqlrustgo_planner9optimizer5testss_28test_predicate_pushdown_join
FNDA:1,_RNvNtNtCsk6zXnftdXdR_17sqlrustgo_planner9optimizer5testss_28test_predicate_pushdown_name
FNDA:1,_RNvNtNtCsk6zXnftdXdR_17sqlrustgo_planner9optimizer5testss_28test_predicate_pushdown_sort
FNDA:1,_RNvNtNtCsk6zXnftdXdR_17sqlrustgo_planner9optimizer5testss_28test_projection_pruning_join
FNDA:1,_RNvNtNtCsk6zXnftdXdR_17sqlrustgo_planner9optimizer5testss_28test_projection_pruning_name
FNDA:1,_RNvNtNtCsk6zXnftdXdR_17sqlrustgo_planner9optimizer5testss_28test_projection_pruning_sort
FNDA:1,_RNvNtNtCsk6zXnftdXdR_17sqlrustgo_planner9optimizer5testss_29test_column_set_default_trait
FNDA:1,_RNvNtNtCsk6zXnftdXdR_17sqlrustgo_planner9optimizer5testss_29test_predicate_pushdown_apply
FNDA:1,_RNvNtNtCsk6zXnftdXdR_17sqlrustgo_planner9optimizer5testss_29test_predicate_pushdown_limit
FNDA:1,_RNvNtNtCsk6zXnftdXdR_17sqlrustgo_planner9optimizer5testss_29test_projection_pruning_apply
FNDA:1,_RNvNtNtCsk6zXnftdXdR_17sqlrustgo_planner9optimizer5testss_29test_projection_pruning_limit
FNDA:1,_RNvNtNtCsk6zXnftdXdR_17sqlrustgo_planner9optimizer5testss_30test_projection_pruning_filter
FNDA:1,_RNvNtNtCsk6zXnftdXdR_17sqlrustgo_planner9optimizer5testss_31test_collect_columns_unary_expr
FNDA:1,_RNvNtNtCsk6zXnftdXdR_17sqlrustgo_planner9optimizer5testss_31test_constant_folding_aggregate
FNDA:1,_RNvNtNtCsk6zXnftdXdR_17sqlrustgo_planner9optimizer5testss_31test_default_optimizer_optimize
FNDA:1,_RNvNtNtCsk6zXnftdXdR_17sqlrustgo_planner9optimizer5testss_31test_projection_pruning_default
FNDA:1,_RNvNtNtCsk6zXnftdXdR_17sqlrustgo_planner9optimizer5testss_32test_constant_folding_projection
FNDA:1,_RNvNtNtCsk6zXnftdXdR_17sqlrustgo_planner9optimizer5testss_32test_noop_optimizer_returns_plan
FNDA:1,_RNvNtNtCsk6zXnftdXdR_17sqlrustgo_planner9optimizer5testss_33test_constant_folding_unary_minus
FNDA:1,_RNvNtNtCsk6zXnftdXdR_17sqlrustgo_planner9optimizer5testss_33test_default_optimizer_iterations
FNDA:1,_RNvNtNtCsk6zXnftdXdR_17sqlrustgo_planner9optimizer5testss_33test_default_optimizer_with_rules
FNDA:1,_RNvNtNtCsk6zXnftdXdR_17sqlrustgo_planner9optimizer5testss_33test_predicate_pushdown_with_sort
FNDA:1,_RNvNtNtCsk6zXnftdXdR_17sqlrustgo_planner9optimizer5testss_33test_projection_pruning_aggregate
FNDA:1,_RNvNtNtCsk6zXnftdXdR_17sqlrustgo_planner9optimizer5testss_34test_eval_unary_op_not_implemented
FNDA:1,_RNvNtNtCsk6zXnftdXdR_17sqlrustgo_planner9optimizer5testss_34test_predicate_pushdown_projection
FNDA:1,_RNvNtNtCsk6zXnftdXdR_17sqlrustgo_planner9optimizer5testss_34test_predicate_pushdown_with_limit
FNDA:1,_RNvNtNtCsk6zXnftdXdR_17sqlrustgo_planner9optimizer5testss_35test_constant_folding_default_trait
FNDA:1,_RNvNtNtCsk6zXnftdXdR_17sqlrustgo_planner9optimizer5testss_36test_default_optimizer_default_trait
FNDA:1,_RNvNtNtCsk6zXnftdXdR_17sqlrustgo_planner9optimizer5testss_37test_predicate_pushdown_default_trait
FNDA:1,_RNvNtNtCsk6zXnftdXdR_17sqlrustgo_planner9optimizer5testss_38test_predicate_pushdown_with_aggregate
FNDA:1,_RNvNtNtCsk6zXnftdXdR_17sqlrustgo_planner9optimizer5testss_39test_collect_columns_aggregate_function
FNDA:1,_RNvNtNtCsk6zXnftdXdR_17sqlrustgo_planner9optimizer5testss_39test_constant_folding_unary_not_literal
FNDA:1,_RNvNtNtCsk6zXnftdXdR_17sqlrustgo_planner9optimizer5testss_39test_default_optimizer_with_empty_rules
FNDA:1,_RNvNtNtCsk6zXnftdXdR_17sqlrustgo_planner9optimizer5testss_39test_eval_binary_op_integer_comparisons
FNDA:1,_RNvNtNtCsk6zXnftdXdR_17sqlrustgo_planner9optimizer5testss_39test_projection_pruning_with_projection
FNDA:1,_RNvNtNtCsk6zXnftdXdR_17sqlrustgo_planner9optimizer5testss_42test_predicate_pushdown_join_can_push_left
FNDA:1,_RNvNtNtCsk6zXnftdXdR_17sqlrustgo_planner9optimizer5testss_43test_predicate_pushdown_join_can_push_right
FNDA:1,_RNvNtNtCsk6zXnftdXdR_17sqlrustgo_planner9optimizer5testss_43test_predicate_pushdown_with_join_condition
FNDA:1,_RNvNtNtCsk6zXnftdXdR_17sqlrustgo_planner9optimizer5testss_44test_predicate_pushdown_filter_on_table_scan
FNDA:1,_RNvNtNtCsk6zXnftdXdR_17sqlrustgo_planner9optimizer5testss_44test_predicate_pushdown_join_left_right_push
FNDA:1,_RNvNtNtCsk6zXnftdXdR_17sqlrustgo_planner9optimizer5testss_45test_projection_pruning_projection_table_scan
FNDA:1,_RNvNtNtCsk6zXnftdXdR_17sqlrustgo_planner9optimizer5testss_46test_constant_folding_binary_not_both_literals
FNDA:1,_RNvNtNtCsk6zXnftdXdR_17sqlrustgo_planner9optimizer5testss_46test_constant_folding_with_literal_expressions
FNF:97
FNH:93
DA:38,10
DA:39,10
DA:40,10
DA:43,37
DA:44,37
DA:45,17
DA:47,17
DA:49,11
DA:50,6
DA:53,6
DA:55,1
DA:57,1
DA:58,1
DA:59,1
DA:60,1
DA:61,1
DA:62,1
DA:64,0
DA:65,5
DA:68,10
DA:69,1
DA:71,0
DA:72,0
DA:73,0
DA:74,0
DA:76,0
DA:77,0
DA:78,0
DA:79,0
DA:80,0
DA:81,0
DA:82,0
DA:83,0
DA:84,0
DA:85,0
DA:86,0
DA:87,0
DA:89,1
DA:90,1
DA:91,7
DA:93,37
DA:95,3
DA:96,3
DA:97,3
DA:99,3
DA:100,3
DA:101,3
DA:105,1
DA:106,1
DA:107,1
DA:111,2
DA:112,2
DA:113,2
DA:115,25
DA:116,25
DA:117,25
DA:124,9
DA:125,9
DA:126,9
DA:128,47
DA:129,47
DA:131,13
DA:132,13
DA:135,13
DA:136,13
DA:137,2
DA:138,2
DA:139,2
DA:140,0
DA:141,11
DA:142,11
DA:144,11
DA:145,1
DA:146,1
DA:147,1
DA:148,1
DA:149,1
DA:151,1
DA:152,1
DA:153,19
DA:155,47
DA:157,16
DA:158,16
DA:159,16
DA:160,16
DA:161,16
DA:162,16
DA:163,16
DA:165,39
DA:166,39
DA:167,6
DA:168,10
DA:169,10
DA:170,10
DA:171,10
DA:172,1
DA:173,1
DA:174,1
DA:175,1
DA:176,1
DA:178,1
DA:179,20
DA:181,39
DA:185,1
DA:186,1
DA:187,1
DA:191,3
DA:192,3
DA:193,3
DA:195,21
DA:196,21
DA:197,21
DA:208,19
DA:209,19
DA:210,19
DA:211,19
DA:212,19
DA:213,19
DA:215,7
DA:216,7
DA:217,7
DA:221,1
DA:222,1
DA:223,1
DA:230,12
DA:231,12
DA:232,12
DA:234,32
DA:235,32
DA:236,3
DA:237,3
DA:238,3
DA:239,3
DA:240,3
DA:241,0
DA:242,0
DA:244,15
DA:245,15
DA:246,15
DA:247,15
DA:248,15
DA:249,13
DA:250,13
DA:252,15
DA:254,1
DA:255,1
DA:256,1
DA:257,1
DA:258,1
DA:260,1
DA:261,1
DA:262,10
DA:264,32
DA:266,52
DA:267,52
DA:268,16
DA:269,16
DA:270,16
DA:271,16
DA:272,15
DA:273,15
DA:274,15
DA:275,0
DA:276,0
DA:277,1
DA:278,1
DA:279,1
DA:280,1
DA:281,1
DA:282,1
DA:284,2
DA:285,2
DA:286,2
DA:287,1
DA:288,1
DA:289,0
DA:290,1
DA:291,1
DA:292,1
DA:293,1
DA:294,1
DA:296,34
DA:298,52
DA:300,25
DA:301,25
DA:302,25
DA:303,25
DA:304,25
DA:305,25
DA:308,25
DA:309,14
DA:310,0
DA:311,1
DA:312,1
DA:314,0
DA:315,0
DA:316,0
DA:317,0
DA:318,3
DA:319,3
DA:320,4
DA:322,25
DA:324,5
DA:325,5
DA:326,5
DA:327,5
DA:328,5
DA:331,5
DA:332,1
DA:333,1
DA:334,3
DA:336,5
DA:340,1
DA:341,1
DA:342,1
DA:346,2
DA:347,2
DA:348,2
DA:350,25
DA:351,25
DA:352,25
DA:363,28
DA:364,28
DA:365,28
DA:366,28
DA:367,28
DA:369,28
DA:370,28
DA:371,28
DA:372,28
DA:373,28
DA:374,28
DA:376,3
DA:377,3
DA:378,3
DA:379,3
DA:380,3
DA:381,3
DA:382,3
DA:384,0
DA:385,0
DA:386,0
DA:387,0
DA:389,0
DA:390,0
DA:391,0
DA:392,0
DA:394,0
DA:395,0
DA:396,0
DA:400,1
DA:401,1
DA:402,1
DA:406,5
DA:407,5
DA:408,5
DA:409,5
DA:411,19
DA:412,14
DA:413,39
DA:414,39
DA:415,10
DA:416,29
DA:418,14
DA:421,5
DA:422,5
DA:429,23
DA:430,23
DA:431,23
DA:435,0
DA:436,0
DA:437,0
DA:441,2
DA:442,2
DA:443,2
DA:454,1
DA:455,1
DA:456,1
DA:457,1
DA:460,1
DA:461,1
DA:462,1
DA:463,1
DA:464,1
DA:465,1
DA:466,1
DA:467,1
DA:468,1
DA:469,1
DA:470,1
DA:473,1
DA:474,1
DA:475,1
DA:476,1
DA:479,1
DA:480,1
DA:481,1
DA:482,1
DA:483,1
DA:484,1
DA:485,1
DA:486,1
DA:487,1
DA:488,1
DA:489,1
DA:492,1
DA:493,1
DA:494,1
DA:495,1
DA:498,1
DA:499,1
DA:500,1
DA:501,1
DA:502,1
DA:503,1
DA:504,1
DA:505,1
DA:506,1
DA:507,1
DA:508,1
DA:511,1
DA:512,1
DA:513,1
DA:514,1
DA:517,1
DA:518,1
DA:519,1
DA:520,1
DA:523,1
DA:524,1
DA:525,1
DA:526,1
DA:527,1
DA:528,1
DA:529,1
DA:530,1
DA:531,1
DA:532,1
DA:533,1
DA:536,1
DA:537,1
DA:538,1
DA:539,1
DA:540,1
DA:541,1
DA:542,1
DA:543,1
DA:544,1
DA:545,1
DA:546,1
DA:549,1
DA:550,1
DA:551,1
DA:552,1
DA:555,1
DA:556,1
DA:557,1
DA:559,1
DA:560,1
DA:561,1
DA:562,1
DA:565,1
DA:566,1
DA:567,1
DA:568,1
DA:569,1
DA:572,1
DA:573,1
DA:574,1
DA:575,1
DA:576,1
DA:577,1
DA:580,1
DA:581,1
DA:582,1
DA:583,1
DA:586,1
DA:587,1
DA:588,1
DA:589,1
DA:592,1
DA:593,1
DA:594,1
DA:595,1
DA:598,1
DA:600,1
DA:601,1
DA:604,1
DA:605,1
DA:606,1
DA:607,1
DA:608,1
DA:609,1
DA:610,1
DA:611,1
DA:612,1
DA:613,1
DA:614,1
DA:615,1
DA:616,1
DA:617,1
DA:618,1
DA:619,1
DA:621,1
DA:622,1
DA:623,1
DA:624,1
DA:627,1
DA:629,1
DA:632,1
DA:633,1
DA:634,1
DA:635,1
DA:636,1
DA:637,1
DA:638,1
DA:639,1
DA:640,1
DA:641,1
DA:643,1
DA:644,1
DA:645,1
DA:646,1
DA:647,1
DA:648,1
DA:649,1
DA:650,1
DA:651,1
DA:652,1
DA:653,1
DA:654,1
DA:655,1
DA:656,1
DA:657,1
DA:658,1
DA:659,1
DA:661,1
DA:662,1
DA:663,1
DA:666,1
DA:668,1
DA:669,1
DA:671,1
DA:672,1
DA:673,1
DA:674,1
DA:675,1
DA:676,1
DA:677,1
DA:678,1
DA:679,1
DA:680,1
DA:681,1
DA:682,1
DA:683,1
DA:684,1
DA:685,1
DA:686,1
DA:687,1
DA:688,1
DA:689,1
DA:691,1
DA:692,1
DA:693,1
DA:696,1
DA:698,1
DA:699,1
DA:701,1
DA:702,1
DA:703,1
DA:704,1
DA:705,1
DA:706,1
DA:707,1
DA:708,1
DA:709,1
DA:710,1
DA:711,1
DA:712,1
DA:713,1
DA:714,1
DA:715,1
DA:716,1
DA:718,1
DA:719,1
DA:720,1
DA:723,1
DA:724,1
DA:725,1
DA:728,1
DA:729,1
DA:730,1
DA:731,1
DA:732,1
DA:733,1
DA:734,1
DA:735,1
DA:736,1
DA:738,1
DA:739,1
DA:740,1
DA:741,1
DA:744,1
DA:745,1
DA:746,1
DA:749,1
DA:750,1
DA:751,1
DA:752,1
DA:753,1
DA:754,1
DA:755,1
DA:756,1
DA:757,1
DA:758,1
DA:759,1
DA:760,1
DA:762,1
DA:763,1
DA:764,1
DA:767,1
DA:768,1
DA:770,1
DA:771,1
DA:772,1
DA:773,1
DA:774,1
DA:775,1
DA:776,1
DA:777,1
DA:778,1
DA:779,1
DA:781,1
DA:782,1
DA:783,1
DA:784,1
DA:785,1
DA:786,1
DA:788,1
DA:789,1
DA:790,1
DA:793,1
DA:795,1
DA:798,1
DA:799,1
DA:800,1
DA:801,1
DA:802,1
DA:803,1
DA:804,1
DA:805,1
DA:806,1
DA:807,1
DA:808,1
DA:809,1
DA:811,1
DA:812,1
DA:813,1
DA:814,1
DA:817,1
DA:819,1
DA:822,1
DA:823,1
DA:824,1
DA:825,1
DA:826,1
DA:827,1
DA:828,1
DA:829,1
DA:830,1
DA:831,1
DA:832,1
DA:833,1
DA:834,1
DA:836,1
DA:837,1
DA:838,1
DA:839,1
DA:842,1
DA:844,1
DA:846,1
DA:847,1
DA:848,1
DA:849,1
DA:850,1
DA:851,1
DA:852,1
DA:853,1
DA:854,1
DA:855,1
DA:856,1
DA:857,1
DA:858,1
DA:859,1
DA:860,1
DA:861,1
DA:862,1
DA:864,1
DA:865,1
DA:866,1
DA:867,1
DA:868,1
DA:869,1
DA:871,1
DA:872,1
DA:873,1
DA:876,1
DA:878,1
DA:879,1
DA:881,1
DA:882,1
DA:883,1
DA:884,1
DA:885,1
DA:886,1
DA:887,1
DA:888,1
DA:889,1
DA:890,1
DA:891,1
DA:892,1
DA:893,1
DA:894,1
DA:895,1
DA:896,1
DA:898,1
DA:899,1
DA:900,1
DA:903,1
DA:905,1
DA:906,1
DA:908,1
DA:909,1
DA:910,1
DA:911,1
DA:912,1
DA:913,1
DA:914,1
DA:915,1
DA:916,1
DA:917,1
DA:918,1
DA:919,1
DA:920,1
DA:921,1
DA:922,1
DA:923,1
DA:925,1
DA:926,1
DA:927,1
DA:930,1
DA:931,1
DA:932,1
DA:935,1
DA:936,1
DA:937,1
DA:938,1
DA:939,1
DA:940,1
DA:941,1
DA:942,1
DA:943,1
DA:944,1
DA:945,1
DA:946,1
DA:947,1
DA:948,1
DA:949,1
DA:950,1
DA:951,1
DA:952,1
DA:953,1
DA:954,1
DA:956,1
DA:957,1
DA:958,1
DA:961,1
DA:962,1
DA:963,1
DA:966,1
DA:967,1
DA:968,1
DA:969,1
DA:970,1
DA:971,1
DA:972,1
DA:973,1
DA:974,1
DA:975,1
DA:976,1
DA:978,1
DA:979,1
DA:980,1
DA:981,1
DA:984,1
DA:985,1
DA:986,1
DA:988,1
DA:989,1
DA:990,1
DA:991,1
DA:992,1
DA:993,1
DA:994,1
DA:995,1
DA:996,1
DA:997,1
DA:998,1
DA:999,1
DA:1001,1
DA:1002,1
DA:1003,1
DA:1004,1
DA:1007,1
DA:1008,1
DA:1009,1
DA:1011,1
DA:1012,1
DA:1013,1
DA:1014,1
DA:1015,1
DA:1016,1
DA:1017,1
DA:1018,1
DA:1019,1
DA:1021,1
DA:1022,1
DA:1023,1
DA:1024,1
DA:1027,1
DA:1028,1
DA:1029,1
DA:1032,1
DA:1033,1
DA:1036,1
DA:1037,1
DA:1040,1
DA:1041,1
DA:1042,1
DA:1045,1
DA:1046,1
DA:1049,1
DA:1050,1
DA:1053,1
DA:1054,1
DA:1057,1
DA:1058,1
DA:1059,1
DA:1062,1
DA:1063,1
DA:1064,1
DA:1065,1
DA:1066,1
DA:1069,1
DA:1070,1
DA:1071,1
DA:1072,1
DA:1073,1
DA:1074,1
DA:1075,1
DA:1076,1
DA:1077,1
DA:1079,1
DA:1080,1
DA:1081,1
DA:1082,1
DA:1085,1
DA:1086,1
DA:1087,1
DA:1088,1
DA:1091,1
DA:1092,1
DA:1093,1
DA:1096,1
DA:1097,1
DA:1098,1
DA:1099,1
DA:1100,1
DA:1101,1
DA:1102,1
DA:1103,1
DA:1104,1
DA:1105,1
DA:1106,1
DA:1107,1
DA:1108,1
DA:1110,1
DA:1111,1
DA:1112,1
DA:1113,1
DA:1116,1
DA:1117,1
DA:1118,1
DA:1120,1
DA:1121,1
DA:1122,1
DA:1123,1
DA:1124,1
DA:1125,1
DA:1126,1
DA:1127,1
DA:1128,1
DA:1129,1
DA:1130,1
DA:1131,1
DA:1133,1
DA:1134,1
DA:1135,1
DA:1136,1
DA:1139,1
DA:1140,1
DA:1141,1
DA:1143,1
DA:1144,1
DA:1145,1
DA:1146,1
DA:1147,1
DA:1149,1
DA:1150,1
DA:1151,1
DA:1152,1
DA:1155,1
DA:1156,1
DA:1157,1
DA:1159,1
DA:1160,1
DA:1161,1
DA:1162,1
DA:1163,1
DA:1165,1
DA:1166,1
DA:1167,1
DA:1172,1
DA:1174,1
DA:1175,1
DA:1176,1
DA:1179,1
DA:1180,1
DA:1181,1
DA:1182,1
DA:1183,1
DA:1185,1
DA:1186,1
DA:1187,1
DA:1188,1
DA:1189,1
DA:1191,1
DA:1192,1
DA:1193,1
DA:1194,1
DA:1195,1
DA:1196,1
DA:1197,1
DA:1198,1
DA:1199,1
DA:1200,1
DA:1202,1
DA:1203,1
DA:1204,1
DA:1205,1
DA:1206,1
DA:1207,1
DA:1208,1
DA:1209,1
DA:1211,1
DA:1212,1
DA:1213,1
DA:1214,1
DA:1217,1
DA:1219,1
DA:1220,1
DA:1221,1
DA:1222,1
DA:1223,1
DA:1224,1
DA:1225,1
DA:1226,1
DA:1227,1
DA:1230,1
DA:1232,1
DA:1233,1
DA:1235,1
DA:1236,1
DA:1237,1
DA:1238,1
DA:1239,1
DA:1240,1
DA:1241,1
DA:1242,1
DA:1243,1
DA:1244,1
DA:1245,1
DA:1247,1
DA:1248,1
DA:1249,1
DA:1250,1
DA:1253,1
DA:1255,1
DA:1256,1
DA:1257,1
DA:1259,1
DA:1260,1
DA:1261,1
DA:1262,1
DA:1263,1
DA:1264,1
DA:1265,1
DA:1266,1
DA:1267,1
DA:1268,1
DA:1269,1
DA:1270,1
DA:1272,1
DA:1273,1
DA:1274,1
DA:1277,1
DA:1279,1
DA:1280,1
DA:1281,1
DA:1283,1
DA:1284,1
DA:1285,1
DA:1286,1
DA:1287,1
DA:1288,1
DA:1289,1
DA:1290,1
DA:1291,1
DA:1293,1
DA:1294,1
DA:1295,1
DA:1298,1
DA:1300,1
DA:1301,1
DA:1302,1
DA:1303,1
DA:1304,1
DA:1305,1
DA:1306,1
DA:1307,1
DA:1310,1
DA:1313,1
DA:1314,1
DA:1315,1
DA:1316,1
DA:1317,1
DA:1318,1
DA:1319,1
DA:1320,1
DA:1321,1
DA:1324,1
DA:1326,1
DA:1327,1
DA:1328,1
DA:1329,1
DA:1330,1
DA:1331,1
DA:1332,1
DA:1333,1
DA:1336,1
DA:1338,1
DA:1339,1
DA:1340,1
DA:1343,1
DA:1345,1
DA:1346,1
DA:1348,1
DA:1349,1
DA:1350,1
DA:1351,1
DA:1352,1
DA:1353,1
DA:1354,1
DA:1355,1
DA:1356,1
DA:1357,1
DA:1358,1
DA:1360,1
DA:1361,1
DA:1362,1
DA:1365,1
DA:1367,1
DA:1368,1
DA:1369,1
DA:1370,1
DA:1373,1
DA:1374,1
DA:1375,1
DA:1376,1
DA:1377,1
DA:1378,1
DA:1379,1
DA:1380,1
DA:1381,1
DA:1382,1
DA:1383,1
DA:1384,1
DA:1385,1
DA:1387,1
DA:1388,1
DA:1389,1
DA:1392,1
DA:1394,1
DA:1395,1
DA:1397,1
DA:1398,1
DA:1399,1
DA:1400,1
DA:1401,1
DA:1402,1
DA:1403,1
DA:1404,1
DA:1405,1
DA:1406,1
DA:1407,1
DA:1408,1
DA:1410,1
DA:1411,1
DA:1412,1
DA:1415,1
DA:1420,1
DA:1423,1
DA:1424,1
DA:1427,1
DA:1428,1
DA:1431,1
DA:1432,1
DA:1433,1
DA:1434,1
DA:1437,1
DA:1442,1
DA:1444,1
DA:1445,1
DA:1447,1
DA:1448,1
DA:1451,1
DA:1452,1
DA:1453,1
DA:1456,1
DA:1461,1
DA:1464,1
DA:1465,1
DA:1468,1
DA:1469,1
DA:1472,1
DA:1473,1
DA:1476,1
DA:1477,1
DA:1478,1
DA:1481,1
DA:1483,1
DA:1484,1
DA:1485,1
DA:1486,1
DA:1487,1
DA:1488,1
DA:1489,1
DA:1490,1
DA:1491,1
DA:1494,1
DA:1496,1
DA:1497,1
DA:1498,1
DA:1499,1
DA:1500,1
DA:1501,1
DA:1502,1
DA:1503,1
DA:1504,1
DA:1505,1
DA:1506,1
DA:1509,1
DA:1512,1
DA:1515,1
DA:1516,1
DA:1517,1
DA:1518,1
DA:1519,1
DA:1520,1
DA:1521,1
DA:1522,1
DA:1523,1
DA:1524,1
DA:1525,1
DA:1526,1
DA:1528,1
DA:1529,1
DA:1531,1
DA:1532,1
DA:1535,1
DA:1537,1
DA:1538,1
DA:1539,1
DA:1542,1
DA:1543,1
DA:1544,1
DA:1545,1
DA:1546,1
DA:1548,1
DA:1549,1
DA:1550,1
DA:1551,1
DA:1552,1
DA:1555,1
DA:1556,1
DA:1557,1
DA:1558,1
DA:1559,1
DA:1560,1
DA:1561,1
DA:1562,1
DA:1563,1
DA:1564,1
DA:1567,1
DA:1568,1
DA:1569,1
DA:1570,1
DA:1571,1
DA:1572,1
DA:1573,1
DA:1574,1
DA:1576,1
DA:1577,1
DA:1578,1
DA:1579,1
DA:1582,1
DA:1587,1
DA:1589,1
DA:1590,1
DA:1592,1
DA:1593,1
DA:1594,1
DA:1597,1
DA:1602,1
DA:1604,1
DA:1605,1
DA:1607,1
DA:1608,1
DA:1609,1
BRF:0
BRH:0
LF:1139
LH:1097
end_of_record
SF:/home/openclaw/dev/yinglichina8848/sqlrustgo/crates/planner/src/physical_plan.rs
FN:1480,_RNvNtNtCsk6zXnftdXdR_17sqlrustgo_planner13physical_plan5testss_14test_sort_exec
FN:1496,_RNvNtNtCsk6zXnftdXdR_17sqlrustgo_planner13physical_plan5testss_15test_limit_exec
FN:3921,_RNvNtNtCsk6zXnftdXdR_17sqlrustgo_planner13physical_plan5testss_16test_exists_exec
FN:1424,_RNvNtNtCsk6zXnftdXdR_17sqlrustgo_planner13physical_plan5testss_16test_filter_exec
FN:1392,_RNvNtNtCsk6zXnftdXdR_17sqlrustgo_planner13physical_plan5testss_18test_seq_scan_exec
FN:1582,_RNvNtNtCsk6zXnftdXdR_17sqlrustgo_planner13physical_plan5testss_18test_sort_exec_new
FN:1439,_RNvNtNtCsk6zXnftdXdR_17sqlrustgo_planner13physical_plan5testss_19test_aggregate_exec
FN:1456,_RNvNtNtCsk6zXnftdXdR_17sqlrustgo_planner13physical_plan5testss_19test_hash_join_exec
FN:2175,_RNvNtNtCsk6zXnftdXdR_17sqlrustgo_planner13physical_plan5testss_19test_limit_exec_new
FN:1413,_RNvNtNtCsk6zXnftdXdR_17sqlrustgo_planner13physical_plan5testss_20test_projection_exec
FN:3908,_RNvNtNtCsk6zXnftdXdR_17sqlrustgo_planner13physical_plan5testss_21test_in_subquery_exec
FN:2334,_RNvNtNtCsk6zXnftdXdR_17sqlrustgo_planner13physical_plan5testss_21test_sort_exec_as_any
FN:1590,_RNvNtNtCsk6zXnftdXdR_17sqlrustgo_planner13physical_plan5testss_21test_sort_exec_schema
FN:2361,_RNvNtNtCsk6zXnftdXdR_17sqlrustgo_planner13physical_plan5testss_22test_limit_exec_as_any
FN:1869,_RNvNtNtCsk6zXnftdXdR_17sqlrustgo_planner13physical_plan5testss_22test_sort_exec_execute
FN:2317,_RNvNtNtCsk6zXnftdXdR_17sqlrustgo_planner13physical_plan5testss_22test_sort_exec_getters
FN:3793,_RNvNtNtCsk6zXnftdXdR_17sqlrustgo_planner13physical_plan5testss_22test_sort_exec_methods
FN:1980,_RNvNtNtCsk6zXnftdXdR_17sqlrustgo_planner13physical_plan5testss_23test_aggregate_exec_avg
FN:1961,_RNvNtNtCsk6zXnftdXdR_17sqlrustgo_planner13physical_plan5testss_23test_aggregate_exec_max
FN:1942,_RNvNtNtCsk6zXnftdXdR_17sqlrustgo_planner13physical_plan5testss_23test_aggregate_exec_min
FN:1551,_RNvNtNtCsk6zXnftdXdR_17sqlrustgo_planner13physical_plan5testss_23test_aggregate_exec_new
FN:1663,_RNvNtNtCsk6zXnftdXdR_17sqlrustgo_planner13physical_plan5testss_23test_aggregate_exec_sum
FN:1533,_RNvNtNtCsk6zXnftdXdR_17sqlrustgo_planner13physical_plan5testss_23test_filter_exec_schema
FN:1884,_RNvNtNtCsk6zXnftdXdR_17sqlrustgo_planner13physical_plan5testss_23test_limit_exec_execute
FN:2348,_RNvNtNtCsk6zXnftdXdR_17sqlrustgo_planner13physical_plan5testss_23test_limit_exec_getters
FN:3807,_RNvNtNtCsk6zXnftdXdR_17sqlrustgo_planner13physical_plan5testss_23test_limit_exec_methods
FN:3952,_RNvNtNtCsk6zXnftdXdR_17sqlrustgo_planner13physical_plan5testss_23test_set_operation_exec
FN:2145,_RNvNtNtCsk6zXnftdXdR_17sqlrustgo_planner13physical_plan5testss_23test_sort_exec_children
FN:1768,_RNvNtNtCsk6zXnftdXdR_17sqlrustgo_planner13physical_plan5testss_24test_filter_exec_execute
FN:2229,_RNvNtNtCsk6zXnftdXdR_17sqlrustgo_planner13physical_plan5testss_24test_filter_exec_getters
FN:3846,_RNvNtNtCsk6zXnftdXdR_17sqlrustgo_planner13physical_plan5testss_24test_index_scan_exec_new
FN:2195,_RNvNtNtCsk6zXnftdXdR_17sqlrustgo_planner13physical_plan5testss_24test_limit_exec_children
FN:2159,_RNvNtNtCsk6zXnftdXdR_17sqlrustgo_planner13physical_plan5testss_24test_sort_exec_execute_2
FN:1542,_RNvNtNtCsk6zXnftdXdR_17sqlrustgo_planner13physical_plan5testss_25test_filter_exec_children
FN:2204,_RNvNtNtCsk6zXnftdXdR_17sqlrustgo_planner13physical_plan5testss_25test_limit_exec_execute_2
FN:2186,_RNvNtNtCsk6zXnftdXdR_17sqlrustgo_planner13physical_plan5testss_25test_limit_exec_no_offset
FN:3735,_RNvNtNtCsk6zXnftdXdR_17sqlrustgo_planner13physical_plan5testss_25test_projection_exec_expr
FN:3896,_RNvNtNtCsk6zXnftdXdR_17sqlrustgo_planner13physical_plan5testss_25test_scalar_subquery_exec
FN:2370,_RNvNtNtCsk6zXnftdXdR_17sqlrustgo_planner13physical_plan5testss_26test_aggregate_exec_as_any
FN:1559,_RNvNtNtCsk6zXnftdXdR_17sqlrustgo_planner13physical_plan5testss_26test_aggregate_exec_schema
FN:3933,_RNvNtNtCsk6zXnftdXdR_17sqlrustgo_planner13physical_plan5testss_26test_any_all_subquery_exec
FN:3745,_RNvNtNtCsk6zXnftdXdR_17sqlrustgo_planner13physical_plan5testss_26test_filter_exec_predicate
FN:3025,_RNvNtNtCsk6zXnftdXdR_17sqlrustgo_planner13physical_plan5testss_26test_filter_exec_with_less
FN:2610,_RNvNtNtCsk6zXnftdXdR_17sqlrustgo_planner13physical_plan5testss_26test_hash_join_exec_as_any
FN:2301,_RNvNtNtCsk6zXnftdXdR_17sqlrustgo_planner13physical_plan5testss_26test_hash_join_exec_schema
FN:1612,_RNvNtNtCsk6zXnftdXdR_17sqlrustgo_planner13physical_plan5testss_26test_projection_exec_alias
FN:1807,_RNvNtNtCsk6zXnftdXdR_17sqlrustgo_planner13physical_plan5testss_27test_aggregate_exec_execute
FN:2244,_RNvNtNtCsk6zXnftdXdR_17sqlrustgo_planner13physical_plan5testss_27test_aggregate_exec_getters
FN:3759,_RNvNtNtCsk6zXnftdXdR_17sqlrustgo_planner13physical_plan5testss_27test_aggregate_exec_methods
FN:1823,_RNvNtNtCsk6zXnftdXdR_17sqlrustgo_planner13physical_plan5testss_27test_hash_join_exec_execute
FN:2263,_RNvNtNtCsk6zXnftdXdR_17sqlrustgo_planner13physical_plan5testss_27test_hash_join_exec_getters
FN:3770,_RNvNtNtCsk6zXnftdXdR_17sqlrustgo_planner13physical_plan5testss_27test_hash_join_exec_methods
FN:1507,_RNvNtNtCsk6zXnftdXdR_17sqlrustgo_planner13physical_plan5testss_27test_limit_exec_with_offset
FN:1598,_RNvNtNtCsk6zXnftdXdR_17sqlrustgo_planner13physical_plan5testss_27test_projection_exec_column
FN:1517,_RNvNtNtCsk6zXnftdXdR_17sqlrustgo_planner13physical_plan5testss_27test_projection_exec_schema
FN:1682,_RNvNtNtCsk6zXnftdXdR_17sqlrustgo_planner13physical_plan5testss_28test_aggregate_exec_group_by
FN:2086,_RNvNtNtCsk6zXnftdXdR_17sqlrustgo_planner13physical_plan5testss_28test_filter_exec_evaluate_lt
FN:1567,_RNvNtNtCsk6zXnftdXdR_17sqlrustgo_planner13physical_plan5testss_28test_hash_join_exec_children
FN:3880,_RNvNtNtCsk6zXnftdXdR_17sqlrustgo_planner13physical_plan5testss_28test_index_scan_exec_execute
FN:1736,_RNvNtNtCsk6zXnftdXdR_17sqlrustgo_planner13physical_plan5testss_28test_projection_exec_execute
FN:2216,_RNvNtNtCsk6zXnftdXdR_17sqlrustgo_planner13physical_plan5testss_28test_projection_exec_getters
FN:3113,_RNvNtNtCsk6zXnftdXdR_17sqlrustgo_planner13physical_plan5testss_29test_aggregate_exec_avg_float
FN:3153,_RNvNtNtCsk6zXnftdXdR_17sqlrustgo_planner13physical_plan5testss_29test_aggregate_exec_max_float
FN:3133,_RNvNtNtCsk6zXnftdXdR_17sqlrustgo_planner13physical_plan5testss_29test_aggregate_exec_min_float
FN:3093,_RNvNtNtCsk6zXnftdXdR_17sqlrustgo_planner13physical_plan5testss_29test_aggregate_exec_sum_float
FN:2071,_RNvNtNtCsk6zXnftdXdR_17sqlrustgo_planner13physical_plan5testss_29test_filter_exec_evaluate_gte
FN:2101,_RNvNtNtCsk6zXnftdXdR_17sqlrustgo_planner13physical_plan5testss_29test_filter_exec_evaluate_neq
FN:1999,_RNvNtNtCsk6zXnftdXdR_17sqlrustgo_planner13physical_plan5testss_29test_hash_join_exec_left_join
FN:1525,_RNvNtNtCsk6zXnftdXdR_17sqlrustgo_planner13physical_plan5testss_29test_projection_exec_children
FN:1721,_RNvNtNtCsk6zXnftdXdR_17sqlrustgo_planner13physical_plan5testss_29test_seq_scan_exec_projection
FN:3727,_RNvNtNtCsk6zXnftdXdR_17sqlrustgo_planner13physical_plan5testss_29test_seq_scan_exec_table_name
FN:2131,_RNvNtNtCsk6zXnftdXdR_17sqlrustgo_planner13physical_plan5testss_29test_sort_exec_with_sort_expr
FN:3621,_RNvNtNtCsk6zXnftdXdR_17sqlrustgo_planner13physical_plan5testss_30test_aggregate_count_with_args
FN:1625,_RNvNtNtCsk6zXnftdXdR_17sqlrustgo_planner13physical_plan5testss_30test_aggregate_exec_count_star
FN:2029,_RNvNtNtCsk6zXnftdXdR_17sqlrustgo_planner13physical_plan5testss_30test_hash_join_exec_cross_join
FN:2117,_RNvNtNtCsk6zXnftdXdR_17sqlrustgo_planner13physical_plan5testss_30test_hash_join_exec_left_outer
FN:2014,_RNvNtNtCsk6zXnftdXdR_17sqlrustgo_planner13physical_plan5testss_30test_hash_join_exec_right_join
FN:3009,_RNvNtNtCsk6zXnftdXdR_17sqlrustgo_planner13physical_plan5testss_31test_filter_exec_with_not_equal
FN:2592,_RNvNtNtCsk6zXnftdXdR_17sqlrustgo_planner13physical_plan5testss_31test_projection_exec_with_alias
FN:1644,_RNvNtNtCsk6zXnftdXdR_17sqlrustgo_planner13physical_plan5testss_32test_aggregate_exec_count_column
FN:3041,_RNvNtNtCsk6zXnftdXdR_17sqlrustgo_planner13physical_plan5testss_32test_filter_exec_with_less_equal
FN:3689,_RNvNtNtCsk6zXnftdXdR_17sqlrustgo_planner13physical_plan5testss_33test_filter_evaluate_expr_literal
FN:1783,_RNvNtNtCsk6zXnftdXdR_17sqlrustgo_planner13physical_plan5testss_33test_filter_exec_execute_with_and
FN:3705,_RNvNtNtCsk6zXnftdXdR_17sqlrustgo_planner13physical_plan5testss_33test_hash_join_execute_inner_join
FN:3817,_RNvNtNtCsk6zXnftdXdR_17sqlrustgo_planner13physical_plan5testss_33test_sort_merge_join_exec_methods
FN:3073,_RNvNtNtCsk6zXnftdXdR_17sqlrustgo_planner13physical_plan5testss_34test_aggregate_exec_count_distinct
FN:2577,_RNvNtNtCsk6zXnftdXdR_17sqlrustgo_planner13physical_plan5testss_34test_filter_exec_with_lte_operator
FN:2896,_RNvNtNtCsk6zXnftdXdR_17sqlrustgo_planner13physical_plan5testss_34test_filter_exec_with_or_predicate
FN:2928,_RNvNtNtCsk6zXnftdXdR_17sqlrustgo_planner13physical_plan5testss_34test_projection_exec_execute_alias
FN:2990,_RNvNtNtCsk6zXnftdXdR_17sqlrustgo_planner13physical_plan5testss_34test_projection_exec_execute_float
FN:2942,_RNvNtNtCsk6zXnftdXdR_17sqlrustgo_planner13physical_plan5testss_34test_projection_exec_execute_minus
FN:1402,_RNvNtNtCsk6zXnftdXdR_17sqlrustgo_planner13physical_plan5testss_34test_seq_scan_exec_with_projection
FN:3496,_RNvNtNtCsk6zXnftdXdR_17sqlrustgo_planner13physical_plan5testss_35test_aggregate_avg_with_mixed_types
FN:3596,_RNvNtNtCsk6zXnftdXdR_17sqlrustgo_planner13physical_plan5testss_35test_aggregate_max_with_mixed_types
FN:3546,_RNvNtNtCsk6zXnftdXdR_17sqlrustgo_planner13physical_plan5testss_35test_aggregate_min_with_mixed_types
FN:3057,_RNvNtNtCsk6zXnftdXdR_17sqlrustgo_planner13physical_plan5testss_35test_filter_exec_with_greater_equal
FN:3864,_RNvNtNtCsk6zXnftdXdR_17sqlrustgo_planner13physical_plan5testss_35test_index_scan_exec_with_key_range
FN:1894,_RNvNtNtCsk6zXnftdXdR_17sqlrustgo_planner13physical_plan5testss_35test_limit_exec_execute_with_offset
FN:2054,_RNvNtNtCsk6zXnftdXdR_17sqlrustgo_planner13physical_plan5testss_35test_projection_exec_evaluate_unary
FN:2974,_RNvNtNtCsk6zXnftdXdR_17sqlrustgo_planner13physical_plan5testss_35test_projection_exec_execute_divide
FN:3471,_RNvNtNtCsk6zXnftdXdR_17sqlrustgo_planner13physical_plan5testss_36test_aggregate_avg_with_float_values
FN:2409,_RNvNtNtCsk6zXnftdXdR_17sqlrustgo_planner13physical_plan5testss_36test_aggregate_exec_execute_with_avg
FN:2449,_RNvNtNtCsk6zXnftdXdR_17sqlrustgo_planner13physical_plan5testss_36test_aggregate_exec_execute_with_max
FN:2429,_RNvNtNtCsk6zXnftdXdR_17sqlrustgo_planner13physical_plan5testss_36test_aggregate_exec_execute_with_min
FN:3571,_RNvNtNtCsk6zXnftdXdR_17sqlrustgo_planner13physical_plan5testss_36test_aggregate_max_with_float_values
FN:3521,_RNvNtNtCsk6zXnftdXdR_17sqlrustgo_planner13physical_plan5testss_36test_aggregate_min_with_float_values
FN:3421,_RNvNtNtCsk6zXnftdXdR_17sqlrustgo_planner13physical_plan5testss_36test_aggregate_sum_with_float_values
FN:2044,_RNvNtNtCsk6zXnftdXdR_17sqlrustgo_planner13physical_plan5testss_37test_projection_exec_evaluate_literal
FN:2958,_RNvNtNtCsk6zXnftdXdR_17sqlrustgo_planner13physical_plan5testss_37test_projection_exec_execute_multiply
FN:2912,_RNvNtNtCsk6zXnftdXdR_17sqlrustgo_planner13physical_plan5testss_37test_projection_exec_execute_wildcard
FN:3667,_RNvNtNtCsk6zXnftdXdR_17sqlrustgo_planner13physical_plan5testss_38test_filter_compare_values_non_integer
FN:3389,_RNvNtNtCsk6zXnftdXdR_17sqlrustgo_planner13physical_plan5testss_38test_projection_arithmetic_mixed_types
FN:2628,_RNvNtNtCsk6zXnftdXdR_17sqlrustgo_planner13physical_plan5testss_38test_projection_exec_evaluate_wildcard
FN:3446,_RNvNtNtCsk6zXnftdXdR_17sqlrustgo_planner13physical_plan5testss_39test_aggregate_sum_with_mixed_int_float
FN:2549,_RNvNtNtCsk6zXnftdXdR_17sqlrustgo_planner13physical_plan5testss_39test_filter_exec_with_literal_predicate
FN:1747,_RNvNtNtCsk6zXnftdXdR_17sqlrustgo_planner13physical_plan5testss_39test_projection_exec_execute_with_exprs
FN:1707,_RNvNtNtCsk6zXnftdXdR_17sqlrustgo_planner13physical_plan5testss_40test_physical_plan_trait_default_methods
FN:1904,_RNvNtNtCsk6zXnftdXdR_17sqlrustgo_planner13physical_plan5testss_40test_projection_exec_execute_empty_exprs
FN:2826,_RNvNtNtCsk6zXnftdXdR_17sqlrustgo_planner13physical_plan5testss_41test_aggregate_exec_execute_with_distinct
FN:2561,_RNvNtNtCsk6zXnftdXdR_17sqlrustgo_planner13physical_plan5testss_41test_filter_exec_with_complex_binary_expr
FN:2642,_RNvNtNtCsk6zXnftdXdR_17sqlrustgo_planner13physical_plan5testss_41test_projection_exec_evaluate_binary_plus
FN:2763,_RNvNtNtCsk6zXnftdXdR_17sqlrustgo_planner13physical_plan5testss_41test_projection_exec_evaluate_unary_minus
FN:2874,_RNvNtNtCsk6zXnftdXdR_17sqlrustgo_planner13physical_plan5testss_42test_aggregate_exec_evaluate_expr_wildcard
FN:2489,_RNvNtNtCsk6zXnftdXdR_17sqlrustgo_planner13physical_plan5testss_42test_aggregate_exec_execute_with_avg_float
FN:2529,_RNvNtNtCsk6zXnftdXdR_17sqlrustgo_planner13physical_plan5testss_42test_aggregate_exec_execute_with_max_float
FN:2509,_RNvNtNtCsk6zXnftdXdR_17sqlrustgo_planner13physical_plan5testss_42test_aggregate_exec_execute_with_min_float
FN:2469,_RNvNtNtCsk6zXnftdXdR_17sqlrustgo_planner13physical_plan5testss_42test_aggregate_exec_execute_with_sum_float
FN:1914,_RNvNtNtCsk6zXnftdXdR_17sqlrustgo_planner13physical_plan5testss_42test_aggregate_exec_with_multiple_group_by
FN:1840,_RNvNtNtCsk6zXnftdXdR_17sqlrustgo_planner13physical_plan5testss_42test_hash_join_exec_execute_with_condition
FN:2284,_RNvNtNtCsk6zXnftdXdR_17sqlrustgo_planner13physical_plan5testss_42test_hash_join_exec_getters_with_condition
FN:2662,_RNvNtNtCsk6zXnftdXdR_17sqlrustgo_planner13physical_plan5testss_42test_projection_exec_evaluate_binary_minus
FN:2389,_RNvNtNtCsk6zXnftdXdR_17sqlrustgo_planner13physical_plan5testss_43test_aggregate_exec_execute_with_count_star
FN:3206,_RNvNtNtCsk6zXnftdXdR_17sqlrustgo_planner13physical_plan5testss_43test_filter_compare_values_float_comparison
FN:2702,_RNvNtNtCsk6zXnftdXdR_17sqlrustgo_planner13physical_plan5testss_43test_projection_exec_evaluate_binary_divide
FN:2723,_RNvNtNtCsk6zXnftdXdR_17sqlrustgo_planner13physical_plan5testss_43test_projection_exec_evaluate_binary_modulo
FN:2846,_RNvNtNtCsk6zXnftdXdR_17sqlrustgo_planner13physical_plan5testss_45test_aggregate_exec_group_by_multiple_columns
FN:2682,_RNvNtNtCsk6zXnftdXdR_17sqlrustgo_planner13physical_plan5testss_45test_projection_exec_evaluate_binary_multiply
FN:3648,_RNvNtNtCsk6zXnftdXdR_17sqlrustgo_planner13physical_plan5testss_46test_filter_evaluate_predicate_integer_literal
FN:2779,_RNvNtNtCsk6zXnftdXdR_17sqlrustgo_planner13physical_plan5testss_46test_projection_exec_evaluate_column_not_found
FN:2743,_RNvNtNtCsk6zXnftdXdR_17sqlrustgo_planner13physical_plan5testss_46test_projection_exec_evaluate_float_operations
FN:2796,_RNvNtNtCsk6zXnftdXdR_17sqlrustgo_planner13physical_plan5testss_47test_aggregate_exec_execute_multiple_aggregates
FN:3298,_RNvNtNtCsk6zXnftdXdR_17sqlrustgo_planner13physical_plan5testss_49test_projection_arithmetic_float_division_by_zero
FN:3359,_RNvNtNtCsk6zXnftdXdR_17sqlrustgo_planner13physical_plan5testss_49test_projection_arithmetic_float_non_division_ops
FN:3267,_RNvNtNtCsk6zXnftdXdR_17sqlrustgo_planner13physical_plan5testss_49test_projection_arithmetic_integer_modulo_by_zero
FN:3175,_RNvNtNtCsk6zXnftdXdR_17sqlrustgo_planner13physical_plan5testss_51test_filter_compare_values_non_comparison_operators
FN:3236,_RNvNtNtCsk6zXnftdXdR_17sqlrustgo_planner13physical_plan5testss_51test_projection_arithmetic_integer_division_by_zero
FN:3329,_RNvNtNtCsk6zXnftdXdR_17sqlrustgo_planner13physical_plan5testss_55test_projection_arithmetic_non_arithmetic_op_on_integer
FN:214,_RNCNvXs1_NtCsk6zXnftdXdR_17sqlrustgo_planner13physical_planNtB7_16ColumnarScanExecNtB7_12PhysicalPlan14estimated_cost0B9_
FN:112,_RNvMNtCsk6zXnftdXdR_17sqlrustgo_planner13physical_planNtB2_11SeqScanExec5limit
FN:108,_RNvMNtCsk6zXnftdXdR_17sqlrustgo_planner13physical_planNtB2_11SeqScanExec9predicate
FN:179,_RNvMs0_NtCsk6zXnftdXdR_17sqlrustgo_planner13physical_planNtB5_16ColumnarScanExec10projection
FN:175,_RNvMs0_NtCsk6zXnftdXdR_17sqlrustgo_planner13physical_planNtB5_16ColumnarScanExec10table_name
FN:167,_RNvMs0_NtCsk6zXnftdXdR_17sqlrustgo_planner13physical_planNtB5_16ColumnarScanExec3new
FN:536,_RNvMsa_NtCsk6zXnftdXdR_17sqlrustgo_planner13physical_planNtB5_18ScalarSubqueryExec7execute
FN:581,_RNvMsc_NtCsk6zXnftdXdR_17sqlrustgo_planner13physical_planNtB5_14InSubqueryExec4expr
FN:585,_RNvMsc_NtCsk6zXnftdXdR_17sqlrustgo_planner13physical_planNtB5_14InSubqueryExec8subquery
FN:625,_RNvMse_NtCsk6zXnftdXdR_17sqlrustgo_planner13physical_planNtB5_10ExistsExec7execute
FN:691,_RNvMsg_NtCsk6zXnftdXdR_17sqlrustgo_planner13physical_planNtB5_18AnyAllSubqueryExec2op
FN:687,_RNvMsg_NtCsk6zXnftdXdR_17sqlrustgo_planner13physical_planNtB5_18AnyAllSubqueryExec4expr
FN:761,_RNvMsi_NtCsk6zXnftdXdR_17sqlrustgo_planner13physical_planNtB5_13AggregateExec11having_expr
FN:1122,_RNvMsm_NtCsk6zXnftdXdR_17sqlrustgo_planner13physical_planNtB5_17SortMergeJoinExec4left
FN:1126,_RNvMsm_NtCsk6zXnftdXdR_17sqlrustgo_planner13physical_planNtB5_17SortMergeJoinExec5right
FN:1134,_RNvMsm_NtCsk6zXnftdXdR_17sqlrustgo_planner13physical_planNtB5_17SortMergeJoinExec9condition
FN:1280,_RNvMss_NtCsk6zXnftdXdR_17sqlrustgo_planner13physical_planNtB5_16SetOperationExec4left
FN:1284,_RNvMss_NtCsk6zXnftdXdR_17sqlrustgo_planner13physical_planNtB5_16SetOperationExec5right
FN:1358,_RNvMsu_NtCsk6zXnftdXdR_17sqlrustgo_planner13physical_planNtB5_10WindowExec12partition_by
FN:1354,_RNvMsu_NtCsk6zXnftdXdR_17sqlrustgo_planner13physical_planNtB5_10WindowExec12window_exprs
FN:1350,_RNvMsu_NtCsk6zXnftdXdR_17sqlrustgo_planner13physical_planNtB5_10WindowExec5input
FN:1362,_RNvMsu_NtCsk6zXnftdXdR_17sqlrustgo_planner13physical_planNtB5_10WindowExec8order_by
FN:197,_RNvXs1_NtCsk6zXnftdXdR_17sqlrustgo_planner13physical_planNtB5_16ColumnarScanExecNtB5_12PhysicalPlan10table_name
FN:209,_RNvXs1_NtCsk6zXnftdXdR_17sqlrustgo_planner13physical_planNtB5_16ColumnarScanExecNtB5_12PhysicalPlan14estimated_cost
FN:193,_RNvXs1_NtCsk6zXnftdXdR_17sqlrustgo_planner13physical_planNtB5_16ColumnarScanExecNtB5_12PhysicalPlan4name
FN:205,_RNvXs1_NtCsk6zXnftdXdR_17sqlrustgo_planner13physical_planNtB5_16ColumnarScanExecNtB5_12PhysicalPlan6as_any
FN:185,_RNvXs1_NtCsk6zXnftdXdR_17sqlrustgo_planner13physical_planNtB5_16ColumnarScanExecNtB5_12PhysicalPlan6schema
FN:201,_RNvXs1_NtCsk6zXnftdXdR_17sqlrustgo_planner13physical_planNtB5_16ColumnarScanExecNtB5_12PhysicalPlan7execute
FN:189,_RNvXs1_NtCsk6zXnftdXdR_17sqlrustgo_planner13physical_planNtB5_16ColumnarScanExecNtB5_12PhysicalPlan8children
FN:558,_RNvXsb_NtCsk6zXnftdXdR_17sqlrustgo_planner13physical_planNtB5_18ScalarSubqueryExecNtB5_12PhysicalPlan6as_any
FN:554,_RNvXsb_NtCsk6zXnftdXdR_17sqlrustgo_planner13physical_planNtB5_18ScalarSubqueryExecNtB5_12PhysicalPlan7execute
FN:546,_RNvXsb_NtCsk6zXnftdXdR_17sqlrustgo_planner13physical_planNtB5_18ScalarSubqueryExecNtB5_12PhysicalPlan8children
FN:607,_RNvXsd_NtCsk6zXnftdXdR_17sqlrustgo_planner13physical_planNtB5_14InSubqueryExecNtB5_12PhysicalPlan6as_any
FN:603,_RNvXsd_NtCsk6zXnftdXdR_17sqlrustgo_planner13physical_planNtB5_14InSubqueryExecNtB5_12PhysicalPlan7execute
FN:595,_RNvXsd_NtCsk6zXnftdXdR_17sqlrustgo_planner13physical_planNtB5_14InSubqueryExecNtB5_12PhysicalPlan8children
FN:650,_RNvXsf_NtCsk6zXnftdXdR_17sqlrustgo_planner13physical_planNtB5_10ExistsExecNtB5_12PhysicalPlan6as_any
FN:645,_RNvXsf_NtCsk6zXnftdXdR_17sqlrustgo_planner13physical_planNtB5_10ExistsExecNtB5_12PhysicalPlan7execute
FN:637,_RNvXsf_NtCsk6zXnftdXdR_17sqlrustgo_planner13physical_planNtB5_10ExistsExecNtB5_12PhysicalPlan8children
FN:717,_RNvXsh_NtCsk6zXnftdXdR_17sqlrustgo_planner13physical_planNtB5_18AnyAllSubqueryExecNtB5_12PhysicalPlan6as_any
FN:697,_RNvXsh_NtCsk6zXnftdXdR_17sqlrustgo_planner13physical_planNtB5_18AnyAllSubqueryExecNtB5_12PhysicalPlan6schema
FN:713,_RNvXsh_NtCsk6zXnftdXdR_17sqlrustgo_planner13physical_planNtB5_18AnyAllSubqueryExecNtB5_12PhysicalPlan7execute
FN:701,_RNvXsh_NtCsk6zXnftdXdR_17sqlrustgo_planner13physical_planNtB5_18AnyAllSubqueryExecNtB5_12PhysicalPlan8children
FN:375,_RNCNvMs6_NtCsk6zXnftdXdR_17sqlrustgo_planner13physical_planNtB7_14ProjectionExec13evaluate_expr0B9_
FN:793,_RNCNvMsi_NtCsk6zXnftdXdR_17sqlrustgo_planner13physical_planNtB7_13AggregateExec17compute_aggregate0B9_
FN:469,_RNCNvXs8_NtCsk6zXnftdXdR_17sqlrustgo_planner13physical_planNtB7_10FilterExecNtB7_12PhysicalPlan7execute0B9_
FN:147,_RNCNvXs_NtCsk6zXnftdXdR_17sqlrustgo_planner13physical_planNtB6_11SeqScanExecNtB6_12PhysicalPlan14estimated_cost0B8_
FN:974,_RNCNvXsj_NtCsk6zXnftdXdR_17sqlrustgo_planner13physical_planNtB7_13AggregateExecNtB7_12PhysicalPlan7executes0_0B9_
FN:994,_RNCNvXsj_NtCsk6zXnftdXdR_17sqlrustgo_planner13physical_planNtB7_13AggregateExecNtB7_12PhysicalPlan7executes2_0B9_
FN:940,_RNCNvXsj_NtCsk6zXnftdXdR_17sqlrustgo_planner13physical_planNtB7_13AggregateExecNtB7_12PhysicalPlan7executes_0B9_
FN:46,_RNCNvYNtNtCsk6zXnftdXdR_17sqlrustgo_planner13physical_plan10FilterExecNtB6_12PhysicalPlan14estimated_cost0B8_
FN:52,_RNCNvYNtNtCsk6zXnftdXdR_17sqlrustgo_planner13physical_plan10FilterExecNtB6_12PhysicalPlan14estimated_costs_0B8_
FN:46,_RNCNvYNtNtCsk6zXnftdXdR_17sqlrustgo_planner13physical_plan10WindowExecNtB6_12PhysicalPlan14estimated_cost0B8_
FN:52,_RNCNvYNtNtCsk6zXnftdXdR_17sqlrustgo_planner13physical_plan10WindowExecNtB6_12PhysicalPlan14estimated_costs_0B8_
FN:46,_RNCNvYNtNtCsk6zXnftdXdR_17sqlrustgo_planner13physical_plan12HashJoinExecNtB6_12PhysicalPlan14estimated_cost0B8_
FN:52,_RNCNvYNtNtCsk6zXnftdXdR_17sqlrustgo_planner13physical_plan12HashJoinExecNtB6_12PhysicalPlan14estimated_costs_0B8_
FN:46,_RNCNvYNtNtCsk6zXnftdXdR_17sqlrustgo_planner13physical_plan13AggregateExecNtB6_12PhysicalPlan14estimated_cost0B8_
FN:52,_RNCNvYNtNtCsk6zXnftdXdR_17sqlrustgo_planner13physical_plan13AggregateExecNtB6_12PhysicalPlan14estimated_costs_0B8_
FN:46,_RNCNvYNtNtCsk6zXnftdXdR_17sqlrustgo_planner13physical_plan13IndexScanExecNtB6_12PhysicalPlan14estimated_cost0B8_
FN:52,_RNCNvYNtNtCsk6zXnftdXdR_17sqlrustgo_planner13physical_plan13IndexScanExecNtB6_12PhysicalPlan14estimated_costs_0B8_
FN:46,_RNCNvYNtNtCsk6zXnftdXdR_17sqlrustgo_planner13physical_plan14ProjectionExecNtB6_12PhysicalPlan14estimated_cost0B8_
FN:52,_RNCNvYNtNtCsk6zXnftdXdR_17sqlrustgo_planner13physical_plan14ProjectionExecNtB6_12PhysicalPlan14estimated_costs_0B8_
FN:46,_RNCNvYNtNtCsk6zXnftdXdR_17sqlrustgo_planner13physical_plan16SetOperationExecNtB6_12PhysicalPlan14estimated_cost0B8_
FN:52,_RNCNvYNtNtCsk6zXnftdXdR_17sqlrustgo_planner13physical_plan16SetOperationExecNtB6_12PhysicalPlan14estimated_costs_0B8_
FN:46,_RNCNvYNtNtCsk6zXnftdXdR_17sqlrustgo_planner13physical_plan17SortMergeJoinExecNtB6_12PhysicalPlan14estimated_cost0B8_
FN:52,_RNCNvYNtNtCsk6zXnftdXdR_17sqlrustgo_planner13physical_plan17SortMergeJoinExecNtB6_12PhysicalPlan14estimated_costs_0B8_
FN:46,_RNCNvYNtNtCsk6zXnftdXdR_17sqlrustgo_planner13physical_plan8SortExecNtB6_12PhysicalPlan14estimated_cost0B8_
FN:52,_RNCNvYNtNtCsk6zXnftdXdR_17sqlrustgo_planner13physical_plan8SortExecNtB6_12PhysicalPlan14estimated_costs_0B8_
FN:46,_RNCNvYNtNtCsk6zXnftdXdR_17sqlrustgo_planner13physical_plan9LimitExecNtB6_12PhysicalPlan14estimated_cost0B8_
FN:52,_RNCNvYNtNtCsk6zXnftdXdR_17sqlrustgo_planner13physical_plan9LimitExecNtB6_12PhysicalPlan14estimated_costs_0B8_
FN:46,_RNCNvYNtNtNtCsk6zXnftdXdR_17sqlrustgo_planner8prepared5tests16MockPhysicalPlanNtNtBa_13physical_plan12PhysicalPlan14estimated_cost0Ba_
FN:52,_RNCNvYNtNtNtCsk6zXnftdXdR_17sqlrustgo_planner8prepared5tests16MockPhysicalPlanNtNtBa_13physical_plan12PhysicalPlan14estimated_costs_0Ba_
FN:32,_RNvYNtNtCsk6zXnftdXdR_17sqlrustgo_planner13physical_plan10FilterExecNtB4_12PhysicalPlan10table_nameB6_
FN:41,_RNvYNtNtCsk6zXnftdXdR_17sqlrustgo_planner13physical_plan10FilterExecNtB4_12PhysicalPlan14estimated_costB6_
FN:32,_RNvYNtNtCsk6zXnftdXdR_17sqlrustgo_planner13physical_plan10WindowExecNtB4_12PhysicalPlan10table_nameB6_
FN:41,_RNvYNtNtCsk6zXnftdXdR_17sqlrustgo_planner13physical_plan10WindowExecNtB4_12PhysicalPlan14estimated_costB6_
FN:27,_RNvYNtNtCsk6zXnftdXdR_17sqlrustgo_planner13physical_plan10WindowExecNtB4_12PhysicalPlan7executeB6_
FN:32,_RNvYNtNtCsk6zXnftdXdR_17sqlrustgo_planner13physical_plan12HashJoinExecNtB4_12PhysicalPlan10table_nameB6_
FN:41,_RNvYNtNtCsk6zXnftdXdR_17sqlrustgo_planner13physical_plan12HashJoinExecNtB4_12PhysicalPlan14estimated_costB6_
FN:27,_RNvYNtNtCsk6zXnftdXdR_17sqlrustgo_planner13physical_plan12HashJoinExecNtB4_12PhysicalPlan7executeB6_
FN:32,_RNvYNtNtCsk6zXnftdXdR_17sqlrustgo_planner13physical_plan13AggregateExecNtB4_12PhysicalPlan10table_nameB6_
FN:41,_RNvYNtNtCsk6zXnftdXdR_17sqlrustgo_planner13physical_plan13AggregateExecNtB4_12PhysicalPlan14estimated_costB6_
FN:41,_RNvYNtNtCsk6zXnftdXdR_17sqlrustgo_planner13physical_plan13IndexScanExecNtB4_12PhysicalPlan14estimated_costB6_
FN:32,_RNvYNtNtCsk6zXnftdXdR_17sqlrustgo_planner13physical_plan14ProjectionExecNtB4_12PhysicalPlan10table_nameB6_
FN:41,_RNvYNtNtCsk6zXnftdXdR_17sqlrustgo_planner13physical_plan14ProjectionExecNtB4_12PhysicalPlan14estimated_costB6_
FN:32,_RNvYNtNtCsk6zXnftdXdR_17sqlrustgo_planner13physical_plan16SetOperationExecNtB4_12PhysicalPlan10table_nameB6_
FN:41,_RNvYNtNtCsk6zXnftdXdR_17sqlrustgo_planner13physical_plan16SetOperationExecNtB4_12PhysicalPlan14estimated_costB6_
FN:32,_RNvYNtNtCsk6zXnftdXdR_17sqlrustgo_planner13physical_plan17SortMergeJoinExecNtB4_12PhysicalPlan10table_nameB6_
FN:41,_RNvYNtNtCsk6zXnftdXdR_17sqlrustgo_planner13physical_plan17SortMergeJoinExecNtB4_12PhysicalPlan14estimated_costB6_
FN:27,_RNvYNtNtCsk6zXnftdXdR_17sqlrustgo_planner13physical_plan17SortMergeJoinExecNtB4_12PhysicalPlan7executeB6_
FN:32,_RNvYNtNtCsk6zXnftdXdR_17sqlrustgo_planner13physical_plan8SortExecNtB4_12PhysicalPlan10table_nameB6_
FN:41,_RNvYNtNtCsk6zXnftdXdR_17sqlrustgo_planner13physical_plan8SortExecNtB4_12PhysicalPlan14estimated_costB6_
FN:27,_RNvYNtNtCsk6zXnftdXdR_17sqlrustgo_planner13physical_plan8SortExecNtB4_12PhysicalPlan7executeB6_
FN:32,_RNvYNtNtCsk6zXnftdXdR_17sqlrustgo_planner13physical_plan9LimitExecNtB4_12PhysicalPlan10table_nameB6_
FN:41,_RNvYNtNtCsk6zXnftdXdR_17sqlrustgo_planner13physical_plan9LimitExecNtB4_12PhysicalPlan14estimated_costB6_
FN:27,_RNvYNtNtCsk6zXnftdXdR_17sqlrustgo_planner13physical_plan9LimitExecNtB4_12PhysicalPlan7executeB6_
FN:32,_RNvYNtNtNtCsk6zXnftdXdR_17sqlrustgo_planner8prepared5tests16MockPhysicalPlanNtNtB8_13physical_plan12PhysicalPlan10table_nameB8_
FN:41,_RNvYNtNtNtCsk6zXnftdXdR_17sqlrustgo_planner8prepared5tests16MockPhysicalPlanNtNtB8_13physical_plan12PhysicalPlan14estimated_costB8_
FN:27,_RNvYNtNtNtCsk6zXnftdXdR_17sqlrustgo_planner8prepared5tests16MockPhysicalPlanNtNtB8_13physical_plan12PhysicalPlan7executeB8_
FN:104,_RNvMNtCsk6zXnftdXdR_17sqlrustgo_planner13physical_planNtB2_11SeqScanExec10projection
FN:100,_RNvMNtCsk6zXnftdXdR_17sqlrustgo_planner13physical_planNtB2_11SeqScanExec10table_name
FN:95,_RNvMNtCsk6zXnftdXdR_17sqlrustgo_planner13physical_planNtB2_11SeqScanExec10with_limit
FN:90,_RNvMNtCsk6zXnftdXdR_17sqlrustgo_planner13physical_planNtB2_11SeqScanExec14with_predicate
FN:85,_RNvMNtCsk6zXnftdXdR_17sqlrustgo_planner13physical_planNtB2_11SeqScanExec15with_projection
FN:75,_RNvMNtCsk6zXnftdXdR_17sqlrustgo_planner13physical_planNtB2_11SeqScanExec3new
FN:257,_RNvMs2_NtCsk6zXnftdXdR_17sqlrustgo_planner13physical_planNtB5_13IndexScanExec10index_name
FN:253,_RNvMs2_NtCsk6zXnftdXdR_17sqlrustgo_planner13physical_planNtB5_13IndexScanExec10table_name
FN:247,_RNvMs2_NtCsk6zXnftdXdR_17sqlrustgo_planner13physical_planNtB5_13IndexScanExec14with_key_range
FN:236,_RNvMs2_NtCsk6zXnftdXdR_17sqlrustgo_planner13physical_planNtB5_13IndexScanExec3new
FN:261,_RNvMs2_NtCsk6zXnftdXdR_17sqlrustgo_planner13physical_planNtB5_13IndexScanExec8key_expr
FN:265,_RNvMs2_NtCsk6zXnftdXdR_17sqlrustgo_planner13physical_planNtB5_13IndexScanExec9key_range
FN:305,_RNvMs4_NtCsk6zXnftdXdR_17sqlrustgo_planner13physical_planNtB5_14ProjectionExec3new
FN:363,_RNvMs6_NtCsk6zXnftdXdR_17sqlrustgo_planner13physical_planNtB5_14ProjectionExec13evaluate_expr
FN:389,_RNvMs6_NtCsk6zXnftdXdR_17sqlrustgo_planner13physical_planNtB5_14ProjectionExec19evaluate_arithmetic
FN:359,_RNvMs6_NtCsk6zXnftdXdR_17sqlrustgo_planner13physical_planNtB5_14ProjectionExec4expr
FN:355,_RNvMs6_NtCsk6zXnftdXdR_17sqlrustgo_planner13physical_planNtB5_14ProjectionExec5input
FN:437,_RNvMs7_NtCsk6zXnftdXdR_17sqlrustgo_planner13physical_planNtB5_10FilterExec3new
FN:441,_RNvMs7_NtCsk6zXnftdXdR_17sqlrustgo_planner13physical_planNtB5_10FilterExec5input
FN:445,_RNvMs7_NtCsk6zXnftdXdR_17sqlrustgo_planner13physical_planNtB5_10FilterExec9predicate
FN:493,_RNvMs9_NtCsk6zXnftdXdR_17sqlrustgo_planner13physical_planNtB5_10FilterExec13evaluate_expr
FN:507,_RNvMs9_NtCsk6zXnftdXdR_17sqlrustgo_planner13physical_planNtB5_10FilterExec14compare_values
FN:481,_RNvMs9_NtCsk6zXnftdXdR_17sqlrustgo_planner13physical_planNtB5_10FilterExec18evaluate_predicate
FN:532,_RNvMsa_NtCsk6zXnftdXdR_17sqlrustgo_planner13physical_planNtB5_18ScalarSubqueryExec3new
FN:573,_RNvMsc_NtCsk6zXnftdXdR_17sqlrustgo_planner13physical_planNtB5_14InSubqueryExec3new
FN:621,_RNvMse_NtCsk6zXnftdXdR_17sqlrustgo_planner13physical_planNtB5_10ExistsExec3new
FN:667,_RNvMsg_NtCsk6zXnftdXdR_17sqlrustgo_planner13physical_planNtB5_18AnyAllSubqueryExec3new
FN:683,_RNvMsg_NtCsk6zXnftdXdR_17sqlrustgo_planner13physical_planNtB5_18AnyAllSubqueryExec7any_all
FN:753,_RNvMsi_NtCsk6zXnftdXdR_17sqlrustgo_planner13physical_planNtB5_13AggregateExec10group_expr
FN:765,_RNvMsi_NtCsk6zXnftdXdR_17sqlrustgo_planner13physical_planNtB5_13AggregateExec13evaluate_expr
FN:757,_RNvMsi_NtCsk6zXnftdXdR_17sqlrustgo_planner13physical_planNtB5_13AggregateExec14aggregate_expr
FN:781,_RNvMsi_NtCsk6zXnftdXdR_17sqlrustgo_planner13physical_planNtB5_13AggregateExec17compute_aggregate
FN:733,_RNvMsi_NtCsk6zXnftdXdR_17sqlrustgo_planner13physical_planNtB5_13AggregateExec3new
FN:749,_RNvMsi_NtCsk6zXnftdXdR_17sqlrustgo_planner13physical_planNtB5_13AggregateExec5input
FN:1038,_RNvMsk_NtCsk6zXnftdXdR_17sqlrustgo_planner13physical_planNtB5_12HashJoinExec3new
FN:1054,_RNvMsk_NtCsk6zXnftdXdR_17sqlrustgo_planner13physical_planNtB5_12HashJoinExec4left
FN:1058,_RNvMsk_NtCsk6zXnftdXdR_17sqlrustgo_planner13physical_planNtB5_12HashJoinExec5right
FN:1066,_RNvMsk_NtCsk6zXnftdXdR_17sqlrustgo_planner13physical_planNtB5_12HashJoinExec9condition
FN:1062,_RNvMsk_NtCsk6zXnftdXdR_17sqlrustgo_planner13physical_planNtB5_12HashJoinExec9join_type
FN:1142,_RNvMsm_NtCsk6zXnftdXdR_17sqlrustgo_planner13physical_planNtB5_17SortMergeJoinExec10right_keys
FN:1102,_RNvMsm_NtCsk6zXnftdXdR_17sqlrustgo_planner13physical_planNtB5_17SortMergeJoinExec3new
FN:1130,_RNvMsm_NtCsk6zXnftdXdR_17sqlrustgo_planner13physical_planNtB5_17SortMergeJoinExec9join_type
FN:1138,_RNvMsm_NtCsk6zXnftdXdR_17sqlrustgo_planner13physical_planNtB5_17SortMergeJoinExec9left_keys
FN:1173,_RNvMso_NtCsk6zXnftdXdR_17sqlrustgo_planner13physical_planNtB5_8SortExec3new
FN:1181,_RNvMso_NtCsk6zXnftdXdR_17sqlrustgo_planner13physical_planNtB5_8SortExec5input
FN:1177,_RNvMso_NtCsk6zXnftdXdR_17sqlrustgo_planner13physical_planNtB5_8SortExec9sort_expr
FN:1213,_RNvMsq_NtCsk6zXnftdXdR_17sqlrustgo_planner13physical_planNtB5_9LimitExec3new
FN:1229,_RNvMsq_NtCsk6zXnftdXdR_17sqlrustgo_planner13physical_planNtB5_9LimitExec5input
FN:1221,_RNvMsq_NtCsk6zXnftdXdR_17sqlrustgo_planner13physical_planNtB5_9LimitExec5limit
FN:1225,_RNvMsq_NtCsk6zXnftdXdR_17sqlrustgo_planner13physical_planNtB5_9LimitExec6offset
FN:1262,_RNvMss_NtCsk6zXnftdXdR_17sqlrustgo_planner13physical_planNtB5_16SetOperationExec3new
FN:1276,_RNvMss_NtCsk6zXnftdXdR_17sqlrustgo_planner13physical_planNtB5_16SetOperationExec7op_type
FN:1332,_RNvMsu_NtCsk6zXnftdXdR_17sqlrustgo_planner13physical_planNtB5_10WindowExec3new
FN:283,_RNvXs3_NtCsk6zXnftdXdR_17sqlrustgo_planner13physical_planNtB5_13IndexScanExecNtB5_12PhysicalPlan10table_name
FN:279,_RNvXs3_NtCsk6zXnftdXdR_17sqlrustgo_planner13physical_planNtB5_13IndexScanExecNtB5_12PhysicalPlan4name
FN:291,_RNvXs3_NtCsk6zXnftdXdR_17sqlrustgo_planner13physical_planNtB5_13IndexScanExecNtB5_12PhysicalPlan6as_any
FN:271,_RNvXs3_NtCsk6zXnftdXdR_17sqlrustgo_planner13physical_planNtB5_13IndexScanExecNtB5_12PhysicalPlan6schema
FN:287,_RNvXs3_NtCsk6zXnftdXdR_17sqlrustgo_planner13physical_planNtB5_13IndexScanExecNtB5_12PhysicalPlan7execute
FN:275,_RNvXs3_NtCsk6zXnftdXdR_17sqlrustgo_planner13physical_planNtB5_13IndexScanExecNtB5_12PhysicalPlan8children
FN:323,_RNvXs5_NtCsk6zXnftdXdR_17sqlrustgo_planner13physical_planNtB5_14ProjectionExecNtB5_12PhysicalPlan4name
FN:349,_RNvXs5_NtCsk6zXnftdXdR_17sqlrustgo_planner13physical_planNtB5_14ProjectionExecNtB5_12PhysicalPlan6as_any
FN:315,_RNvXs5_NtCsk6zXnftdXdR_17sqlrustgo_planner13physical_planNtB5_14ProjectionExecNtB5_12PhysicalPlan6schema
FN:327,_RNvXs5_NtCsk6zXnftdXdR_17sqlrustgo_planner13physical_planNtB5_14ProjectionExecNtB5_12PhysicalPlan7execute
FN:319,_RNvXs5_NtCsk6zXnftdXdR_17sqlrustgo_planner13physical_planNtB5_14ProjectionExecNtB5_12PhysicalPlan8children
FN:459,_RNvXs8_NtCsk6zXnftdXdR_17sqlrustgo_planner13physical_planNtB5_10FilterExecNtB5_12PhysicalPlan4name
FN:475,_RNvXs8_NtCsk6zXnftdXdR_17sqlrustgo_planner13physical_planNtB5_10FilterExecNtB5_12PhysicalPlan6as_any
FN:451,_RNvXs8_NtCsk6zXnftdXdR_17sqlrustgo_planner13physical_planNtB5_10FilterExecNtB5_12PhysicalPlan6schema
FN:463,_RNvXs8_NtCsk6zXnftdXdR_17sqlrustgo_planner13physical_planNtB5_10FilterExecNtB5_12PhysicalPlan7execute
FN:455,_RNvXs8_NtCsk6zXnftdXdR_17sqlrustgo_planner13physical_planNtB5_10FilterExecNtB5_12PhysicalPlan8children
FN:130,_RNvXs_NtCsk6zXnftdXdR_17sqlrustgo_planner13physical_planNtB4_11SeqScanExecNtB4_12PhysicalPlan10table_name
FN:142,_RNvXs_NtCsk6zXnftdXdR_17sqlrustgo_planner13physical_planNtB4_11SeqScanExecNtB4_12PhysicalPlan14estimated_cost
FN:126,_RNvXs_NtCsk6zXnftdXdR_17sqlrustgo_planner13physical_planNtB4_11SeqScanExecNtB4_12PhysicalPlan4name
FN:138,_RNvXs_NtCsk6zXnftdXdR_17sqlrustgo_planner13physical_planNtB4_11SeqScanExecNtB4_12PhysicalPlan6as_any
FN:118,_RNvXs_NtCsk6zXnftdXdR_17sqlrustgo_planner13physical_planNtB4_11SeqScanExecNtB4_12PhysicalPlan6schema
FN:134,_RNvXs_NtCsk6zXnftdXdR_17sqlrustgo_planner13physical_planNtB4_11SeqScanExecNtB4_12PhysicalPlan7execute
FN:122,_RNvXs_NtCsk6zXnftdXdR_17sqlrustgo_planner13physical_planNtB4_11SeqScanExecNtB4_12PhysicalPlan8children
FN:550,_RNvXsb_NtCsk6zXnftdXdR_17sqlrustgo_planner13physical_planNtB5_18ScalarSubqueryExecNtB5_12PhysicalPlan4name
FN:542,_RNvXsb_NtCsk6zXnftdXdR_17sqlrustgo_planner13physical_planNtB5_18ScalarSubqueryExecNtB5_12PhysicalPlan6schema
FN:599,_RNvXsd_NtCsk6zXnftdXdR_17sqlrustgo_planner13physical_planNtB5_14InSubqueryExecNtB5_12PhysicalPlan4name
FN:591,_RNvXsd_NtCsk6zXnftdXdR_17sqlrustgo_planner13physical_planNtB5_14InSubqueryExecNtB5_12PhysicalPlan6schema
FN:641,_RNvXsf_NtCsk6zXnftdXdR_17sqlrustgo_planner13physical_planNtB5_10ExistsExecNtB5_12PhysicalPlan4name
FN:633,_RNvXsf_NtCsk6zXnftdXdR_17sqlrustgo_planner13physical_planNtB5_10ExistsExecNtB5_12PhysicalPlan6schema
FN:705,_RNvXsh_NtCsk6zXnftdXdR_17sqlrustgo_planner13physical_planNtB5_18AnyAllSubqueryExecNtB5_12PhysicalPlan4name
FN:917,_RNvXsj_NtCsk6zXnftdXdR_17sqlrustgo_planner13physical_planNtB5_13AggregateExecNtB5_12PhysicalPlan4name
FN:1022,_RNvXsj_NtCsk6zXnftdXdR_17sqlrustgo_planner13physical_planNtB5_13AggregateExecNtB5_12PhysicalPlan6as_any
FN:909,_RNvXsj_NtCsk6zXnftdXdR_17sqlrustgo_planner13physical_planNtB5_13AggregateExecNtB5_12PhysicalPlan6schema
FN:921,_RNvXsj_NtCsk6zXnftdXdR_17sqlrustgo_planner13physical_planNtB5_13AggregateExecNtB5_12PhysicalPlan7execute
FN:913,_RNvXsj_NtCsk6zXnftdXdR_17sqlrustgo_planner13physical_planNtB5_13AggregateExecNtB5_12PhysicalPlan8children
FN:1080,_RNvXsl_NtCsk6zXnftdXdR_17sqlrustgo_planner13physical_planNtB5_12HashJoinExecNtB5_12PhysicalPlan4name
FN:1084,_RNvXsl_NtCsk6zXnftdXdR_17sqlrustgo_planner13physical_planNtB5_12HashJoinExecNtB5_12PhysicalPlan6as_any
FN:1072,_RNvXsl_NtCsk6zXnftdXdR_17sqlrustgo_planner13physical_planNtB5_12HashJoinExecNtB5_12PhysicalPlan6schema
FN:1076,_RNvXsl_NtCsk6zXnftdXdR_17sqlrustgo_planner13physical_planNtB5_12HashJoinExecNtB5_12PhysicalPlan8children
FN:1156,_RNvXsn_NtCsk6zXnftdXdR_17sqlrustgo_planner13physical_planNtB5_17SortMergeJoinExecNtB5_12PhysicalPlan4name
FN:1160,_RNvXsn_NtCsk6zXnftdXdR_17sqlrustgo_planner13physical_planNtB5_17SortMergeJoinExecNtB5_12PhysicalPlan6as_any
FN:1148,_RNvXsn_NtCsk6zXnftdXdR_17sqlrustgo_planner13physical_planNtB5_17SortMergeJoinExecNtB5_12PhysicalPlan6schema
FN:1152,_RNvXsn_NtCsk6zXnftdXdR_17sqlrustgo_planner13physical_planNtB5_17SortMergeJoinExecNtB5_12PhysicalPlan8children
FN:1195,_RNvXsp_NtCsk6zXnftdXdR_17sqlrustgo_planner13physical_planNtB5_8SortExecNtB5_12PhysicalPlan4name
FN:1199,_RNvXsp_NtCsk6zXnftdXdR_17sqlrustgo_planner13physical_planNtB5_8SortExecNtB5_12PhysicalPlan6as_any
FN:1187,_RNvXsp_NtCsk6zXnftdXdR_17sqlrustgo_planner13physical_planNtB5_8SortExecNtB5_12PhysicalPlan6schema
FN:1191,_RNvXsp_NtCsk6zXnftdXdR_17sqlrustgo_planner13physical_planNtB5_8SortExecNtB5_12PhysicalPlan8children
FN:1243,_RNvXsr_NtCsk6zXnftdXdR_17sqlrustgo_planner13physical_planNtB5_9LimitExecNtB5_12PhysicalPlan4name
FN:1247,_RNvXsr_NtCsk6zXnftdXdR_17sqlrustgo_planner13physical_planNtB5_9LimitExecNtB5_12PhysicalPlan6as_any
FN:1235,_RNvXsr_NtCsk6zXnftdXdR_17sqlrustgo_planner13physical_planNtB5_9LimitExecNtB5_12PhysicalPlan6schema
FN:1239,_RNvXsr_NtCsk6zXnftdXdR_17sqlrustgo_planner13physical_planNtB5_9LimitExecNtB5_12PhysicalPlan8children
FN:1298,_RNvXst_NtCsk6zXnftdXdR_17sqlrustgo_planner13physical_planNtB5_16SetOperationExecNtB5_12PhysicalPlan4name
FN:1315,_RNvXst_NtCsk6zXnftdXdR_17sqlrustgo_planner13physical_planNtB5_16SetOperationExecNtB5_12PhysicalPlan6as_any
FN:1290,_RNvXst_NtCsk6zXnftdXdR_17sqlrustgo_planner13physical_planNtB5_16SetOperationExecNtB5_12PhysicalPlan6schema
FN:1302,_RNvXst_NtCsk6zXnftdXdR_17sqlrustgo_planner13physical_planNtB5_16SetOperationExecNtB5_12PhysicalPlan7execute
FN:1294,_RNvXst_NtCsk6zXnftdXdR_17sqlrustgo_planner13physical_planNtB5_16SetOperationExecNtB5_12PhysicalPlan8children
FN:1376,_RNvXsv_NtCsk6zXnftdXdR_17sqlrustgo_planner13physical_planNtB5_10WindowExecNtB5_12PhysicalPlan4name
FN:1380,_RNvXsv_NtCsk6zXnftdXdR_17sqlrustgo_planner13physical_planNtB5_10WindowExecNtB5_12PhysicalPlan6as_any
FN:1368,_RNvXsv_NtCsk6zXnftdXdR_17sqlrustgo_planner13physical_planNtB5_10WindowExecNtB5_12PhysicalPlan6schema
FN:1372,_RNvXsv_NtCsk6zXnftdXdR_17sqlrustgo_planner13physical_planNtB5_10WindowExecNtB5_12PhysicalPlan8children
FNDA:1,_RNvNtNtCsk6zXnftdXdR_17sqlrustgo_planner13physical_plan5testss_14test_sort_exec
FNDA:1,_RNvNtNtCsk6zXnftdXdR_17sqlrustgo_planner13physical_plan5testss_15test_limit_exec
FNDA:1,_RNvNtNtCsk6zXnftdXdR_17sqlrustgo_planner13physical_plan5testss_16test_exists_exec
FNDA:1,_RNvNtNtCsk6zXnftdXdR_17sqlrustgo_planner13physical_plan5testss_16test_filter_exec
FNDA:1,_RNvNtNtCsk6zXnftdXdR_17sqlrustgo_planner13physical_plan5testss_18test_seq_scan_exec
FNDA:1,_RNvNtNtCsk6zXnftdXdR_17sqlrustgo_planner13physical_plan5testss_18test_sort_exec_new
FNDA:1,_RNvNtNtCsk6zXnftdXdR_17sqlrustgo_planner13physical_plan5testss_19test_aggregate_exec
FNDA:1,_RNvNtNtCsk6zXnftdXdR_17sqlrustgo_planner13physical_plan5testss_19test_hash_join_exec
FNDA:1,_RNvNtNtCsk6zXnftdXdR_17sqlrustgo_planner13physical_plan5testss_19test_limit_exec_new
FNDA:1,_RNvNtNtCsk6zXnftdXdR_17sqlrustgo_planner13physical_plan5testss_20test_projection_exec
FNDA:1,_RNvNtNtCsk6zXnftdXdR_17sqlrustgo_planner13physical_plan5testss_21test_in_subquery_exec
FNDA:1,_RNvNtNtCsk6zXnftdXdR_17sqlrustgo_planner13physical_plan5testss_21test_sort_exec_as_any
FNDA:1,_RNvNtNtCsk6zXnftdXdR_17sqlrustgo_planner13physical_plan5testss_21test_sort_exec_schema
FNDA:1,_RNvNtNtCsk6zXnftdXdR_17sqlrustgo_planner13physical_plan5testss_22test_limit_exec_as_any
FNDA:1,_RNvNtNtCsk6zXnftdXdR_17sqlrustgo_planner13physical_plan5testss_22test_sort_exec_execute
FNDA:1,_RNvNtNtCsk6zXnftdXdR_17sqlrustgo_planner13physical_plan5testss_22test_sort_exec_getters
FNDA:1,_RNvNtNtCsk6zXnftdXdR_17sqlrustgo_planner13physical_plan5testss_22test_sort_exec_methods
FNDA:1,_RNvNtNtCsk6zXnftdXdR_17sqlrustgo_planner13physical_plan5testss_23test_aggregate_exec_avg
FNDA:1,_RNvNtNtCsk6zXnftdXdR_17sqlrustgo_planner13physical_plan5testss_23test_aggregate_exec_max
FNDA:1,_RNvNtNtCsk6zXnftdXdR_17sqlrustgo_planner13physical_plan5testss_23test_aggregate_exec_min
FNDA:1,_RNvNtNtCsk6zXnftdXdR_17sqlrustgo_planner13physical_plan5testss_23test_aggregate_exec_new
FNDA:1,_RNvNtNtCsk6zXnftdXdR_17sqlrustgo_planner13physical_plan5testss_23test_aggregate_exec_sum
FNDA:1,_RNvNtNtCsk6zXnftdXdR_17sqlrustgo_planner13physical_plan5testss_23test_filter_exec_schema
FNDA:1,_RNvNtNtCsk6zXnftdXdR_17sqlrustgo_planner13physical_plan5testss_23test_limit_exec_execute
FNDA:1,_RNvNtNtCsk6zXnftdXdR_17sqlrustgo_planner13physical_plan5testss_23test_limit_exec_getters
FNDA:1,_RNvNtNtCsk6zXnftdXdR_17sqlrustgo_planner13physical_plan5testss_23test_limit_exec_methods
FNDA:1,_RNvNtNtCsk6zXnftdXdR_17sqlrustgo_planner13physical_plan5testss_23test_set_operation_exec
FNDA:1,_RNvNtNtCsk6zXnftdXdR_17sqlrustgo_planner13physical_plan5testss_23test_sort_exec_children
FNDA:1,_RNvNtNtCsk6zXnftdXdR_17sqlrustgo_planner13physical_plan5testss_24test_filter_exec_execute
FNDA:1,_RNvNtNtCsk6zXnftdXdR_17sqlrustgo_planner13physical_plan5testss_24test_filter_exec_getters
FNDA:1,_RNvNtNtCsk6zXnftdXdR_17sqlrustgo_planner13physical_plan5testss_24test_index_scan_exec_new
FNDA:1,_RNvNtNtCsk6zXnftdXdR_17sqlrustgo_planner13physical_plan5testss_24test_limit_exec_children
FNDA:1,_RNvNtNtCsk6zXnftdXdR_17sqlrustgo_planner13physical_plan5testss_24test_sort_exec_execute_2
FNDA:1,_RNvNtNtCsk6zXnftdXdR_17sqlrustgo_planner13physical_plan5testss_25test_filter_exec_children
FNDA:1,_RNvNtNtCsk6zXnftdXdR_17sqlrustgo_planner13physical_plan5testss_25test_limit_exec_execute_2
FNDA:1,_RNvNtNtCsk6zXnftdXdR_17sqlrustgo_planner13physical_plan5testss_25test_limit_exec_no_offset
FNDA:1,_RNvNtNtCsk6zXnftdXdR_17sqlrustgo_planner13physical_plan5testss_25test_projection_exec_expr
FNDA:1,_RNvNtNtCsk6zXnftdXdR_17sqlrustgo_planner13physical_plan5testss_25test_scalar_subquery_exec
FNDA:1,_RNvNtNtCsk6zXnftdXdR_17sqlrustgo_planner13physical_plan5testss_26test_aggregate_exec_as_any
FNDA:1,_RNvNtNtCsk6zXnftdXdR_17sqlrustgo_planner13physical_plan5testss_26test_aggregate_exec_schema
FNDA:1,_RNvNtNtCsk6zXnftdXdR_17sqlrustgo_planner13physical_plan5testss_26test_any_all_subquery_exec
FNDA:1,_RNvNtNtCsk6zXnftdXdR_17sqlrustgo_planner13physical_plan5testss_26test_filter_exec_predicate
FNDA:1,_RNvNtNtCsk6zXnftdXdR_17sqlrustgo_planner13physical_plan5testss_26test_filter_exec_with_less
FNDA:1,_RNvNtNtCsk6zXnftdXdR_17sqlrustgo_planner13physical_plan5testss_26test_hash_join_exec_as_any
FNDA:1,_RNvNtNtCsk6zXnftdXdR_17sqlrustgo_planner13physical_plan5testss_26test_hash_join_exec_schema
FNDA:1,_RNvNtNtCsk6zXnftdXdR_17sqlrustgo_planner13physical_plan5testss_26test_projection_exec_alias
FNDA:1,_RNvNtNtCsk6zXnftdXdR_17sqlrustgo_planner13physical_plan5testss_27test_aggregate_exec_execute
FNDA:1,_RNvNtNtCsk6zXnftdXdR_17sqlrustgo_planner13physical_plan5testss_27test_aggregate_exec_getters
FNDA:1,_RNvNtNtCsk6zXnftdXdR_17sqlrustgo_planner13physical_plan5testss_27test_aggregate_exec_methods
FNDA:1,_RNvNtNtCsk6zXnftdXdR_17sqlrustgo_planner13physical_plan5testss_27test_hash_join_exec_execute
FNDA:1,_RNvNtNtCsk6zXnftdXdR_17sqlrustgo_planner13physical_plan5testss_27test_hash_join_exec_getters
FNDA:1,_RNvNtNtCsk6zXnftdXdR_17sqlrustgo_planner13physical_plan5testss_27test_hash_join_exec_methods
FNDA:1,_RNvNtNtCsk6zXnftdXdR_17sqlrustgo_planner13physical_plan5testss_27test_limit_exec_with_offset
FNDA:1,_RNvNtNtCsk6zXnftdXdR_17sqlrustgo_planner13physical_plan5testss_27test_projection_exec_column
FNDA:1,_RNvNtNtCsk6zXnftdXdR_17sqlrustgo_planner13physical_plan5testss_27test_projection_exec_schema
FNDA:1,_RNvNtNtCsk6zXnftdXdR_17sqlrustgo_planner13physical_plan5testss_28test_aggregate_exec_group_by
FNDA:1,_RNvNtNtCsk6zXnftdXdR_17sqlrustgo_planner13physical_plan5testss_28test_filter_exec_evaluate_lt
FNDA:1,_RNvNtNtCsk6zXnftdXdR_17sqlrustgo_planner13physical_plan5testss_28test_hash_join_exec_children
FNDA:1,_RNvNtNtCsk6zXnftdXdR_17sqlrustgo_planner13physical_plan5testss_28test_index_scan_exec_execute
FNDA:1,_RNvNtNtCsk6zXnftdXdR_17sqlrustgo_planner13physical_plan5testss_28test_projection_exec_execute
FNDA:1,_RNvNtNtCsk6zXnftdXdR_17sqlrustgo_planner13physical_plan5testss_28test_projection_exec_getters
FNDA:1,_RNvNtNtCsk6zXnftdXdR_17sqlrustgo_planner13physical_plan5testss_29test_aggregate_exec_avg_float
FNDA:1,_RNvNtNtCsk6zXnftdXdR_17sqlrustgo_planner13physical_plan5testss_29test_aggregate_exec_max_float
FNDA:1,_RNvNtNtCsk6zXnftdXdR_17sqlrustgo_planner13physical_plan5testss_29test_aggregate_exec_min_float
FNDA:1,_RNvNtNtCsk6zXnftdXdR_17sqlrustgo_planner13physical_plan5testss_29test_aggregate_exec_sum_float
FNDA:1,_RNvNtNtCsk6zXnftdXdR_17sqlrustgo_planner13physical_plan5testss_29test_filter_exec_evaluate_gte
FNDA:1,_RNvNtNtCsk6zXnftdXdR_17sqlrustgo_planner13physical_plan5testss_29test_filter_exec_evaluate_neq
FNDA:1,_RNvNtNtCsk6zXnftdXdR_17sqlrustgo_planner13physical_plan5testss_29test_hash_join_exec_left_join
FNDA:1,_RNvNtNtCsk6zXnftdXdR_17sqlrustgo_planner13physical_plan5testss_29test_projection_exec_children
FNDA:1,_RNvNtNtCsk6zXnftdXdR_17sqlrustgo_planner13physical_plan5testss_29test_seq_scan_exec_projection
FNDA:1,_RNvNtNtCsk6zXnftdXdR_17sqlrustgo_planner13physical_plan5testss_29test_seq_scan_exec_table_name
FNDA:1,_RNvNtNtCsk6zXnftdXdR_17sqlrustgo_planner13physical_plan5testss_29test_sort_exec_with_sort_expr
FNDA:1,_RNvNtNtCsk6zXnftdXdR_17sqlrustgo_planner13physical_plan5testss_30test_aggregate_count_with_args
FNDA:1,_RNvNtNtCsk6zXnftdXdR_17sqlrustgo_planner13physical_plan5testss_30test_aggregate_exec_count_star
FNDA:1,_RNvNtNtCsk6zXnftdXdR_17sqlrustgo_planner13physical_plan5testss_30test_hash_join_exec_cross_join
FNDA:1,_RNvNtNtCsk6zXnftdXdR_17sqlrustgo_planner13physical_plan5testss_30test_hash_join_exec_left_outer
FNDA:1,_RNvNtNtCsk6zXnftdXdR_17sqlrustgo_planner13physical_plan5testss_30test_hash_join_exec_right_join
FNDA:1,_RNvNtNtCsk6zXnftdXdR_17sqlrustgo_planner13physical_plan5testss_31test_filter_exec_with_not_equal
FNDA:1,_RNvNtNtCsk6zXnftdXdR_17sqlrustgo_planner13physical_plan5testss_31test_projection_exec_with_alias
FNDA:1,_RNvNtNtCsk6zXnftdXdR_17sqlrustgo_planner13physical_plan5testss_32test_aggregate_exec_count_column
FNDA:1,_RNvNtNtCsk6zXnftdXdR_17sqlrustgo_planner13physical_plan5testss_32test_filter_exec_with_less_equal
FNDA:1,_RNvNtNtCsk6zXnftdXdR_17sqlrustgo_planner13physical_plan5testss_33test_filter_evaluate_expr_literal
FNDA:1,_RNvNtNtCsk6zXnftdXdR_17sqlrustgo_planner13physical_plan5testss_33test_filter_exec_execute_with_and
FNDA:1,_RNvNtNtCsk6zXnftdXdR_17sqlrustgo_planner13physical_plan5testss_33test_hash_join_execute_inner_join
FNDA:1,_RNvNtNtCsk6zXnftdXdR_17sqlrustgo_planner13physical_plan5testss_33test_sort_merge_join_exec_methods
FNDA:1,_RNvNtNtCsk6zXnftdXdR_17sqlrustgo_planner13physical_plan5testss_34test_aggregate_exec_count_distinct
FNDA:1,_RNvNtNtCsk6zXnftdXdR_17sqlrustgo_planner13physical_plan5testss_34test_filter_exec_with_lte_operator
FNDA:1,_RNvNtNtCsk6zXnftdXdR_17sqlrustgo_planner13physical_plan5testss_34test_filter_exec_with_or_predicate
FNDA:1,_RNvNtNtCsk6zXnftdXdR_17sqlrustgo_planner13physical_plan5testss_34test_projection_exec_execute_alias
FNDA:1,_RNvNtNtCsk6zXnftdXdR_17sqlrustgo_planner13physical_plan5testss_34test_projection_exec_execute_float
FNDA:1,_RNvNtNtCsk6zXnftdXdR_17sqlrustgo_planner13physical_plan5testss_34test_projection_exec_execute_minus
FNDA:1,_RNvNtNtCsk6zXnftdXdR_17sqlrustgo_planner13physical_plan5testss_34test_seq_scan_exec_with_projection
FNDA:1,_RNvNtNtCsk6zXnftdXdR_17sqlrustgo_planner13physical_plan5testss_35test_aggregate_avg_with_mixed_types
FNDA:1,_RNvNtNtCsk6zXnftdXdR_17sqlrustgo_planner13physical_plan5testss_35test_aggregate_max_with_mixed_types
FNDA:1,_RNvNtNtCsk6zXnftdXdR_17sqlrustgo_planner13physical_plan5testss_35test_aggregate_min_with_mixed_types
FNDA:1,_RNvNtNtCsk6zXnftdXdR_17sqlrustgo_planner13physical_plan5testss_35test_filter_exec_with_greater_equal
FNDA:1,_RNvNtNtCsk6zXnftdXdR_17sqlrustgo_planner13physical_plan5testss_35test_index_scan_exec_with_key_range
FNDA:1,_RNvNtNtCsk6zXnftdXdR_17sqlrustgo_planner13physical_plan5testss_35test_limit_exec_execute_with_offset
FNDA:1,_RNvNtNtCsk6zXnftdXdR_17sqlrustgo_planner13physical_plan5testss_35test_projection_exec_evaluate_unary
FNDA:1,_RNvNtNtCsk6zXnftdXdR_17sqlrustgo_planner13physical_plan5testss_35test_projection_exec_execute_divide
FNDA:1,_RNvNtNtCsk6zXnftdXdR_17sqlrustgo_planner13physical_plan5testss_36test_aggregate_avg_with_float_values
FNDA:1,_RNvNtNtCsk6zXnftdXdR_17sqlrustgo_planner13physical_plan5testss_36test_aggregate_exec_execute_with_avg
FNDA:1,_RNvNtNtCsk6zXnftdXdR_17sqlrustgo_planner13physical_plan5testss_36test_aggregate_exec_execute_with_max
FNDA:1,_RNvNtNtCsk6zXnftdXdR_17sqlrustgo_planner13physical_plan5testss_36test_aggregate_exec_execute_with_min
FNDA:1,_RNvNtNtCsk6zXnftdXdR_17sqlrustgo_planner13physical_plan5testss_36test_aggregate_max_with_float_values
FNDA:1,_RNvNtNtCsk6zXnftdXdR_17sqlrustgo_planner13physical_plan5testss_36test_aggregate_min_with_float_values
FNDA:1,_RNvNtNtCsk6zXnftdXdR_17sqlrustgo_planner13physical_plan5testss_36test_aggregate_sum_with_float_values
FNDA:1,_RNvNtNtCsk6zXnftdXdR_17sqlrustgo_planner13physical_plan5testss_37test_projection_exec_evaluate_literal
FNDA:1,_RNvNtNtCsk6zXnftdXdR_17sqlrustgo_planner13physical_plan5testss_37test_projection_exec_execute_multiply
FNDA:1,_RNvNtNtCsk6zXnftdXdR_17sqlrustgo_planner13physical_plan5testss_37test_projection_exec_execute_wildcard
FNDA:1,_RNvNtNtCsk6zXnftdXdR_17sqlrustgo_planner13physical_plan5testss_38test_filter_compare_values_non_integer
FNDA:1,_RNvNtNtCsk6zXnftdXdR_17sqlrustgo_planner13physical_plan5testss_38test_projection_arithmetic_mixed_types
FNDA:1,_RNvNtNtCsk6zXnftdXdR_17sqlrustgo_planner13physical_plan5testss_38test_projection_exec_evaluate_wildcard
FNDA:1,_RNvNtNtCsk6zXnftdXdR_17sqlrustgo_planner13physical_plan5testss_39test_aggregate_sum_with_mixed_int_float
FNDA:1,_RNvNtNtCsk6zXnftdXdR_17sqlrustgo_planner13physical_plan5testss_39test_filter_exec_with_literal_predicate
FNDA:1,_RNvNtNtCsk6zXnftdXdR_17sqlrustgo_planner13physical_plan5testss_39test_projection_exec_execute_with_exprs
FNDA:1,_RNvNtNtCsk6zXnftdXdR_17sqlrustgo_planner13physical_plan5testss_40test_physical_plan_trait_default_methods
FNDA:1,_RNvNtNtCsk6zXnftdXdR_17sqlrustgo_planner13physical_plan5testss_40test_projection_exec_execute_empty_exprs
FNDA:1,_RNvNtNtCsk6zXnftdXdR_17sqlrustgo_planner13physical_plan5testss_41test_aggregate_exec_execute_with_distinct
FNDA:1,_RNvNtNtCsk6zXnftdXdR_17sqlrustgo_planner13physical_plan5testss_41test_filter_exec_with_complex_binary_expr
FNDA:1,_RNvNtNtCsk6zXnftdXdR_17sqlrustgo_planner13physical_plan5testss_41test_projection_exec_evaluate_binary_plus
FNDA:1,_RNvNtNtCsk6zXnftdXdR_17sqlrustgo_planner13physical_plan5testss_41test_projection_exec_evaluate_unary_minus
FNDA:1,_RNvNtNtCsk6zXnftdXdR_17sqlrustgo_planner13physical_plan5testss_42test_aggregate_exec_evaluate_expr_wildcard
FNDA:1,_RNvNtNtCsk6zXnftdXdR_17sqlrustgo_planner13physical_plan5testss_42test_aggregate_exec_execute_with_avg_float
FNDA:1,_RNvNtNtCsk6zXnftdXdR_17sqlrustgo_planner13physical_plan5testss_42test_aggregate_exec_execute_with_max_float
FNDA:1,_RNvNtNtCsk6zXnftdXdR_17sqlrustgo_planner13physical_plan5testss_42test_aggregate_exec_execute_with_min_float
FNDA:1,_RNvNtNtCsk6zXnftdXdR_17sqlrustgo_planner13physical_plan5testss_42test_aggregate_exec_execute_with_sum_float
FNDA:1,_RNvNtNtCsk6zXnftdXdR_17sqlrustgo_planner13physical_plan5testss_42test_aggregate_exec_with_multiple_group_by
FNDA:1,_RNvNtNtCsk6zXnftdXdR_17sqlrustgo_planner13physical_plan5testss_42test_hash_join_exec_execute_with_condition
FNDA:1,_RNvNtNtCsk6zXnftdXdR_17sqlrustgo_planner13physical_plan5testss_42test_hash_join_exec_getters_with_condition
FNDA:1,_RNvNtNtCsk6zXnftdXdR_17sqlrustgo_planner13physical_plan5testss_42test_projection_exec_evaluate_binary_minus
FNDA:1,_RNvNtNtCsk6zXnftdXdR_17sqlrustgo_planner13physical_plan5testss_43test_aggregate_exec_execute_with_count_star
FNDA:1,_RNvNtNtCsk6zXnftdXdR_17sqlrustgo_planner13physical_plan5testss_43test_filter_compare_values_float_comparison
FNDA:1,_RNvNtNtCsk6zXnftdXdR_17sqlrustgo_planner13physical_plan5testss_43test_projection_exec_evaluate_binary_divide
FNDA:1,_RNvNtNtCsk6zXnftdXdR_17sqlrustgo_planner13physical_plan5testss_43test_projection_exec_evaluate_binary_modulo
FNDA:1,_RNvNtNtCsk6zXnftdXdR_17sqlrustgo_planner13physical_plan5testss_45test_aggregate_exec_group_by_multiple_columns
FNDA:1,_RNvNtNtCsk6zXnftdXdR_17sqlrustgo_planner13physical_plan5testss_45test_projection_exec_evaluate_binary_multiply
FNDA:1,_RNvNtNtCsk6zXnftdXdR_17sqlrustgo_planner13physical_plan5testss_46test_filter_evaluate_predicate_integer_literal
FNDA:1,_RNvNtNtCsk6zXnftdXdR_17sqlrustgo_planner13physical_plan5testss_46test_projection_exec_evaluate_column_not_found
FNDA:1,_RNvNtNtCsk6zXnftdXdR_17sqlrustgo_planner13physical_plan5testss_46test_projection_exec_evaluate_float_operations
FNDA:1,_RNvNtNtCsk6zXnftdXdR_17sqlrustgo_planner13physical_plan5testss_47test_aggregate_exec_execute_multiple_aggregates
FNDA:1,_RNvNtNtCsk6zXnftdXdR_17sqlrustgo_planner13physical_plan5testss_49test_projection_arithmetic_float_division_by_zero
FNDA:1,_RNvNtNtCsk6zXnftdXdR_17sqlrustgo_planner13physical_plan5testss_49test_projection_arithmetic_float_non_division_ops
FNDA:1,_RNvNtNtCsk6zXnftdXdR_17sqlrustgo_planner13physical_plan5testss_49test_projection_arithmetic_integer_modulo_by_zero
FNDA:1,_RNvNtNtCsk6zXnftdXdR_17sqlrustgo_planner13physical_plan5testss_51test_filter_compare_values_non_comparison_operators
FNDA:1,_RNvNtNtCsk6zXnftdXdR_17sqlrustgo_planner13physical_plan5testss_51test_projection_arithmetic_integer_division_by_zero
FNDA:1,_RNvNtNtCsk6zXnftdXdR_17sqlrustgo_planner13physical_plan5testss_55test_projection_arithmetic_non_arithmetic_op_on_integer
FNDA:0,_RNCNvXs1_NtCsk6zXnftdXdR_17sqlrustgo_planner13physical_planNtB7_16ColumnarScanExecNtB7_12PhysicalPlan14estimated_cost0B9_
FNDA:0,_RNvMNtCsk6zXnftdXdR_17sqlrustgo_planner13physical_planNtB2_11SeqScanExec5limit
FNDA:0,_RNvMNtCsk6zXnftdXdR_17sqlrustgo_planner13physical_planNtB2_11SeqScanExec9predicate
FNDA:0,_RNvMs0_NtCsk6zXnftdXdR_17sqlrustgo_planner13physical_planNtB5_16ColumnarScanExec10projection
FNDA:0,_RNvMs0_NtCsk6zXnftdXdR_17sqlrustgo_planner13physical_planNtB5_16ColumnarScanExec10table_name
FNDA:0,_RNvMs0_NtCsk6zXnftdXdR_17sqlrustgo_planner13physical_planNtB5_16ColumnarScanExec3new
FNDA:0,_RNvMsa_NtCsk6zXnftdXdR_17sqlrustgo_planner13physical_planNtB5_18ScalarSubqueryExec7execute
FNDA:0,_RNvMsc_NtCsk6zXnftdXdR_17sqlrustgo_planner13physical_planNtB5_14InSubqueryExec4expr
FNDA:0,_RNvMsc_NtCsk6zXnftdXdR_17sqlrustgo_planner13physical_planNtB5_14InSubqueryExec8subquery
FNDA:0,_RNvMse_NtCsk6zXnftdXdR_17sqlrustgo_planner13physical_planNtB5_10ExistsExec7execute
FNDA:0,_RNvMsg_NtCsk6zXnftdXdR_17sqlrustgo_planner13physical_planNtB5_18AnyAllSubqueryExec2op
FNDA:0,_RNvMsg_NtCsk6zXnftdXdR_17sqlrustgo_planner13physical_planNtB5_18AnyAllSubqueryExec4expr
FNDA:0,_RNvMsi_NtCsk6zXnftdXdR_17sqlrustgo_planner13physical_planNtB5_13AggregateExec11having_expr
FNDA:0,_RNvMsm_NtCsk6zXnftdXdR_17sqlrustgo_planner13physical_planNtB5_17SortMergeJoinExec4left
FNDA:0,_RNvMsm_NtCsk6zXnftdXdR_17sqlrustgo_planner13physical_planNtB5_17SortMergeJoinExec5right
FNDA:0,_RNvMsm_NtCsk6zXnftdXdR_17sqlrustgo_planner13physical_planNtB5_17SortMergeJoinExec9condition
FNDA:0,_RNvMss_NtCsk6zXnftdXdR_17sqlrustgo_planner13physical_planNtB5_16SetOperationExec4left
FNDA:0,_RNvMss_NtCsk6zXnftdXdR_17sqlrustgo_planner13physical_planNtB5_16SetOperationExec5right
FNDA:0,_RNvMsu_NtCsk6zXnftdXdR_17sqlrustgo_planner13physical_planNtB5_10WindowExec12partition_by
FNDA:0,_RNvMsu_NtCsk6zXnftdXdR_17sqlrustgo_planner13physical_planNtB5_10WindowExec12window_exprs
FNDA:0,_RNvMsu_NtCsk6zXnftdXdR_17sqlrustgo_planner13physical_planNtB5_10WindowExec5input
FNDA:0,_RNvMsu_NtCsk6zXnftdXdR_17sqlrustgo_planner13physical_planNtB5_10WindowExec8order_by
FNDA:0,_RNvXs1_NtCsk6zXnftdXdR_17sqlrustgo_planner13physical_planNtB5_16ColumnarScanExecNtB5_12PhysicalPlan10table_name
FNDA:0,_RNvXs1_NtCsk6zXnftdXdR_17sqlrustgo_planner13physical_planNtB5_16ColumnarScanExecNtB5_12PhysicalPlan14estimated_cost
FNDA:0,_RNvXs1_NtCsk6zXnftdXdR_17sqlrustgo_planner13physical_planNtB5_16ColumnarScanExecNtB5_12PhysicalPlan4name
FNDA:0,_RNvXs1_NtCsk6zXnftdXdR_17sqlrustgo_planner13physical_planNtB5_16ColumnarScanExecNtB5_12PhysicalPlan6as_any
FNDA:0,_RNvXs1_NtCsk6zXnftdXdR_17sqlrustgo_planner13physical_planNtB5_16ColumnarScanExecNtB5_12PhysicalPlan6schema
FNDA:0,_RNvXs1_NtCsk6zXnftdXdR_17sqlrustgo_planner13physical_planNtB5_16ColumnarScanExecNtB5_12PhysicalPlan7execute
FNDA:0,_RNvXs1_NtCsk6zXnftdXdR_17sqlrustgo_planner13physical_planNtB5_16ColumnarScanExecNtB5_12PhysicalPlan8children
FNDA:0,_RNvXsb_NtCsk6zXnftdXdR_17sqlrustgo_planner13physical_planNtB5_18ScalarSubqueryExecNtB5_12PhysicalPlan6as_any
FNDA:0,_RNvXsb_NtCsk6zXnftdXdR_17sqlrustgo_planner13physical_planNtB5_18ScalarSubqueryExecNtB5_12PhysicalPlan7execute
FNDA:0,_RNvXsb_NtCsk6zXnftdXdR_17sqlrustgo_planner13physical_planNtB5_18ScalarSubqueryExecNtB5_12PhysicalPlan8children
FNDA:0,_RNvXsd_NtCsk6zXnftdXdR_17sqlrustgo_planner13physical_planNtB5_14InSubqueryExecNtB5_12PhysicalPlan6as_any
FNDA:0,_RNvXsd_NtCsk6zXnftdXdR_17sqlrustgo_planner13physical_planNtB5_14InSubqueryExecNtB5_12PhysicalPlan7execute
FNDA:0,_RNvXsd_NtCsk6zXnftdXdR_17sqlrustgo_planner13physical_planNtB5_14InSubqueryExecNtB5_12PhysicalPlan8children
FNDA:0,_RNvXsf_NtCsk6zXnftdXdR_17sqlrustgo_planner13physical_planNtB5_10ExistsExecNtB5_12PhysicalPlan6as_any
FNDA:0,_RNvXsf_NtCsk6zXnftdXdR_17sqlrustgo_planner13physical_planNtB5_10ExistsExecNtB5_12PhysicalPlan7execute
FNDA:0,_RNvXsf_NtCsk6zXnftdXdR_17sqlrustgo_planner13physical_planNtB5_10ExistsExecNtB5_12PhysicalPlan8children
FNDA:0,_RNvXsh_NtCsk6zXnftdXdR_17sqlrustgo_planner13physical_planNtB5_18AnyAllSubqueryExecNtB5_12PhysicalPlan6as_any
FNDA:0,_RNvXsh_NtCsk6zXnftdXdR_17sqlrustgo_planner13physical_planNtB5_18AnyAllSubqueryExecNtB5_12PhysicalPlan6schema
FNDA:0,_RNvXsh_NtCsk6zXnftdXdR_17sqlrustgo_planner13physical_planNtB5_18AnyAllSubqueryExecNtB5_12PhysicalPlan7execute
FNDA:0,_RNvXsh_NtCsk6zXnftdXdR_17sqlrustgo_planner13physical_planNtB5_18AnyAllSubqueryExecNtB5_12PhysicalPlan8children
FNDA:0,_RNCNvMs6_NtCsk6zXnftdXdR_17sqlrustgo_planner13physical_planNtB7_14ProjectionExec13evaluate_expr0B9_
FNDA:2,_RNCNvMsi_NtCsk6zXnftdXdR_17sqlrustgo_planner13physical_planNtB7_13AggregateExec17compute_aggregate0B9_
FNDA:0,_RNCNvXs8_NtCsk6zXnftdXdR_17sqlrustgo_planner13physical_planNtB7_10FilterExecNtB7_12PhysicalPlan7execute0B9_
FNDA:0,_RNCNvXs_NtCsk6zXnftdXdR_17sqlrustgo_planner13physical_planNtB6_11SeqScanExecNtB6_12PhysicalPlan14estimated_cost0B8_
FNDA:0,_RNCNvXsj_NtCsk6zXnftdXdR_17sqlrustgo_planner13physical_planNtB7_13AggregateExecNtB7_12PhysicalPlan7executes0_0B9_
FNDA:0,_RNCNvXsj_NtCsk6zXnftdXdR_17sqlrustgo_planner13physical_planNtB7_13AggregateExecNtB7_12PhysicalPlan7executes2_0B9_
FNDA:0,_RNCNvXsj_NtCsk6zXnftdXdR_17sqlrustgo_planner13physical_planNtB7_13AggregateExecNtB7_12PhysicalPlan7executes_0B9_
FNDA:0,_RNCNvYNtNtCsk6zXnftdXdR_17sqlrustgo_planner13physical_plan10FilterExecNtB6_12PhysicalPlan14estimated_cost0B8_
FNDA:0,_RNCNvYNtNtCsk6zXnftdXdR_17sqlrustgo_planner13physical_plan10FilterExecNtB6_12PhysicalPlan14estimated_costs_0B8_
FNDA:0,_RNCNvYNtNtCsk6zXnftdXdR_17sqlrustgo_planner13physical_plan10WindowExecNtB6_12PhysicalPlan14estimated_cost0B8_
FNDA:0,_RNCNvYNtNtCsk6zXnftdXdR_17sqlrustgo_planner13physical_plan10WindowExecNtB6_12PhysicalPlan14estimated_costs_0B8_
FNDA:0,_RNCNvYNtNtCsk6zXnftdXdR_17sqlrustgo_planner13physical_plan12HashJoinExecNtB6_12PhysicalPlan14estimated_cost0B8_
FNDA:0,_RNCNvYNtNtCsk6zXnftdXdR_17sqlrustgo_planner13physical_plan12HashJoinExecNtB6_12PhysicalPlan14estimated_costs_0B8_
FNDA:0,_RNCNvYNtNtCsk6zXnftdXdR_17sqlrustgo_planner13physical_plan13AggregateExecNtB6_12PhysicalPlan14estimated_cost0B8_
FNDA:0,_RNCNvYNtNtCsk6zXnftdXdR_17sqlrustgo_planner13physical_plan13AggregateExecNtB6_12PhysicalPlan14estimated_costs_0B8_
FNDA:0,_RNCNvYNtNtCsk6zXnftdXdR_17sqlrustgo_planner13physical_plan13IndexScanExecNtB6_12PhysicalPlan14estimated_cost0B8_
FNDA:0,_RNCNvYNtNtCsk6zXnftdXdR_17sqlrustgo_planner13physical_plan13IndexScanExecNtB6_12PhysicalPlan14estimated_costs_0B8_
FNDA:0,_RNCNvYNtNtCsk6zXnftdXdR_17sqlrustgo_planner13physical_plan14ProjectionExecNtB6_12PhysicalPlan14estimated_cost0B8_
FNDA:0,_RNCNvYNtNtCsk6zXnftdXdR_17sqlrustgo_planner13physical_plan14ProjectionExecNtB6_12PhysicalPlan14estimated_costs_0B8_
FNDA:0,_RNCNvYNtNtCsk6zXnftdXdR_17sqlrustgo_planner13physical_plan16SetOperationExecNtB6_12PhysicalPlan14estimated_cost0B8_
FNDA:0,_RNCNvYNtNtCsk6zXnftdXdR_17sqlrustgo_planner13physical_plan16SetOperationExecNtB6_12PhysicalPlan14estimated_costs_0B8_
FNDA:0,_RNCNvYNtNtCsk6zXnftdXdR_17sqlrustgo_planner13physical_plan17SortMergeJoinExecNtB6_12PhysicalPlan14estimated_cost0B8_
FNDA:0,_RNCNvYNtNtCsk6zXnftdXdR_17sqlrustgo_planner13physical_plan17SortMergeJoinExecNtB6_12PhysicalPlan14estimated_costs_0B8_
FNDA:0,_RNCNvYNtNtCsk6zXnftdXdR_17sqlrustgo_planner13physical_plan8SortExecNtB6_12PhysicalPlan14estimated_cost0B8_
FNDA:0,_RNCNvYNtNtCsk6zXnftdXdR_17sqlrustgo_planner13physical_plan8SortExecNtB6_12PhysicalPlan14estimated_costs_0B8_
FNDA:0,_RNCNvYNtNtCsk6zXnftdXdR_17sqlrustgo_planner13physical_plan9LimitExecNtB6_12PhysicalPlan14estimated_cost0B8_
FNDA:0,_RNCNvYNtNtCsk6zXnftdXdR_17sqlrustgo_planner13physical_plan9LimitExecNtB6_12PhysicalPlan14estimated_costs_0B8_
FNDA:0,_RNCNvYNtNtNtCsk6zXnftdXdR_17sqlrustgo_planner8prepared5tests16MockPhysicalPlanNtNtBa_13physical_plan12PhysicalPlan14estimated_cost0Ba_
FNDA:0,_RNCNvYNtNtNtCsk6zXnftdXdR_17sqlrustgo_planner8prepared5tests16MockPhysicalPlanNtNtBa_13physical_plan12PhysicalPlan14estimated_costs_0Ba_
FNDA:0,_RNvYNtNtCsk6zXnftdXdR_17sqlrustgo_planner13physical_plan10FilterExecNtB4_12PhysicalPlan10table_nameB6_
FNDA:0,_RNvYNtNtCsk6zXnftdXdR_17sqlrustgo_planner13physical_plan10FilterExecNtB4_12PhysicalPlan14estimated_costB6_
FNDA:0,_RNvYNtNtCsk6zXnftdXdR_17sqlrustgo_planner13physical_plan10WindowExecNtB4_12PhysicalPlan10table_nameB6_
FNDA:0,_RNvYNtNtCsk6zXnftdXdR_17sqlrustgo_planner13physical_plan10WindowExecNtB4_12PhysicalPlan14estimated_costB6_
FNDA:0,_RNvYNtNtCsk6zXnftdXdR_17sqlrustgo_planner13physical_plan10WindowExecNtB4_12PhysicalPlan7executeB6_
FNDA:0,_RNvYNtNtCsk6zXnftdXdR_17sqlrustgo_planner13physical_plan12HashJoinExecNtB4_12PhysicalPlan10table_nameB6_
FNDA:0,_RNvYNtNtCsk6zXnftdXdR_17sqlrustgo_planner13physical_plan12HashJoinExecNtB4_12PhysicalPlan14estimated_costB6_
FNDA:3,_RNvYNtNtCsk6zXnftdXdR_17sqlrustgo_planner13physical_plan12HashJoinExecNtB4_12PhysicalPlan7executeB6_
FNDA:0,_RNvYNtNtCsk6zXnftdXdR_17sqlrustgo_planner13physical_plan13AggregateExecNtB4_12PhysicalPlan10table_nameB6_
FNDA:0,_RNvYNtNtCsk6zXnftdXdR_17sqlrustgo_planner13physical_plan13AggregateExecNtB4_12PhysicalPlan14estimated_costB6_
FNDA:0,_RNvYNtNtCsk6zXnftdXdR_17sqlrustgo_planner13physical_plan13IndexScanExecNtB4_12PhysicalPlan14estimated_costB6_
FNDA:0,_RNvYNtNtCsk6zXnftdXdR_17sqlrustgo_planner13physical_plan14ProjectionExecNtB4_12PhysicalPlan10table_nameB6_
FNDA:0,_RNvYNtNtCsk6zXnftdXdR_17sqlrustgo_planner13physical_plan14ProjectionExecNtB4_12PhysicalPlan14estimated_costB6_
FNDA:0,_RNvYNtNtCsk6zXnftdXdR_17sqlrustgo_planner13physical_plan16SetOperationExecNtB4_12PhysicalPlan10table_nameB6_
FNDA:0,_RNvYNtNtCsk6zXnftdXdR_17sqlrustgo_planner13physical_plan16SetOperationExecNtB4_12PhysicalPlan14estimated_costB6_
FNDA:0,_RNvYNtNtCsk6zXnftdXdR_17sqlrustgo_planner13physical_plan17SortMergeJoinExecNtB4_12PhysicalPlan10table_nameB6_
FNDA:0,_RNvYNtNtCsk6zXnftdXdR_17sqlrustgo_planner13physical_plan17SortMergeJoinExecNtB4_12PhysicalPlan14estimated_costB6_
FNDA:0,_RNvYNtNtCsk6zXnftdXdR_17sqlrustgo_planner13physical_plan17SortMergeJoinExecNtB4_12PhysicalPlan7executeB6_
FNDA:0,_RNvYNtNtCsk6zXnftdXdR_17sqlrustgo_planner13physical_plan8SortExecNtB4_12PhysicalPlan10table_nameB6_
FNDA:0,_RNvYNtNtCsk6zXnftdXdR_17sqlrustgo_planner13physical_plan8SortExecNtB4_12PhysicalPlan14estimated_costB6_
FNDA:2,_RNvYNtNtCsk6zXnftdXdR_17sqlrustgo_planner13physical_plan8SortExecNtB4_12PhysicalPlan7executeB6_
FNDA:0,_RNvYNtNtCsk6zXnftdXdR_17sqlrustgo_planner13physical_plan9LimitExecNtB4_12PhysicalPlan10table_nameB6_
FNDA:0,_RNvYNtNtCsk6zXnftdXdR_17sqlrustgo_planner13physical_plan9LimitExecNtB4_12PhysicalPlan14estimated_costB6_
FNDA:3,_RNvYNtNtCsk6zXnftdXdR_17sqlrustgo_planner13physical_plan9LimitExecNtB4_12PhysicalPlan7executeB6_
FNDA:0,_RNvYNtNtNtCsk6zXnftdXdR_17sqlrustgo_planner8prepared5tests16MockPhysicalPlanNtNtB8_13physical_plan12PhysicalPlan10table_nameB8_
FNDA:0,_RNvYNtNtNtCsk6zXnftdXdR_17sqlrustgo_planner8prepared5tests16MockPhysicalPlanNtNtB8_13physical_plan12PhysicalPlan14estimated_costB8_
FNDA:0,_RNvYNtNtNtCsk6zXnftdXdR_17sqlrustgo_planner8prepared5tests16MockPhysicalPlanNtNtB8_13physical_plan12PhysicalPlan7executeB8_
FNDA:2,_RNvMNtCsk6zXnftdXdR_17sqlrustgo_planner13physical_planNtB2_11SeqScanExec10projection
FNDA:2,_RNvMNtCsk6zXnftdXdR_17sqlrustgo_planner13physical_planNtB2_11SeqScanExec10table_name
FNDA:1,_RNvMNtCsk6zXnftdXdR_17sqlrustgo_planner13physical_planNtB2_11SeqScanExec10with_limit
FNDA:1,_RNvMNtCsk6zXnftdXdR_17sqlrustgo_planner13physical_planNtB2_11SeqScanExec14with_predicate
FNDA:3,_RNvMNtCsk6zXnftdXdR_17sqlrustgo_planner13physical_planNtB2_11SeqScanExec15with_projection
FNDA:184,_RNvMNtCsk6zXnftdXdR_17sqlrustgo_planner13physical_planNtB2_11SeqScanExec3new
FNDA:1,_RNvMs2_NtCsk6zXnftdXdR_17sqlrustgo_planner13physical_planNtB5_13IndexScanExec10index_name
FNDA:1,_RNvMs2_NtCsk6zXnftdXdR_17sqlrustgo_planner13physical_planNtB5_13IndexScanExec10table_name
FNDA:1,_RNvMs2_NtCsk6zXnftdXdR_17sqlrustgo_planner13physical_planNtB5_13IndexScanExec14with_key_range
FNDA:3,_RNvMs2_NtCsk6zXnftdXdR_17sqlrustgo_planner13physical_planNtB5_13IndexScanExec3new
FNDA:1,_RNvMs2_NtCsk6zXnftdXdR_17sqlrustgo_planner13physical_planNtB5_13IndexScanExec8key_expr
FNDA:1,_RNvMs2_NtCsk6zXnftdXdR_17sqlrustgo_planner13physical_planNtB5_13IndexScanExec9key_range
FNDA:35,_RNvMs4_NtCsk6zXnftdXdR_17sqlrustgo_planner13physical_planNtB5_14ProjectionExec3new
FNDA:18,_RNvMs6_NtCsk6zXnftdXdR_17sqlrustgo_planner13physical_planNtB5_14ProjectionExec13evaluate_expr
FNDA:6,_RNvMs6_NtCsk6zXnftdXdR_17sqlrustgo_planner13physical_planNtB5_14ProjectionExec19evaluate_arithmetic
FNDA:2,_RNvMs6_NtCsk6zXnftdXdR_17sqlrustgo_planner13physical_planNtB5_14ProjectionExec4expr
FNDA:1,_RNvMs6_NtCsk6zXnftdXdR_17sqlrustgo_planner13physical_planNtB5_14ProjectionExec5input
FNDA:23,_RNvMs7_NtCsk6zXnftdXdR_17sqlrustgo_planner13physical_planNtB5_10FilterExec3new
FNDA:1,_RNvMs7_NtCsk6zXnftdXdR_17sqlrustgo_planner13physical_planNtB5_10FilterExec5input
FNDA:2,_RNvMs7_NtCsk6zXnftdXdR_17sqlrustgo_planner13physical_planNtB5_10FilterExec9predicate
FNDA:5,_RNvMs9_NtCsk6zXnftdXdR_17sqlrustgo_planner13physical_planNtB5_10FilterExec13evaluate_expr
FNDA:4,_RNvMs9_NtCsk6zXnftdXdR_17sqlrustgo_planner13physical_planNtB5_10FilterExec14compare_values
FNDA:4,_RNvMs9_NtCsk6zXnftdXdR_17sqlrustgo_planner13physical_planNtB5_10FilterExec18evaluate_predicate
FNDA:1,_RNvMsa_NtCsk6zXnftdXdR_17sqlrustgo_planner13physical_planNtB5_18ScalarSubqueryExec3new
FNDA:1,_RNvMsc_NtCsk6zXnftdXdR_17sqlrustgo_planner13physical_planNtB5_14InSubqueryExec3new
FNDA:1,_RNvMse_NtCsk6zXnftdXdR_17sqlrustgo_planner13physical_planNtB5_10ExistsExec3new
FNDA:1,_RNvMsg_NtCsk6zXnftdXdR_17sqlrustgo_planner13physical_planNtB5_18AnyAllSubqueryExec3new
FNDA:1,_RNvMsg_NtCsk6zXnftdXdR_17sqlrustgo_planner13physical_planNtB5_18AnyAllSubqueryExec7any_all
FNDA:2,_RNvMsi_NtCsk6zXnftdXdR_17sqlrustgo_planner13physical_planNtB5_13AggregateExec10group_expr
FNDA:0,_RNvMsi_NtCsk6zXnftdXdR_17sqlrustgo_planner13physical_planNtB5_13AggregateExec13evaluate_expr
FNDA:1,_RNvMsi_NtCsk6zXnftdXdR_17sqlrustgo_planner13physical_planNtB5_13AggregateExec14aggregate_expr
FNDA:26,_RNvMsi_NtCsk6zXnftdXdR_17sqlrustgo_planner13physical_planNtB5_13AggregateExec17compute_aggregate
FNDA:43,_RNvMsi_NtCsk6zXnftdXdR_17sqlrustgo_planner13physical_planNtB5_13AggregateExec3new
FNDA:1,_RNvMsi_NtCsk6zXnftdXdR_17sqlrustgo_planner13physical_planNtB5_13AggregateExec5input
FNDA:15,_RNvMsk_NtCsk6zXnftdXdR_17sqlrustgo_planner13physical_planNtB5_12HashJoinExec3new
FNDA:1,_RNvMsk_NtCsk6zXnftdXdR_17sqlrustgo_planner13physical_planNtB5_12HashJoinExec4left
FNDA:1,_RNvMsk_NtCsk6zXnftdXdR_17sqlrustgo_planner13physical_planNtB5_12HashJoinExec5right
FNDA:2,_RNvMsk_NtCsk6zXnftdXdR_17sqlrustgo_planner13physical_planNtB5_12HashJoinExec9condition
FNDA:2,_RNvMsk_NtCsk6zXnftdXdR_17sqlrustgo_planner13physical_planNtB5_12HashJoinExec9join_type
FNDA:1,_RNvMsm_NtCsk6zXnftdXdR_17sqlrustgo_planner13physical_planNtB5_17SortMergeJoinExec10right_keys
FNDA:1,_RNvMsm_NtCsk6zXnftdXdR_17sqlrustgo_planner13physical_planNtB5_17SortMergeJoinExec3new
FNDA:1,_RNvMsm_NtCsk6zXnftdXdR_17sqlrustgo_planner13physical_planNtB5_17SortMergeJoinExec9join_type
FNDA:1,_RNvMsm_NtCsk6zXnftdXdR_17sqlrustgo_planner13physical_planNtB5_17SortMergeJoinExec9left_keys
FNDA:11,_RNvMso_NtCsk6zXnftdXdR_17sqlrustgo_planner13physical_planNtB5_8SortExec3new
FNDA:1,_RNvMso_NtCsk6zXnftdXdR_17sqlrustgo_planner13physical_planNtB5_8SortExec5input
FNDA:2,_RNvMso_NtCsk6zXnftdXdR_17sqlrustgo_planner13physical_planNtB5_8SortExec9sort_expr
FNDA:12,_RNvMsq_NtCsk6zXnftdXdR_17sqlrustgo_planner13physical_planNtB5_9LimitExec3new
FNDA:1,_RNvMsq_NtCsk6zXnftdXdR_17sqlrustgo_planner13physical_planNtB5_9LimitExec5input
FNDA:3,_RNvMsq_NtCsk6zXnftdXdR_17sqlrustgo_planner13physical_planNtB5_9LimitExec5limit
FNDA:4,_RNvMsq_NtCsk6zXnftdXdR_17sqlrustgo_planner13physical_planNtB5_9LimitExec6offset
FNDA:2,_RNvMss_NtCsk6zXnftdXdR_17sqlrustgo_planner13physical_planNtB5_16SetOperationExec3new
FNDA:1,_RNvMss_NtCsk6zXnftdXdR_17sqlrustgo_planner13physical_planNtB5_16SetOperationExec7op_type
FNDA:0,_RNvMsu_NtCsk6zXnftdXdR_17sqlrustgo_planner13physical_planNtB5_10WindowExec3new
FNDA:0,_RNvXs3_NtCsk6zXnftdXdR_17sqlrustgo_planner13physical_planNtB5_13IndexScanExecNtB5_12PhysicalPlan10table_name
FNDA:1,_RNvXs3_NtCsk6zXnftdXdR_17sqlrustgo_planner13physical_planNtB5_13IndexScanExecNtB5_12PhysicalPlan4name
FNDA:0,_RNvXs3_NtCsk6zXnftdXdR_17sqlrustgo_planner13physical_planNtB5_13IndexScanExecNtB5_12PhysicalPlan6as_any
FNDA:1,_RNvXs3_NtCsk6zXnftdXdR_17sqlrustgo_planner13physical_planNtB5_13IndexScanExecNtB5_12PhysicalPlan6schema
FNDA:1,_RNvXs3_NtCsk6zXnftdXdR_17sqlrustgo_planner13physical_planNtB5_13IndexScanExecNtB5_12PhysicalPlan7execute
FNDA:1,_RNvXs3_NtCsk6zXnftdXdR_17sqlrustgo_planner13physical_planNtB5_13IndexScanExecNtB5_12PhysicalPlan8children
FNDA:5,_RNvXs5_NtCsk6zXnftdXdR_17sqlrustgo_planner13physical_planNtB5_14ProjectionExecNtB5_12PhysicalPlan4name
FNDA:0,_RNvXs5_NtCsk6zXnftdXdR_17sqlrustgo_planner13physical_planNtB5_14ProjectionExecNtB5_12PhysicalPlan6as_any
FNDA:3,_RNvXs5_NtCsk6zXnftdXdR_17sqlrustgo_planner13physical_planNtB5_14ProjectionExecNtB5_12PhysicalPlan6schema
FNDA:21,_RNvXs5_NtCsk6zXnftdXdR_17sqlrustgo_planner13physical_planNtB5_14ProjectionExecNtB5_12PhysicalPlan7execute
FNDA:2,_RNvXs5_NtCsk6zXnftdXdR_17sqlrustgo_planner13physical_planNtB5_14ProjectionExecNtB5_12PhysicalPlan8children
FNDA:2,_RNvXs8_NtCsk6zXnftdXdR_17sqlrustgo_planner13physical_planNtB5_10FilterExecNtB5_12PhysicalPlan4name
FNDA:0,_RNvXs8_NtCsk6zXnftdXdR_17sqlrustgo_planner13physical_planNtB5_10FilterExecNtB5_12PhysicalPlan6as_any
FNDA:1,_RNvXs8_NtCsk6zXnftdXdR_17sqlrustgo_planner13physical_planNtB5_10FilterExecNtB5_12PhysicalPlan6schema
FNDA:13,_RNvXs8_NtCsk6zXnftdXdR_17sqlrustgo_planner13physical_planNtB5_10FilterExecNtB5_12PhysicalPlan7execute
FNDA:2,_RNvXs8_NtCsk6zXnftdXdR_17sqlrustgo_planner13physical_planNtB5_10FilterExecNtB5_12PhysicalPlan8children
FNDA:0,_RNvXs_NtCsk6zXnftdXdR_17sqlrustgo_planner13physical_planNtB4_11SeqScanExecNtB4_12PhysicalPlan10table_name
FNDA:0,_RNvXs_NtCsk6zXnftdXdR_17sqlrustgo_planner13physical_planNtB4_11SeqScanExecNtB4_12PhysicalPlan14estimated_cost
FNDA:4,_RNvXs_NtCsk6zXnftdXdR_17sqlrustgo_planner13physical_planNtB4_11SeqScanExecNtB4_12PhysicalPlan4name
FNDA:0,_RNvXs_NtCsk6zXnftdXdR_17sqlrustgo_planner13physical_planNtB4_11SeqScanExecNtB4_12PhysicalPlan6as_any
FNDA:45,_RNvXs_NtCsk6zXnftdXdR_17sqlrustgo_planner13physical_planNtB4_11SeqScanExecNtB4_12PhysicalPlan6schema
FNDA:54,_RNvXs_NtCsk6zXnftdXdR_17sqlrustgo_planner13physical_planNtB4_11SeqScanExecNtB4_12PhysicalPlan7execute
FNDA:1,_RNvXs_NtCsk6zXnftdXdR_17sqlrustgo_planner13physical_planNtB4_11SeqScanExecNtB4_12PhysicalPlan8children
FNDA:1,_RNvXsb_NtCsk6zXnftdXdR_17sqlrustgo_planner13physical_planNtB5_18ScalarSubqueryExecNtB5_12PhysicalPlan4name
FNDA:1,_RNvXsb_NtCsk6zXnftdXdR_17sqlrustgo_planner13physical_planNtB5_18ScalarSubqueryExecNtB5_12PhysicalPlan6schema
FNDA:1,_RNvXsd_NtCsk6zXnftdXdR_17sqlrustgo_planner13physical_planNtB5_14InSubqueryExecNtB5_12PhysicalPlan4name
FNDA:1,_RNvXsd_NtCsk6zXnftdXdR_17sqlrustgo_planner13physical_planNtB5_14InSubqueryExecNtB5_12PhysicalPlan6schema
FNDA:1,_RNvXsf_NtCsk6zXnftdXdR_17sqlrustgo_planner13physical_planNtB5_10ExistsExecNtB5_12PhysicalPlan4name
FNDA:1,_RNvXsf_NtCsk6zXnftdXdR_17sqlrustgo_planner13physical_planNtB5_10ExistsExecNtB5_12PhysicalPlan6schema
FNDA:1,_RNvXsh_NtCsk6zXnftdXdR_17sqlrustgo_planner13physical_planNtB5_18AnyAllSubqueryExecNtB5_12PhysicalPlan4name
FNDA:11,_RNvXsj_NtCsk6zXnftdXdR_17sqlrustgo_planner13physical_planNtB5_13AggregateExecNtB5_12PhysicalPlan4name
FNDA:1,_RNvXsj_NtCsk6zXnftdXdR_17sqlrustgo_planner13physical_planNtB5_13AggregateExecNtB5_12PhysicalPlan6as_any
FNDA:2,_RNvXsj_NtCsk6zXnftdXdR_17sqlrustgo_planner13physical_planNtB5_13AggregateExecNtB5_12PhysicalPlan6schema
FNDA:19,_RNvXsj_NtCsk6zXnftdXdR_17sqlrustgo_planner13physical_planNtB5_13AggregateExecNtB5_12PhysicalPlan7execute
FNDA:1,_RNvXsj_NtCsk6zXnftdXdR_17sqlrustgo_planner13physical_planNtB5_13AggregateExecNtB5_12PhysicalPlan8children
FNDA:4,_RNvXsl_NtCsk6zXnftdXdR_17sqlrustgo_planner13physical_planNtB5_12HashJoinExecNtB5_12PhysicalPlan4name
FNDA:1,_RNvXsl_NtCsk6zXnftdXdR_17sqlrustgo_planner13physical_planNtB5_12HashJoinExecNtB5_12PhysicalPlan6as_any
FNDA:1,_RNvXsl_NtCsk6zXnftdXdR_17sqlrustgo_planner13physical_planNtB5_12HashJoinExecNtB5_12PhysicalPlan6schema
FNDA:5,_RNvXsl_NtCsk6zXnftdXdR_17sqlrustgo_planner13physical_planNtB5_12HashJoinExecNtB5_12PhysicalPlan8children
FNDA:0,_RNvXsn_NtCsk6zXnftdXdR_17sqlrustgo_planner13physical_planNtB5_17SortMergeJoinExecNtB5_12PhysicalPlan4name
FNDA:0,_RNvXsn_NtCsk6zXnftdXdR_17sqlrustgo_planner13physical_planNtB5_17SortMergeJoinExecNtB5_12PhysicalPlan6as_any
FNDA:0,_RNvXsn_NtCsk6zXnftdXdR_17sqlrustgo_planner13physical_planNtB5_17SortMergeJoinExecNtB5_12PhysicalPlan6schema
FNDA:0,_RNvXsn_NtCsk6zXnftdXdR_17sqlrustgo_planner13physical_planNtB5_17SortMergeJoinExecNtB5_12PhysicalPlan8children
FNDA:4,_RNvXsp_NtCsk6zXnftdXdR_17sqlrustgo_planner13physical_planNtB5_8SortExecNtB5_12PhysicalPlan4name
FNDA:1,_RNvXsp_NtCsk6zXnftdXdR_17sqlrustgo_planner13physical_planNtB5_8SortExecNtB5_12PhysicalPlan6as_any
FNDA:2,_RNvXsp_NtCsk6zXnftdXdR_17sqlrustgo_planner13physical_planNtB5_8SortExecNtB5_12PhysicalPlan6schema
FNDA:2,_RNvXsp_NtCsk6zXnftdXdR_17sqlrustgo_planner13physical_planNtB5_8SortExecNtB5_12PhysicalPlan8children
FNDA:4,_RNvXsr_NtCsk6zXnftdXdR_17sqlrustgo_planner13physical_planNtB5_9LimitExecNtB5_12PhysicalPlan4name
FNDA:1,_RNvXsr_NtCsk6zXnftdXdR_17sqlrustgo_planner13physical_planNtB5_9LimitExecNtB5_12PhysicalPlan6as_any
FNDA:1,_RNvXsr_NtCsk6zXnftdXdR_17sqlrustgo_planner13physical_planNtB5_9LimitExecNtB5_12PhysicalPlan6schema
FNDA:3,_RNvXsr_NtCsk6zXnftdXdR_17sqlrustgo_planner13physical_planNtB5_9LimitExecNtB5_12PhysicalPlan8children
FNDA:1,_RNvXst_NtCsk6zXnftdXdR_17sqlrustgo_planner13physical_planNtB5_16SetOperationExecNtB5_12PhysicalPlan4name
FNDA:0,_RNvXst_NtCsk6zXnftdXdR_17sqlrustgo_planner13physical_planNtB5_16SetOperationExecNtB5_12PhysicalPlan6as_any
FNDA:0,_RNvXst_NtCsk6zXnftdXdR_17sqlrustgo_planner13physical_planNtB5_16SetOperationExecNtB5_12PhysicalPlan6schema
FNDA:0,_RNvXst_NtCsk6zXnftdXdR_17sqlrustgo_planner13physical_planNtB5_16SetOperationExecNtB5_12PhysicalPlan7execute
FNDA:0,_RNvXst_NtCsk6zXnftdXdR_17sqlrustgo_planner13physical_planNtB5_16SetOperationExecNtB5_12PhysicalPlan8children
FNDA:0,_RNvXsv_NtCsk6zXnftdXdR_17sqlrustgo_planner13physical_planNtB5_10WindowExecNtB5_12PhysicalPlan4name
FNDA:0,_RNvXsv_NtCsk6zXnftdXdR_17sqlrustgo_planner13physical_planNtB5_10WindowExecNtB5_12PhysicalPlan6as_any
FNDA:0,_RNvXsv_NtCsk6zXnftdXdR_17sqlrustgo_planner13physical_planNtB5_10WindowExecNtB5_12PhysicalPlan6schema
FNDA:0,_RNvXsv_NtCsk6zXnftdXdR_17sqlrustgo_planner13physical_planNtB5_10WindowExecNtB5_12PhysicalPlan8children
FNF:314
FNH:241
DA:27,8
DA:28,8
DA:29,8
DA:32,0
DA:33,0
DA:34,0
DA:41,0
DA:42,0
DA:43,0
DA:44,0
DA:45,0
DA:46,0
DA:47,0
DA:48,0
DA:49,0
DA:50,0
DA:52,0
DA:53,0
DA:54,0
DA:55,0
DA:56,0
DA:57,0
DA:58,0
DA:59,0
DA:61,0
DA:75,184
DA:76,184
DA:77,184
DA:78,184
DA:79,184
DA:80,184
DA:81,184
DA:82,184
DA:83,184
DA:85,3
DA:86,3
DA:87,3
DA:88,3
DA:90,1
DA:91,1
DA:92,1
DA:93,1
DA:95,1
DA:96,1
DA:97,1
DA:98,1
DA:100,2
DA:101,2
DA:102,2
DA:104,2
DA:105,2
DA:106,2
DA:108,0
DA:109,0
DA:110,0
DA:112,0
DA:113,0
DA:114,0
DA:118,45
DA:119,45
DA:120,45
DA:122,1
DA:123,1
DA:124,1
DA:126,4
DA:127,4
DA:128,4
DA:130,0
DA:131,0
DA:132,0
DA:134,54
DA:135,54
DA:136,54
DA:138,0
DA:139,0
DA:140,0
DA:142,0
DA:143,0
DA:144,0
DA:145,0
DA:146,0
DA:147,0
DA:148,0
DA:149,0
DA:150,0
DA:167,0
DA:168,0
DA:169,0
DA:170,0
DA:171,0
DA:172,0
DA:173,0
DA:175,0
DA:176,0
DA:177,0
DA:179,0
DA:180,0
DA:181,0
DA:185,0
DA:186,0
DA:187,0
DA:189,0
DA:190,0
DA:191,0
DA:193,0
DA:194,0
DA:195,0
DA:197,0
DA:198,0
DA:199,0
DA:201,0
DA:202,0
DA:203,0
DA:205,0
DA:206,0
DA:207,0
DA:209,0
DA:210,0
DA:211,0
DA:212,0
DA:213,0
DA:214,0
DA:215,0
DA:217,0
DA:218,0
DA:219,0
DA:220,0
DA:236,3
DA:237,3
DA:238,3
DA:239,3
DA:240,3
DA:241,3
DA:242,3
DA:243,3
DA:244,3
DA:245,3
DA:247,1
DA:248,1
DA:249,1
DA:250,1
DA:251,1
DA:253,1
DA:254,1
DA:255,1
DA:257,1
DA:258,1
DA:259,1
DA:261,1
DA:262,1
DA:263,1
DA:265,1
DA:266,1
DA:267,1
DA:271,1
DA:272,1
DA:273,1
DA:275,1
DA:276,1
DA:277,1
DA:279,1
DA:280,1
DA:281,1
DA:283,0
DA:284,0
DA:285,0
DA:287,1
DA:288,1
DA:289,1
DA:291,0
DA:292,0
DA:293,0
DA:305,35
DA:306,35
DA:307,35
DA:308,35
DA:309,35
DA:310,35
DA:311,35
DA:315,3
DA:316,3
DA:317,3
DA:319,2
DA:320,2
DA:321,2
DA:323,5
DA:324,5
DA:325,5
DA:327,21
DA:328,21
DA:330,21
DA:331,1
DA:332,20
DA:334,20
DA:335,20
DA:337,20
DA:338,0
DA:339,0
DA:340,0
DA:341,0
DA:342,0
DA:343,0
DA:346,20
DA:347,21
DA:349,0
DA:350,0
DA:351,0
DA:355,1
DA:356,1
DA:357,1
DA:359,2
DA:360,2
DA:361,2
DA:363,18
DA:364,18
DA:365,12
DA:366,12
DA:367,12
DA:369,0
DA:372,0
DA:374,0
DA:375,0
DA:376,0
DA:377,0
DA:379,0
DA:380,6
DA:381,6
DA:382,6
DA:383,6
DA:385,0
DA:387,18
DA:389,6
DA:390,6
DA:391,3
DA:392,0
DA:393,0
DA:394,0
DA:396,1
DA:397,0
DA:399,1
DA:403,1
DA:404,0
DA:406,1
DA:409,1
DA:411,2
DA:412,0
DA:413,0
DA:414,0
DA:416,1
DA:417,0
DA:419,1
DA:422,1
DA:424,1
DA:426,6
DA:437,23
DA:438,23
DA:439,23
DA:441,1
DA:442,1
DA:443,1
DA:445,2
DA:446,2
DA:447,2
DA:451,1
DA:452,1
DA:453,1
DA:455,2
DA:456,2
DA:457,2
DA:459,2
DA:460,2
DA:461,2
DA:463,13
DA:464,13
DA:465,13
DA:467,13
DA:468,13
DA:469,13
DA:470,13
DA:472,13
DA:473,13
DA:475,0
DA:476,0
DA:477,0
DA:481,4
DA:482,2
DA:483,2
DA:484,2
DA:485,2
DA:486,2
DA:488,2
DA:489,0
DA:491,4
DA:493,5
DA:494,5
DA:495,4
DA:496,4
DA:497,4
DA:499,0
DA:502,1
DA:503,0
DA:505,5
DA:507,4
DA:508,4
DA:509,1
DA:510,0
DA:511,0
DA:512,0
DA:513,0
DA:514,0
DA:515,0
DA:516,1
DA:518,3
DA:520,4
DA:532,1
DA:533,1
DA:534,1
DA:536,0
DA:537,0
DA:538,0
DA:542,1
DA:543,1
DA:544,1
DA:546,0
DA:547,0
DA:548,0
DA:550,1
DA:551,1
DA:552,1
DA:554,0
DA:555,0
DA:556,0
DA:558,0
DA:559,0
DA:560,0
DA:573,1
DA:574,1
DA:575,1
DA:576,1
DA:577,1
DA:578,1
DA:579,1
DA:581,0
DA:582,0
DA:583,0
DA:585,0
DA:586,0
DA:587,0
DA:591,1
DA:592,1
DA:593,1
DA:595,0
DA:596,0
DA:597,0
DA:599,1
DA:600,1
DA:601,1
DA:603,0
DA:604,0
DA:605,0
DA:607,0
DA:608,0
DA:609,0
DA:621,1
DA:622,1
DA:623,1
DA:625,0
DA:626,0
DA:628,0
DA:629,0
DA:633,1
DA:634,1
DA:635,1
DA:637,0
DA:638,0
DA:639,0
DA:641,1
DA:642,1
DA:643,1
DA:645,0
DA:646,0
DA:647,0
DA:648,0
DA:650,0
DA:651,0
DA:652,0
DA:667,1
DA:668,1
DA:669,1
DA:670,1
DA:671,1
DA:672,1
DA:673,1
DA:674,1
DA:675,1
DA:676,1
DA:677,1
DA:678,1
DA:679,1
DA:680,1
DA:681,1
DA:683,1
DA:684,1
DA:685,1
DA:687,0
DA:688,0
DA:689,0
DA:691,0
DA:692,0
DA:693,0
DA:697,0
DA:698,0
DA:699,0
DA:701,0
DA:702,0
DA:703,0
DA:705,1
DA:706,1
DA:707,1
DA:708,0
DA:709,0
DA:711,1
DA:713,0
DA:714,0
DA:715,0
DA:717,0
DA:718,0
DA:719,0
DA:733,43
DA:734,43
DA:735,43
DA:736,43
DA:737,43
DA:738,43
DA:739,43
DA:740,43
DA:741,43
DA:742,43
DA:743,43
DA:744,43
DA:745,43
DA:746,43
DA:747,43
DA:749,1
DA:750,1
DA:751,1
DA:753,2
DA:754,2
DA:755,2
DA:757,1
DA:758,1
DA:759,1
DA:761,0
DA:762,0
DA:763,0
DA:765,0
DA:766,0
DA:767,0
DA:768,0
DA:769,0
DA:771,0
DA:774,0
DA:775,0
DA:776,0
DA:777,0
DA:779,0
DA:781,26
DA:782,26
DA:783,26
DA:784,26
DA:785,26
DA:786,26
DA:787,26
DA:789,6
DA:790,2
DA:792,4
DA:793,4
DA:794,4
DA:798,5
DA:799,5
DA:800,5
DA:801,6
DA:802,6
DA:803,0
DA:804,6
DA:805,6
DA:806,2
DA:807,4
DA:808,4
DA:809,4
DA:810,4
DA:812,5
DA:813,2
DA:815,3
DA:819,5
DA:820,5
DA:821,5
DA:822,5
DA:823,5
DA:824,5
DA:825,0
DA:826,5
DA:827,5
DA:828,1
DA:829,1
DA:830,4
DA:831,4
DA:832,4
DA:833,4
DA:834,4
DA:836,5
DA:837,2
DA:838,2
DA:840,0
DA:843,3
DA:847,5
DA:848,6
DA:849,6
DA:850,0
DA:851,6
DA:852,6
DA:853,2
DA:854,0
DA:855,0
DA:856,1
DA:857,1
DA:859,4
DA:860,4
DA:861,2
DA:862,2
DA:863,1
DA:864,1
DA:865,1
DA:867,0
DA:869,5
DA:870,2
DA:871,0
DA:872,3
DA:876,5
DA:877,6
DA:878,6
DA:879,0
DA:880,6
DA:881,6
DA:882,2
DA:883,0
DA:884,0
DA:885,1
DA:886,1
DA:888,4
DA:889,4
DA:890,2
DA:891,2
DA:892,1
DA:893,1
DA:894,1
DA:896,0
DA:898,5
DA:899,2
DA:900,0
DA:901,3
DA:905,26
DA:909,2
DA:910,2
DA:911,2
DA:913,1
DA:914,1
DA:915,1
DA:917,11
DA:918,11
DA:919,11
DA:921,19
DA:922,19
DA:924,19
DA:925,16
DA:926,16
DA:928,17
DA:930,17
DA:931,17
DA:932,17
DA:933,17
DA:935,17
DA:936,2
DA:938,15
DA:939,15
DA:940,15
DA:941,0
DA:942,0
DA:943,0
DA:944,0
DA:946,0
DA:947,15
DA:949,17
DA:950,2
DA:951,2
DA:952,2
DA:953,2
DA:955,15
DA:957,17
DA:958,17
DA:959,0
DA:962,16
DA:963,16
DA:964,16
DA:966,16
DA:968,3
DA:970,3
DA:971,0
DA:972,0
DA:973,0
DA:974,0
DA:975,0
DA:976,0
DA:979,3
DA:980,3
DA:981,0
DA:982,0
DA:984,0
DA:985,0
DA:986,0
DA:987,0
DA:989,0
DA:990,0
DA:992,0
DA:993,0
DA:994,0
DA:995,0
DA:996,0
DA:997,0
DA:998,0
DA:1000,0
DA:1001,0
DA:1003,0
DA:1004,0
DA:1005,0
DA:1006,0
DA:1007,0
DA:1009,0
DA:1011,0
DA:1012,0
DA:1013,0
DA:1015,0
DA:1018,3
DA:1020,19
DA:1022,1
DA:1023,1
DA:1024,1
DA:1038,15
DA:1039,15
DA:1040,15
DA:1041,15
DA:1042,15
DA:1043,15
DA:1044,15
DA:1045,15
DA:1046,15
DA:1047,15
DA:1048,15
DA:1049,15
DA:1050,15
DA:1051,15
DA:1052,15
DA:1054,1
DA:1055,1
DA:1056,1
DA:1058,1
DA:1059,1
DA:1060,1
DA:1062,2
DA:1063,2
DA:1064,2
DA:1066,2
DA:1067,2
DA:1068,2
DA:1072,1
DA:1073,1
DA:1074,1
DA:1076,5
DA:1077,5
DA:1078,5
DA:1080,4
DA:1081,4
DA:1082,4
DA:1084,1
DA:1085,1
DA:1086,1
DA:1102,1
DA:1103,1
DA:1104,1
DA:1105,1
DA:1106,1
DA:1107,1
DA:1108,1
DA:1109,1
DA:1110,1
DA:1111,1
DA:1112,1
DA:1113,1
DA:1114,1
DA:1115,1
DA:1116,1
DA:1117,1
DA:1118,1
DA:1119,1
DA:1120,1
DA:1122,0
DA:1123,0
DA:1124,0
DA:1126,0
DA:1127,0
DA:1128,0
DA:1130,1
DA:1131,1
DA:1132,1
DA:1134,0
DA:1135,0
DA:1136,0
DA:1138,1
DA:1139,1
DA:1140,1
DA:1142,1
DA:1143,1
DA:1144,1
DA:1148,0
DA:1149,0
DA:1150,0
DA:1152,0
DA:1153,0
DA:1154,0
DA:1156,0
DA:1157,0
DA:1158,0
DA:1160,0
DA:1161,0
DA:1162,0
DA:1173,11
DA:1174,11
DA:1175,11
DA:1177,2
DA:1178,2
DA:1179,2
DA:1181,1
DA:1182,1
DA:1183,1
DA:1187,2
DA:1188,2
DA:1189,2
DA:1191,2
DA:1192,2
DA:1193,2
DA:1195,4
DA:1196,4
DA:1197,4
DA:1199,1
DA:1200,1
DA:1201,1
DA:1213,12
DA:1214,12
DA:1215,12
DA:1216,12
DA:1217,12
DA:1218,12
DA:1219,12
DA:1221,3
DA:1222,3
DA:1223,3
DA:1225,4
DA:1226,4
DA:1227,4
DA:1229,1
DA:1230,1
DA:1231,1
DA:1235,1
DA:1236,1
DA:1237,1
DA:1239,3
DA:1240,3
DA:1241,3
DA:1243,4
DA:1244,4
DA:1245,4
DA:1247,1
DA:1248,1
DA:1249,1
DA:1262,2
DA:1263,2
DA:1264,2
DA:1265,2
DA:1266,2
DA:1267,2
DA:1268,2
DA:1269,2
DA:1270,2
DA:1271,2
DA:1272,2
DA:1273,2
DA:1274,2
DA:1276,1
DA:1277,1
DA:1278,1
DA:1280,0
DA:1281,0
DA:1282,0
DA:1284,0
DA:1285,0
DA:1286,0
DA:1290,0
DA:1291,0
DA:1292,0
DA:1294,0
DA:1295,0
DA:1296,0
DA:1298,1
DA:1299,1
DA:1300,1
DA:1302,0
DA:1303,0
DA:1304,0
DA:1305,0
DA:1307,0
DA:1308,0
DA:1309,0
DA:1311,0
DA:1313,0
DA:1315,0
DA:1316,0
DA:1317,0
DA:1332,0
DA:1333,0
DA:1334,0
DA:1335,0
DA:1336,0
DA:1337,0
DA:1338,0
DA:1339,0
DA:1340,0
DA:1341,0
DA:1342,0
DA:1343,0
DA:1344,0
DA:1345,0
DA:1346,0
DA:1347,0
DA:1348,0
DA:1350,0
DA:1351,0
DA:1352,0
DA:1354,0
DA:1355,0
DA:1356,0
DA:1358,0
DA:1359,0
DA:1360,0
DA:1362,0
DA:1363,0
DA:1364,0
DA:1368,0
DA:1369,0
DA:1370,0
DA:1372,0
DA:1373,0
DA:1374,0
DA:1376,0
DA:1377,0
DA:1378,0
DA:1380,0
DA:1381,0
DA:1382,0
DA:1392,1
DA:1393,1
DA:1394,1
DA:1396,1
DA:1397,1
DA:1398,1
DA:1399,1
DA:1402,1
DA:1403,1
DA:1404,1
DA:1405,1
DA:1407,1
DA:1409,1
DA:1410,1
DA:1413,1
DA:1414,1
DA:1415,1
DA:1416,1
DA:1418,1
DA:1419,1
DA:1420,1
DA:1421,1
DA:1424,1
DA:1425,1
DA:1426,1
DA:1427,1
DA:1428,1
DA:1429,1
DA:1430,1
DA:1432,1
DA:1434,1
DA:1435,1
DA:1436,1
DA:1439,1
DA:1440,1
DA:1441,1
DA:1442,1
DA:1443,1
DA:1444,1
DA:1445,1
DA:1446,1
DA:1447,1
DA:1450,1
DA:1451,1
DA:1452,1
DA:1453,1
DA:1456,1
DA:1457,1
DA:1458,1
DA:1459,1
DA:1460,1
DA:1461,1
DA:1462,1
DA:1464,1
DA:1465,1
DA:1466,1
DA:1469,1
DA:1470,1
DA:1471,1
DA:1473,1
DA:1475,1
DA:1476,1
DA:1477,1
DA:1480,1
DA:1481,1
DA:1482,1
DA:1483,1
DA:1484,1
DA:1485,1
DA:1486,1
DA:1487,1
DA:1488,1
DA:1490,1
DA:1491,1
DA:1492,1
DA:1493,1
DA:1496,1
DA:1497,1
DA:1498,1
DA:1499,1
DA:1501,1
DA:1502,1
DA:1503,1
DA:1504,1
DA:1507,1
DA:1508,1
DA:1509,1
DA:1510,1
DA:1512,1
DA:1513,1
DA:1514,1
DA:1517,1
DA:1518,1
DA:1519,1
DA:1520,1
DA:1521,1
DA:1522,1
DA:1525,1
DA:1526,1
DA:1527,1
DA:1528,1
DA:1529,1
DA:1530,1
DA:1533,1
DA:1534,1
DA:1535,1
DA:1536,1
DA:1537,1
DA:1538,1
DA:1539,1
DA:1542,1
DA:1543,1
DA:1544,1
DA:1545,1
DA:1546,1
DA:1547,1
DA:1548,1
DA:1551,1
DA:1552,1
DA:1553,1
DA:1554,1
DA:1555,1
DA:1556,1
DA:1559,1
DA:1560,1
DA:1561,1
DA:1562,1
DA:1563,1
DA:1564,1
DA:1567,1
DA:1568,1
DA:1569,1
DA:1570,1
DA:1571,1
DA:1572,1
DA:1573,1
DA:1574,1
DA:1575,1
DA:1576,1
DA:1578,1
DA:1579,1
DA:1582,1
DA:1583,1
DA:1584,1
DA:1585,1
DA:1586,1
DA:1587,1
DA:1590,1
DA:1591,1
DA:1592,1
DA:1593,1
DA:1594,1
DA:1595,1
DA:1598,1
DA:1599,1
DA:1600,1
DA:1601,1
DA:1603,1
DA:1604,1
DA:1605,1
DA:1607,1
DA:1608,1
DA:1609,1
DA:1612,1
DA:1613,1
DA:1614,1
DA:1615,1
DA:1616,1
DA:1617,1
DA:1618,1
DA:1619,1
DA:1621,1
DA:1622,1
DA:1625,1
DA:1626,1
DA:1627,1
DA:1628,1
DA:1629,1
DA:1630,1
DA:1631,1
DA:1632,1
DA:1633,1
DA:1634,1
DA:1635,1
DA:1636,1
DA:1637,1
DA:1640,1
DA:1641,1
DA:1644,1
DA:1645,1
DA:1646,1
DA:1647,1
DA:1648,1
DA:1649,1
DA:1650,1
DA:1651,1
DA:1652,1
DA:1653,1
DA:1654,1
DA:1655,1
DA:1656,1
DA:1659,1
DA:1660,1
DA:1663,1
DA:1664,1
DA:1665,1
DA:1666,1
DA:1667,1
DA:1668,1
DA:1669,1
DA:1670,1
DA:1671,1
DA:1672,1
DA:1673,1
DA:1674,1
DA:1675,1
DA:1678,1
DA:1679,1
DA:1682,1
DA:1683,1
DA:1684,1
DA:1685,1
DA:1687,1
DA:1688,1
DA:1689,1
DA:1690,1
DA:1691,1
DA:1692,1
DA:1693,1
DA:1694,1
DA:1695,1
DA:1696,1
DA:1697,1
DA:1698,1
DA:1699,1
DA:1703,1
DA:1704,1
DA:1707,1
DA:1708,1
DA:1709,1
DA:1712,1
DA:1713,1
DA:1714,1
DA:1717,1
DA:1718,1
DA:1721,1
DA:1722,1
DA:1723,1
DA:1724,1
DA:1726,1
DA:1727,1
DA:1728,1
DA:1730,1
DA:1731,1
DA:1732,1
DA:1733,1
DA:1736,1
DA:1737,1
DA:1738,1
DA:1739,1
DA:1740,1
DA:1742,1
DA:1743,1
DA:1744,1
DA:1747,1
DA:1749,1
DA:1750,1
DA:1751,1
DA:1753,1
DA:1754,1
DA:1756,1
DA:1757,1
DA:1758,1
DA:1759,1
DA:1760,1
DA:1761,1
DA:1763,1
DA:1764,1
DA:1765,1
DA:1768,1
DA:1769,1
DA:1770,1
DA:1771,1
DA:1772,1
DA:1773,1
DA:1774,1
DA:1776,1
DA:1778,1
DA:1779,1
DA:1780,1
DA:1783,1
DA:1784,1
DA:1785,1
DA:1787,1
DA:1788,1
DA:1789,1
DA:1790,1
DA:1791,1
DA:1792,1
DA:1793,1
DA:1794,1
DA:1795,1
DA:1796,1
DA:1797,1
DA:1798,1
DA:1799,1
DA:1800,1
DA:1802,1
DA:1803,1
DA:1804,1
DA:1807,1
DA:1808,1
DA:1809,1
DA:1810,1
DA:1811,1
DA:1812,1
DA:1813,1
DA:1814,1
DA:1815,1
DA:1818,1
DA:1819,1
DA:1820,1
DA:1823,1
DA:1824,1
DA:1825,1
DA:1826,1
DA:1827,1
DA:1829,1
DA:1830,1
DA:1831,1
DA:1833,1
DA:1835,1
DA:1836,1
DA:1837,1
DA:1840,1
DA:1842,1
DA:1843,1
DA:1844,1
DA:1845,1
DA:1847,1
DA:1848,1
DA:1849,1
DA:1851,1
DA:1852,1
DA:1853,1
DA:1854,1
DA:1855,1
DA:1856,1
DA:1857,1
DA:1858,1
DA:1859,1
DA:1860,1
DA:1861,1
DA:1864,1
DA:1865,1
DA:1866,1
DA:1869,1
DA:1870,1
DA:1871,1
DA:1872,1
DA:1873,1
DA:1874,1
DA:1875,1
DA:1876,1
DA:1877,1
DA:1879,1
DA:1880,1
DA:1881,1
DA:1884,1
DA:1885,1
DA:1886,1
DA:1887,1
DA:1889,1
DA:1890,1
DA:1891,1
DA:1894,1
DA:1895,1
DA:1896,1
DA:1897,1
DA:1899,1
DA:1900,1
DA:1901,1
DA:1904,1
DA:1905,1
DA:1906,1
DA:1907,1
DA:1909,1
DA:1910,1
DA:1911,1
DA:1914,1
DA:1915,1
DA:1916,1
DA:1917,1
DA:1918,1
DA:1920,1
DA:1921,1
DA:1922,1
DA:1923,1
DA:1924,1
DA:1925,1
DA:1926,1
DA:1927,1
DA:1928,1
DA:1929,1
DA:1930,1
DA:1931,1
DA:1932,1
DA:1933,1
DA:1937,1
DA:1938,1
DA:1939,1
DA:1942,1
DA:1943,1
DA:1944,1
DA:1945,1
DA:1946,1
DA:1947,1
DA:1948,1
DA:1949,1
DA:1950,1
DA:1951,1
DA:1952,1
DA:1953,1
DA:1954,1
DA:1957,1
DA:1958,1
DA:1961,1
DA:1962,1
DA:1963,1
DA:1964,1
DA:1965,1
DA:1966,1
DA:1967,1
DA:1968,1
DA:1969,1
DA:1970,1
DA:1971,1
DA:1972,1
DA:1973,1
DA:1976,1
DA:1977,1
DA:1980,1
DA:1981,1
DA:1982,1
DA:1983,1
DA:1984,1
DA:1985,1
DA:1986,1
DA:1987,1
DA:1988,1
DA:1989,1
DA:1990,1
DA:1991,1
DA:1992,1
DA:1995,1
DA:1996,1
DA:1999,1
DA:2000,1
DA:2001,1
DA:2002,1
DA:2003,1
DA:2004,1
DA:2005,1
DA:2006,1
DA:2007,1
DA:2008,1
DA:2010,1
DA:2011,1
DA:2014,1
DA:2015,1
DA:2016,1
DA:2017,1
DA:2018,1
DA:2019,1
DA:2020,1
DA:2021,1
DA:2022,1
DA:2023,1
DA:2025,1
DA:2026,1
DA:2029,1
DA:2030,1
DA:2031,1
DA:2032,1
DA:2033,1
DA:2034,1
DA:2035,1
DA:2036,1
DA:2037,1
DA:2038,1
DA:2040,1
DA:2041,1
DA:2044,1
DA:2045,1
DA:2046,1
DA:2047,1
DA:2049,1
DA:2050,1
DA:2051,1
DA:2054,1
DA:2055,1
DA:2056,1
DA:2057,1
DA:2058,1
DA:2059,1
DA:2060,1
DA:2061,1
DA:2062,1
DA:2063,1
DA:2066,1
DA:2067,1
DA:2068,1
DA:2071,1
DA:2072,1
DA:2073,1
DA:2074,1
DA:2075,1
DA:2076,1
DA:2077,1
DA:2079,1
DA:2081,1
DA:2082,1
DA:2083,1
DA:2086,1
DA:2087,1
DA:2088,1
DA:2089,1
DA:2090,1
DA:2091,1
DA:2092,1
DA:2094,1
DA:2096,1
DA:2097,1
DA:2098,1
DA:2101,1
DA:2102,1
DA:2103,1
DA:2104,1
DA:2105,1
DA:2106,1
DA:2107,1
DA:2109,1
DA:2111,1
DA:2112,1
DA:2113,1
DA:2117,1
DA:2118,1
DA:2119,1
DA:2120,1
DA:2121,1
DA:2122,1
DA:2124,1
DA:2126,1
DA:2127,1
DA:2131,1
DA:2132,1
DA:2133,1
DA:2134,1
DA:2135,1
DA:2136,1
DA:2137,1
DA:2138,1
DA:2139,1
DA:2141,1
DA:2142,1
DA:2145,1
DA:2146,1
DA:2147,1
DA:2148,1
DA:2149,1
DA:2150,1
DA:2151,1
DA:2152,1
DA:2153,1
DA:2155,1
DA:2156,1
DA:2159,1
DA:2160,1
DA:2161,1
DA:2162,1
DA:2163,1
DA:2164,1
DA:2165,1
DA:2166,1
DA:2167,1
DA:2169,1
DA:2170,1
DA:2171,1
DA:2175,1
DA:2176,1
DA:2177,1
DA:2178,1
DA:2180,1
DA:2181,1
DA:2182,1
DA:2183,1
DA:2186,1
DA:2187,1
DA:2188,1
DA:2189,1
DA:2191,1
DA:2192,1
DA:2195,1
DA:2196,1
DA:2197,1
DA:2198,1
DA:2200,1
DA:2201,1
DA:2204,1
DA:2205,1
DA:2206,1
DA:2207,1
DA:2209,1
DA:2210,1
DA:2211,1
DA:2216,1
DA:2217,1
DA:2218,1
DA:2219,1
DA:2222,1
DA:2223,1
DA:2225,1
DA:2226,1
DA:2229,1
DA:2230,1
DA:2231,1
DA:2232,1
DA:2233,1
DA:2236,1
DA:2238,1
DA:2240,1
DA:2241,1
DA:2244,1
DA:2245,1
DA:2246,1
DA:2247,1
DA:2248,1
DA:2249,1
DA:2250,1
DA:2251,1
DA:2252,1
DA:2256,1
DA:2257,1
DA:2258,1
DA:2259,1
DA:2260,1
DA:2263,1
DA:2264,1
DA:2265,1
DA:2266,1
DA:2267,1
DA:2268,1
DA:2269,1
DA:2270,1
DA:2271,1
DA:2272,1
DA:2276,1
DA:2277,1
DA:2278,1
DA:2279,1
DA:2280,1
DA:2281,1
DA:2284,1
DA:2285,1
DA:2286,1
DA:2287,1
DA:2288,1
DA:2289,1
DA:2290,1
DA:2291,1
DA:2292,1
DA:2293,1
DA:2294,1
DA:2297,1
DA:2298,1
DA:2301,1
DA:2302,1
DA:2303,1
DA:2304,1
DA:2305,1
DA:2307,1
DA:2308,1
DA:2309,1
DA:2311,1
DA:2313,1
DA:2314,1
DA:2317,1
DA:2318,1
DA:2319,1
DA:2320,1
DA:2321,1
DA:2322,1
DA:2323,1
DA:2324,1
DA:2325,1
DA:2328,1
DA:2329,1
DA:2330,1
DA:2331,1
DA:2334,1
DA:2335,1
DA:2336,1
DA:2337,1
DA:2338,1
DA:2339,1
DA:2340,1
DA:2341,1
DA:2342,1
DA:2344,1
DA:2345,1
DA:2348,1
DA:2349,1
DA:2350,1
DA:2351,1
DA:2354,1
DA:2355,1
DA:2356,1
DA:2357,1
DA:2358,1
DA:2361,1
DA:2362,1
DA:2363,1
DA:2364,1
DA:2366,1
DA:2367,1
DA:2370,1
DA:2371,1
DA:2372,1
DA:2373,1
DA:2374,1
DA:2375,1
DA:2376,1
DA:2377,1
DA:2378,1
DA:2379,1
DA:2380,1
DA:2381,1
DA:2382,1
DA:2385,1
DA:2386,1
DA:2389,1
DA:2390,1
DA:2391,1
DA:2392,1
DA:2393,1
DA:2394,1
DA:2395,1
DA:2396,1
DA:2397,1
DA:2398,1
DA:2399,1
DA:2400,1
DA:2401,1
DA:2404,1
DA:2405,1
DA:2406,1
DA:2409,1
DA:2410,1
DA:2411,1
DA:2412,1
DA:2413,1
DA:2414,1
DA:2415,1
DA:2416,1
DA:2417,1
DA:2418,1
DA:2419,1
DA:2420,1
DA:2421,1
DA:2424,1
DA:2425,1
DA:2426,1
DA:2429,1
DA:2430,1
DA:2431,1
DA:2432,1
DA:2433,1
DA:2434,1
DA:2435,1
DA:2436,1
DA:2437,1
DA:2438,1
DA:2439,1
DA:2440,1
DA:2441,1
DA:2444,1
DA:2445,1
DA:2446,1
DA:2449,1
DA:2450,1
DA:2451,1
DA:2452,1
DA:2453,1
DA:2454,1
DA:2455,1
DA:2456,1
DA:2457,1
DA:2458,1
DA:2459,1
DA:2460,1
DA:2461,1
DA:2464,1
DA:2465,1
DA:2466,1
DA:2469,1
DA:2470,1
DA:2471,1
DA:2472,1
DA:2473,1
DA:2474,1
DA:2475,1
DA:2476,1
DA:2477,1
DA:2478,1
DA:2479,1
DA:2480,1
DA:2481,1
DA:2484,1
DA:2485,1
DA:2486,1
DA:2489,1
DA:2490,1
DA:2491,1
DA:2492,1
DA:2493,1
DA:2494,1
DA:2495,1
DA:2496,1
DA:2497,1
DA:2498,1
DA:2499,1
DA:2500,1
DA:2501,1
DA:2504,1
DA:2505,1
DA:2506,1
DA:2509,1
DA:2510,1
DA:2511,1
DA:2512,1
DA:2513,1
DA:2514,1
DA:2515,1
DA:2516,1
DA:2517,1
DA:2518,1
DA:2519,1
DA:2520,1
DA:2521,1
DA:2524,1
DA:2525,1
DA:2526,1
DA:2529,1
DA:2530,1
DA:2531,1
DA:2532,1
DA:2533,1
DA:2534,1
DA:2535,1
DA:2536,1
DA:2537,1
DA:2538,1
DA:2539,1
DA:2540,1
DA:2541,1
DA:2544,1
DA:2545,1
DA:2546,1
DA:2549,1
DA:2550,1
DA:2551,1
DA:2553,1
DA:2554,1
DA:2556,1
DA:2557,1
DA:2558,1
DA:2561,1
DA:2562,1
DA:2563,1
DA:2565,1
DA:2566,1
DA:2567,1
DA:2568,1
DA:2570,1
DA:2572,1
DA:2573,1
DA:2574,1
DA:2577,1
DA:2578,1
DA:2579,1
DA:2580,1
DA:2581,1
DA:2582,1
DA:2583,1
DA:2585,1
DA:2587,1
DA:2588,1
DA:2589,1
DA:2592,1
DA:2593,1
DA:2594,1
DA:2595,1
DA:2597,1
DA:2598,1
DA:2599,1
DA:2600,1
DA:2601,1
DA:2602,1
DA:2603,1
DA:2605,1
DA:2606,1
DA:2607,1
DA:2610,1
DA:2611,1
DA:2612,1
DA:2613,1
DA:2614,1
DA:2615,1
DA:2616,1
DA:2617,1
DA:2618,1
DA:2619,1
DA:2622,1
DA:2623,1
DA:2628,1
DA:2629,1
DA:2630,1
DA:2631,1
DA:2633,1
DA:2634,1
DA:2635,1
DA:2637,1
DA:2638,1
DA:2639,1
DA:2642,1
DA:2643,1
DA:2644,1
DA:2645,1
DA:2647,1
DA:2648,1
DA:2650,1
DA:2651,1
DA:2652,1
DA:2653,1
DA:2654,1
DA:2655,1
DA:2657,1
DA:2658,1
DA:2659,1
DA:2662,1
DA:2663,1
DA:2664,1
DA:2665,1
DA:2667,1
DA:2668,1
DA:2670,1
DA:2671,1
DA:2672,1
DA:2673,1
DA:2674,1
DA:2675,1
DA:2677,1
DA:2678,1
DA:2679,1
DA:2682,1
DA:2683,1
DA:2684,1
DA:2685,1
DA:2687,1
DA:2688,1
DA:2690,1
DA:2691,1
DA:2692,1
DA:2693,1
DA:2694,1
DA:2695,1
DA:2697,1
DA:2698,1
DA:2699,1
DA:2702,1
DA:2703,1
DA:2704,1
DA:2705,1
DA:2707,1
DA:2708,1
DA:2709,1
DA:2711,1
DA:2712,1
DA:2713,1
DA:2714,1
DA:2715,1
DA:2716,1
DA:2718,1
DA:2719,1
DA:2720,1
DA:2723,1
DA:2724,1
DA:2725,1
DA:2726,1
DA:2728,1
DA:2729,1
DA:2731,1
DA:2732,1
DA:2733,1
DA:2734,1
DA:2735,1
DA:2736,1
DA:2738,1
DA:2739,1
DA:2740,1
DA:2743,1
DA:2744,1
DA:2745,1
DA:2746,1
DA:2748,1
DA:2749,1
DA:2751,1
DA:2752,1
DA:2753,1
DA:2754,1
DA:2755,1
DA:2756,1
DA:2758,1
DA:2759,1
DA:2760,1
DA:2763,1
DA:2764,1
DA:2765,1
DA:2766,1
DA:2768,1
DA:2769,1
DA:2770,1
DA:2771,1
DA:2772,1
DA:2774,1
DA:2775,1
DA:2776,1
DA:2779,1
DA:2780,1
DA:2781,1
DA:2782,1
DA:2783,1
DA:2786,1
DA:2787,1
DA:2789,1
DA:2790,1
DA:2791,1
DA:2796,1
DA:2797,1
DA:2798,1
DA:2799,1
DA:2800,1
DA:2801,1
DA:2802,1
DA:2803,1
DA:2804,1
DA:2805,1
DA:2806,1
DA:2807,1
DA:2808,1
DA:2809,1
DA:2810,1
DA:2811,1
DA:2812,1
DA:2814,1
DA:2815,1
DA:2816,1
DA:2817,1
DA:2821,1
DA:2822,1
DA:2823,1
DA:2826,1
DA:2827,1
DA:2828,1
DA:2829,1
DA:2830,1
DA:2831,1
DA:2832,1
DA:2833,1
DA:2834,1
DA:2835,1
DA:2836,1
DA:2837,1
DA:2838,1
DA:2841,1
DA:2842,1
DA:2843,1
DA:2846,1
DA:2847,1
DA:2848,1
DA:2849,1
DA:2850,1
DA:2852,1
DA:2853,1
DA:2854,1
DA:2855,1
DA:2856,1
DA:2857,1
DA:2858,1
DA:2859,1
DA:2860,1
DA:2861,1
DA:2862,1
DA:2863,1
DA:2864,1
DA:2865,1
DA:2869,1
DA:2870,1
DA:2871,1
DA:2874,1
DA:2875,1
DA:2876,1
DA:2877,1
DA:2878,1
DA:2879,1
DA:2880,1
DA:2881,1
DA:2882,1
DA:2883,1
DA:2884,1
DA:2885,1
DA:2886,1
DA:2889,1
DA:2890,1
DA:2891,1
DA:2896,1
DA:2897,1
DA:2898,1
DA:2900,1
DA:2901,1
DA:2902,1
DA:2903,1
DA:2904,1
DA:2905,1
DA:2907,1
DA:2908,1
DA:2909,1
DA:2912,1
DA:2913,1
DA:2914,1
DA:2915,1
DA:2917,1
DA:2918,1
DA:2919,1
DA:2921,1
DA:2922,1
DA:2923,1
DA:2924,1
DA:2925,1
DA:2928,1
DA:2929,1
DA:2930,1
DA:2931,1
DA:2932,1
DA:2933,1
DA:2934,1
DA:2935,1
DA:2936,1
DA:2937,1
DA:2938,1
DA:2939,1
DA:2942,1
DA:2944,1
DA:2945,1
DA:2946,1
DA:2947,1
DA:2948,1
DA:2949,1
DA:2950,1
DA:2951,1
DA:2952,1
DA:2953,1
DA:2954,1
DA:2955,1
DA:2958,1
DA:2960,1
DA:2961,1
DA:2962,1
DA:2963,1
DA:2964,1
DA:2965,1
DA:2966,1
DA:2967,1
DA:2968,1
DA:2969,1
DA:2970,1
DA:2971,1
DA:2974,1
DA:2976,1
DA:2977,1
DA:2978,1
DA:2979,1
DA:2980,1
DA:2981,1
DA:2982,1
DA:2983,1
DA:2984,1
DA:2985,1
DA:2986,1
DA:2987,1
DA:2990,1
DA:2992,1
DA:2993,1
DA:2994,1
DA:2996,1
DA:2997,1
DA:2998,1
DA:2999,1
DA:3000,1
DA:3001,1
DA:3002,1
DA:3003,1
DA:3004,1
DA:3005,1
DA:3006,1
DA:3009,1
DA:3010,1
DA:3011,1
DA:3013,1
DA:3014,1
DA:3015,1
DA:3016,1
DA:3017,1
DA:3018,1
DA:3020,1
DA:3021,1
DA:3022,1
DA:3025,1
DA:3026,1
DA:3027,1
DA:3029,1
DA:3030,1
DA:3031,1
DA:3032,1
DA:3033,1
DA:3034,1
DA:3036,1
DA:3037,1
DA:3038,1
DA:3041,1
DA:3042,1
DA:3043,1
DA:3045,1
DA:3046,1
DA:3047,1
DA:3048,1
DA:3049,1
DA:3050,1
DA:3052,1
DA:3053,1
DA:3054,1
DA:3057,1
DA:3058,1
DA:3059,1
DA:3061,1
DA:3062,1
DA:3063,1
DA:3064,1
DA:3065,1
DA:3066,1
DA:3068,1
DA:3069,1
DA:3070,1
DA:3073,1
DA:3074,1
DA:3075,1
DA:3076,1
DA:3077,1
DA:3078,1
DA:3079,1
DA:3080,1
DA:3081,1
DA:3082,1
DA:3083,1
DA:3084,1
DA:3085,1
DA:3088,1
DA:3089,1
DA:3090,1
DA:3093,1
DA:3094,1
DA:3095,1
DA:3096,1
DA:3097,1
DA:3098,1
DA:3099,1
DA:3100,1
DA:3101,1
DA:3102,1
DA:3103,1
DA:3104,1
DA:3105,1
DA:3108,1
DA:3109,1
DA:3110,1
DA:3113,1
DA:3114,1
DA:3115,1
DA:3116,1
DA:3117,1
DA:3118,1
DA:3119,1
DA:3120,1
DA:3121,1
DA:3122,1
DA:3123,1
DA:3124,1
DA:3125,1
DA:3128,1
DA:3129,1
DA:3130,1
DA:3133,1
DA:3134,1
DA:3135,1
DA:3136,1
DA:3137,1
DA:3138,1
DA:3139,1
DA:3140,1
DA:3141,1
DA:3142,1
DA:3143,1
DA:3144,1
DA:3145,1
DA:3148,1
DA:3149,1
DA:3150,1
DA:3153,1
DA:3154,1
DA:3155,1
DA:3156,1
DA:3157,1
DA:3158,1
DA:3159,1
DA:3160,1
DA:3161,1
DA:3162,1
DA:3163,1
DA:3164,1
DA:3165,1
DA:3168,1
DA:3169,1
DA:3170,1
DA:3175,1
DA:3178,1
DA:3179,1
DA:3180,1
DA:3182,1
DA:3183,1
DA:3184,1
DA:3185,1
DA:3186,1
DA:3187,1
DA:3188,1
DA:3192,1
DA:3193,1
DA:3194,1
DA:3195,1
DA:3196,1
DA:3197,1
DA:3198,1
DA:3199,1
DA:3200,1
DA:3202,1
DA:3203,1
DA:3206,1
DA:3208,1
DA:3209,1
DA:3210,1
DA:3212,1
DA:3213,1
DA:3214,1
DA:3215,1
DA:3216,1
DA:3217,1
DA:3218,1
DA:3222,1
DA:3223,1
DA:3224,1
DA:3225,1
DA:3226,1
DA:3227,1
DA:3228,1
DA:3229,1
DA:3230,1
DA:3232,1
DA:3233,1
DA:3236,1
DA:3238,1
DA:3239,1
DA:3240,1
DA:3242,1
DA:3243,1
DA:3244,1
DA:3245,1
DA:3246,1
DA:3247,1
DA:3248,1
DA:3249,1
DA:3253,1
DA:3254,1
DA:3255,1
DA:3256,1
DA:3257,1
DA:3258,1
DA:3259,1
DA:3260,1
DA:3261,1
DA:3263,1
DA:3264,1
DA:3267,1
DA:3269,1
DA:3270,1
DA:3271,1
DA:3273,1
DA:3274,1
DA:3275,1
DA:3276,1
DA:3277,1
DA:3278,1
DA:3279,1
DA:3280,1
DA:3284,1
DA:3285,1
DA:3286,1
DA:3287,1
DA:3288,1
DA:3289,1
DA:3290,1
DA:3291,1
DA:3292,1
DA:3294,1
DA:3295,1
DA:3298,1
DA:3300,1
DA:3301,1
DA:3302,1
DA:3304,1
DA:3305,1
DA:3306,1
DA:3307,1
DA:3308,1
DA:3309,1
DA:3310,1
DA:3311,1
DA:3315,1
DA:3316,1
DA:3317,1
DA:3318,1
DA:3319,1
DA:3320,1
DA:3321,1
DA:3322,1
DA:3323,1
DA:3325,1
DA:3326,1
DA:3329,1
DA:3331,1
DA:3332,1
DA:3333,1
DA:3335,1
DA:3336,1
DA:3337,1
DA:3338,1
DA:3339,1
DA:3340,1
DA:3341,1
DA:3342,1
DA:3345,1
DA:3346,1
DA:3347,1
DA:3348,1
DA:3349,1
DA:3350,1
DA:3351,1
DA:3352,1
DA:3353,1
DA:3355,1
DA:3356,1
DA:3359,1
DA:3361,1
DA:3362,1
DA:3363,1
DA:3365,1
DA:3366,1
DA:3367,1
DA:3368,1
DA:3369,1
DA:3370,1
DA:3371,1
DA:3372,1
DA:3375,1
DA:3376,1
DA:3377,1
DA:3378,1
DA:3379,1
DA:3380,1
DA:3381,1
DA:3382,1
DA:3383,1
DA:3385,1
DA:3386,1
DA:3389,1
DA:3391,1
DA:3392,1
DA:3393,1
DA:3395,1
DA:3396,1
DA:3397,1
DA:3398,1
DA:3399,1
DA:3400,1
DA:3401,1
DA:3402,1
DA:3405,1
DA:3406,1
DA:3407,1
DA:3408,1
DA:3409,1
DA:3410,1
DA:3411,1
DA:3412,1
DA:3413,1
DA:3415,1
DA:3416,1
DA:3421,1
DA:3423,1
DA:3424,1
DA:3425,1
DA:3426,1
DA:3427,1
DA:3428,1
DA:3429,1
DA:3430,1
DA:3431,1
DA:3432,1
DA:3433,1
DA:3436,1
DA:3437,1
DA:3438,1
DA:3439,1
DA:3440,1
DA:3442,1
DA:3443,1
DA:3446,1
DA:3448,1
DA:3449,1
DA:3450,1
DA:3451,1
DA:3452,1
DA:3453,1
DA:3454,1
DA:3455,1
DA:3456,1
DA:3457,1
DA:3458,1
DA:3461,1
DA:3462,1
DA:3463,1
DA:3464,1
DA:3465,1
DA:3467,1
DA:3468,1
DA:3471,1
DA:3473,1
DA:3474,1
DA:3475,1
DA:3476,1
DA:3477,1
DA:3478,1
DA:3479,1
DA:3480,1
DA:3481,1
DA:3482,1
DA:3483,1
DA:3486,1
DA:3487,1
DA:3488,1
DA:3489,1
DA:3490,1
DA:3492,1
DA:3493,1
DA:3496,1
DA:3498,1
DA:3499,1
DA:3500,1
DA:3501,1
DA:3502,1
DA:3503,1
DA:3504,1
DA:3505,1
DA:3506,1
DA:3507,1
DA:3508,1
DA:3511,1
DA:3512,1
DA:3513,1
DA:3514,1
DA:3515,1
DA:3517,1
DA:3518,1
DA:3521,1
DA:3523,1
DA:3524,1
DA:3525,1
DA:3526,1
DA:3527,1
DA:3528,1
DA:3529,1
DA:3530,1
DA:3531,1
DA:3532,1
DA:3533,1
DA:3536,1
DA:3537,1
DA:3538,1
DA:3539,1
DA:3540,1
DA:3542,1
DA:3543,1
DA:3546,1
DA:3548,1
DA:3549,1
DA:3550,1
DA:3551,1
DA:3552,1
DA:3553,1
DA:3554,1
DA:3555,1
DA:3556,1
DA:3557,1
DA:3558,1
DA:3561,1
DA:3562,1
DA:3563,1
DA:3564,1
DA:3565,1
DA:3567,1
DA:3568,1
DA:3571,1
DA:3573,1
DA:3574,1
DA:3575,1
DA:3576,1
DA:3577,1
DA:3578,1
DA:3579,1
DA:3580,1
DA:3581,1
DA:3582,1
DA:3583,1
DA:3586,1
DA:3587,1
DA:3588,1
DA:3589,1
DA:3590,1
DA:3592,1
DA:3593,1
DA:3596,1
DA:3598,1
DA:3599,1
DA:3600,1
DA:3601,1
DA:3602,1
DA:3603,1
DA:3604,1
DA:3605,1
DA:3606,1
DA:3607,1
DA:3608,1
DA:3611,1
DA:3612,1
DA:3613,1
DA:3614,1
DA:3615,1
DA:3617,1
DA:3618,1
DA:3621,1
DA:3623,1
DA:3624,1
DA:3625,1
DA:3626,1
DA:3627,1
DA:3628,1
DA:3629,1
DA:3630,1
DA:3631,1
DA:3632,1
DA:3633,1
DA:3636,1
DA:3637,1
DA:3638,1
DA:3639,1
DA:3640,1
DA:3642,1
DA:3643,1
DA:3648,1
DA:3650,1
DA:3651,1
DA:3652,1
DA:3653,1
DA:3657,1
DA:3658,1
DA:3659,1
DA:3662,1
DA:3663,1
DA:3664,1
DA:3667,1
DA:3669,1
DA:3670,1
DA:3671,1
DA:3672,1
DA:3676,1
DA:3677,1
DA:3678,1
DA:3679,1
DA:3682,1
DA:3683,1
DA:3684,1
DA:3685,1
DA:3686,1
DA:3689,1
DA:3691,1
DA:3692,1
DA:3693,1
DA:3694,1
DA:3697,1
DA:3698,1
DA:3699,1
DA:3700,1
DA:3705,1
DA:3707,1
DA:3708,1
DA:3710,1
DA:3711,1
DA:3713,1
DA:3714,1
DA:3715,1
DA:3717,1
DA:3719,1
DA:3721,1
DA:3722,1
DA:3723,1
DA:3724,1
DA:3727,1
DA:3728,1
DA:3729,1
DA:3731,1
DA:3732,1
DA:3735,1
DA:3736,1
DA:3737,1
DA:3738,1
DA:3739,1
DA:3741,1
DA:3742,1
DA:3745,1
DA:3746,1
DA:3747,1
DA:3748,1
DA:3749,1
DA:3750,1
DA:3751,1
DA:3753,1
DA:3755,1
DA:3756,1
DA:3759,1
DA:3760,1
DA:3761,1
DA:3762,1
DA:3763,1
DA:3764,1
DA:3766,1
DA:3767,1
DA:3770,1
DA:3771,1
DA:3772,1
DA:3774,1
DA:3775,1
DA:3777,1
DA:3778,1
DA:3779,1
DA:3781,1
DA:3782,1
DA:3783,1
DA:3784,1
DA:3785,1
DA:3786,1
DA:3789,1
DA:3790,1
DA:3793,1
DA:3794,1
DA:3795,1
DA:3796,1
DA:3797,1
DA:3798,1
DA:3799,1
DA:3800,1
DA:3801,1
DA:3803,1
DA:3804,1
DA:3807,1
DA:3808,1
DA:3809,1
DA:3810,1
DA:3812,1
DA:3813,1
DA:3814,1
DA:3817,1
DA:3818,1
DA:3819,1
DA:3821,1
DA:3822,1
DA:3824,1
DA:3825,1
DA:3826,1
DA:3828,1
DA:3829,1
DA:3830,1
DA:3831,1
DA:3832,1
DA:3833,1
DA:3834,1
DA:3835,1
DA:3836,1
DA:3837,1
DA:3840,1
DA:3841,1
DA:3842,1
DA:3843,1
DA:3846,1
DA:3847,1
DA:3848,1
DA:3849,1
DA:3850,1
DA:3851,1
DA:3852,1
DA:3853,1
DA:3856,1
DA:3857,1
DA:3858,1
DA:3859,1
DA:3860,1
DA:3861,1
DA:3864,1
DA:3865,1
DA:3866,1
DA:3867,1
DA:3868,1
DA:3869,1
DA:3870,1
DA:3871,1
DA:3873,1
DA:3875,1
DA:3876,1
DA:3877,1
DA:3880,1
DA:3881,1
DA:3882,1
DA:3883,1
DA:3884,1
DA:3885,1
DA:3886,1
DA:3887,1
DA:3890,1
DA:3891,1
DA:3892,1
DA:3893,1
DA:3896,1
DA:3897,1
DA:3898,1
DA:3899,1
DA:3901,1
DA:3903,1
DA:3904,1
DA:3905,1
DA:3908,1
DA:3909,1
DA:3910,1
DA:3911,1
DA:3912,1
DA:3914,1
DA:3916,1
DA:3917,1
DA:3918,1
DA:3921,1
DA:3922,1
DA:3923,1
DA:3924,1
DA:3926,1
DA:3928,1
DA:3929,1
DA:3930,1
DA:3933,1
DA:3934,1
DA:3935,1
DA:3936,1
DA:3937,1
DA:3939,1
DA:3940,1
DA:3941,1
DA:3942,1
DA:3943,1
DA:3944,1
DA:3947,1
DA:3948,1
DA:3949,1
DA:3952,1
DA:3953,1
DA:3954,1
DA:3956,1
DA:3957,1
DA:3959,1
DA:3961,1
DA:3962,1
DA:3964,1
DA:3965,1
DA:3966,1
BRF:0
BRH:0
LF:2796
LH:2445
end_of_record
SF:/home/openclaw/dev/yinglichina8848/sqlrustgo/crates/planner/src/planner.rs
FN:438,_RNvNtNtCsk6zXnftdXdR_17sqlrustgo_planner7planner5testss_17test_noop_planner
FN:648,_RNvNtNtCsk6zXnftdXdR_17sqlrustgo_planner7planner5testss_22test_default_optimizer
FN:535,_RNvNtNtCsk6zXnftdXdR_17sqlrustgo_planner7planner5testss_22test_planner_result_ok
FN:453,_RNvNtNtCsk6zXnftdXdR_17sqlrustgo_planner7planner5testss_23test_join_physical_plan
FN:542,_RNvNtNtCsk6zXnftdXdR_17sqlrustgo_planner7planner5testss_23test_planner_result_err
FN:511,_RNvNtNtCsk6zXnftdXdR_17sqlrustgo_planner7planner5testss_23test_sort_physical_plan
FN:587,_RNvNtNtCsk6zXnftdXdR_17sqlrustgo_planner7planner5testss_24test_limit_physical_plan
FN:709,_RNvNtNtCsk6zXnftdXdR_17sqlrustgo_planner7planner5testss_25test_delete_physical_plan
FN:414,_RNvNtNtCsk6zXnftdXdR_17sqlrustgo_planner7planner5testss_25test_filter_physical_plan
FN:548,_RNvNtNtCsk6zXnftdXdR_17sqlrustgo_planner7planner5testss_25test_noop_planner_default
FN:697,_RNvNtNtCsk6zXnftdXdR_17sqlrustgo_planner7planner5testss_25test_update_physical_plan
FN:662,_RNvNtNtCsk6zXnftdXdR_17sqlrustgo_planner7planner5testss_25test_values_physical_plan
FN:554,_RNvNtNtCsk6zXnftdXdR_17sqlrustgo_planner7planner5testss_26test_planner_error_display
FN:720,_RNvNtNtCsk6zXnftdXdR_17sqlrustgo_planner7planner5testss_27test_subquery_physical_plan
FN:488,_RNvNtNtCsk6zXnftdXdR_17sqlrustgo_planner7planner5testss_28test_aggregate_physical_plan
FN:366,_RNvNtNtCsk6zXnftdXdR_17sqlrustgo_planner7planner5testss_29test_default_planner_creation
FN:686,_RNvNtNtCsk6zXnftdXdR_17sqlrustgo_planner7planner5testss_29test_drop_table_physical_plan
FN:393,_RNvNtNtCsk6zXnftdXdR_17sqlrustgo_planner7planner5testss_29test_projection_physical_plan
FN:372,_RNvNtNtCsk6zXnftdXdR_17sqlrustgo_planner7planner5testss_29test_table_scan_physical_plan
FN:674,_RNvNtNtCsk6zXnftdXdR_17sqlrustgo_planner7planner5testss_31test_create_table_physical_plan
FN:630,_RNvNtNtCsk6zXnftdXdR_17sqlrustgo_planner7planner5testss_31test_table_scan_with_projection
FN:737,_RNvNtNtCsk6zXnftdXdR_17sqlrustgo_planner7planner5testss_32test_set_operation_physical_plan
FN:654,_RNvNtNtCsk6zXnftdXdR_17sqlrustgo_planner7planner5testss_33test_empty_relation_physical_plan
FN:609,_RNvNtNtCsk6zXnftdXdR_17sqlrustgo_planner7planner5testss_36test_limit_physical_plan_with_offset
FN:761,_RNvNtNtCsk6zXnftdXdR_17sqlrustgo_planner7planner5testss_38test_noop_planner_create_physical_plan
FN:560,_RNvNtNtCsk6zXnftdXdR_17sqlrustgo_planner7planner5testss_42test_aggregate_physical_plan_with_group_by
FN:850,_RNvNtNtCsk6zXnftdXdR_17sqlrustgo_planner7planner16additional_testss_21test_should_use_index
FN:822,_RNvNtNtCsk6zXnftdXdR_17sqlrustgo_planner7planner16additional_testss_27test_extract_join_keys_left
FN:844,_RNvNtNtCsk6zXnftdXdR_17sqlrustgo_planner7planner16additional_testss_27test_extract_join_keys_none
FN:833,_RNvNtNtCsk6zXnftdXdR_17sqlrustgo_planner7planner16additional_testss_28test_extract_join_keys_right
FN:816,_RNvNtNtCsk6zXnftdXdR_17sqlrustgo_planner7planner16additional_testss_39test_default_planner_with_teaching_mode
FN:297,_RNvXs_NtCsk6zXnftdXdR_17sqlrustgo_planner7plannerNtB4_14DefaultPlannerNtNtCs8nPosuWgJFh_4core7default7Default7default
FN:65,_RNvMNtCsk6zXnftdXdR_17sqlrustgo_planner7plannerNtB2_14DefaultPlanner18with_teaching_mode
FN:73,_RNvMNtCsk6zXnftdXdR_17sqlrustgo_planner7plannerNtB2_14DefaultPlanner29create_physical_plan_internal
FN:55,_RNvMNtCsk6zXnftdXdR_17sqlrustgo_planner7plannerNtB2_14DefaultPlanner3new
FN:331,_RNvMs1_NtCsk6zXnftdXdR_17sqlrustgo_planner7plannerNtB5_11NoOpPlanner3new
FN:41,_RNvNtCsk6zXnftdXdR_17sqlrustgo_planner7planner16is_teaching_mode
FN:791,_RNvNtCsk6zXnftdXdR_17sqlrustgo_planner7planner16should_use_index
FN:797,_RNvNtCsk6zXnftdXdR_17sqlrustgo_planner7planner17extract_join_keys
FN:785,_RNvNtCsk6zXnftdXdR_17sqlrustgo_planner7planner20estimate_output_rows
FN:774,_RNvNtCsk6zXnftdXdR_17sqlrustgo_planner7planner21select_join_algorithm
FN:303,_RNvXs0_NtCsk6zXnftdXdR_17sqlrustgo_planner7plannerNtB5_14DefaultPlannerNtB5_7Planner20create_physical_plan
FN:310,_RNvXs0_NtCsk6zXnftdXdR_17sqlrustgo_planner7plannerNtB5_14DefaultPlannerNtB5_7Planner8optimize
FN:337,_RNvXs2_NtCsk6zXnftdXdR_17sqlrustgo_planner7plannerNtB5_11NoOpPlannerNtNtCs8nPosuWgJFh_4core7default7Default7default
FN:343,_RNvXs3_NtCsk6zXnftdXdR_17sqlrustgo_planner7plannerNtB5_11NoOpPlannerNtB5_7Planner20create_physical_plan
FN:351,_RNvXs3_NtCsk6zXnftdXdR_17sqlrustgo_planner7plannerNtB5_11NoOpPlannerNtB5_7Planner8optimize
FN:93,_RNCNvMNtCsk6zXnftdXdR_17sqlrustgo_planner7plannerNtB4_14DefaultPlanner29create_physical_plan_internal0B6_
FN:94,_RNCNvMNtCsk6zXnftdXdR_17sqlrustgo_planner7plannerNtB4_14DefaultPlanner29create_physical_plan_internals_0B6_
FN:43,_RNCNvNtCsk6zXnftdXdR_17sqlrustgo_planner7planner16is_teaching_mode0B5_
FN:315,_RNCNvXs0_NtCsk6zXnftdXdR_17sqlrustgo_planner7plannerNtB7_14DefaultPlannerNtB7_7Planner8optimize0B9_
FN:319,_RNCNvXs0_NtCsk6zXnftdXdR_17sqlrustgo_planner7plannerNtB7_14DefaultPlannerNtB7_7Planner8optimizes_0B9_
FNDA:1,_RNvNtNtCsk6zXnftdXdR_17sqlrustgo_planner7planner5testss_17test_noop_planner
FNDA:1,_RNvNtNtCsk6zXnftdXdR_17sqlrustgo_planner7planner5testss_22test_default_optimizer
FNDA:1,_RNvNtNtCsk6zXnftdXdR_17sqlrustgo_planner7planner5testss_22test_planner_result_ok
FNDA:1,_RNvNtNtCsk6zXnftdXdR_17sqlrustgo_planner7planner5testss_23test_join_physical_plan
FNDA:1,_RNvNtNtCsk6zXnftdXdR_17sqlrustgo_planner7planner5testss_23test_planner_result_err
FNDA:1,_RNvNtNtCsk6zXnftdXdR_17sqlrustgo_planner7planner5testss_23test_sort_physical_plan
FNDA:1,_RNvNtNtCsk6zXnftdXdR_17sqlrustgo_planner7planner5testss_24test_limit_physical_plan
FNDA:1,_RNvNtNtCsk6zXnftdXdR_17sqlrustgo_planner7planner5testss_25test_delete_physical_plan
FNDA:1,_RNvNtNtCsk6zXnftdXdR_17sqlrustgo_planner7planner5testss_25test_filter_physical_plan
FNDA:1,_RNvNtNtCsk6zXnftdXdR_17sqlrustgo_planner7planner5testss_25test_noop_planner_default
FNDA:1,_RNvNtNtCsk6zXnftdXdR_17sqlrustgo_planner7planner5testss_25test_update_physical_plan
FNDA:1,_RNvNtNtCsk6zXnftdXdR_17sqlrustgo_planner7planner5testss_25test_values_physical_plan
FNDA:1,_RNvNtNtCsk6zXnftdXdR_17sqlrustgo_planner7planner5testss_26test_planner_error_display
FNDA:1,_RNvNtNtCsk6zXnftdXdR_17sqlrustgo_planner7planner5testss_27test_subquery_physical_plan
FNDA:1,_RNvNtNtCsk6zXnftdXdR_17sqlrustgo_planner7planner5testss_28test_aggregate_physical_plan
FNDA:1,_RNvNtNtCsk6zXnftdXdR_17sqlrustgo_planner7planner5testss_29test_default_planner_creation
FNDA:1,_RNvNtNtCsk6zXnftdXdR_17sqlrustgo_planner7planner5testss_29test_drop_table_physical_plan
FNDA:1,_RNvNtNtCsk6zXnftdXdR_17sqlrustgo_planner7planner5testss_29test_projection_physical_plan
FNDA:1,_RNvNtNtCsk6zXnftdXdR_17sqlrustgo_planner7planner5testss_29test_table_scan_physical_plan
FNDA:1,_RNvNtNtCsk6zXnftdXdR_17sqlrustgo_planner7planner5testss_31test_create_table_physical_plan
FNDA:1,_RNvNtNtCsk6zXnftdXdR_17sqlrustgo_planner7planner5testss_31test_table_scan_with_projection
FNDA:1,_RNvNtNtCsk6zXnftdXdR_17sqlrustgo_planner7planner5testss_32test_set_operation_physical_plan
FNDA:1,_RNvNtNtCsk6zXnftdXdR_17sqlrustgo_planner7planner5testss_33test_empty_relation_physical_plan
FNDA:1,_RNvNtNtCsk6zXnftdXdR_17sqlrustgo_planner7planner5testss_36test_limit_physical_plan_with_offset
FNDA:1,_RNvNtNtCsk6zXnftdXdR_17sqlrustgo_planner7planner5testss_38test_noop_planner_create_physical_plan
FNDA:1,_RNvNtNtCsk6zXnftdXdR_17sqlrustgo_planner7planner5testss_42test_aggregate_physical_plan_with_group_by
FNDA:1,_RNvNtNtCsk6zXnftdXdR_17sqlrustgo_planner7planner16additional_testss_21test_should_use_index
FNDA:1,_RNvNtNtCsk6zXnftdXdR_17sqlrustgo_planner7planner16additional_testss_27test_extract_join_keys_left
FNDA:1,_RNvNtNtCsk6zXnftdXdR_17sqlrustgo_planner7planner16additional_testss_27test_extract_join_keys_none
FNDA:1,_RNvNtNtCsk6zXnftdXdR_17sqlrustgo_planner7planner16additional_testss_28test_extract_join_keys_right
FNDA:1,_RNvNtNtCsk6zXnftdXdR_17sqlrustgo_planner7planner16additional_testss_39test_default_planner_with_teaching_mode
FNDA:0,_RNvXs_NtCsk6zXnftdXdR_17sqlrustgo_planner7plannerNtB4_14DefaultPlannerNtNtCs8nPosuWgJFh_4core7default7Default7default
FNDA:1,_RNvMNtCsk6zXnftdXdR_17sqlrustgo_planner7plannerNtB2_14DefaultPlanner18with_teaching_mode
FNDA:32,_RNvMNtCsk6zXnftdXdR_17sqlrustgo_planner7plannerNtB2_14DefaultPlanner29create_physical_plan_internal
FNDA:22,_RNvMNtCsk6zXnftdXdR_17sqlrustgo_planner7plannerNtB2_14DefaultPlanner3new
FNDA:3,_RNvMs1_NtCsk6zXnftdXdR_17sqlrustgo_planner7plannerNtB5_11NoOpPlanner3new
FNDA:22,_RNvNtCsk6zXnftdXdR_17sqlrustgo_planner7planner16is_teaching_mode
FNDA:16,_RNvNtCsk6zXnftdXdR_17sqlrustgo_planner7planner16should_use_index
FNDA:3,_RNvNtCsk6zXnftdXdR_17sqlrustgo_planner7planner17extract_join_keys
FNDA:2,_RNvNtCsk6zXnftdXdR_17sqlrustgo_planner7planner20estimate_output_rows
FNDA:1,_RNvNtCsk6zXnftdXdR_17sqlrustgo_planner7planner21select_join_algorithm
FNDA:20,_RNvXs0_NtCsk6zXnftdXdR_17sqlrustgo_planner7plannerNtB5_14DefaultPlannerNtB5_7Planner20create_physical_plan
FNDA:1,_RNvXs0_NtCsk6zXnftdXdR_17sqlrustgo_planner7plannerNtB5_14DefaultPlannerNtB5_7Planner8optimize
FNDA:1,_RNvXs2_NtCsk6zXnftdXdR_17sqlrustgo_planner7plannerNtB5_11NoOpPlannerNtNtCs8nPosuWgJFh_4core7default7Default7default
FNDA:1,_RNvXs3_NtCsk6zXnftdXdR_17sqlrustgo_planner7plannerNtB5_11NoOpPlannerNtB5_7Planner20create_physical_plan
FNDA:1,_RNvXs3_NtCsk6zXnftdXdR_17sqlrustgo_planner7plannerNtB5_11NoOpPlannerNtB5_7Planner8optimize
FNDA:0,_RNCNvMNtCsk6zXnftdXdR_17sqlrustgo_planner7plannerNtB4_14DefaultPlanner29create_physical_plan_internal0B6_
FNDA:0,_RNCNvMNtCsk6zXnftdXdR_17sqlrustgo_planner7plannerNtB4_14DefaultPlanner29create_physical_plan_internals_0B6_
FNDA:0,_RNCNvNtCsk6zXnftdXdR_17sqlrustgo_planner7planner16is_teaching_mode0B5_
FNDA:0,_RNCNvXs0_NtCsk6zXnftdXdR_17sqlrustgo_planner7plannerNtB7_14DefaultPlannerNtB7_7Planner8optimize0B9_
FNDA:0,_RNCNvXs0_NtCsk6zXnftdXdR_17sqlrustgo_planner7plannerNtB7_14DefaultPlannerNtB7_7Planner8optimizes_0B9_
FNF:51
FNH:45
DA:41,22
DA:42,22
DA:43,22
DA:44,22
DA:45,22
DA:55,22
DA:56,22
DA:57,22
DA:58,22
DA:59,22
DA:60,22
DA:61,22
DA:62,22
DA:65,1
DA:66,1
DA:67,1
DA:68,1
DA:69,1
DA:70,1
DA:71,1
DA:73,32
DA:74,32
DA:75,32
DA:76,32
DA:77,32
DA:79,15
DA:80,15
DA:81,15
DA:86,15
DA:88,15
DA:90,0
DA:91,0
DA:92,0
DA:93,0
DA:94,0
DA:95,0
DA:96,0
DA:97,0
DA:98,0
DA:99,0
DA:100,0
DA:101,0
DA:103,15
DA:104,15
DA:105,1
DA:106,14
DA:107,15
DA:111,1
DA:112,1
DA:113,1
DA:115,1
DA:116,1
DA:117,1
DA:118,1
DA:119,1
DA:120,1
DA:122,1
DA:124,1
DA:125,1
DA:126,1
DA:127,1
DA:129,1
DA:130,1
DA:131,1
DA:132,0
DA:133,1
DA:134,1
DA:135,0
DA:136,0
DA:137,0
DA:140,2
DA:141,2
DA:142,2
DA:143,2
DA:144,2
DA:146,2
DA:147,2
DA:148,2
DA:149,2
DA:150,2
DA:151,2
DA:152,2
DA:153,2
DA:156,1
DA:157,1
DA:158,1
DA:159,1
DA:161,1
DA:162,1
DA:165,1
DA:166,1
DA:169,1
DA:171,1
DA:173,1
DA:174,1
DA:175,0
DA:176,0
DA:177,0
DA:178,0
DA:179,0
DA:180,0
DA:181,0
DA:182,0
DA:183,0
DA:184,0
DA:185,0
DA:187,1
DA:188,1
DA:189,1
DA:190,1
DA:191,1
DA:192,1
DA:193,1
DA:196,1
DA:197,1
DA:198,1
DA:201,2
DA:202,2
DA:203,2
DA:205,2
DA:206,1
DA:208,0
DA:209,0
DA:210,0
DA:211,0
DA:213,0
DA:214,0
DA:215,0
DA:216,0
DA:217,0
DA:218,0
DA:219,0
DA:220,0
DA:221,1
DA:223,1
DA:224,1
DA:225,1
DA:226,1
DA:228,1
DA:229,1
DA:230,1
DA:231,0
DA:232,1
DA:233,1
DA:234,0
DA:235,1
DA:236,1
DA:237,1
DA:241,1
DA:243,1
DA:245,1
DA:251,2
DA:255,2
DA:257,2
DA:259,0
DA:260,0
DA:261,0
DA:262,0
DA:263,0
DA:265,0
DA:266,0
DA:268,0
DA:269,0
DA:270,0
DA:271,0
DA:272,0
DA:273,0
DA:274,0
DA:275,0
DA:278,1
DA:279,1
DA:280,1
DA:281,1
DA:283,1
DA:284,1
DA:285,1
DA:286,1
DA:287,1
DA:288,1
DA:289,1
DA:290,1
DA:293,32
DA:297,0
DA:298,0
DA:299,0
DA:303,20
DA:304,20
DA:305,20
DA:306,20
DA:307,20
DA:308,20
DA:310,1
DA:312,1
DA:313,0
DA:314,0
DA:315,0
DA:317,1
DA:318,1
DA:319,1
DA:323,1
DA:324,1
DA:331,3
DA:332,3
DA:333,3
DA:337,1
DA:338,1
DA:339,1
DA:343,1
DA:344,1
DA:345,1
DA:346,1
DA:347,1
DA:348,1
DA:349,1
DA:351,1
DA:352,1
DA:353,1
DA:354,1
DA:366,1
DA:367,1
DA:368,1
DA:369,1
DA:372,1
DA:373,1
DA:374,1
DA:375,1
DA:376,1
DA:377,1
DA:378,1
DA:380,1
DA:381,1
DA:383,1
DA:384,1
DA:385,1
DA:389,1
DA:390,1
DA:393,1
DA:394,1
DA:395,1
DA:396,1
DA:397,1
DA:398,1
DA:399,1
DA:401,1
DA:402,1
DA:403,1
DA:404,1
DA:405,1
DA:407,1
DA:408,1
DA:410,1
DA:411,1
DA:414,1
DA:415,1
DA:416,1
DA:417,1
DA:418,1
DA:419,1
DA:420,1
DA:422,1
DA:423,1
DA:424,1
DA:425,1
DA:426,1
DA:427,1
DA:428,1
DA:429,1
DA:431,1
DA:432,1
DA:434,1
DA:435,1
DA:438,1
DA:439,1
DA:440,1
DA:441,1
DA:442,1
DA:443,1
DA:444,1
DA:446,1
DA:447,1
DA:449,1
DA:450,1
DA:453,1
DA:454,1
DA:456,1
DA:457,1
DA:458,1
DA:459,1
DA:460,1
DA:462,1
DA:463,1
DA:464,1
DA:465,1
DA:466,1
DA:468,1
DA:469,1
DA:470,1
DA:471,1
DA:472,1
DA:473,1
DA:475,1
DA:476,1
DA:477,1
DA:478,1
DA:479,1
DA:480,1
DA:481,1
DA:485,1
DA:488,1
DA:489,1
DA:491,1
DA:492,1
DA:493,1
DA:494,1
DA:495,1
DA:497,1
DA:498,1
DA:499,1
DA:500,1
DA:501,1
DA:502,1
DA:503,1
DA:505,1
DA:506,1
DA:507,1
DA:508,1
DA:511,1
DA:512,1
DA:514,1
DA:515,1
DA:516,1
DA:517,1
DA:518,1
DA:520,1
DA:521,1
DA:522,1
DA:523,1
DA:524,1
DA:525,1
DA:526,1
DA:527,1
DA:529,1
DA:530,1
DA:531,1
DA:532,1
DA:535,1
DA:536,1
DA:537,1
DA:538,1
DA:539,1
DA:542,1
DA:543,1
DA:544,1
DA:545,1
DA:548,1
DA:549,1
DA:550,1
DA:551,1
DA:554,1
DA:555,1
DA:556,1
DA:557,1
DA:560,1
DA:561,1
DA:562,1
DA:563,1
DA:566,1
DA:567,1
DA:568,1
DA:569,1
DA:570,1
DA:572,1
DA:573,1
DA:574,1
DA:575,1
DA:576,1
DA:577,1
DA:578,1
DA:580,1
DA:581,1
DA:582,1
DA:583,1
DA:584,1
DA:587,1
DA:588,1
DA:590,1
DA:591,1
DA:592,1
DA:593,1
DA:594,1
DA:596,1
DA:597,1
DA:598,1
DA:599,1
DA:600,1
DA:602,1
DA:603,1
DA:604,1
DA:605,1
DA:606,1
DA:609,1
DA:610,1
DA:612,1
DA:613,1
DA:614,1
DA:615,1
DA:616,1
DA:618,1
DA:619,1
DA:620,1
DA:621,1
DA:622,1
DA:624,1
DA:625,1
DA:626,1
DA:627,1
DA:630,1
DA:631,1
DA:632,1
DA:633,1
DA:636,1
DA:637,1
DA:638,1
DA:639,1
DA:640,1
DA:642,1
DA:643,1
DA:644,1
DA:645,1
DA:648,1
DA:649,1
DA:650,1
DA:651,1
DA:654,1
DA:655,1
DA:656,1
DA:657,1
DA:658,1
DA:659,1
DA:662,1
DA:663,1
DA:664,1
DA:665,1
DA:666,1
DA:667,1
DA:668,1
DA:669,1
DA:670,1
DA:671,1
DA:674,1
DA:675,1
DA:676,1
DA:677,1
DA:678,1
DA:679,1
DA:680,1
DA:681,1
DA:682,1
DA:683,1
DA:686,1
DA:687,1
DA:688,1
DA:689,1
DA:690,1
DA:691,1
DA:692,1
DA:693,1
DA:694,1
DA:697,1
DA:698,1
DA:699,1
DA:700,1
DA:701,1
DA:702,1
DA:703,1
DA:704,1
DA:705,1
DA:706,1
DA:709,1
DA:710,1
DA:711,1
DA:712,1
DA:713,1
DA:714,1
DA:715,1
DA:716,1
DA:717,1
DA:720,1
DA:721,1
DA:722,1
DA:723,1
DA:724,1
DA:725,1
DA:726,1
DA:727,1
DA:728,1
DA:729,1
DA:730,1
DA:731,1
DA:732,1
DA:733,1
DA:734,1
DA:737,1
DA:738,1
DA:739,1
DA:740,1
DA:741,1
DA:742,1
DA:743,1
DA:744,1
DA:745,1
DA:746,1
DA:747,1
DA:748,1
DA:749,1
DA:750,1
DA:751,1
DA:752,1
DA:753,1
DA:754,1
DA:755,1
DA:756,1
DA:757,1
DA:758,1
DA:761,1
DA:762,1
DA:763,1
DA:764,1
DA:765,1
DA:766,1
DA:767,1
DA:768,1
DA:769,1
DA:770,1
DA:771,1
DA:774,1
DA:775,1
DA:776,1
DA:777,1
DA:778,1
DA:779,1
DA:782,1
DA:783,1
DA:785,2
DA:788,2
DA:789,2
DA:791,16
DA:794,16
DA:795,16
DA:797,3
DA:798,2
DA:799,2
DA:800,2
DA:801,1
DA:803,1
DA:806,1
DA:808,3
DA:816,1
DA:817,1
DA:818,1
DA:819,1
DA:822,1
DA:823,1
DA:824,1
DA:825,1
DA:826,1
DA:828,1
DA:829,1
DA:830,1
DA:833,1
DA:834,1
DA:835,1
DA:836,1
DA:837,1
DA:839,1
DA:840,1
DA:841,1
DA:844,1
DA:845,1
DA:846,1
DA:847,1
DA:850,1
DA:851,1
DA:852,1
DA:853,1
BRF:0
BRH:0
LF:590
LH:523
end_of_record
SF:/home/openclaw/dev/yinglichina8848/sqlrustgo/crates/planner/src/prepared.rs
FN:224,_RNvMNtNtCsk6zXnftdXdR_17sqlrustgo_planner8prepared5testsNtB2_16MockPhysicalPlan3new
FN:298,_RNvNtNtCsk6zXnftdXdR_17sqlrustgo_planner8prepared5testss_16test_manager_get
FN:281,_RNvNtNtCsk6zXnftdXdR_17sqlrustgo_planner8prepared5testss_20test_manager_prepare
FN:332,_RNvNtNtCsk6zXnftdXdR_17sqlrustgo_planner8prepared5testss_21test_manager_eviction
FN:315,_RNvNtNtCsk6zXnftdXdR_17sqlrustgo_planner8prepared5testss_23test_manager_deallocate
FN:250,_RNvNtNtCsk6zXnftdXdR_17sqlrustgo_planner8prepared5testss_32test_prepared_statement_creation
FN:266,_RNvNtNtCsk6zXnftdXdR_17sqlrustgo_planner8prepared5testss_34test_prepared_statement_record_use
FN:240,_RNvXs_NtNtCsk6zXnftdXdR_17sqlrustgo_planner8prepared5testsNtB4_16MockPhysicalPlanNtNtB8_13physical_plan12PhysicalPlan4name
FN:244,_RNvXs_NtNtCsk6zXnftdXdR_17sqlrustgo_planner8prepared5testsNtB4_16MockPhysicalPlanNtNtB8_13physical_plan12PhysicalPlan6as_any
FN:232,_RNvXs_NtNtCsk6zXnftdXdR_17sqlrustgo_planner8prepared5testsNtB4_16MockPhysicalPlanNtNtB8_13physical_plan12PhysicalPlan6schema
FN:236,_RNvXs_NtNtCsk6zXnftdXdR_17sqlrustgo_planner8prepared5testsNtB4_16MockPhysicalPlanNtNtB8_13physical_plan12PhysicalPlan8children
FN:173,_RNCNvMs1_NtCsk6zXnftdXdR_17sqlrustgo_planner8preparedNtB7_24PreparedStatementManager9evict_lrus_0B9_
FN:185,_RNCNvMs1_NtCsk6zXnftdXdR_17sqlrustgo_planner8preparedNtB7_24PreparedStatementManager12cleanup_idle0B9_
FN:192,_RNCNvMs1_NtCsk6zXnftdXdR_17sqlrustgo_planner8preparedNtB7_24PreparedStatementManager12cleanup_idles0_0B9_
FN:191,_RNCNvMs1_NtCsk6zXnftdXdR_17sqlrustgo_planner8preparedNtB7_24PreparedStatementManager12cleanup_idles_0B9_
FN:137,_RNCNvMs1_NtCsk6zXnftdXdR_17sqlrustgo_planner8preparedNtB7_24PreparedStatementManager7execute0B9_
FN:141,_RNvMs1_NtCsk6zXnftdXdR_17sqlrustgo_planner8preparedNtB5_24PreparedStatementManager10record_use
FN:182,_RNvMs1_NtCsk6zXnftdXdR_17sqlrustgo_planner8preparedNtB5_24PreparedStatementManager12cleanup_idle
FN:208,_RNvMs1_NtCsk6zXnftdXdR_17sqlrustgo_planner8preparedNtB5_24PreparedStatementManager13statement_ids
FN:203,_RNvMs1_NtCsk6zXnftdXdR_17sqlrustgo_planner8preparedNtB5_24PreparedStatementManager5clear
FN:134,_RNvMs1_NtCsk6zXnftdXdR_17sqlrustgo_planner8preparedNtB5_24PreparedStatementManager7execute
FN:126,_RNvMs1_NtCsk6zXnftdXdR_17sqlrustgo_planner8preparedNtB5_24PreparedStatementManager7get_mut
FN:163,_RNvMs1_NtCsk6zXnftdXdR_17sqlrustgo_planner8preparedNtB5_24PreparedStatementManager8is_empty
FN:86,_RNvXs0_NtCsk6zXnftdXdR_17sqlrustgo_planner8preparedNtB5_24PreparedStatementManagerNtNtCs8nPosuWgJFh_4core7default7Default7default
FN:63,_RNvXs_NtCsk6zXnftdXdR_17sqlrustgo_planner8preparedNtB4_17PreparedStatementNtNtCs8nPosuWgJFh_4core3fmt5Debug3fmt
FN:56,_RNvMNtCsk6zXnftdXdR_17sqlrustgo_planner8preparedNtB2_17PreparedStatement10record_use
FN:37,_RNvMNtCsk6zXnftdXdR_17sqlrustgo_planner8preparedNtB2_17PreparedStatement3new
FN:148,_RNvMs1_NtCsk6zXnftdXdR_17sqlrustgo_planner8preparedNtB5_24PreparedStatementManager10deallocate
FN:121,_RNvMs1_NtCsk6zXnftdXdR_17sqlrustgo_planner8preparedNtB5_24PreparedStatementManager3get
FN:158,_RNvMs1_NtCsk6zXnftdXdR_17sqlrustgo_planner8preparedNtB5_24PreparedStatementManager3len
FN:93,_RNvMs1_NtCsk6zXnftdXdR_17sqlrustgo_planner8preparedNtB5_24PreparedStatementManager3new
FN:153,_RNvMs1_NtCsk6zXnftdXdR_17sqlrustgo_planner8preparedNtB5_24PreparedStatementManager6exists
FN:103,_RNvMs1_NtCsk6zXnftdXdR_17sqlrustgo_planner8preparedNtB5_24PreparedStatementManager7prepare
FN:168,_RNvMs1_NtCsk6zXnftdXdR_17sqlrustgo_planner8preparedNtB5_24PreparedStatementManager9evict_lru
FN:347,_RNCNvNtNtCsk6zXnftdXdR_17sqlrustgo_planner8prepared5testss_21test_manager_eviction0B7_
FNDA:8,_RNvMNtNtCsk6zXnftdXdR_17sqlrustgo_planner8prepared5testsNtB2_16MockPhysicalPlan3new
FNDA:1,_RNvNtNtCsk6zXnftdXdR_17sqlrustgo_planner8prepared5testss_16test_manager_get
FNDA:1,_RNvNtNtCsk6zXnftdXdR_17sqlrustgo_planner8prepared5testss_20test_manager_prepare
FNDA:1,_RNvNtNtCsk6zXnftdXdR_17sqlrustgo_planner8prepared5testss_21test_manager_eviction
FNDA:1,_RNvNtNtCsk6zXnftdXdR_17sqlrustgo_planner8prepared5testss_23test_manager_deallocate
FNDA:1,_RNvNtNtCsk6zXnftdXdR_17sqlrustgo_planner8prepared5testss_32test_prepared_statement_creation
FNDA:1,_RNvNtNtCsk6zXnftdXdR_17sqlrustgo_planner8prepared5testss_34test_prepared_statement_record_use
FNDA:0,_RNvXs_NtNtCsk6zXnftdXdR_17sqlrustgo_planner8prepared5testsNtB4_16MockPhysicalPlanNtNtB8_13physical_plan12PhysicalPlan4name
FNDA:0,_RNvXs_NtNtCsk6zXnftdXdR_17sqlrustgo_planner8prepared5testsNtB4_16MockPhysicalPlanNtNtB8_13physical_plan12PhysicalPlan6as_any
FNDA:0,_RNvXs_NtNtCsk6zXnftdXdR_17sqlrustgo_planner8prepared5testsNtB4_16MockPhysicalPlanNtNtB8_13physical_plan12PhysicalPlan6schema
FNDA:0,_RNvXs_NtNtCsk6zXnftdXdR_17sqlrustgo_planner8prepared5testsNtB4_16MockPhysicalPlanNtNtB8_13physical_plan12PhysicalPlan8children
FNDA:1,_RNCNvMs1_NtCsk6zXnftdXdR_17sqlrustgo_planner8preparedNtB7_24PreparedStatementManager9evict_lrus_0B9_
FNDA:0,_RNCNvMs1_NtCsk6zXnftdXdR_17sqlrustgo_planner8preparedNtB7_24PreparedStatementManager12cleanup_idle0B9_
FNDA:0,_RNCNvMs1_NtCsk6zXnftdXdR_17sqlrustgo_planner8preparedNtB7_24PreparedStatementManager12cleanup_idles0_0B9_
FNDA:0,_RNCNvMs1_NtCsk6zXnftdXdR_17sqlrustgo_planner8preparedNtB7_24PreparedStatementManager12cleanup_idles_0B9_
FNDA:0,_RNCNvMs1_NtCsk6zXnftdXdR_17sqlrustgo_planner8preparedNtB7_24PreparedStatementManager7execute0B9_
FNDA:0,_RNvMs1_NtCsk6zXnftdXdR_17sqlrustgo_planner8preparedNtB5_24PreparedStatementManager10record_use
FNDA:0,_RNvMs1_NtCsk6zXnftdXdR_17sqlrustgo_planner8preparedNtB5_24PreparedStatementManager12cleanup_idle
FNDA:0,_RNvMs1_NtCsk6zXnftdXdR_17sqlrustgo_planner8preparedNtB5_24PreparedStatementManager13statement_ids
FNDA:0,_RNvMs1_NtCsk6zXnftdXdR_17sqlrustgo_planner8preparedNtB5_24PreparedStatementManager5clear
FNDA:0,_RNvMs1_NtCsk6zXnftdXdR_17sqlrustgo_planner8preparedNtB5_24PreparedStatementManager7execute
FNDA:0,_RNvMs1_NtCsk6zXnftdXdR_17sqlrustgo_planner8preparedNtB5_24PreparedStatementManager7get_mut
FNDA:0,_RNvMs1_NtCsk6zXnftdXdR_17sqlrustgo_planner8preparedNtB5_24PreparedStatementManager8is_empty
FNDA:0,_RNvXs0_NtCsk6zXnftdXdR_17sqlrustgo_planner8preparedNtB5_24PreparedStatementManagerNtNtCs8nPosuWgJFh_4core7default7Default7default
FNDA:0,_RNvXs_NtCsk6zXnftdXdR_17sqlrustgo_planner8preparedNtB4_17PreparedStatementNtNtCs8nPosuWgJFh_4core3fmt5Debug3fmt
FNDA:1,_RNvMNtCsk6zXnftdXdR_17sqlrustgo_planner8preparedNtB2_17PreparedStatement10record_use
FNDA:8,_RNvMNtCsk6zXnftdXdR_17sqlrustgo_planner8preparedNtB2_17PreparedStatement3new
FNDA:1,_RNvMs1_NtCsk6zXnftdXdR_17sqlrustgo_planner8preparedNtB5_24PreparedStatementManager10deallocate
FNDA:1,_RNvMs1_NtCsk6zXnftdXdR_17sqlrustgo_planner8preparedNtB5_24PreparedStatementManager3get
FNDA:1,_RNvMs1_NtCsk6zXnftdXdR_17sqlrustgo_planner8preparedNtB5_24PreparedStatementManager3len
FNDA:4,_RNvMs1_NtCsk6zXnftdXdR_17sqlrustgo_planner8preparedNtB5_24PreparedStatementManager3new
FNDA:6,_RNvMs1_NtCsk6zXnftdXdR_17sqlrustgo_planner8preparedNtB5_24PreparedStatementManager6exists
FNDA:6,_RNvMs1_NtCsk6zXnftdXdR_17sqlrustgo_planner8preparedNtB5_24PreparedStatementManager7prepare
FNDA:1,_RNvMs1_NtCsk6zXnftdXdR_17sqlrustgo_planner8preparedNtB5_24PreparedStatementManager9evict_lru
FNDA:3,_RNCNvNtNtCsk6zXnftdXdR_17sqlrustgo_planner8prepared5testss_21test_manager_eviction0B7_
FNF:35
FNH:18
DA:37,8
DA:38,8
DA:39,8
DA:40,8
DA:41,8
DA:42,8
DA:43,8
DA:44,8
DA:45,8
DA:46,8
DA:47,8
DA:48,8
DA:49,8
DA:50,8
DA:51,8
DA:52,8
DA:53,8
DA:56,1
DA:57,1
DA:58,1
DA:59,1
DA:63,0
DA:64,0
DA:65,0
DA:66,0
DA:67,0
DA:68,0
DA:69,0
DA:70,0
DA:72,0
DA:73,0
DA:86,0
DA:87,0
DA:88,0
DA:93,4
DA:94,4
DA:95,4
DA:96,4
DA:97,4
DA:98,4
DA:103,6
DA:104,6
DA:105,6
DA:106,6
DA:107,6
DA:108,6
DA:109,6
DA:111,6
DA:112,1
DA:113,5
DA:115,6
DA:116,6
DA:117,6
DA:118,6
DA:121,1
DA:122,1
DA:123,1
DA:126,0
DA:127,0
DA:128,0
DA:134,0
DA:135,0
DA:136,0
DA:137,0
DA:138,0
DA:141,0
DA:142,0
DA:143,0
DA:144,0
DA:145,0
DA:148,1
DA:149,1
DA:150,1
DA:153,6
DA:154,6
DA:155,6
DA:158,1
DA:159,1
DA:160,1
DA:163,0
DA:164,0
DA:165,0
DA:168,1
DA:169,1
DA:170,1
DA:171,1
DA:172,1
DA:173,1
DA:174,1
DA:175,1
DA:176,1
DA:177,1
DA:182,0
DA:183,0
DA:185,0
DA:186,0
DA:188,0
DA:189,0
DA:190,0
DA:191,0
DA:192,0
DA:193,0
DA:195,0
DA:196,0
DA:197,0
DA:199,0
DA:200,0
DA:203,0
DA:204,0
DA:205,0
DA:208,0
DA:209,0
DA:210,0
DA:224,8
DA:225,8
DA:226,8
DA:227,8
DA:228,8
DA:232,0
DA:233,0
DA:234,0
DA:236,0
DA:237,0
DA:238,0
DA:240,0
DA:241,0
DA:242,0
DA:244,0
DA:245,0
DA:246,0
DA:250,1
DA:251,1
DA:252,1
DA:253,1
DA:254,1
DA:255,1
DA:256,1
DA:259,1
DA:260,1
DA:261,1
DA:262,1
DA:263,1
DA:266,1
DA:267,1
DA:268,1
DA:269,1
DA:270,1
DA:271,1
DA:272,1
DA:275,1
DA:276,1
DA:277,1
DA:278,1
DA:281,1
DA:282,1
DA:283,1
DA:285,1
DA:286,1
DA:287,1
DA:288,1
DA:289,1
DA:292,1
DA:293,1
DA:294,1
DA:295,1
DA:298,1
DA:299,1
DA:300,1
DA:302,1
DA:303,1
DA:304,1
DA:305,1
DA:306,1
DA:309,1
DA:310,1
DA:311,1
DA:312,1
DA:315,1
DA:316,1
DA:317,1
DA:319,1
DA:320,1
DA:321,1
DA:322,1
DA:323,1
DA:326,1
DA:327,1
DA:328,1
DA:329,1
DA:332,1
DA:333,1
DA:334,1
DA:336,1
DA:337,1
DA:338,1
DA:341,1
DA:342,1
DA:345,1
DA:346,1
DA:347,3
DA:348,1
DA:349,1
DA:350,1
BRF:0
BRH:0
LF:209
LH:143
end_of_record