SF:/home/openclaw/dev/yinglichina8848/sqlrustgo/crates/executor/src/ddl_executor.rs
FN:41,_RNvMNtCsldCax6rooq1_18sqlrustgo_executor12ddl_executorNtB2_11DdlExecutor13execute_grant
FN:58,_RNvMNtCsldCax6rooq1_18sqlrustgo_executor12ddl_executorNtB2_11DdlExecutor14execute_revoke
FN:34,_RNvMNtCsldCax6rooq1_18sqlrustgo_executor12ddl_executorNtB2_11DdlExecutor17execute_drop_user
FN:14,_RNvMNtCsldCax6rooq1_18sqlrustgo_executor12ddl_executorNtB2_11DdlExecutor19execute_create_user
FN:10,_RNvMNtCsldCax6rooq1_18sqlrustgo_executor12ddl_executorNtB2_11DdlExecutor3new
FN:131,_RNvNtNtCsldCax6rooq1_18sqlrustgo_executor12ddl_executor5testss_18test_execute_grant
FN:150,_RNvNtNtCsldCax6rooq1_18sqlrustgo_executor12ddl_executor5testss_19test_execute_revoke
FN:114,_RNvNtNtCsldCax6rooq1_18sqlrustgo_executor12ddl_executor5testss_22test_execute_drop_user
FN:80,_RNvNtNtCsldCax6rooq1_18sqlrustgo_executor12ddl_executor5testss_24test_execute_create_user
FN:204,_RNvNtNtCsldCax6rooq1_18sqlrustgo_executor12ddl_executor5testss_25test_execute_grant_column
FN:248,_RNvNtNtCsldCax6rooq1_18sqlrustgo_executor12ddl_executor5testss_25test_password_hash_format
FN:182,_RNvNtNtCsldCax6rooq1_18sqlrustgo_executor12ddl_executor5testss_27test_execute_grant_database
FN:94,_RNvNtNtCsldCax6rooq1_18sqlrustgo_executor12ddl_executor5testss_33test_execute_create_user_multiple
FN:237,_RNvNtNtCsldCax6rooq1_18sqlrustgo_executor12ddl_executor5testss_34test_execute_drop_nonexistent_user
FN:223,_RNvNtNtCsldCax6rooq1_18sqlrustgo_executor12ddl_executor5testss_43test_execute_create_user_with_wildcard_host
FNDA:4,_RNvMNtCsldCax6rooq1_18sqlrustgo_executor12ddl_executorNtB2_11DdlExecutor13execute_grant
FNDA:1,_RNvMNtCsldCax6rooq1_18sqlrustgo_executor12ddl_executorNtB2_11DdlExecutor14execute_revoke
FNDA:2,_RNvMNtCsldCax6rooq1_18sqlrustgo_executor12ddl_executorNtB2_11DdlExecutor17execute_drop_user
FNDA:9,_RNvMNtCsldCax6rooq1_18sqlrustgo_executor12ddl_executorNtB2_11DdlExecutor19execute_create_user
FNDA:11,_RNvMNtCsldCax6rooq1_18sqlrustgo_executor12ddl_executorNtB2_11DdlExecutor3new
FNDA:1,_RNvNtNtCsldCax6rooq1_18sqlrustgo_executor12ddl_executor5testss_18test_execute_grant
FNDA:1,_RNvNtNtCsldCax6rooq1_18sqlrustgo_executor12ddl_executor5testss_19test_execute_revoke
FNDA:1,_RNvNtNtCsldCax6rooq1_18sqlrustgo_executor12ddl_executor5testss_22test_execute_drop_user
FNDA:1,_RNvNtNtCsldCax6rooq1_18sqlrustgo_executor12ddl_executor5testss_24test_execute_create_user
FNDA:1,_RNvNtNtCsldCax6rooq1_18sqlrustgo_executor12ddl_executor5testss_25test_execute_grant_column
FNDA:1,_RNvNtNtCsldCax6rooq1_18sqlrustgo_executor12ddl_executor5testss_25test_password_hash_format
FNDA:1,_RNvNtNtCsldCax6rooq1_18sqlrustgo_executor12ddl_executor5testss_27test_execute_grant_database
FNDA:1,_RNvNtNtCsldCax6rooq1_18sqlrustgo_executor12ddl_executor5testss_33test_execute_create_user_multiple
FNDA:1,_RNvNtNtCsldCax6rooq1_18sqlrustgo_executor12ddl_executor5testss_34test_execute_drop_nonexistent_user
FNDA:1,_RNvNtNtCsldCax6rooq1_18sqlrustgo_executor12ddl_executor5testss_43test_execute_create_user_with_wildcard_host
FNF:15
FNH:15
DA:10,11
DA:11,11
DA:12,11
DA:14,9
DA:15,9
DA:16,9
DA:17,9
DA:18,9
DA:19,9
DA:20,9
DA:23,9
DA:25,9
DA:28,10
DA:29,10
DA:31,9
DA:32,9
DA:34,2
DA:35,2
DA:36,2
DA:38,1
DA:39,2
DA:41,4
DA:42,4
DA:43,4
DA:44,4
DA:45,4
DA:46,4
DA:47,4
DA:48,4
DA:49,4
DA:50,4
DA:51,4
DA:52,4
DA:53,4
DA:54,0
DA:55,4
DA:56,4
DA:58,1
DA:59,1
DA:60,1
DA:61,1
DA:62,1
DA:63,1
DA:64,1
DA:65,1
DA:66,1
DA:67,1
DA:68,1
DA:69,0
DA:70,1
DA:71,1
DA:80,1
DA:81,1
DA:82,1
DA:84,1
DA:85,1
DA:87,1
DA:88,1
DA:89,1
DA:90,1
DA:91,1
DA:94,1
DA:95,1
DA:96,1
DA:98,1
DA:99,1
DA:100,1
DA:102,1
DA:104,1
DA:105,1
DA:106,1
DA:107,1
DA:108,1
DA:109,1
DA:110,1
DA:111,1
DA:114,1
DA:115,1
DA:116,1
DA:118,1
DA:119,1
DA:120,1
DA:121,1
DA:123,1
DA:124,1
DA:125,1
DA:126,1
DA:127,1
DA:128,1
DA:131,1
DA:132,1
DA:133,1
DA:135,1
DA:136,1
DA:137,1
DA:138,1
DA:140,1
DA:141,1
DA:143,1
DA:144,1
DA:145,1
DA:146,1
DA:147,1
DA:150,1
DA:151,1
DA:152,1
DA:153,1
DA:155,1
DA:156,1
DA:157,1
DA:158,1
DA:159,1
DA:160,1
DA:161,1
DA:162,1
DA:163,1
DA:165,1
DA:166,1
DA:167,1
DA:169,1
DA:170,1
DA:171,1
DA:172,1
DA:173,1
DA:174,1
DA:176,1
DA:177,1
DA:178,1
DA:179,1
DA:182,1
DA:183,1
DA:184,1
DA:186,1
DA:187,1
DA:188,1
DA:189,1
DA:191,1
DA:192,1
DA:194,1
DA:195,1
DA:196,1
DA:197,1
DA:198,1
DA:199,1
DA:200,1
DA:201,1
DA:204,1
DA:205,1
DA:206,1
DA:208,1
DA:209,1
DA:210,1
DA:211,1
DA:213,1
DA:214,1
DA:216,1
DA:217,1
DA:218,1
DA:219,1
DA:220,1
DA:223,1
DA:224,1
DA:225,1
DA:227,1
DA:228,1
DA:230,1
DA:231,1
DA:232,1
DA:233,1
DA:234,1
DA:237,1
DA:238,1
DA:239,1
DA:241,1
DA:242,1
DA:244,1
DA:245,1
DA:248,1
DA:249,1
DA:250,1
DA:252,1
DA:253,1
DA:254,1
DA:255,1
DA:257,1
DA:258,1
DA:259,1
DA:260,1
DA:261,1
DA:262,1
BRF:0
BRH:0
LF:190
LH:188
end_of_record
SF:/home/openclaw/dev/yinglichina8848/sqlrustgo/crates/executor/src/executor.rs
FN:2038,_RNCNvMsh_NtCsldCax6rooq1_18sqlrustgo_executor8executorNtB7_25InSubqueryVolcanoExecutor13set_outer_row0B9_
FN:2210,_RNCNvMsm_NtCsldCax6rooq1_18sqlrustgo_executor8executorNtB7_21AnyAllVolcanoExecutor13set_outer_row0B9_
FN:2623,_RNCNvMsr_NtCsldCax6rooq1_18sqlrustgo_executor8executorNtB7_18VolExecutorBuilder10build_sort0B9_
FN:2644,_RNCNvMsr_NtCsldCax6rooq1_18sqlrustgo_executor8executorNtB7_18VolExecutorBuilder11build_limit0B9_
FN:2645,_RNCNvMsr_NtCsldCax6rooq1_18sqlrustgo_executor8executorNtB7_18VolExecutorBuilder11build_limits_0B9_
FN:2580,_RNCNvMsr_NtCsldCax6rooq1_18sqlrustgo_executor8executorNtB7_18VolExecutorBuilder12build_filter0B9_
FN:2665,_RNCNvMsr_NtCsldCax6rooq1_18sqlrustgo_executor8executorNtB7_18VolExecutorBuilder12build_window0B9_
FN:2479,_RNCNvMsr_NtCsldCax6rooq1_18sqlrustgo_executor8executorNtB7_18VolExecutorBuilder13build_any_all0B9_
FN:2601,_RNCNvMsr_NtCsldCax6rooq1_18sqlrustgo_executor8executorNtB7_18VolExecutorBuilder15build_aggregate0B9_
FN:2503,_RNCNvMsr_NtCsldCax6rooq1_18sqlrustgo_executor8executorNtB7_18VolExecutorBuilder15build_hash_join0B9_
FN:2559,_RNCNvMsr_NtCsldCax6rooq1_18sqlrustgo_executor8executorNtB7_18VolExecutorBuilder16build_projection0B9_
FN:2444,_RNCNvMsr_NtCsldCax6rooq1_18sqlrustgo_executor8executorNtB7_18VolExecutorBuilder17build_in_subquery0B9_
FN:2048,_RNCNvXsi_NtCsldCax6rooq1_18sqlrustgo_executor8executorNtB7_25InSubqueryVolcanoExecutorNtB7_21OuterRowAwareExecutor13set_outer_row0B9_
FN:2088,_RNCNvXsj_NtCsldCax6rooq1_18sqlrustgo_executor8executorNtB7_25InSubqueryVolcanoExecutorNtB7_15VolcanoExecutor4next0B9_
FN:2315,_RNCNvXso_NtCsldCax6rooq1_18sqlrustgo_executor8executorNtB7_21AnyAllVolcanoExecutorNtB7_21OuterRowAwareExecutor13set_outer_row0B9_
FN:131,_RNvMs_NtCsldCax6rooq1_18sqlrustgo_executor8executorNtB4_22SeqScanVolcanoExecutor14with_predicate
FN:140,_RNvMs_NtCsldCax6rooq1_18sqlrustgo_executor8executorNtB4_22SeqScanVolcanoExecutor8next_ref
FN:2041,_RNvMsh_NtCsldCax6rooq1_18sqlrustgo_executor8executorNtB5_25InSubqueryVolcanoExecutor13has_outer_row
FN:2037,_RNvMsh_NtCsldCax6rooq1_18sqlrustgo_executor8executorNtB5_25InSubqueryVolcanoExecutor13set_outer_row
FN:2025,_RNvMsh_NtCsldCax6rooq1_18sqlrustgo_executor8executorNtB5_25InSubqueryVolcanoExecutor3new
FN:2125,_RNvMsk_NtCsldCax6rooq1_18sqlrustgo_executor8executorNtB5_21ExistsVolcanoExecutor3new
FN:2213,_RNvMsm_NtCsldCax6rooq1_18sqlrustgo_executor8executorNtB5_21AnyAllVolcanoExecutor13has_outer_row
FN:2209,_RNvMsm_NtCsldCax6rooq1_18sqlrustgo_executor8executorNtB5_21AnyAllVolcanoExecutor13set_outer_row
FN:2217,_RNvMsm_NtCsldCax6rooq1_18sqlrustgo_executor8executorNtB5_21AnyAllVolcanoExecutor14compare_values
FN:2189,_RNvMsm_NtCsldCax6rooq1_18sqlrustgo_executor8executorNtB5_21AnyAllVolcanoExecutor3new
FN:2614,_RNvMsr_NtCsldCax6rooq1_18sqlrustgo_executor8executorNtB5_18VolExecutorBuilder10build_sort
FN:2633,_RNvMsr_NtCsldCax6rooq1_18sqlrustgo_executor8executorNtB5_18VolExecutorBuilder11build_limit
FN:2454,_RNvMsr_NtCsldCax6rooq1_18sqlrustgo_executor8executorNtB5_18VolExecutorBuilder12build_exists
FN:2569,_RNvMsr_NtCsldCax6rooq1_18sqlrustgo_executor8executorNtB5_18VolExecutorBuilder12build_filter
FN:2654,_RNvMsr_NtCsldCax6rooq1_18sqlrustgo_executor8executorNtB5_18VolExecutorBuilder12build_window
FN:2468,_RNvMsr_NtCsldCax6rooq1_18sqlrustgo_executor8executorNtB5_18VolExecutorBuilder13build_any_all
FN:2540,_RNvMsr_NtCsldCax6rooq1_18sqlrustgo_executor8executorNtB5_18VolExecutorBuilder14build_seq_scan
FN:2590,_RNvMsr_NtCsldCax6rooq1_18sqlrustgo_executor8executorNtB5_18VolExecutorBuilder15build_aggregate
FN:2491,_RNvMsr_NtCsldCax6rooq1_18sqlrustgo_executor8executorNtB5_18VolExecutorBuilder15build_hash_join
FN:2548,_RNvMsr_NtCsldCax6rooq1_18sqlrustgo_executor8executorNtB5_18VolExecutorBuilder16build_projection
FN:2433,_RNvMsr_NtCsldCax6rooq1_18sqlrustgo_executor8executorNtB5_18VolExecutorBuilder17build_in_subquery
FN:2426,_RNvMsr_NtCsldCax6rooq1_18sqlrustgo_executor8executorNtB5_18VolExecutorBuilder25set_outer_row_on_executor
FN:2402,_RNvMsr_NtCsldCax6rooq1_18sqlrustgo_executor8executorNtB5_18VolExecutorBuilder3new
FN:2406,_RNvMsr_NtCsldCax6rooq1_18sqlrustgo_executor8executorNtB5_18VolExecutorBuilder5build
FN:199,_RNvXs0_NtCsldCax6rooq1_18sqlrustgo_executor8executorNtB5_22SeqScanVolcanoExecutorNtB5_15VolcanoExecutor6as_any
FN:2736,_RNvXs0_NtNtCsldCax6rooq1_18sqlrustgo_executor8executor5testsNtB5_12MockExecutorNtB7_8Executor7execute
FN:261,_RNvXs2_NtCsldCax6rooq1_18sqlrustgo_executor8executorNtB5_25ProjectionVolcanoExecutorNtB5_15VolcanoExecutor14is_initialized
FN:250,_RNvXs2_NtCsldCax6rooq1_18sqlrustgo_executor8executorNtB5_25ProjectionVolcanoExecutorNtB5_15VolcanoExecutor5close
FN:264,_RNvXs2_NtCsldCax6rooq1_18sqlrustgo_executor8executorNtB5_25ProjectionVolcanoExecutorNtB5_15VolcanoExecutor6as_any
FN:255,_RNvXs2_NtCsldCax6rooq1_18sqlrustgo_executor8executorNtB5_25ProjectionVolcanoExecutorNtB5_15VolcanoExecutor6schema
FN:2817,_RNvXs2_NtNtCsldCax6rooq1_18sqlrustgo_executor8executor5testsNtB5_19MockVolcanoExecutorNtNtCs8nPosuWgJFh_4core7default7Default7default
FN:590,_RNvXs4_NtCsldCax6rooq1_18sqlrustgo_executor8executorNtB5_24AggregateVolcanoExecutorNtB5_15VolcanoExecutor14is_initialized
FN:578,_RNvXs4_NtCsldCax6rooq1_18sqlrustgo_executor8executorNtB5_24AggregateVolcanoExecutorNtB5_15VolcanoExecutor5close
FN:593,_RNvXs4_NtCsldCax6rooq1_18sqlrustgo_executor8executorNtB5_24AggregateVolcanoExecutorNtB5_15VolcanoExecutor6as_any
FN:584,_RNvXs4_NtCsldCax6rooq1_18sqlrustgo_executor8executorNtB5_24AggregateVolcanoExecutorNtB5_15VolcanoExecutor6schema
FN:895,_RNvXs6_NtCsldCax6rooq1_18sqlrustgo_executor8executorNtB5_23HashJoinVolcanoExecutorNtB5_15VolcanoExecutor14is_initialized
FN:875,_RNvXs6_NtCsldCax6rooq1_18sqlrustgo_executor8executorNtB5_23HashJoinVolcanoExecutorNtB5_15VolcanoExecutor5close
FN:898,_RNvXs6_NtCsldCax6rooq1_18sqlrustgo_executor8executorNtB5_23HashJoinVolcanoExecutorNtB5_15VolcanoExecutor6as_any
FN:889,_RNvXs6_NtCsldCax6rooq1_18sqlrustgo_executor8executorNtB5_23HashJoinVolcanoExecutorNtB5_15VolcanoExecutor6schema
FN:1367,_RNvXs9_NtCsldCax6rooq1_18sqlrustgo_executor8executorNtB5_28SortMergeJoinVolcanoExecutorNtB5_15VolcanoExecutor6as_any
FN:1355,_RNvXs9_NtCsldCax6rooq1_18sqlrustgo_executor8executorNtB5_28SortMergeJoinVolcanoExecutorNtB5_15VolcanoExecutor6schema
FN:2731,_RNvXs_NtNtCsldCax6rooq1_18sqlrustgo_executor8executor5testsNtB4_12MockExecutorNtNtCs8nPosuWgJFh_4core7default7Default7default
FN:1464,_RNvXsb_NtCsldCax6rooq1_18sqlrustgo_executor8executorNtB5_19SortVolcanoExecutorNtB5_15VolcanoExecutor6as_any
FN:1453,_RNvXsb_NtCsldCax6rooq1_18sqlrustgo_executor8executorNtB5_19SortVolcanoExecutorNtB5_15VolcanoExecutor6schema
FN:1709,_RNvXsd_NtCsldCax6rooq1_18sqlrustgo_executor8executorNtB5_29NestedLoopJoinVolcanoExecutorNtB5_15VolcanoExecutor14is_initialized
FN:1713,_RNvXsd_NtCsldCax6rooq1_18sqlrustgo_executor8executorNtB5_29NestedLoopJoinVolcanoExecutorNtB5_15VolcanoExecutor6as_any
FN:1701,_RNvXsd_NtCsldCax6rooq1_18sqlrustgo_executor8executorNtB5_29NestedLoopJoinVolcanoExecutorNtB5_15VolcanoExecutor6schema
FN:1844,_RNvXsf_NtCsldCax6rooq1_18sqlrustgo_executor8executorNtB5_21SortMergeJoinExecutorNtB5_15VolcanoExecutor14is_initialized
FN:1826,_RNvXsf_NtCsldCax6rooq1_18sqlrustgo_executor8executorNtB5_21SortMergeJoinExecutorNtB5_15VolcanoExecutor5close
FN:1848,_RNvXsf_NtCsldCax6rooq1_18sqlrustgo_executor8executorNtB5_21SortMergeJoinExecutorNtB5_15VolcanoExecutor6as_any
FN:1836,_RNvXsf_NtCsldCax6rooq1_18sqlrustgo_executor8executorNtB5_21SortMergeJoinExecutorNtB5_15VolcanoExecutor6schema
FN:2051,_RNvXsi_NtCsldCax6rooq1_18sqlrustgo_executor8executorNtB5_25InSubqueryVolcanoExecutorNtB5_21OuterRowAwareExecutor13has_outer_row
FN:2047,_RNvXsi_NtCsldCax6rooq1_18sqlrustgo_executor8executorNtB5_25InSubqueryVolcanoExecutorNtB5_21OuterRowAwareExecutor13set_outer_row
FN:2108,_RNvXsj_NtCsldCax6rooq1_18sqlrustgo_executor8executorNtB5_25InSubqueryVolcanoExecutorNtB5_15VolcanoExecutor14is_initialized
FN:2057,_RNvXsj_NtCsldCax6rooq1_18sqlrustgo_executor8executorNtB5_25InSubqueryVolcanoExecutorNtB5_15VolcanoExecutor4init
FN:2105,_RNvXsj_NtCsldCax6rooq1_18sqlrustgo_executor8executorNtB5_25InSubqueryVolcanoExecutorNtB5_15VolcanoExecutor4name
FN:2070,_RNvXsj_NtCsldCax6rooq1_18sqlrustgo_executor8executorNtB5_25InSubqueryVolcanoExecutorNtB5_15VolcanoExecutor4next
FN:2097,_RNvXsj_NtCsldCax6rooq1_18sqlrustgo_executor8executorNtB5_25InSubqueryVolcanoExecutorNtB5_15VolcanoExecutor5close
FN:2111,_RNvXsj_NtCsldCax6rooq1_18sqlrustgo_executor8executorNtB5_25InSubqueryVolcanoExecutorNtB5_15VolcanoExecutor6as_any
FN:2102,_RNvXsj_NtCsldCax6rooq1_18sqlrustgo_executor8executorNtB5_25InSubqueryVolcanoExecutorNtB5_15VolcanoExecutor6schema
FN:2168,_RNvXsl_NtCsldCax6rooq1_18sqlrustgo_executor8executorNtB5_21ExistsVolcanoExecutorNtB5_15VolcanoExecutor14is_initialized
FN:2137,_RNvXsl_NtCsldCax6rooq1_18sqlrustgo_executor8executorNtB5_21ExistsVolcanoExecutorNtB5_15VolcanoExecutor4init
FN:2165,_RNvXsl_NtCsldCax6rooq1_18sqlrustgo_executor8executorNtB5_21ExistsVolcanoExecutorNtB5_15VolcanoExecutor4name
FN:2149,_RNvXsl_NtCsldCax6rooq1_18sqlrustgo_executor8executorNtB5_21ExistsVolcanoExecutorNtB5_15VolcanoExecutor4next
FN:2157,_RNvXsl_NtCsldCax6rooq1_18sqlrustgo_executor8executorNtB5_21ExistsVolcanoExecutorNtB5_15VolcanoExecutor5close
FN:2171,_RNvXsl_NtCsldCax6rooq1_18sqlrustgo_executor8executorNtB5_21ExistsVolcanoExecutorNtB5_15VolcanoExecutor6as_any
FN:2162,_RNvXsl_NtCsldCax6rooq1_18sqlrustgo_executor8executorNtB5_21ExistsVolcanoExecutorNtB5_15VolcanoExecutor6schema
FN:2305,_RNvXsn_NtCsldCax6rooq1_18sqlrustgo_executor8executorNtB5_21AnyAllVolcanoExecutorNtB5_15VolcanoExecutor14is_initialized
FN:2238,_RNvXsn_NtCsldCax6rooq1_18sqlrustgo_executor8executorNtB5_21AnyAllVolcanoExecutorNtB5_15VolcanoExecutor4init
FN:2302,_RNvXsn_NtCsldCax6rooq1_18sqlrustgo_executor8executorNtB5_21AnyAllVolcanoExecutorNtB5_15VolcanoExecutor4name
FN:2251,_RNvXsn_NtCsldCax6rooq1_18sqlrustgo_executor8executorNtB5_21AnyAllVolcanoExecutorNtB5_15VolcanoExecutor4next
FN:2294,_RNvXsn_NtCsldCax6rooq1_18sqlrustgo_executor8executorNtB5_21AnyAllVolcanoExecutorNtB5_15VolcanoExecutor5close
FN:2308,_RNvXsn_NtCsldCax6rooq1_18sqlrustgo_executor8executorNtB5_21AnyAllVolcanoExecutorNtB5_15VolcanoExecutor6as_any
FN:2299,_RNvXsn_NtCsldCax6rooq1_18sqlrustgo_executor8executorNtB5_21AnyAllVolcanoExecutorNtB5_15VolcanoExecutor6schema
FN:2318,_RNvXso_NtCsldCax6rooq1_18sqlrustgo_executor8executorNtB5_21AnyAllVolcanoExecutorNtB5_21OuterRowAwareExecutor13has_outer_row
FN:2314,_RNvXso_NtCsldCax6rooq1_18sqlrustgo_executor8executorNtB5_21AnyAllVolcanoExecutorNtB5_21OuterRowAwareExecutor13set_outer_row
FN:2389,_RNvXsq_NtCsldCax6rooq1_18sqlrustgo_executor8executorNtB5_20LimitVolcanoExecutorNtB5_15VolcanoExecutor14is_initialized
FN:2386,_RNvXsq_NtCsldCax6rooq1_18sqlrustgo_executor8executorNtB5_20LimitVolcanoExecutorNtB5_15VolcanoExecutor4name
FN:2378,_RNvXsq_NtCsldCax6rooq1_18sqlrustgo_executor8executorNtB5_20LimitVolcanoExecutorNtB5_15VolcanoExecutor5close
FN:2392,_RNvXsq_NtCsldCax6rooq1_18sqlrustgo_executor8executorNtB5_20LimitVolcanoExecutorNtB5_15VolcanoExecutor6as_any
FN:2383,_RNvXsq_NtCsldCax6rooq1_18sqlrustgo_executor8executorNtB5_20LimitVolcanoExecutorNtB5_15VolcanoExecutor6schema
FN:2708,_RNvXst_NtCsldCax6rooq1_18sqlrustgo_executor8executorNtB5_22MockStorageForExecutorNtNtCs8nPosuWgJFh_4core7default7Default7default
FN:49,_RNvYNtNtNtCsldCax6rooq1_18sqlrustgo_executor15window_executor5tests12MockExecutorNtNtB8_8executor15VolcanoExecutor13set_outer_rowB8_
FN:53,_RNvYNtNtNtCsldCax6rooq1_18sqlrustgo_executor15window_executor5tests12MockExecutorNtNtB8_8executor15VolcanoExecutor18requires_outer_rowB8_
FN:43,_RNvYNtNtNtCsldCax6rooq1_18sqlrustgo_executor15window_executor5tests12MockExecutorNtNtB8_8executor15VolcanoExecutor8next_refB8_
FN:2726,_RNvMNtNtCsldCax6rooq1_18sqlrustgo_executor8executor5testsNtB2_12MockExecutor3new
FN:2792,_RNvMs1_NtNtCsldCax6rooq1_18sqlrustgo_executor8executor5testsNtB5_19MockVolcanoExecutor3new
FN:2807,_RNvMs1_NtNtCsldCax6rooq1_18sqlrustgo_executor8executor5testsNtB5_19MockVolcanoExecutor9with_data
FN:2897,_RNvNtNtCsldCax6rooq1_18sqlrustgo_executor8executor5testss_20test_execute_collect
FN:2748,_RNvNtNtCsldCax6rooq1_18sqlrustgo_executor8executor5testss_20test_executor_result
FN:2774,_RNvNtNtCsldCax6rooq1_18sqlrustgo_executor8executor5testss_23test_executor_send_sync
FN:2876,_RNvNtNtCsldCax6rooq1_18sqlrustgo_executor8executor5testss_23test_mock_executor_name
FN:2952,_RNvNtNtCsldCax6rooq1_18sqlrustgo_executor8executor5testss_26test_execute_collect_empty
FN:2988,_RNvNtNtCsldCax6rooq1_18sqlrustgo_executor8executor5testss_26test_executor_result_debug
FN:2757,_RNvNtNtCsldCax6rooq1_18sqlrustgo_executor8executor5testss_26test_executor_result_empty
FN:2857,_RNvNtNtCsldCax6rooq1_18sqlrustgo_executor8executor5testss_26test_mock_volcano_executor
FN:4069,_RNvNtNtCsldCax6rooq1_18sqlrustgo_executor8executor5testss_26test_nested_loop_join_name
FN:3824,_RNvNtNtCsldCax6rooq1_18sqlrustgo_executor8executor5testss_26test_smj_volcano_exec_name
FN:2910,_RNvNtNtCsldCax6rooq1_18sqlrustgo_executor8executor5testss_26test_volcano_executor_init
FN:2892,_RNvNtNtCsldCax6rooq1_18sqlrustgo_executor8executor5testss_26test_volcano_executor_name
FN:2918,_RNvNtNtCsldCax6rooq1_18sqlrustgo_executor8executor5testss_26test_volcano_executor_next
FN:2881,_RNvNtNtCsldCax6rooq1_18sqlrustgo_executor8executor5testss_27test_mock_executor_is_ready
FN:4086,_RNvNtNtCsldCax6rooq1_18sqlrustgo_executor8executor5testss_27test_nested_loop_join_close
FN:3957,_RNvNtNtCsldCax6rooq1_18sqlrustgo_executor8executor5testss_27test_nested_loop_join_cross
FN:3902,_RNvNtNtCsldCax6rooq1_18sqlrustgo_executor8executor5testss_27test_nested_loop_join_inner
FN:3843,_RNvNtNtCsldCax6rooq1_18sqlrustgo_executor8executor5testss_27test_smj_volcano_exec_close
FN:2930,_RNvNtNtCsldCax6rooq1_18sqlrustgo_executor8executor5testss_27test_volcano_executor_close
FN:2945,_RNvNtNtCsldCax6rooq1_18sqlrustgo_executor8executor5testss_28test_volcano_executor_as_any
FN:2886,_RNvNtNtCsldCax6rooq1_18sqlrustgo_executor8executor5testss_28test_volcano_executor_schema
FN:2764,_RNvNtNtCsldCax6rooq1_18sqlrustgo_executor8executor5testss_30test_executor_result_with_rows
FN:3013,_RNvNtNtCsldCax6rooq1_18sqlrustgo_executor8executor5testss_30test_mock_storage_for_executor
FN:3749,_RNvNtNtCsldCax6rooq1_18sqlrustgo_executor8executor5testss_31test_smj_volcano_exec_left_join
FN:3577,_RNvNtNtCsldCax6rooq1_18sqlrustgo_executor8executor5testss_31test_sort_volcano_executor_name
FN:3530,_RNvNtNtCsldCax6rooq1_18sqlrustgo_executor8executor5testss_31test_sort_volcano_executor_text
FN:2903,_RNvNtNtCsldCax6rooq1_18sqlrustgo_executor8executor5testss_31test_volcano_executor_send_sync
FN:3997,_RNvNtNtCsldCax6rooq1_18sqlrustgo_executor8executor5testss_32test_nested_loop_join_left_outer
FN:3054,_RNvNtNtCsldCax6rooq1_18sqlrustgo_executor8executor5testss_32test_projection_volcano_executor
FN:3706,_RNvNtNtCsldCax6rooq1_18sqlrustgo_executor8executor5testss_32test_smj_volcano_exec_inner_join
FN:3587,_RNvNtNtCsldCax6rooq1_18sqlrustgo_executor8executor5testss_32test_sort_volcano_executor_close
FN:4036,_RNvNtNtCsldCax6rooq1_18sqlrustgo_executor8executor5testss_33test_nested_loop_join_right_outer
FN:3794,_RNvNtNtCsldCax6rooq1_18sqlrustgo_executor8executor5testss_33test_smj_volcano_exec_empty_input
FN:3875,_RNvNtNtCsldCax6rooq1_18sqlrustgo_executor8executor5testss_33test_sort_merge_join_compare_keys
FN:2959,_RNvNtNtCsldCax6rooq1_18sqlrustgo_executor8executor5testss_34test_execute_collect_multiple_rows
FN:2781,_RNvNtNtCsldCax6rooq1_18sqlrustgo_executor8executor5testss_34test_volcano_executor_trait_object
FN:3610,_RNvNtNtCsldCax6rooq1_18sqlrustgo_executor8executor5testss_35test_aggregate_volcano_executor_avg
FN:3192,_RNvNtNtCsldCax6rooq1_18sqlrustgo_executor8executor5testss_35test_aggregate_volcano_executor_sum
FN:4190,_RNvNtNtCsldCax6rooq1_18sqlrustgo_executor8executor5testss_35test_seq_scan_volcano_executor_name
FN:2938,_RNvNtNtCsldCax6rooq1_18sqlrustgo_executor8executor5testss_35test_volcano_executor_schema_method
FN:3262,_RNvNtNtCsldCax6rooq1_18sqlrustgo_executor8executor5testss_36test_aggregate_volcano_executor_name
FN:3352,_RNvNtNtCsldCax6rooq1_18sqlrustgo_executor8executor5testss_36test_hash_join_volcano_executor_name
FN:4162,_RNvNtNtCsldCax6rooq1_18sqlrustgo_executor8executor5testss_36test_seq_scan_volcano_executor_close
FN:3476,_RNvNtNtCsldCax6rooq1_18sqlrustgo_executor8executor5testss_36test_sort_volcano_executor_ascending
FN:3152,_RNvNtNtCsldCax6rooq1_18sqlrustgo_executor8executor5testss_37test_aggregate_volcano_executor_count
FN:3122,_RNvNtNtCsldCax6rooq1_18sqlrustgo_executor8executor5testss_37test_projection_volcano_executor_name
FN:4178,_RNvNtNtCsldCax6rooq1_18sqlrustgo_executor8executor5testss_37test_seq_scan_volcano_executor_schema
FN:3503,_RNvNtNtCsldCax6rooq1_18sqlrustgo_executor8executor5testss_37test_sort_volcano_executor_descending
FN:3557,_RNvNtNtCsldCax6rooq1_18sqlrustgo_executor8executor5testss_38test_sort_volcano_executor_empty_input
FN:3652,_RNvNtNtCsldCax6rooq1_18sqlrustgo_executor8executor5testss_39test_aggregate_volcano_executor_min_max
FN:3007,_RNvNtNtCsldCax6rooq1_18sqlrustgo_executor8executor5testss_39test_executor_result_with_affected_rows
FN:2995,_RNvNtNtCsldCax6rooq1_18sqlrustgo_executor8executor5testss_39test_executor_result_with_multiple_rows
FN:3133,_RNvNtNtCsldCax6rooq1_18sqlrustgo_executor8executor5testss_39test_limit_volcano_executor_with_offset
FN:2978,_RNvNtNtCsldCax6rooq1_18sqlrustgo_executor8executor5testss_39test_volcano_executor_all_rows_consumed
FN:3312,_RNvNtNtCsldCax6rooq1_18sqlrustgo_executor8executor5testss_41test_hash_join_volcano_executor_left_join
FN:3272,_RNvNtNtCsldCax6rooq1_18sqlrustgo_executor8executor5testss_42test_hash_join_volcano_executor_inner_join
FN:3027,_RNvNtNtCsldCax6rooq1_18sqlrustgo_executor8executor5testss_42test_mock_storage_for_executor_empty_table
FN:4135,_RNvNtNtCsldCax6rooq1_18sqlrustgo_executor8executor5testss_42test_seq_scan_volcano_executor_double_init
FN:3457,_RNvNtNtCsldCax6rooq1_18sqlrustgo_executor8executor5testss_42test_sort_merge_join_volcano_executor_name
FN:3234,_RNvNtNtCsldCax6rooq1_18sqlrustgo_executor8executor5testss_43test_aggregate_volcano_executor_empty_input
FN:4149,_RNvNtNtCsldCax6rooq1_18sqlrustgo_executor8executor5testss_43test_seq_scan_volcano_executor_empty_result
FN:3034,_RNvNtNtCsldCax6rooq1_18sqlrustgo_executor8executor5testss_43test_seq_scan_volcano_executor_with_storage
FN:2971,_RNvNtNtCsldCax6rooq1_18sqlrustgo_executor8executor5testss_43test_volcano_executor_not_initialized_error
FN:3105,_RNvNtNtCsldCax6rooq1_18sqlrustgo_executor8executor5testss_44test_projection_volcano_executor_empty_input
FN:4121,_RNvNtNtCsldCax6rooq1_18sqlrustgo_executor8executor5testss_47test_seq_scan_volcano_executor_next_before_init
FN:3417,_RNvNtNtCsldCax6rooq1_18sqlrustgo_executor8executor5testss_47test_sort_merge_join_volcano_executor_left_join
FN:3371,_RNvNtNtCsldCax6rooq1_18sqlrustgo_executor8executor5testss_48test_sort_merge_join_volcano_executor_inner_join
FN:3078,_RNvNtNtCsldCax6rooq1_18sqlrustgo_executor8executor5testss_49test_projection_volcano_executor_multiple_columns
FN:2739,_RNvXs0_NtNtCsldCax6rooq1_18sqlrustgo_executor8executor5testsNtB5_12MockExecutorNtB7_8Executor4name
FN:2742,_RNvXs0_NtNtCsldCax6rooq1_18sqlrustgo_executor8executor5testsNtB5_12MockExecutorNtB7_8Executor8is_ready
FN:2848,_RNvXs3_NtNtCsldCax6rooq1_18sqlrustgo_executor8executor5testsNtB5_19MockVolcanoExecutorNtB7_15VolcanoExecutor14is_initialized
FN:2822,_RNvXs3_NtNtCsldCax6rooq1_18sqlrustgo_executor8executor5testsNtB5_19MockVolcanoExecutorNtB7_15VolcanoExecutor4init
FN:2845,_RNvXs3_NtNtCsldCax6rooq1_18sqlrustgo_executor8executor5testsNtB5_19MockVolcanoExecutorNtB7_15VolcanoExecutor4name
FN:2827,_RNvXs3_NtNtCsldCax6rooq1_18sqlrustgo_executor8executor5testsNtB5_19MockVolcanoExecutorNtB7_15VolcanoExecutor4next
FN:2838,_RNvXs3_NtNtCsldCax6rooq1_18sqlrustgo_executor8executor5testsNtB5_19MockVolcanoExecutorNtB7_15VolcanoExecutor5close
FN:2851,_RNvXs3_NtNtCsldCax6rooq1_18sqlrustgo_executor8executor5testsNtB5_19MockVolcanoExecutorNtB7_15VolcanoExecutor6as_any
FN:2842,_RNvXs3_NtNtCsldCax6rooq1_18sqlrustgo_executor8executor5testsNtB5_19MockVolcanoExecutorNtB7_15VolcanoExecutor6schema
FN:16,_RNvMNtCsldCax6rooq1_18sqlrustgo_executor8executorNtB2_14ExecutorResult3new
FN:22,_RNvMNtCsldCax6rooq1_18sqlrustgo_executor8executorNtB2_14ExecutorResult5empty
FN:213,_RNvMs1_NtCsldCax6rooq1_18sqlrustgo_executor8executorNtB5_25ProjectionVolcanoExecutor3new
FN:305,_RNvMs3_NtCsldCax6rooq1_18sqlrustgo_executor8executorNtB5_24AggregateVolcanoExecutor17compute_aggregate
FN:387,_RNvMs3_NtCsldCax6rooq1_18sqlrustgo_executor8executorNtB5_24AggregateVolcanoExecutor20evaluate_having_expr
FN:283,_RNvMs3_NtCsldCax6rooq1_18sqlrustgo_executor8executorNtB5_24AggregateVolcanoExecutor3new
FN:723,_RNvMs5_NtCsldCax6rooq1_18sqlrustgo_executor8executorNtB5_23HashJoinVolcanoExecutor10next_cross
FN:646,_RNvMs5_NtCsldCax6rooq1_18sqlrustgo_executor8executorNtB5_23HashJoinVolcanoExecutor10next_inner
FN:700,_RNvMs5_NtCsldCax6rooq1_18sqlrustgo_executor8executorNtB5_23HashJoinVolcanoExecutor10next_right
FN:794,_RNvMs5_NtCsldCax6rooq1_18sqlrustgo_executor8executorNtB5_23HashJoinVolcanoExecutor14next_left_anti
FN:752,_RNvMs5_NtCsldCax6rooq1_18sqlrustgo_executor8executorNtB5_23HashJoinVolcanoExecutor14next_left_semi
FN:811,_RNvMs5_NtCsldCax6rooq1_18sqlrustgo_executor8executorNtB5_23HashJoinVolcanoExecutor15next_right_anti
FN:769,_RNvMs5_NtCsldCax6rooq1_18sqlrustgo_executor8executorNtB5_23HashJoinVolcanoExecutor15next_right_semi
FN:619,_RNvMs5_NtCsldCax6rooq1_18sqlrustgo_executor8executorNtB5_23HashJoinVolcanoExecutor3new
FN:713,_RNvMs5_NtCsldCax6rooq1_18sqlrustgo_executor8executorNtB5_23HashJoinVolcanoExecutor9next_full
FN:668,_RNvMs5_NtCsldCax6rooq1_18sqlrustgo_executor8executorNtB5_23HashJoinVolcanoExecutor9next_left
FN:929,_RNvMs7_NtCsldCax6rooq1_18sqlrustgo_executor8executorNtB5_28SortMergeJoinVolcanoExecutor3new
FN:1187,_RNvMs8_NtCsldCax6rooq1_18sqlrustgo_executor8executorNtB5_28SortMergeJoinVolcanoExecutor10next_cross
FN:985,_RNvMs8_NtCsldCax6rooq1_18sqlrustgo_executor8executorNtB5_28SortMergeJoinVolcanoExecutor10next_inner
FN:1110,_RNvMs8_NtCsldCax6rooq1_18sqlrustgo_executor8executorNtB5_28SortMergeJoinVolcanoExecutor10next_right
FN:1244,_RNvMs8_NtCsldCax6rooq1_18sqlrustgo_executor8executorNtB5_28SortMergeJoinVolcanoExecutor14next_left_anti
FN:1210,_RNvMs8_NtCsldCax6rooq1_18sqlrustgo_executor8executorNtB5_28SortMergeJoinVolcanoExecutor14next_left_semi
FN:1267,_RNvMs8_NtCsldCax6rooq1_18sqlrustgo_executor8executorNtB5_28SortMergeJoinVolcanoExecutor15next_right_anti
FN:1227,_RNvMs8_NtCsldCax6rooq1_18sqlrustgo_executor8executorNtB5_28SortMergeJoinVolcanoExecutor15next_right_semi
FN:981,_RNvMs8_NtCsldCax6rooq1_18sqlrustgo_executor8executorNtB5_28SortMergeJoinVolcanoExecutor8sort_key
FN:1177,_RNvMs8_NtCsldCax6rooq1_18sqlrustgo_executor8executorNtB5_28SortMergeJoinVolcanoExecutor9next_full
FN:1040,_RNvMs8_NtCsldCax6rooq1_18sqlrustgo_executor8executorNtB5_28SortMergeJoinVolcanoExecutor9next_left
FN:105,_RNvMs_NtCsldCax6rooq1_18sqlrustgo_executor8executorNtB4_22SeqScanVolcanoExecutor3new
FN:1383,_RNvMsa_NtCsldCax6rooq1_18sqlrustgo_executor8executorNtB5_19SortVolcanoExecutor3new
FN:1636,_RNvMsc_NtCsldCax6rooq1_18sqlrustgo_executor8executorNtB5_29NestedLoopJoinVolcanoExecutor10next_cross
FN:1515,_RNvMsc_NtCsldCax6rooq1_18sqlrustgo_executor8executorNtB5_29NestedLoopJoinVolcanoExecutor10next_inner
FN:1595,_RNvMsc_NtCsldCax6rooq1_18sqlrustgo_executor8executorNtB5_29NestedLoopJoinVolcanoExecutor15next_full_outer
FN:1535,_RNvMsc_NtCsldCax6rooq1_18sqlrustgo_executor8executorNtB5_29NestedLoopJoinVolcanoExecutor15next_left_outer
FN:1562,_RNvMsc_NtCsldCax6rooq1_18sqlrustgo_executor8executorNtB5_29NestedLoopJoinVolcanoExecutor16next_right_outer
FN:1490,_RNvMsc_NtCsldCax6rooq1_18sqlrustgo_executor8executorNtB5_29NestedLoopJoinVolcanoExecutor3new
FN:1773,_RNvMse_NtCsldCax6rooq1_18sqlrustgo_executor8executorNtB5_21SortMergeJoinExecutor12compare_keys
FN:1740,_RNvMse_NtCsldCax6rooq1_18sqlrustgo_executor8executorNtB5_21SortMergeJoinExecutor3new
FN:1769,_RNvMse_NtCsldCax6rooq1_18sqlrustgo_executor8executorNtB5_21SortMergeJoinExecutor8sort_key
FN:1990,_RNvMsg_NtCsldCax6rooq1_18sqlrustgo_executor8executorNtB5_21SortMergeJoinExecutor10next_cross
FN:1854,_RNvMsg_NtCsldCax6rooq1_18sqlrustgo_executor8executorNtB5_21SortMergeJoinExecutor10next_inner
FN:1924,_RNvMsg_NtCsldCax6rooq1_18sqlrustgo_executor8executorNtB5_21SortMergeJoinExecutor10next_right
FN:1980,_RNvMsg_NtCsldCax6rooq1_18sqlrustgo_executor8executorNtB5_21SortMergeJoinExecutor9next_full
FN:1879,_RNvMsg_NtCsldCax6rooq1_18sqlrustgo_executor8executorNtB5_21SortMergeJoinExecutor9next_left
FN:2333,_RNvMsp_NtCsldCax6rooq1_18sqlrustgo_executor8executorNtB5_20LimitVolcanoExecutor3new
FN:2701,_RNvMss_NtCsldCax6rooq1_18sqlrustgo_executor8executorNtB5_22MockStorageForExecutor10with_table
FN:2695,_RNvMss_NtCsldCax6rooq1_18sqlrustgo_executor8executorNtB5_22MockStorageForExecutor3new
FN:77,_RNvNtCsldCax6rooq1_18sqlrustgo_executor8executor15execute_collect
FN:960,_RNvNtCsldCax6rooq1_18sqlrustgo_executor8executor17compare_join_keys
FN:196,_RNvXs0_NtCsldCax6rooq1_18sqlrustgo_executor8executorNtB5_22SeqScanVolcanoExecutorNtB5_15VolcanoExecutor14is_initialized
FN:154,_RNvXs0_NtCsldCax6rooq1_18sqlrustgo_executor8executorNtB5_22SeqScanVolcanoExecutorNtB5_15VolcanoExecutor4init
FN:193,_RNvXs0_NtCsldCax6rooq1_18sqlrustgo_executor8executorNtB5_22SeqScanVolcanoExecutorNtB5_15VolcanoExecutor4name
FN:171,_RNvXs0_NtCsldCax6rooq1_18sqlrustgo_executor8executorNtB5_22SeqScanVolcanoExecutorNtB5_15VolcanoExecutor4next
FN:184,_RNvXs0_NtCsldCax6rooq1_18sqlrustgo_executor8executorNtB5_22SeqScanVolcanoExecutorNtB5_15VolcanoExecutor5close
FN:190,_RNvXs0_NtCsldCax6rooq1_18sqlrustgo_executor8executorNtB5_22SeqScanVolcanoExecutorNtB5_15VolcanoExecutor6schema
FN:230,_RNvXs2_NtCsldCax6rooq1_18sqlrustgo_executor8executorNtB5_25ProjectionVolcanoExecutorNtB5_15VolcanoExecutor4init
FN:258,_RNvXs2_NtCsldCax6rooq1_18sqlrustgo_executor8executorNtB5_25ProjectionVolcanoExecutorNtB5_15VolcanoExecutor4name
FN:235,_RNvXs2_NtCsldCax6rooq1_18sqlrustgo_executor8executorNtB5_25ProjectionVolcanoExecutorNtB5_15VolcanoExecutor4next
FN:503,_RNvXs4_NtCsldCax6rooq1_18sqlrustgo_executor8executorNtB5_24AggregateVolcanoExecutorNtB5_15VolcanoExecutor4init
FN:587,_RNvXs4_NtCsldCax6rooq1_18sqlrustgo_executor8executorNtB5_24AggregateVolcanoExecutorNtB5_15VolcanoExecutor4name
FN:563,_RNvXs4_NtCsldCax6rooq1_18sqlrustgo_executor8executorNtB5_24AggregateVolcanoExecutorNtB5_15VolcanoExecutor4next
FN:838,_RNvXs6_NtCsldCax6rooq1_18sqlrustgo_executor8executorNtB5_23HashJoinVolcanoExecutorNtB5_15VolcanoExecutor4init
FN:892,_RNvXs6_NtCsldCax6rooq1_18sqlrustgo_executor8executorNtB5_23HashJoinVolcanoExecutorNtB5_15VolcanoExecutor4name
FN:858,_RNvXs6_NtCsldCax6rooq1_18sqlrustgo_executor8executorNtB5_23HashJoinVolcanoExecutorNtB5_15VolcanoExecutor4next
FN:1363,_RNvXs9_NtCsldCax6rooq1_18sqlrustgo_executor8executorNtB5_28SortMergeJoinVolcanoExecutorNtB5_15VolcanoExecutor14is_initialized
FN:1292,_RNvXs9_NtCsldCax6rooq1_18sqlrustgo_executor8executorNtB5_28SortMergeJoinVolcanoExecutorNtB5_15VolcanoExecutor4init
FN:1359,_RNvXs9_NtCsldCax6rooq1_18sqlrustgo_executor8executorNtB5_28SortMergeJoinVolcanoExecutorNtB5_15VolcanoExecutor4name
FN:1325,_RNvXs9_NtCsldCax6rooq1_18sqlrustgo_executor8executorNtB5_28SortMergeJoinVolcanoExecutorNtB5_15VolcanoExecutor4next
FN:1343,_RNvXs9_NtCsldCax6rooq1_18sqlrustgo_executor8executorNtB5_28SortMergeJoinVolcanoExecutorNtB5_15VolcanoExecutor5close
FN:1460,_RNvXsb_NtCsldCax6rooq1_18sqlrustgo_executor8executorNtB5_19SortVolcanoExecutorNtB5_15VolcanoExecutor14is_initialized
FN:1402,_RNvXsb_NtCsldCax6rooq1_18sqlrustgo_executor8executorNtB5_19SortVolcanoExecutorNtB5_15VolcanoExecutor4init
FN:1456,_RNvXsb_NtCsldCax6rooq1_18sqlrustgo_executor8executorNtB5_19SortVolcanoExecutorNtB5_15VolcanoExecutor4name
FN:1435,_RNvXsb_NtCsldCax6rooq1_18sqlrustgo_executor8executorNtB5_19SortVolcanoExecutorNtB5_15VolcanoExecutor4next
FN:1447,_RNvXsb_NtCsldCax6rooq1_18sqlrustgo_executor8executorNtB5_19SortVolcanoExecutorNtB5_15VolcanoExecutor5close
FN:1658,_RNvXsd_NtCsldCax6rooq1_18sqlrustgo_executor8executorNtB5_29NestedLoopJoinVolcanoExecutorNtB5_15VolcanoExecutor4init
FN:1705,_RNvXsd_NtCsldCax6rooq1_18sqlrustgo_executor8executorNtB5_29NestedLoopJoinVolcanoExecutorNtB5_15VolcanoExecutor4name
FN:1678,_RNvXsd_NtCsldCax6rooq1_18sqlrustgo_executor8executorNtB5_29NestedLoopJoinVolcanoExecutorNtB5_15VolcanoExecutor4next
FN:1693,_RNvXsd_NtCsldCax6rooq1_18sqlrustgo_executor8executorNtB5_29NestedLoopJoinVolcanoExecutorNtB5_15VolcanoExecutor5close
FN:1783,_RNvXsf_NtCsldCax6rooq1_18sqlrustgo_executor8executorNtB5_21SortMergeJoinExecutorNtB5_15VolcanoExecutor4init
FN:1840,_RNvXsf_NtCsldCax6rooq1_18sqlrustgo_executor8executorNtB5_21SortMergeJoinExecutorNtB5_15VolcanoExecutor4name
FN:1811,_RNvXsf_NtCsldCax6rooq1_18sqlrustgo_executor8executorNtB5_21SortMergeJoinExecutorNtB5_15VolcanoExecutor4next
FN:2351,_RNvXsq_NtCsldCax6rooq1_18sqlrustgo_executor8executorNtB5_20LimitVolcanoExecutorNtB5_15VolcanoExecutor4init
FN:2358,_RNvXsq_NtCsldCax6rooq1_18sqlrustgo_executor8executorNtB5_20LimitVolcanoExecutorNtB5_15VolcanoExecutor4next
FN:2714,_RNvXsu_NtCsldCax6rooq1_18sqlrustgo_executor8executorNtB5_22MockStorageForExecutorNtB5_7Storage4scan
FN:2775,_RINvNvNtNtCsldCax6rooq1_18sqlrustgo_executor8executor5testss_23test_executor_send_sync6__checkNtB4_12MockExecutorEB8_
FN:2775,_RINvNvNtNtCsldCax6rooq1_18sqlrustgo_executor8executor5testss_23test_executor_send_sync6__checkNtB6_14ExecutorResultEB8_
FN:2904,_RINvNvNtNtCsldCax6rooq1_18sqlrustgo_executor8executor5testss_31test_volcano_executor_send_sync6__checkINtNtCsj0gLuUEfogP_5alloc5boxed3BoxDNtB6_15VolcanoExecutorEL_EEB8_
FN:2904,_RINvNvNtNtCsldCax6rooq1_18sqlrustgo_executor8executor5testss_31test_volcano_executor_send_sync6__checkNtB4_19MockVolcanoExecutorEB8_
FN:3786,_RNCNvNtNtCsldCax6rooq1_18sqlrustgo_executor8executor5testss_31test_smj_volcano_exec_left_join0B7_
FN:3551,_RNCNvNtNtCsldCax6rooq1_18sqlrustgo_executor8executor5testss_31test_sort_volcano_executor_text0B7_
FN:3743,_RNCNvNtNtCsldCax6rooq1_18sqlrustgo_executor8executor5testss_32test_smj_volcano_exec_inner_join0B7_
FN:3819,_RNCNvNtNtCsldCax6rooq1_18sqlrustgo_executor8executor5testss_33test_smj_volcano_exec_empty_input0B7_
FN:3647,_RNCNvNtNtCsldCax6rooq1_18sqlrustgo_executor8executor5testss_35test_aggregate_volcano_executor_avg0B7_
FN:3229,_RNCNvNtNtCsldCax6rooq1_18sqlrustgo_executor8executor5testss_35test_aggregate_volcano_executor_sum0B7_
FN:3495,_RNCNvNtNtCsldCax6rooq1_18sqlrustgo_executor8executor5testss_36test_sort_volcano_executor_ascending0B7_
FN:3187,_RNCNvNtNtCsldCax6rooq1_18sqlrustgo_executor8executor5testss_37test_aggregate_volcano_executor_count0B7_
FN:3522,_RNCNvNtNtCsldCax6rooq1_18sqlrustgo_executor8executor5testss_37test_sort_volcano_executor_descending0B7_
FN:3699,_RNCNvNtNtCsldCax6rooq1_18sqlrustgo_executor8executor5testss_39test_aggregate_volcano_executor_min_max0B7_
FN:3147,_RNCNvNtNtCsldCax6rooq1_18sqlrustgo_executor8executor5testss_39test_limit_volcano_executor_with_offset0B7_
FN:3347,_RNCNvNtNtCsldCax6rooq1_18sqlrustgo_executor8executor5testss_41test_hash_join_volcano_executor_left_join0B7_
FN:3307,_RNCNvNtNtCsldCax6rooq1_18sqlrustgo_executor8executor5testss_42test_hash_join_volcano_executor_inner_join0B7_
FN:3049,_RNCNvNtNtCsldCax6rooq1_18sqlrustgo_executor8executor5testss_43test_seq_scan_volcano_executor_with_storage0B7_
FN:3452,_RNCNvNtNtCsldCax6rooq1_18sqlrustgo_executor8executor5testss_47test_sort_merge_join_volcano_executor_left_join0B7_
FN:3408,_RNCNvNtNtCsldCax6rooq1_18sqlrustgo_executor8executor5testss_48test_sort_merge_join_volcano_executor_inner_join0B7_
FN:49,_RNvYNtNtNtCsldCax6rooq1_18sqlrustgo_executor8executor5tests19MockVolcanoExecutorNtB6_15VolcanoExecutor13set_outer_rowB8_
FN:53,_RNvYNtNtNtCsldCax6rooq1_18sqlrustgo_executor8executor5tests19MockVolcanoExecutorNtB6_15VolcanoExecutor18requires_outer_rowB8_
FN:43,_RNvYNtNtNtCsldCax6rooq1_18sqlrustgo_executor8executor5tests19MockVolcanoExecutorNtB6_15VolcanoExecutor8next_refB8_
FN:49,_RNvYNtNtNtCsldCax6rooq1_18sqlrustgo_executor6filter5tests12MockExecutorNtNtB8_8executor15VolcanoExecutor13set_outer_rowB8_
FN:53,_RNvYNtNtNtCsldCax6rooq1_18sqlrustgo_executor6filter5tests12MockExecutorNtNtB8_8executor15VolcanoExecutor18requires_outer_rowB8_
FN:43,_RNvYNtNtNtCsldCax6rooq1_18sqlrustgo_executor6filter5tests12MockExecutorNtNtB8_8executor15VolcanoExecutor8next_refB8_
FN:49,_RNvYNtNtNtCsldCax6rooq1_18sqlrustgo_executor6filter5tests20MockExecutorWithDataNtNtB8_8executor15VolcanoExecutor13set_outer_rowB8_
FN:53,_RNvYNtNtNtCsldCax6rooq1_18sqlrustgo_executor6filter5tests20MockExecutorWithDataNtNtB8_8executor15VolcanoExecutor18requires_outer_rowB8_
FN:43,_RNvYNtNtNtCsldCax6rooq1_18sqlrustgo_executor6filter5tests20MockExecutorWithDataNtNtB8_8executor15VolcanoExecutor8next_refB8_
FN:316,_RNCNCNvMs3_NtCsldCax6rooq1_18sqlrustgo_executor8executorNtB9_24AggregateVolcanoExecutor17compute_aggregate00Bb_
FN:402,_RNCNCNvMs3_NtCsldCax6rooq1_18sqlrustgo_executor8executorNtB9_24AggregateVolcanoExecutor20evaluate_having_expr00Bb_
FN:311,_RNCNvMs3_NtCsldCax6rooq1_18sqlrustgo_executor8executorNtB7_24AggregateVolcanoExecutor17compute_aggregate0B9_
FN:397,_RNCNvMs3_NtCsldCax6rooq1_18sqlrustgo_executor8executorNtB7_24AggregateVolcanoExecutor20evaluate_having_expr0B9_
FN:731,_RNCNvMs5_NtCsldCax6rooq1_18sqlrustgo_executor8executorNtB7_23HashJoinVolcanoExecutor10next_cross0B9_
FN:817,_RNCNvMs5_NtCsldCax6rooq1_18sqlrustgo_executor8executorNtB7_23HashJoinVolcanoExecutor15next_right_anti0B9_
FN:776,_RNCNvMs5_NtCsldCax6rooq1_18sqlrustgo_executor8executorNtB7_23HashJoinVolcanoExecutor15next_right_semi0B9_
FN:116,_RNCNvMs_NtCsldCax6rooq1_18sqlrustgo_executor8executorNtB6_22SeqScanVolcanoExecutor3new0B8_
FN:165,_RNCNvXs0_NtCsldCax6rooq1_18sqlrustgo_executor8executorNtB7_22SeqScanVolcanoExecutorNtB7_15VolcanoExecutor4init0B9_
FN:240,_RNCNvXs2_NtCsldCax6rooq1_18sqlrustgo_executor8executorNtB7_25ProjectionVolcanoExecutorNtB7_15VolcanoExecutor4next0B9_
FN:514,_RNCNvXs4_NtCsldCax6rooq1_18sqlrustgo_executor8executorNtB7_24AggregateVolcanoExecutorNtB7_15VolcanoExecutor4init0B9_
FN:555,_RNCNvXs4_NtCsldCax6rooq1_18sqlrustgo_executor8executorNtB7_24AggregateVolcanoExecutorNtB7_15VolcanoExecutor4inits0_0B9_
FN:522,_RNCNvXs4_NtCsldCax6rooq1_18sqlrustgo_executor8executorNtB7_24AggregateVolcanoExecutorNtB7_15VolcanoExecutor4inits_0B9_
FN:1308,_RNCNvXs9_NtCsldCax6rooq1_18sqlrustgo_executor8executorNtB7_28SortMergeJoinVolcanoExecutorNtB7_15VolcanoExecutor4init0B9_
FN:1309,_RNCNvXs9_NtCsldCax6rooq1_18sqlrustgo_executor8executorNtB7_28SortMergeJoinVolcanoExecutorNtB7_15VolcanoExecutor4inits_0B9_
FN:1408,_RNCNvXsb_NtCsldCax6rooq1_18sqlrustgo_executor8executorNtB7_19SortVolcanoExecutorNtB7_15VolcanoExecutor4init0B9_
FN:1796,_RNCNvXsf_NtCsldCax6rooq1_18sqlrustgo_executor8executorNtB7_21SortMergeJoinExecutorNtB7_15VolcanoExecutor4init0B9_
FN:1798,_RNCNvXsf_NtCsldCax6rooq1_18sqlrustgo_executor8executorNtB7_21SortMergeJoinExecutorNtB7_15VolcanoExecutor4inits_0B9_
FN:2681,_RNvYNtNtCsldCax6rooq1_18sqlrustgo_executor8executor22MockStorageForExecutorNtB4_7Storage14scan_predicateB6_
FN:49,_RNvYNtNtCs4qFySXYcYQq_18sqlrustgo_executor15window_executor21WindowVolcanoExecutorNtNtB6_8executor15VolcanoExecutor13set_outer_rowB6_
FN:53,_RNvYNtNtCs4qFySXYcYQq_18sqlrustgo_executor15window_executor21WindowVolcanoExecutorNtNtB6_8executor15VolcanoExecutor18requires_outer_rowB6_
FN:43,_RNvYNtNtCs4qFySXYcYQq_18sqlrustgo_executor15window_executor21WindowVolcanoExecutorNtNtB6_8executor15VolcanoExecutor8next_refB6_
FN:16,_RNvMNtCs4qFySXYcYQq_18sqlrustgo_executor8executorNtB2_14ExecutorResult3new
FN:22,_RNvMNtCs4qFySXYcYQq_18sqlrustgo_executor8executorNtB2_14ExecutorResult5empty
FN:213,_RNvMs1_NtCs4qFySXYcYQq_18sqlrustgo_executor8executorNtB5_25ProjectionVolcanoExecutor3new
FN:305,_RNvMs3_NtCs4qFySXYcYQq_18sqlrustgo_executor8executorNtB5_24AggregateVolcanoExecutor17compute_aggregate
FN:387,_RNvMs3_NtCs4qFySXYcYQq_18sqlrustgo_executor8executorNtB5_24AggregateVolcanoExecutor20evaluate_having_expr
FN:283,_RNvMs3_NtCs4qFySXYcYQq_18sqlrustgo_executor8executorNtB5_24AggregateVolcanoExecutor3new
FN:723,_RNvMs5_NtCs4qFySXYcYQq_18sqlrustgo_executor8executorNtB5_23HashJoinVolcanoExecutor10next_cross
FN:646,_RNvMs5_NtCs4qFySXYcYQq_18sqlrustgo_executor8executorNtB5_23HashJoinVolcanoExecutor10next_inner
FN:700,_RNvMs5_NtCs4qFySXYcYQq_18sqlrustgo_executor8executorNtB5_23HashJoinVolcanoExecutor10next_right
FN:794,_RNvMs5_NtCs4qFySXYcYQq_18sqlrustgo_executor8executorNtB5_23HashJoinVolcanoExecutor14next_left_anti
FN:752,_RNvMs5_NtCs4qFySXYcYQq_18sqlrustgo_executor8executorNtB5_23HashJoinVolcanoExecutor14next_left_semi
FN:811,_RNvMs5_NtCs4qFySXYcYQq_18sqlrustgo_executor8executorNtB5_23HashJoinVolcanoExecutor15next_right_anti
FN:769,_RNvMs5_NtCs4qFySXYcYQq_18sqlrustgo_executor8executorNtB5_23HashJoinVolcanoExecutor15next_right_semi
FN:619,_RNvMs5_NtCs4qFySXYcYQq_18sqlrustgo_executor8executorNtB5_23HashJoinVolcanoExecutor3new
FN:713,_RNvMs5_NtCs4qFySXYcYQq_18sqlrustgo_executor8executorNtB5_23HashJoinVolcanoExecutor9next_full
FN:668,_RNvMs5_NtCs4qFySXYcYQq_18sqlrustgo_executor8executorNtB5_23HashJoinVolcanoExecutor9next_left
FN:929,_RNvMs7_NtCs4qFySXYcYQq_18sqlrustgo_executor8executorNtB5_28SortMergeJoinVolcanoExecutor3new
FN:1187,_RNvMs8_NtCs4qFySXYcYQq_18sqlrustgo_executor8executorNtB5_28SortMergeJoinVolcanoExecutor10next_cross
FN:985,_RNvMs8_NtCs4qFySXYcYQq_18sqlrustgo_executor8executorNtB5_28SortMergeJoinVolcanoExecutor10next_inner
FN:1110,_RNvMs8_NtCs4qFySXYcYQq_18sqlrustgo_executor8executorNtB5_28SortMergeJoinVolcanoExecutor10next_right
FN:1244,_RNvMs8_NtCs4qFySXYcYQq_18sqlrustgo_executor8executorNtB5_28SortMergeJoinVolcanoExecutor14next_left_anti
FN:1210,_RNvMs8_NtCs4qFySXYcYQq_18sqlrustgo_executor8executorNtB5_28SortMergeJoinVolcanoExecutor14next_left_semi
FN:1267,_RNvMs8_NtCs4qFySXYcYQq_18sqlrustgo_executor8executorNtB5_28SortMergeJoinVolcanoExecutor15next_right_anti
FN:1227,_RNvMs8_NtCs4qFySXYcYQq_18sqlrustgo_executor8executorNtB5_28SortMergeJoinVolcanoExecutor15next_right_semi
FN:981,_RNvMs8_NtCs4qFySXYcYQq_18sqlrustgo_executor8executorNtB5_28SortMergeJoinVolcanoExecutor8sort_key
FN:1177,_RNvMs8_NtCs4qFySXYcYQq_18sqlrustgo_executor8executorNtB5_28SortMergeJoinVolcanoExecutor9next_full
FN:1040,_RNvMs8_NtCs4qFySXYcYQq_18sqlrustgo_executor8executorNtB5_28SortMergeJoinVolcanoExecutor9next_left
FN:131,_RNvMs_NtCs4qFySXYcYQq_18sqlrustgo_executor8executorNtB4_22SeqScanVolcanoExecutor14with_predicate
FN:105,_RNvMs_NtCs4qFySXYcYQq_18sqlrustgo_executor8executorNtB4_22SeqScanVolcanoExecutor3new
FN:140,_RNvMs_NtCs4qFySXYcYQq_18sqlrustgo_executor8executorNtB4_22SeqScanVolcanoExecutor8next_ref
FN:1383,_RNvMsa_NtCs4qFySXYcYQq_18sqlrustgo_executor8executorNtB5_19SortVolcanoExecutor3new
FN:1636,_RNvMsc_NtCs4qFySXYcYQq_18sqlrustgo_executor8executorNtB5_29NestedLoopJoinVolcanoExecutor10next_cross
FN:1515,_RNvMsc_NtCs4qFySXYcYQq_18sqlrustgo_executor8executorNtB5_29NestedLoopJoinVolcanoExecutor10next_inner
FN:1595,_RNvMsc_NtCs4qFySXYcYQq_18sqlrustgo_executor8executorNtB5_29NestedLoopJoinVolcanoExecutor15next_full_outer
FN:1535,_RNvMsc_NtCs4qFySXYcYQq_18sqlrustgo_executor8executorNtB5_29NestedLoopJoinVolcanoExecutor15next_left_outer
FN:1562,_RNvMsc_NtCs4qFySXYcYQq_18sqlrustgo_executor8executorNtB5_29NestedLoopJoinVolcanoExecutor16next_right_outer
FN:1490,_RNvMsc_NtCs4qFySXYcYQq_18sqlrustgo_executor8executorNtB5_29NestedLoopJoinVolcanoExecutor3new
FN:1773,_RNvMse_NtCs4qFySXYcYQq_18sqlrustgo_executor8executorNtB5_21SortMergeJoinExecutor12compare_keys
FN:1740,_RNvMse_NtCs4qFySXYcYQq_18sqlrustgo_executor8executorNtB5_21SortMergeJoinExecutor3new
FN:1769,_RNvMse_NtCs4qFySXYcYQq_18sqlrustgo_executor8executorNtB5_21SortMergeJoinExecutor8sort_key
FN:1990,_RNvMsg_NtCs4qFySXYcYQq_18sqlrustgo_executor8executorNtB5_21SortMergeJoinExecutor10next_cross
FN:1854,_RNvMsg_NtCs4qFySXYcYQq_18sqlrustgo_executor8executorNtB5_21SortMergeJoinExecutor10next_inner
FN:1924,_RNvMsg_NtCs4qFySXYcYQq_18sqlrustgo_executor8executorNtB5_21SortMergeJoinExecutor10next_right
FN:1980,_RNvMsg_NtCs4qFySXYcYQq_18sqlrustgo_executor8executorNtB5_21SortMergeJoinExecutor9next_full
FN:1879,_RNvMsg_NtCs4qFySXYcYQq_18sqlrustgo_executor8executorNtB5_21SortMergeJoinExecutor9next_left
FN:2041,_RNvMsh_NtCs4qFySXYcYQq_18sqlrustgo_executor8executorNtB5_25InSubqueryVolcanoExecutor13has_outer_row
FN:2037,_RNvMsh_NtCs4qFySXYcYQq_18sqlrustgo_executor8executorNtB5_25InSubqueryVolcanoExecutor13set_outer_row
FN:2025,_RNvMsh_NtCs4qFySXYcYQq_18sqlrustgo_executor8executorNtB5_25InSubqueryVolcanoExecutor3new
FN:2125,_RNvMsk_NtCs4qFySXYcYQq_18sqlrustgo_executor8executorNtB5_21ExistsVolcanoExecutor3new
FN:2213,_RNvMsm_NtCs4qFySXYcYQq_18sqlrustgo_executor8executorNtB5_21AnyAllVolcanoExecutor13has_outer_row
FN:2209,_RNvMsm_NtCs4qFySXYcYQq_18sqlrustgo_executor8executorNtB5_21AnyAllVolcanoExecutor13set_outer_row
FN:2217,_RNvMsm_NtCs4qFySXYcYQq_18sqlrustgo_executor8executorNtB5_21AnyAllVolcanoExecutor14compare_values
FN:2189,_RNvMsm_NtCs4qFySXYcYQq_18sqlrustgo_executor8executorNtB5_21AnyAllVolcanoExecutor3new
FN:2333,_RNvMsp_NtCs4qFySXYcYQq_18sqlrustgo_executor8executorNtB5_20LimitVolcanoExecutor3new
FN:2614,_RNvMsr_NtCs4qFySXYcYQq_18sqlrustgo_executor8executorNtB5_18VolExecutorBuilder10build_sort
FN:2633,_RNvMsr_NtCs4qFySXYcYQq_18sqlrustgo_executor8executorNtB5_18VolExecutorBuilder11build_limit
FN:2454,_RNvMsr_NtCs4qFySXYcYQq_18sqlrustgo_executor8executorNtB5_18VolExecutorBuilder12build_exists
FN:2569,_RNvMsr_NtCs4qFySXYcYQq_18sqlrustgo_executor8executorNtB5_18VolExecutorBuilder12build_filter
FN:2654,_RNvMsr_NtCs4qFySXYcYQq_18sqlrustgo_executor8executorNtB5_18VolExecutorBuilder12build_window
FN:2468,_RNvMsr_NtCs4qFySXYcYQq_18sqlrustgo_executor8executorNtB5_18VolExecutorBuilder13build_any_all
FN:2540,_RNvMsr_NtCs4qFySXYcYQq_18sqlrustgo_executor8executorNtB5_18VolExecutorBuilder14build_seq_scan
FN:2590,_RNvMsr_NtCs4qFySXYcYQq_18sqlrustgo_executor8executorNtB5_18VolExecutorBuilder15build_aggregate
FN:2491,_RNvMsr_NtCs4qFySXYcYQq_18sqlrustgo_executor8executorNtB5_18VolExecutorBuilder15build_hash_join
FN:2548,_RNvMsr_NtCs4qFySXYcYQq_18sqlrustgo_executor8executorNtB5_18VolExecutorBuilder16build_projection
FN:2433,_RNvMsr_NtCs4qFySXYcYQq_18sqlrustgo_executor8executorNtB5_18VolExecutorBuilder17build_in_subquery
FN:2426,_RNvMsr_NtCs4qFySXYcYQq_18sqlrustgo_executor8executorNtB5_18VolExecutorBuilder25set_outer_row_on_executor
FN:2402,_RNvMsr_NtCs4qFySXYcYQq_18sqlrustgo_executor8executorNtB5_18VolExecutorBuilder3new
FN:2406,_RNvMsr_NtCs4qFySXYcYQq_18sqlrustgo_executor8executorNtB5_18VolExecutorBuilder5build
FN:2701,_RNvMss_NtCs4qFySXYcYQq_18sqlrustgo_executor8executorNtB5_22MockStorageForExecutor10with_table
FN:2695,_RNvMss_NtCs4qFySXYcYQq_18sqlrustgo_executor8executorNtB5_22MockStorageForExecutor3new
FN:77,_RNvNtCs4qFySXYcYQq_18sqlrustgo_executor8executor15execute_collect
FN:960,_RNvNtCs4qFySXYcYQq_18sqlrustgo_executor8executor17compare_join_keys
FN:196,_RNvXs0_NtCs4qFySXYcYQq_18sqlrustgo_executor8executorNtB5_22SeqScanVolcanoExecutorNtB5_15VolcanoExecutor14is_initialized
FN:154,_RNvXs0_NtCs4qFySXYcYQq_18sqlrustgo_executor8executorNtB5_22SeqScanVolcanoExecutorNtB5_15VolcanoExecutor4init
FN:193,_RNvXs0_NtCs4qFySXYcYQq_18sqlrustgo_executor8executorNtB5_22SeqScanVolcanoExecutorNtB5_15VolcanoExecutor4name
FN:171,_RNvXs0_NtCs4qFySXYcYQq_18sqlrustgo_executor8executorNtB5_22SeqScanVolcanoExecutorNtB5_15VolcanoExecutor4next
FN:184,_RNvXs0_NtCs4qFySXYcYQq_18sqlrustgo_executor8executorNtB5_22SeqScanVolcanoExecutorNtB5_15VolcanoExecutor5close
FN:199,_RNvXs0_NtCs4qFySXYcYQq_18sqlrustgo_executor8executorNtB5_22SeqScanVolcanoExecutorNtB5_15VolcanoExecutor6as_any
FN:190,_RNvXs0_NtCs4qFySXYcYQq_18sqlrustgo_executor8executorNtB5_22SeqScanVolcanoExecutorNtB5_15VolcanoExecutor6schema
FN:261,_RNvXs2_NtCs4qFySXYcYQq_18sqlrustgo_executor8executorNtB5_25ProjectionVolcanoExecutorNtB5_15VolcanoExecutor14is_initialized
FN:230,_RNvXs2_NtCs4qFySXYcYQq_18sqlrustgo_executor8executorNtB5_25ProjectionVolcanoExecutorNtB5_15VolcanoExecutor4init
FN:258,_RNvXs2_NtCs4qFySXYcYQq_18sqlrustgo_executor8executorNtB5_25ProjectionVolcanoExecutorNtB5_15VolcanoExecutor4name
FN:235,_RNvXs2_NtCs4qFySXYcYQq_18sqlrustgo_executor8executorNtB5_25ProjectionVolcanoExecutorNtB5_15VolcanoExecutor4next
FN:250,_RNvXs2_NtCs4qFySXYcYQq_18sqlrustgo_executor8executorNtB5_25ProjectionVolcanoExecutorNtB5_15VolcanoExecutor5close
FN:264,_RNvXs2_NtCs4qFySXYcYQq_18sqlrustgo_executor8executorNtB5_25ProjectionVolcanoExecutorNtB5_15VolcanoExecutor6as_any
FN:255,_RNvXs2_NtCs4qFySXYcYQq_18sqlrustgo_executor8executorNtB5_25ProjectionVolcanoExecutorNtB5_15VolcanoExecutor6schema
FN:590,_RNvXs4_NtCs4qFySXYcYQq_18sqlrustgo_executor8executorNtB5_24AggregateVolcanoExecutorNtB5_15VolcanoExecutor14is_initialized
FN:503,_RNvXs4_NtCs4qFySXYcYQq_18sqlrustgo_executor8executorNtB5_24AggregateVolcanoExecutorNtB5_15VolcanoExecutor4init
FN:587,_RNvXs4_NtCs4qFySXYcYQq_18sqlrustgo_executor8executorNtB5_24AggregateVolcanoExecutorNtB5_15VolcanoExecutor4name
FN:563,_RNvXs4_NtCs4qFySXYcYQq_18sqlrustgo_executor8executorNtB5_24AggregateVolcanoExecutorNtB5_15VolcanoExecutor4next
FN:578,_RNvXs4_NtCs4qFySXYcYQq_18sqlrustgo_executor8executorNtB5_24AggregateVolcanoExecutorNtB5_15VolcanoExecutor5close
FN:593,_RNvXs4_NtCs4qFySXYcYQq_18sqlrustgo_executor8executorNtB5_24AggregateVolcanoExecutorNtB5_15VolcanoExecutor6as_any
FN:584,_RNvXs4_NtCs4qFySXYcYQq_18sqlrustgo_executor8executorNtB5_24AggregateVolcanoExecutorNtB5_15VolcanoExecutor6schema
FN:895,_RNvXs6_NtCs4qFySXYcYQq_18sqlrustgo_executor8executorNtB5_23HashJoinVolcanoExecutorNtB5_15VolcanoExecutor14is_initialized
FN:838,_RNvXs6_NtCs4qFySXYcYQq_18sqlrustgo_executor8executorNtB5_23HashJoinVolcanoExecutorNtB5_15VolcanoExecutor4init
FN:892,_RNvXs6_NtCs4qFySXYcYQq_18sqlrustgo_executor8executorNtB5_23HashJoinVolcanoExecutorNtB5_15VolcanoExecutor4name
FN:858,_RNvXs6_NtCs4qFySXYcYQq_18sqlrustgo_executor8executorNtB5_23HashJoinVolcanoExecutorNtB5_15VolcanoExecutor4next
FN:875,_RNvXs6_NtCs4qFySXYcYQq_18sqlrustgo_executor8executorNtB5_23HashJoinVolcanoExecutorNtB5_15VolcanoExecutor5close
FN:898,_RNvXs6_NtCs4qFySXYcYQq_18sqlrustgo_executor8executorNtB5_23HashJoinVolcanoExecutorNtB5_15VolcanoExecutor6as_any
FN:889,_RNvXs6_NtCs4qFySXYcYQq_18sqlrustgo_executor8executorNtB5_23HashJoinVolcanoExecutorNtB5_15VolcanoExecutor6schema
FN:1363,_RNvXs9_NtCs4qFySXYcYQq_18sqlrustgo_executor8executorNtB5_28SortMergeJoinVolcanoExecutorNtB5_15VolcanoExecutor14is_initialized
FN:1292,_RNvXs9_NtCs4qFySXYcYQq_18sqlrustgo_executor8executorNtB5_28SortMergeJoinVolcanoExecutorNtB5_15VolcanoExecutor4init
FN:1359,_RNvXs9_NtCs4qFySXYcYQq_18sqlrustgo_executor8executorNtB5_28SortMergeJoinVolcanoExecutorNtB5_15VolcanoExecutor4name
FN:1325,_RNvXs9_NtCs4qFySXYcYQq_18sqlrustgo_executor8executorNtB5_28SortMergeJoinVolcanoExecutorNtB5_15VolcanoExecutor4next
FN:1343,_RNvXs9_NtCs4qFySXYcYQq_18sqlrustgo_executor8executorNtB5_28SortMergeJoinVolcanoExecutorNtB5_15VolcanoExecutor5close
FN:1367,_RNvXs9_NtCs4qFySXYcYQq_18sqlrustgo_executor8executorNtB5_28SortMergeJoinVolcanoExecutorNtB5_15VolcanoExecutor6as_any
FN:1355,_RNvXs9_NtCs4qFySXYcYQq_18sqlrustgo_executor8executorNtB5_28SortMergeJoinVolcanoExecutorNtB5_15VolcanoExecutor6schema
FN:1460,_RNvXsb_NtCs4qFySXYcYQq_18sqlrustgo_executor8executorNtB5_19SortVolcanoExecutorNtB5_15VolcanoExecutor14is_initialized
FN:1402,_RNvXsb_NtCs4qFySXYcYQq_18sqlrustgo_executor8executorNtB5_19SortVolcanoExecutorNtB5_15VolcanoExecutor4init
FN:1456,_RNvXsb_NtCs4qFySXYcYQq_18sqlrustgo_executor8executorNtB5_19SortVolcanoExecutorNtB5_15VolcanoExecutor4name
FN:1435,_RNvXsb_NtCs4qFySXYcYQq_18sqlrustgo_executor8executorNtB5_19SortVolcanoExecutorNtB5_15VolcanoExecutor4next
FN:1447,_RNvXsb_NtCs4qFySXYcYQq_18sqlrustgo_executor8executorNtB5_19SortVolcanoExecutorNtB5_15VolcanoExecutor5close
FN:1464,_RNvXsb_NtCs4qFySXYcYQq_18sqlrustgo_executor8executorNtB5_19SortVolcanoExecutorNtB5_15VolcanoExecutor6as_any
FN:1453,_RNvXsb_NtCs4qFySXYcYQq_18sqlrustgo_executor8executorNtB5_19SortVolcanoExecutorNtB5_15VolcanoExecutor6schema
FN:1709,_RNvXsd_NtCs4qFySXYcYQq_18sqlrustgo_executor8executorNtB5_29NestedLoopJoinVolcanoExecutorNtB5_15VolcanoExecutor14is_initialized
FN:1658,_RNvXsd_NtCs4qFySXYcYQq_18sqlrustgo_executor8executorNtB5_29NestedLoopJoinVolcanoExecutorNtB5_15VolcanoExecutor4init
FN:1705,_RNvXsd_NtCs4qFySXYcYQq_18sqlrustgo_executor8executorNtB5_29NestedLoopJoinVolcanoExecutorNtB5_15VolcanoExecutor4name
FN:1678,_RNvXsd_NtCs4qFySXYcYQq_18sqlrustgo_executor8executorNtB5_29NestedLoopJoinVolcanoExecutorNtB5_15VolcanoExecutor4next
FN:1693,_RNvXsd_NtCs4qFySXYcYQq_18sqlrustgo_executor8executorNtB5_29NestedLoopJoinVolcanoExecutorNtB5_15VolcanoExecutor5close
FN:1713,_RNvXsd_NtCs4qFySXYcYQq_18sqlrustgo_executor8executorNtB5_29NestedLoopJoinVolcanoExecutorNtB5_15VolcanoExecutor6as_any
FN:1701,_RNvXsd_NtCs4qFySXYcYQq_18sqlrustgo_executor8executorNtB5_29NestedLoopJoinVolcanoExecutorNtB5_15VolcanoExecutor6schema
FN:1844,_RNvXsf_NtCs4qFySXYcYQq_18sqlrustgo_executor8executorNtB5_21SortMergeJoinExecutorNtB5_15VolcanoExecutor14is_initialized
FN:1783,_RNvXsf_NtCs4qFySXYcYQq_18sqlrustgo_executor8executorNtB5_21SortMergeJoinExecutorNtB5_15VolcanoExecutor4init
FN:1840,_RNvXsf_NtCs4qFySXYcYQq_18sqlrustgo_executor8executorNtB5_21SortMergeJoinExecutorNtB5_15VolcanoExecutor4name
FN:1811,_RNvXsf_NtCs4qFySXYcYQq_18sqlrustgo_executor8executorNtB5_21SortMergeJoinExecutorNtB5_15VolcanoExecutor4next
FN:1826,_RNvXsf_NtCs4qFySXYcYQq_18sqlrustgo_executor8executorNtB5_21SortMergeJoinExecutorNtB5_15VolcanoExecutor5close
FN:1848,_RNvXsf_NtCs4qFySXYcYQq_18sqlrustgo_executor8executorNtB5_21SortMergeJoinExecutorNtB5_15VolcanoExecutor6as_any
FN:1836,_RNvXsf_NtCs4qFySXYcYQq_18sqlrustgo_executor8executorNtB5_21SortMergeJoinExecutorNtB5_15VolcanoExecutor6schema
FN:2051,_RNvXsi_NtCs4qFySXYcYQq_18sqlrustgo_executor8executorNtB5_25InSubqueryVolcanoExecutorNtB5_21OuterRowAwareExecutor13has_outer_row
FN:2047,_RNvXsi_NtCs4qFySXYcYQq_18sqlrustgo_executor8executorNtB5_25InSubqueryVolcanoExecutorNtB5_21OuterRowAwareExecutor13set_outer_row
FN:2108,_RNvXsj_NtCs4qFySXYcYQq_18sqlrustgo_executor8executorNtB5_25InSubqueryVolcanoExecutorNtB5_15VolcanoExecutor14is_initialized
FN:2057,_RNvXsj_NtCs4qFySXYcYQq_18sqlrustgo_executor8executorNtB5_25InSubqueryVolcanoExecutorNtB5_15VolcanoExecutor4init
FN:2105,_RNvXsj_NtCs4qFySXYcYQq_18sqlrustgo_executor8executorNtB5_25InSubqueryVolcanoExecutorNtB5_15VolcanoExecutor4name
FN:2070,_RNvXsj_NtCs4qFySXYcYQq_18sqlrustgo_executor8executorNtB5_25InSubqueryVolcanoExecutorNtB5_15VolcanoExecutor4next
FN:2097,_RNvXsj_NtCs4qFySXYcYQq_18sqlrustgo_executor8executorNtB5_25InSubqueryVolcanoExecutorNtB5_15VolcanoExecutor5close
FN:2111,_RNvXsj_NtCs4qFySXYcYQq_18sqlrustgo_executor8executorNtB5_25InSubqueryVolcanoExecutorNtB5_15VolcanoExecutor6as_any
FN:2102,_RNvXsj_NtCs4qFySXYcYQq_18sqlrustgo_executor8executorNtB5_25InSubqueryVolcanoExecutorNtB5_15VolcanoExecutor6schema
FN:2168,_RNvXsl_NtCs4qFySXYcYQq_18sqlrustgo_executor8executorNtB5_21ExistsVolcanoExecutorNtB5_15VolcanoExecutor14is_initialized
FN:2137,_RNvXsl_NtCs4qFySXYcYQq_18sqlrustgo_executor8executorNtB5_21ExistsVolcanoExecutorNtB5_15VolcanoExecutor4init
FN:2165,_RNvXsl_NtCs4qFySXYcYQq_18sqlrustgo_executor8executorNtB5_21ExistsVolcanoExecutorNtB5_15VolcanoExecutor4name
FN:2149,_RNvXsl_NtCs4qFySXYcYQq_18sqlrustgo_executor8executorNtB5_21ExistsVolcanoExecutorNtB5_15VolcanoExecutor4next
FN:2157,_RNvXsl_NtCs4qFySXYcYQq_18sqlrustgo_executor8executorNtB5_21ExistsVolcanoExecutorNtB5_15VolcanoExecutor5close
FN:2171,_RNvXsl_NtCs4qFySXYcYQq_18sqlrustgo_executor8executorNtB5_21ExistsVolcanoExecutorNtB5_15VolcanoExecutor6as_any
FN:2162,_RNvXsl_NtCs4qFySXYcYQq_18sqlrustgo_executor8executorNtB5_21ExistsVolcanoExecutorNtB5_15VolcanoExecutor6schema
FN:2305,_RNvXsn_NtCs4qFySXYcYQq_18sqlrustgo_executor8executorNtB5_21AnyAllVolcanoExecutorNtB5_15VolcanoExecutor14is_initialized
FN:2238,_RNvXsn_NtCs4qFySXYcYQq_18sqlrustgo_executor8executorNtB5_21AnyAllVolcanoExecutorNtB5_15VolcanoExecutor4init
FN:2302,_RNvXsn_NtCs4qFySXYcYQq_18sqlrustgo_executor8executorNtB5_21AnyAllVolcanoExecutorNtB5_15VolcanoExecutor4name
FN:2251,_RNvXsn_NtCs4qFySXYcYQq_18sqlrustgo_executor8executorNtB5_21AnyAllVolcanoExecutorNtB5_15VolcanoExecutor4next
FN:2294,_RNvXsn_NtCs4qFySXYcYQq_18sqlrustgo_executor8executorNtB5_21AnyAllVolcanoExecutorNtB5_15VolcanoExecutor5close
FN:2308,_RNvXsn_NtCs4qFySXYcYQq_18sqlrustgo_executor8executorNtB5_21AnyAllVolcanoExecutorNtB5_15VolcanoExecutor6as_any
FN:2299,_RNvXsn_NtCs4qFySXYcYQq_18sqlrustgo_executor8executorNtB5_21AnyAllVolcanoExecutorNtB5_15VolcanoExecutor6schema
FN:2318,_RNvXso_NtCs4qFySXYcYQq_18sqlrustgo_executor8executorNtB5_21AnyAllVolcanoExecutorNtB5_21OuterRowAwareExecutor13has_outer_row
FN:2314,_RNvXso_NtCs4qFySXYcYQq_18sqlrustgo_executor8executorNtB5_21AnyAllVolcanoExecutorNtB5_21OuterRowAwareExecutor13set_outer_row
FN:2389,_RNvXsq_NtCs4qFySXYcYQq_18sqlrustgo_executor8executorNtB5_20LimitVolcanoExecutorNtB5_15VolcanoExecutor14is_initialized
FN:2351,_RNvXsq_NtCs4qFySXYcYQq_18sqlrustgo_executor8executorNtB5_20LimitVolcanoExecutorNtB5_15VolcanoExecutor4init
FN:2386,_RNvXsq_NtCs4qFySXYcYQq_18sqlrustgo_executor8executorNtB5_20LimitVolcanoExecutorNtB5_15VolcanoExecutor4name
FN:2358,_RNvXsq_NtCs4qFySXYcYQq_18sqlrustgo_executor8executorNtB5_20LimitVolcanoExecutorNtB5_15VolcanoExecutor4next
FN:2378,_RNvXsq_NtCs4qFySXYcYQq_18sqlrustgo_executor8executorNtB5_20LimitVolcanoExecutorNtB5_15VolcanoExecutor5close
FN:2392,_RNvXsq_NtCs4qFySXYcYQq_18sqlrustgo_executor8executorNtB5_20LimitVolcanoExecutorNtB5_15VolcanoExecutor6as_any
FN:2383,_RNvXsq_NtCs4qFySXYcYQq_18sqlrustgo_executor8executorNtB5_20LimitVolcanoExecutorNtB5_15VolcanoExecutor6schema
FN:2708,_RNvXst_NtCs4qFySXYcYQq_18sqlrustgo_executor8executorNtB5_22MockStorageForExecutorNtNtCs8nPosuWgJFh_4core7default7Default7default
FN:2714,_RNvXsu_NtCs4qFySXYcYQq_18sqlrustgo_executor8executorNtB5_22MockStorageForExecutorNtB5_7Storage4scan
FN:49,_RNvYNtNtCs4qFySXYcYQq_18sqlrustgo_executor6filter21FilterVolcanoExecutorNtNtB6_8executor15VolcanoExecutor13set_outer_rowB6_
FN:53,_RNvYNtNtCs4qFySXYcYQq_18sqlrustgo_executor6filter21FilterVolcanoExecutorNtNtB6_8executor15VolcanoExecutor18requires_outer_rowB6_
FN:43,_RNvYNtNtCs4qFySXYcYQq_18sqlrustgo_executor6filter21FilterVolcanoExecutorNtNtB6_8executor15VolcanoExecutor8next_refB6_
FN:316,_RNCNCNvMs3_NtCs4qFySXYcYQq_18sqlrustgo_executor8executorNtB9_24AggregateVolcanoExecutor17compute_aggregate00Bb_
FN:402,_RNCNCNvMs3_NtCs4qFySXYcYQq_18sqlrustgo_executor8executorNtB9_24AggregateVolcanoExecutor20evaluate_having_expr00Bb_
FN:311,_RNCNvMs3_NtCs4qFySXYcYQq_18sqlrustgo_executor8executorNtB7_24AggregateVolcanoExecutor17compute_aggregate0B9_
FN:397,_RNCNvMs3_NtCs4qFySXYcYQq_18sqlrustgo_executor8executorNtB7_24AggregateVolcanoExecutor20evaluate_having_expr0B9_
FN:731,_RNCNvMs5_NtCs4qFySXYcYQq_18sqlrustgo_executor8executorNtB7_23HashJoinVolcanoExecutor10next_cross0B9_
FN:817,_RNCNvMs5_NtCs4qFySXYcYQq_18sqlrustgo_executor8executorNtB7_23HashJoinVolcanoExecutor15next_right_anti0B9_
FN:776,_RNCNvMs5_NtCs4qFySXYcYQq_18sqlrustgo_executor8executorNtB7_23HashJoinVolcanoExecutor15next_right_semi0B9_
FN:116,_RNCNvMs_NtCs4qFySXYcYQq_18sqlrustgo_executor8executorNtB6_22SeqScanVolcanoExecutor3new0B8_
FN:2038,_RNCNvMsh_NtCs4qFySXYcYQq_18sqlrustgo_executor8executorNtB7_25InSubqueryVolcanoExecutor13set_outer_row0B9_
FN:2210,_RNCNvMsm_NtCs4qFySXYcYQq_18sqlrustgo_executor8executorNtB7_21AnyAllVolcanoExecutor13set_outer_row0B9_
FN:2623,_RNCNvMsr_NtCs4qFySXYcYQq_18sqlrustgo_executor8executorNtB7_18VolExecutorBuilder10build_sort0B9_
FN:2644,_RNCNvMsr_NtCs4qFySXYcYQq_18sqlrustgo_executor8executorNtB7_18VolExecutorBuilder11build_limit0B9_
FN:2645,_RNCNvMsr_NtCs4qFySXYcYQq_18sqlrustgo_executor8executorNtB7_18VolExecutorBuilder11build_limits_0B9_
FN:2580,_RNCNvMsr_NtCs4qFySXYcYQq_18sqlrustgo_executor8executorNtB7_18VolExecutorBuilder12build_filter0B9_
FN:2665,_RNCNvMsr_NtCs4qFySXYcYQq_18sqlrustgo_executor8executorNtB7_18VolExecutorBuilder12build_window0B9_
FN:2479,_RNCNvMsr_NtCs4qFySXYcYQq_18sqlrustgo_executor8executorNtB7_18VolExecutorBuilder13build_any_all0B9_
FN:2601,_RNCNvMsr_NtCs4qFySXYcYQq_18sqlrustgo_executor8executorNtB7_18VolExecutorBuilder15build_aggregate0B9_
FN:2503,_RNCNvMsr_NtCs4qFySXYcYQq_18sqlrustgo_executor8executorNtB7_18VolExecutorBuilder15build_hash_join0B9_
FN:2559,_RNCNvMsr_NtCs4qFySXYcYQq_18sqlrustgo_executor8executorNtB7_18VolExecutorBuilder16build_projection0B9_
FN:2444,_RNCNvMsr_NtCs4qFySXYcYQq_18sqlrustgo_executor8executorNtB7_18VolExecutorBuilder17build_in_subquery0B9_
FN:165,_RNCNvXs0_NtCs4qFySXYcYQq_18sqlrustgo_executor8executorNtB7_22SeqScanVolcanoExecutorNtB7_15VolcanoExecutor4init0B9_
FN:240,_RNCNvXs2_NtCs4qFySXYcYQq_18sqlrustgo_executor8executorNtB7_25ProjectionVolcanoExecutorNtB7_15VolcanoExecutor4next0B9_
FN:514,_RNCNvXs4_NtCs4qFySXYcYQq_18sqlrustgo_executor8executorNtB7_24AggregateVolcanoExecutorNtB7_15VolcanoExecutor4init0B9_
FN:555,_RNCNvXs4_NtCs4qFySXYcYQq_18sqlrustgo_executor8executorNtB7_24AggregateVolcanoExecutorNtB7_15VolcanoExecutor4inits0_0B9_
FN:522,_RNCNvXs4_NtCs4qFySXYcYQq_18sqlrustgo_executor8executorNtB7_24AggregateVolcanoExecutorNtB7_15VolcanoExecutor4inits_0B9_
FN:1308,_RNCNvXs9_NtCs4qFySXYcYQq_18sqlrustgo_executor8executorNtB7_28SortMergeJoinVolcanoExecutorNtB7_15VolcanoExecutor4init0B9_
FN:1309,_RNCNvXs9_NtCs4qFySXYcYQq_18sqlrustgo_executor8executorNtB7_28SortMergeJoinVolcanoExecutorNtB7_15VolcanoExecutor4inits_0B9_
FN:1408,_RNCNvXsb_NtCs4qFySXYcYQq_18sqlrustgo_executor8executorNtB7_19SortVolcanoExecutorNtB7_15VolcanoExecutor4init0B9_
FN:1796,_RNCNvXsf_NtCs4qFySXYcYQq_18sqlrustgo_executor8executorNtB7_21SortMergeJoinExecutorNtB7_15VolcanoExecutor4init0B9_
FN:1798,_RNCNvXsf_NtCs4qFySXYcYQq_18sqlrustgo_executor8executorNtB7_21SortMergeJoinExecutorNtB7_15VolcanoExecutor4inits_0B9_
FN:2048,_RNCNvXsi_NtCs4qFySXYcYQq_18sqlrustgo_executor8executorNtB7_25InSubqueryVolcanoExecutorNtB7_21OuterRowAwareExecutor13set_outer_row0B9_
FN:2088,_RNCNvXsj_NtCs4qFySXYcYQq_18sqlrustgo_executor8executorNtB7_25InSubqueryVolcanoExecutorNtB7_15VolcanoExecutor4next0B9_
FN:2315,_RNCNvXso_NtCs4qFySXYcYQq_18sqlrustgo_executor8executorNtB7_21AnyAllVolcanoExecutorNtB7_21OuterRowAwareExecutor13set_outer_row0B9_
FN:49,_RNvYNtNtCs4qFySXYcYQq_18sqlrustgo_executor8executor19SortVolcanoExecutorNtB4_15VolcanoExecutor13set_outer_rowB6_
FN:53,_RNvYNtNtCs4qFySXYcYQq_18sqlrustgo_executor8executor19SortVolcanoExecutorNtB4_15VolcanoExecutor18requires_outer_rowB6_
FN:43,_RNvYNtNtCs4qFySXYcYQq_18sqlrustgo_executor8executor19SortVolcanoExecutorNtB4_15VolcanoExecutor8next_refB6_
FN:49,_RNvYNtNtCs4qFySXYcYQq_18sqlrustgo_executor8executor20LimitVolcanoExecutorNtB4_15VolcanoExecutor13set_outer_rowB6_
FN:53,_RNvYNtNtCs4qFySXYcYQq_18sqlrustgo_executor8executor20LimitVolcanoExecutorNtB4_15VolcanoExecutor18requires_outer_rowB6_
FN:43,_RNvYNtNtCs4qFySXYcYQq_18sqlrustgo_executor8executor20LimitVolcanoExecutorNtB4_15VolcanoExecutor8next_refB6_
FN:49,_RNvYNtNtCs4qFySXYcYQq_18sqlrustgo_executor8executor21AnyAllVolcanoExecutorNtB4_15VolcanoExecutor13set_outer_rowB6_
FN:53,_RNvYNtNtCs4qFySXYcYQq_18sqlrustgo_executor8executor21AnyAllVolcanoExecutorNtB4_15VolcanoExecutor18requires_outer_rowB6_
FN:43,_RNvYNtNtCs4qFySXYcYQq_18sqlrustgo_executor8executor21AnyAllVolcanoExecutorNtB4_15VolcanoExecutor8next_refB6_
FN:49,_RNvYNtNtCs4qFySXYcYQq_18sqlrustgo_executor8executor21ExistsVolcanoExecutorNtB4_15VolcanoExecutor13set_outer_rowB6_
FN:53,_RNvYNtNtCs4qFySXYcYQq_18sqlrustgo_executor8executor21ExistsVolcanoExecutorNtB4_15VolcanoExecutor18requires_outer_rowB6_
FN:43,_RNvYNtNtCs4qFySXYcYQq_18sqlrustgo_executor8executor21ExistsVolcanoExecutorNtB4_15VolcanoExecutor8next_refB6_
FN:49,_RNvYNtNtCs4qFySXYcYQq_18sqlrustgo_executor8executor22SeqScanVolcanoExecutorNtB4_15VolcanoExecutor13set_outer_rowB6_
FN:53,_RNvYNtNtCs4qFySXYcYQq_18sqlrustgo_executor8executor22SeqScanVolcanoExecutorNtB4_15VolcanoExecutor18requires_outer_rowB6_
FN:43,_RNvYNtNtCs4qFySXYcYQq_18sqlrustgo_executor8executor22SeqScanVolcanoExecutorNtB4_15VolcanoExecutor8next_refB6_
FN:49,_RNvYNtNtCs4qFySXYcYQq_18sqlrustgo_executor8executor23HashJoinVolcanoExecutorNtB4_15VolcanoExecutor13set_outer_rowB6_
FN:53,_RNvYNtNtCs4qFySXYcYQq_18sqlrustgo_executor8executor23HashJoinVolcanoExecutorNtB4_15VolcanoExecutor18requires_outer_rowB6_
FN:43,_RNvYNtNtCs4qFySXYcYQq_18sqlrustgo_executor8executor23HashJoinVolcanoExecutorNtB4_15VolcanoExecutor8next_refB6_
FN:49,_RNvYNtNtCs4qFySXYcYQq_18sqlrustgo_executor8executor24AggregateVolcanoExecutorNtB4_15VolcanoExecutor13set_outer_rowB6_
FN:53,_RNvYNtNtCs4qFySXYcYQq_18sqlrustgo_executor8executor24AggregateVolcanoExecutorNtB4_15VolcanoExecutor18requires_outer_rowB6_
FN:43,_RNvYNtNtCs4qFySXYcYQq_18sqlrustgo_executor8executor24AggregateVolcanoExecutorNtB4_15VolcanoExecutor8next_refB6_
FN:49,_RNvYNtNtCs4qFySXYcYQq_18sqlrustgo_executor8executor25InSubqueryVolcanoExecutorNtB4_15VolcanoExecutor13set_outer_rowB6_
FN:53,_RNvYNtNtCs4qFySXYcYQq_18sqlrustgo_executor8executor25InSubqueryVolcanoExecutorNtB4_15VolcanoExecutor18requires_outer_rowB6_
FN:43,_RNvYNtNtCs4qFySXYcYQq_18sqlrustgo_executor8executor25InSubqueryVolcanoExecutorNtB4_15VolcanoExecutor8next_refB6_
FN:49,_RNvYNtNtCs4qFySXYcYQq_18sqlrustgo_executor8executor25ProjectionVolcanoExecutorNtB4_15VolcanoExecutor13set_outer_rowB6_
FN:53,_RNvYNtNtCs4qFySXYcYQq_18sqlrustgo_executor8executor25ProjectionVolcanoExecutorNtB4_15VolcanoExecutor18requires_outer_rowB6_
FN:43,_RNvYNtNtCs4qFySXYcYQq_18sqlrustgo_executor8executor25ProjectionVolcanoExecutorNtB4_15VolcanoExecutor8next_refB6_
FN:49,_RNvYNtNtCs4qFySXYcYQq_18sqlrustgo_executor8executor29NestedLoopJoinVolcanoExecutorNtB4_15VolcanoExecutor13set_outer_rowB6_
FN:53,_RNvYNtNtCs4qFySXYcYQq_18sqlrustgo_executor8executor29NestedLoopJoinVolcanoExecutorNtB4_15VolcanoExecutor18requires_outer_rowB6_
FN:43,_RNvYNtNtCs4qFySXYcYQq_18sqlrustgo_executor8executor29NestedLoopJoinVolcanoExecutorNtB4_15VolcanoExecutor8next_refB6_
FNDA:0,_RNCNvMsh_NtCsldCax6rooq1_18sqlrustgo_executor8executorNtB7_25InSubqueryVolcanoExecutor13set_outer_row0B9_
FNDA:0,_RNCNvMsm_NtCsldCax6rooq1_18sqlrustgo_executor8executorNtB7_21AnyAllVolcanoExecutor13set_outer_row0B9_
FNDA:0,_RNCNvMsr_NtCsldCax6rooq1_18sqlrustgo_executor8executorNtB7_18VolExecutorBuilder10build_sort0B9_
FNDA:0,_RNCNvMsr_NtCsldCax6rooq1_18sqlrustgo_executor8executorNtB7_18VolExecutorBuilder11build_limit0B9_
FNDA:0,_RNCNvMsr_NtCsldCax6rooq1_18sqlrustgo_executor8executorNtB7_18VolExecutorBuilder11build_limits_0B9_
FNDA:0,_RNCNvMsr_NtCsldCax6rooq1_18sqlrustgo_executor8executorNtB7_18VolExecutorBuilder12build_filter0B9_
FNDA:0,_RNCNvMsr_NtCsldCax6rooq1_18sqlrustgo_executor8executorNtB7_18VolExecutorBuilder12build_window0B9_
FNDA:0,_RNCNvMsr_NtCsldCax6rooq1_18sqlrustgo_executor8executorNtB7_18VolExecutorBuilder13build_any_all0B9_
FNDA:0,_RNCNvMsr_NtCsldCax6rooq1_18sqlrustgo_executor8executorNtB7_18VolExecutorBuilder15build_aggregate0B9_
FNDA:0,_RNCNvMsr_NtCsldCax6rooq1_18sqlrustgo_executor8executorNtB7_18VolExecutorBuilder15build_hash_join0B9_
FNDA:0,_RNCNvMsr_NtCsldCax6rooq1_18sqlrustgo_executor8executorNtB7_18VolExecutorBuilder16build_projection0B9_
FNDA:0,_RNCNvMsr_NtCsldCax6rooq1_18sqlrustgo_executor8executorNtB7_18VolExecutorBuilder17build_in_subquery0B9_
FNDA:0,_RNCNvXsi_NtCsldCax6rooq1_18sqlrustgo_executor8executorNtB7_25InSubqueryVolcanoExecutorNtB7_21OuterRowAwareExecutor13set_outer_row0B9_
FNDA:0,_RNCNvXsj_NtCsldCax6rooq1_18sqlrustgo_executor8executorNtB7_25InSubqueryVolcanoExecutorNtB7_15VolcanoExecutor4next0B9_
FNDA:0,_RNCNvXso_NtCsldCax6rooq1_18sqlrustgo_executor8executorNtB7_21AnyAllVolcanoExecutorNtB7_21OuterRowAwareExecutor13set_outer_row0B9_
FNDA:0,_RNvMs_NtCsldCax6rooq1_18sqlrustgo_executor8executorNtB4_22SeqScanVolcanoExecutor14with_predicate
FNDA:0,_RNvMs_NtCsldCax6rooq1_18sqlrustgo_executor8executorNtB4_22SeqScanVolcanoExecutor8next_ref
FNDA:0,_RNvMsh_NtCsldCax6rooq1_18sqlrustgo_executor8executorNtB5_25InSubqueryVolcanoExecutor13has_outer_row
FNDA:0,_RNvMsh_NtCsldCax6rooq1_18sqlrustgo_executor8executorNtB5_25InSubqueryVolcanoExecutor13set_outer_row
FNDA:0,_RNvMsh_NtCsldCax6rooq1_18sqlrustgo_executor8executorNtB5_25InSubqueryVolcanoExecutor3new
FNDA:0,_RNvMsk_NtCsldCax6rooq1_18sqlrustgo_executor8executorNtB5_21ExistsVolcanoExecutor3new
FNDA:0,_RNvMsm_NtCsldCax6rooq1_18sqlrustgo_executor8executorNtB5_21AnyAllVolcanoExecutor13has_outer_row
FNDA:0,_RNvMsm_NtCsldCax6rooq1_18sqlrustgo_executor8executorNtB5_21AnyAllVolcanoExecutor13set_outer_row
FNDA:0,_RNvMsm_NtCsldCax6rooq1_18sqlrustgo_executor8executorNtB5_21AnyAllVolcanoExecutor14compare_values
FNDA:0,_RNvMsm_NtCsldCax6rooq1_18sqlrustgo_executor8executorNtB5_21AnyAllVolcanoExecutor3new
FNDA:0,_RNvMsr_NtCsldCax6rooq1_18sqlrustgo_executor8executorNtB5_18VolExecutorBuilder10build_sort
FNDA:0,_RNvMsr_NtCsldCax6rooq1_18sqlrustgo_executor8executorNtB5_18VolExecutorBuilder11build_limit
FNDA:0,_RNvMsr_NtCsldCax6rooq1_18sqlrustgo_executor8executorNtB5_18VolExecutorBuilder12build_exists
FNDA:0,_RNvMsr_NtCsldCax6rooq1_18sqlrustgo_executor8executorNtB5_18VolExecutorBuilder12build_filter
FNDA:0,_RNvMsr_NtCsldCax6rooq1_18sqlrustgo_executor8executorNtB5_18VolExecutorBuilder12build_window
FNDA:0,_RNvMsr_NtCsldCax6rooq1_18sqlrustgo_executor8executorNtB5_18VolExecutorBuilder13build_any_all
FNDA:0,_RNvMsr_NtCsldCax6rooq1_18sqlrustgo_executor8executorNtB5_18VolExecutorBuilder14build_seq_scan
FNDA:0,_RNvMsr_NtCsldCax6rooq1_18sqlrustgo_executor8executorNtB5_18VolExecutorBuilder15build_aggregate
FNDA:0,_RNvMsr_NtCsldCax6rooq1_18sqlrustgo_executor8executorNtB5_18VolExecutorBuilder15build_hash_join
FNDA:0,_RNvMsr_NtCsldCax6rooq1_18sqlrustgo_executor8executorNtB5_18VolExecutorBuilder16build_projection
FNDA:0,_RNvMsr_NtCsldCax6rooq1_18sqlrustgo_executor8executorNtB5_18VolExecutorBuilder17build_in_subquery
FNDA:0,_RNvMsr_NtCsldCax6rooq1_18sqlrustgo_executor8executorNtB5_18VolExecutorBuilder25set_outer_row_on_executor
FNDA:0,_RNvMsr_NtCsldCax6rooq1_18sqlrustgo_executor8executorNtB5_18VolExecutorBuilder3new
FNDA:0,_RNvMsr_NtCsldCax6rooq1_18sqlrustgo_executor8executorNtB5_18VolExecutorBuilder5build
FNDA:0,_RNvXs0_NtCsldCax6rooq1_18sqlrustgo_executor8executorNtB5_22SeqScanVolcanoExecutorNtB5_15VolcanoExecutor6as_any
FNDA:0,_RNvXs0_NtNtCsldCax6rooq1_18sqlrustgo_executor8executor5testsNtB5_12MockExecutorNtB7_8Executor7execute
FNDA:0,_RNvXs2_NtCsldCax6rooq1_18sqlrustgo_executor8executorNtB5_25ProjectionVolcanoExecutorNtB5_15VolcanoExecutor14is_initialized
FNDA:0,_RNvXs2_NtCsldCax6rooq1_18sqlrustgo_executor8executorNtB5_25ProjectionVolcanoExecutorNtB5_15VolcanoExecutor5close
FNDA:0,_RNvXs2_NtCsldCax6rooq1_18sqlrustgo_executor8executorNtB5_25ProjectionVolcanoExecutorNtB5_15VolcanoExecutor6as_any
FNDA:0,_RNvXs2_NtCsldCax6rooq1_18sqlrustgo_executor8executorNtB5_25ProjectionVolcanoExecutorNtB5_15VolcanoExecutor6schema
FNDA:0,_RNvXs2_NtNtCsldCax6rooq1_18sqlrustgo_executor8executor5testsNtB5_19MockVolcanoExecutorNtNtCs8nPosuWgJFh_4core7default7Default7default
FNDA:0,_RNvXs4_NtCsldCax6rooq1_18sqlrustgo_executor8executorNtB5_24AggregateVolcanoExecutorNtB5_15VolcanoExecutor14is_initialized
FNDA:0,_RNvXs4_NtCsldCax6rooq1_18sqlrustgo_executor8executorNtB5_24AggregateVolcanoExecutorNtB5_15VolcanoExecutor5close
FNDA:0,_RNvXs4_NtCsldCax6rooq1_18sqlrustgo_executor8executorNtB5_24AggregateVolcanoExecutorNtB5_15VolcanoExecutor6as_any
FNDA:0,_RNvXs4_NtCsldCax6rooq1_18sqlrustgo_executor8executorNtB5_24AggregateVolcanoExecutorNtB5_15VolcanoExecutor6schema
FNDA:0,_RNvXs6_NtCsldCax6rooq1_18sqlrustgo_executor8executorNtB5_23HashJoinVolcanoExecutorNtB5_15VolcanoExecutor14is_initialized
FNDA:0,_RNvXs6_NtCsldCax6rooq1_18sqlrustgo_executor8executorNtB5_23HashJoinVolcanoExecutorNtB5_15VolcanoExecutor5close
FNDA:0,_RNvXs6_NtCsldCax6rooq1_18sqlrustgo_executor8executorNtB5_23HashJoinVolcanoExecutorNtB5_15VolcanoExecutor6as_any
FNDA:0,_RNvXs6_NtCsldCax6rooq1_18sqlrustgo_executor8executorNtB5_23HashJoinVolcanoExecutorNtB5_15VolcanoExecutor6schema
FNDA:0,_RNvXs9_NtCsldCax6rooq1_18sqlrustgo_executor8executorNtB5_28SortMergeJoinVolcanoExecutorNtB5_15VolcanoExecutor6as_any
FNDA:0,_RNvXs9_NtCsldCax6rooq1_18sqlrustgo_executor8executorNtB5_28SortMergeJoinVolcanoExecutorNtB5_15VolcanoExecutor6schema
FNDA:0,_RNvXs_NtNtCsldCax6rooq1_18sqlrustgo_executor8executor5testsNtB4_12MockExecutorNtNtCs8nPosuWgJFh_4core7default7Default7default
FNDA:0,_RNvXsb_NtCsldCax6rooq1_18sqlrustgo_executor8executorNtB5_19SortVolcanoExecutorNtB5_15VolcanoExecutor6as_any
FNDA:0,_RNvXsb_NtCsldCax6rooq1_18sqlrustgo_executor8executorNtB5_19SortVolcanoExecutorNtB5_15VolcanoExecutor6schema
FNDA:0,_RNvXsd_NtCsldCax6rooq1_18sqlrustgo_executor8executorNtB5_29NestedLoopJoinVolcanoExecutorNtB5_15VolcanoExecutor14is_initialized
FNDA:0,_RNvXsd_NtCsldCax6rooq1_18sqlrustgo_executor8executorNtB5_29NestedLoopJoinVolcanoExecutorNtB5_15VolcanoExecutor6as_any
FNDA:0,_RNvXsd_NtCsldCax6rooq1_18sqlrustgo_executor8executorNtB5_29NestedLoopJoinVolcanoExecutorNtB5_15VolcanoExecutor6schema
FNDA:0,_RNvXsf_NtCsldCax6rooq1_18sqlrustgo_executor8executorNtB5_21SortMergeJoinExecutorNtB5_15VolcanoExecutor14is_initialized
FNDA:0,_RNvXsf_NtCsldCax6rooq1_18sqlrustgo_executor8executorNtB5_21SortMergeJoinExecutorNtB5_15VolcanoExecutor5close
FNDA:0,_RNvXsf_NtCsldCax6rooq1_18sqlrustgo_executor8executorNtB5_21SortMergeJoinExecutorNtB5_15VolcanoExecutor6as_any
FNDA:0,_RNvXsf_NtCsldCax6rooq1_18sqlrustgo_executor8executorNtB5_21SortMergeJoinExecutorNtB5_15VolcanoExecutor6schema
FNDA:0,_RNvXsi_NtCsldCax6rooq1_18sqlrustgo_executor8executorNtB5_25InSubqueryVolcanoExecutorNtB5_21OuterRowAwareExecutor13has_outer_row
FNDA:0,_RNvXsi_NtCsldCax6rooq1_18sqlrustgo_executor8executorNtB5_25InSubqueryVolcanoExecutorNtB5_21OuterRowAwareExecutor13set_outer_row
FNDA:0,_RNvXsj_NtCsldCax6rooq1_18sqlrustgo_executor8executorNtB5_25InSubqueryVolcanoExecutorNtB5_15VolcanoExecutor14is_initialized
FNDA:0,_RNvXsj_NtCsldCax6rooq1_18sqlrustgo_executor8executorNtB5_25InSubqueryVolcanoExecutorNtB5_15VolcanoExecutor4init
FNDA:0,_RNvXsj_NtCsldCax6rooq1_18sqlrustgo_executor8executorNtB5_25InSubqueryVolcanoExecutorNtB5_15VolcanoExecutor4name
FNDA:0,_RNvXsj_NtCsldCax6rooq1_18sqlrustgo_executor8executorNtB5_25InSubqueryVolcanoExecutorNtB5_15VolcanoExecutor4next
FNDA:0,_RNvXsj_NtCsldCax6rooq1_18sqlrustgo_executor8executorNtB5_25InSubqueryVolcanoExecutorNtB5_15VolcanoExecutor5close
FNDA:0,_RNvXsj_NtCsldCax6rooq1_18sqlrustgo_executor8executorNtB5_25InSubqueryVolcanoExecutorNtB5_15VolcanoExecutor6as_any
FNDA:0,_RNvXsj_NtCsldCax6rooq1_18sqlrustgo_executor8executorNtB5_25InSubqueryVolcanoExecutorNtB5_15VolcanoExecutor6schema
FNDA:0,_RNvXsl_NtCsldCax6rooq1_18sqlrustgo_executor8executorNtB5_21ExistsVolcanoExecutorNtB5_15VolcanoExecutor14is_initialized
FNDA:0,_RNvXsl_NtCsldCax6rooq1_18sqlrustgo_executor8executorNtB5_21ExistsVolcanoExecutorNtB5_15VolcanoExecutor4init
FNDA:0,_RNvXsl_NtCsldCax6rooq1_18sqlrustgo_executor8executorNtB5_21ExistsVolcanoExecutorNtB5_15VolcanoExecutor4name
FNDA:0,_RNvXsl_NtCsldCax6rooq1_18sqlrustgo_executor8executorNtB5_21ExistsVolcanoExecutorNtB5_15VolcanoExecutor4next
FNDA:0,_RNvXsl_NtCsldCax6rooq1_18sqlrustgo_executor8executorNtB5_21ExistsVolcanoExecutorNtB5_15VolcanoExecutor5close
FNDA:0,_RNvXsl_NtCsldCax6rooq1_18sqlrustgo_executor8executorNtB5_21ExistsVolcanoExecutorNtB5_15VolcanoExecutor6as_any
FNDA:0,_RNvXsl_NtCsldCax6rooq1_18sqlrustgo_executor8executorNtB5_21ExistsVolcanoExecutorNtB5_15VolcanoExecutor6schema
FNDA:0,_RNvXsn_NtCsldCax6rooq1_18sqlrustgo_executor8executorNtB5_21AnyAllVolcanoExecutorNtB5_15VolcanoExecutor14is_initialized
FNDA:0,_RNvXsn_NtCsldCax6rooq1_18sqlrustgo_executor8executorNtB5_21AnyAllVolcanoExecutorNtB5_15VolcanoExecutor4init
FNDA:0,_RNvXsn_NtCsldCax6rooq1_18sqlrustgo_executor8executorNtB5_21AnyAllVolcanoExecutorNtB5_15VolcanoExecutor4name
FNDA:0,_RNvXsn_NtCsldCax6rooq1_18sqlrustgo_executor8executorNtB5_21AnyAllVolcanoExecutorNtB5_15VolcanoExecutor4next
FNDA:0,_RNvXsn_NtCsldCax6rooq1_18sqlrustgo_executor8executorNtB5_21AnyAllVolcanoExecutorNtB5_15VolcanoExecutor5close
FNDA:0,_RNvXsn_NtCsldCax6rooq1_18sqlrustgo_executor8executorNtB5_21AnyAllVolcanoExecutorNtB5_15VolcanoExecutor6as_any
FNDA:0,_RNvXsn_NtCsldCax6rooq1_18sqlrustgo_executor8executorNtB5_21AnyAllVolcanoExecutorNtB5_15VolcanoExecutor6schema
FNDA:0,_RNvXso_NtCsldCax6rooq1_18sqlrustgo_executor8executorNtB5_21AnyAllVolcanoExecutorNtB5_21OuterRowAwareExecutor13has_outer_row
FNDA:0,_RNvXso_NtCsldCax6rooq1_18sqlrustgo_executor8executorNtB5_21AnyAllVolcanoExecutorNtB5_21OuterRowAwareExecutor13set_outer_row
FNDA:0,_RNvXsq_NtCsldCax6rooq1_18sqlrustgo_executor8executorNtB5_20LimitVolcanoExecutorNtB5_15VolcanoExecutor14is_initialized
FNDA:0,_RNvXsq_NtCsldCax6rooq1_18sqlrustgo_executor8executorNtB5_20LimitVolcanoExecutorNtB5_15VolcanoExecutor4name
FNDA:0,_RNvXsq_NtCsldCax6rooq1_18sqlrustgo_executor8executorNtB5_20LimitVolcanoExecutorNtB5_15VolcanoExecutor5close
FNDA:0,_RNvXsq_NtCsldCax6rooq1_18sqlrustgo_executor8executorNtB5_20LimitVolcanoExecutorNtB5_15VolcanoExecutor6as_any
FNDA:0,_RNvXsq_NtCsldCax6rooq1_18sqlrustgo_executor8executorNtB5_20LimitVolcanoExecutorNtB5_15VolcanoExecutor6schema
FNDA:0,_RNvXst_NtCsldCax6rooq1_18sqlrustgo_executor8executorNtB5_22MockStorageForExecutorNtNtCs8nPosuWgJFh_4core7default7Default7default
FNDA:0,_RNvYNtNtNtCsldCax6rooq1_18sqlrustgo_executor15window_executor5tests12MockExecutorNtNtB8_8executor15VolcanoExecutor13set_outer_rowB8_
FNDA:0,_RNvYNtNtNtCsldCax6rooq1_18sqlrustgo_executor15window_executor5tests12MockExecutorNtNtB8_8executor15VolcanoExecutor18requires_outer_rowB8_
FNDA:0,_RNvYNtNtNtCsldCax6rooq1_18sqlrustgo_executor15window_executor5tests12MockExecutorNtNtB8_8executor15VolcanoExecutor8next_refB8_
FNDA:2,_RNvMNtNtCsldCax6rooq1_18sqlrustgo_executor8executor5testsNtB2_12MockExecutor3new
FNDA:22,_RNvMs1_NtNtCsldCax6rooq1_18sqlrustgo_executor8executor5testsNtB5_19MockVolcanoExecutor3new
FNDA:43,_RNvMs1_NtNtCsldCax6rooq1_18sqlrustgo_executor8executor5testsNtB5_19MockVolcanoExecutor9with_data
FNDA:1,_RNvNtNtCsldCax6rooq1_18sqlrustgo_executor8executor5testss_20test_execute_collect
FNDA:1,_RNvNtNtCsldCax6rooq1_18sqlrustgo_executor8executor5testss_20test_executor_result
FNDA:1,_RNvNtNtCsldCax6rooq1_18sqlrustgo_executor8executor5testss_23test_executor_send_sync
FNDA:1,_RNvNtNtCsldCax6rooq1_18sqlrustgo_executor8executor5testss_23test_mock_executor_name
FNDA:1,_RNvNtNtCsldCax6rooq1_18sqlrustgo_executor8executor5testss_26test_execute_collect_empty
FNDA:1,_RNvNtNtCsldCax6rooq1_18sqlrustgo_executor8executor5testss_26test_executor_result_debug
FNDA:1,_RNvNtNtCsldCax6rooq1_18sqlrustgo_executor8executor5testss_26test_executor_result_empty
FNDA:1,_RNvNtNtCsldCax6rooq1_18sqlrustgo_executor8executor5testss_26test_mock_volcano_executor
FNDA:1,_RNvNtNtCsldCax6rooq1_18sqlrustgo_executor8executor5testss_26test_nested_loop_join_name
FNDA:1,_RNvNtNtCsldCax6rooq1_18sqlrustgo_executor8executor5testss_26test_smj_volcano_exec_name
FNDA:1,_RNvNtNtCsldCax6rooq1_18sqlrustgo_executor8executor5testss_26test_volcano_executor_init
FNDA:1,_RNvNtNtCsldCax6rooq1_18sqlrustgo_executor8executor5testss_26test_volcano_executor_name
FNDA:1,_RNvNtNtCsldCax6rooq1_18sqlrustgo_executor8executor5testss_26test_volcano_executor_next
FNDA:1,_RNvNtNtCsldCax6rooq1_18sqlrustgo_executor8executor5testss_27test_mock_executor_is_ready
FNDA:1,_RNvNtNtCsldCax6rooq1_18sqlrustgo_executor8executor5testss_27test_nested_loop_join_close
FNDA:1,_RNvNtNtCsldCax6rooq1_18sqlrustgo_executor8executor5testss_27test_nested_loop_join_cross
FNDA:1,_RNvNtNtCsldCax6rooq1_18sqlrustgo_executor8executor5testss_27test_nested_loop_join_inner
FNDA:1,_RNvNtNtCsldCax6rooq1_18sqlrustgo_executor8executor5testss_27test_smj_volcano_exec_close
FNDA:1,_RNvNtNtCsldCax6rooq1_18sqlrustgo_executor8executor5testss_27test_volcano_executor_close
FNDA:1,_RNvNtNtCsldCax6rooq1_18sqlrustgo_executor8executor5testss_28test_volcano_executor_as_any
FNDA:1,_RNvNtNtCsldCax6rooq1_18sqlrustgo_executor8executor5testss_28test_volcano_executor_schema
FNDA:1,_RNvNtNtCsldCax6rooq1_18sqlrustgo_executor8executor5testss_30test_executor_result_with_rows
FNDA:1,_RNvNtNtCsldCax6rooq1_18sqlrustgo_executor8executor5testss_30test_mock_storage_for_executor
FNDA:1,_RNvNtNtCsldCax6rooq1_18sqlrustgo_executor8executor5testss_31test_smj_volcano_exec_left_join
FNDA:1,_RNvNtNtCsldCax6rooq1_18sqlrustgo_executor8executor5testss_31test_sort_volcano_executor_name
FNDA:1,_RNvNtNtCsldCax6rooq1_18sqlrustgo_executor8executor5testss_31test_sort_volcano_executor_text
FNDA:1,_RNvNtNtCsldCax6rooq1_18sqlrustgo_executor8executor5testss_31test_volcano_executor_send_sync
FNDA:1,_RNvNtNtCsldCax6rooq1_18sqlrustgo_executor8executor5testss_32test_nested_loop_join_left_outer
FNDA:1,_RNvNtNtCsldCax6rooq1_18sqlrustgo_executor8executor5testss_32test_projection_volcano_executor
FNDA:1,_RNvNtNtCsldCax6rooq1_18sqlrustgo_executor8executor5testss_32test_smj_volcano_exec_inner_join
FNDA:1,_RNvNtNtCsldCax6rooq1_18sqlrustgo_executor8executor5testss_32test_sort_volcano_executor_close
FNDA:1,_RNvNtNtCsldCax6rooq1_18sqlrustgo_executor8executor5testss_33test_nested_loop_join_right_outer
FNDA:1,_RNvNtNtCsldCax6rooq1_18sqlrustgo_executor8executor5testss_33test_smj_volcano_exec_empty_input
FNDA:1,_RNvNtNtCsldCax6rooq1_18sqlrustgo_executor8executor5testss_33test_sort_merge_join_compare_keys
FNDA:1,_RNvNtNtCsldCax6rooq1_18sqlrustgo_executor8executor5testss_34test_execute_collect_multiple_rows
FNDA:1,_RNvNtNtCsldCax6rooq1_18sqlrustgo_executor8executor5testss_34test_volcano_executor_trait_object
FNDA:1,_RNvNtNtCsldCax6rooq1_18sqlrustgo_executor8executor5testss_35test_aggregate_volcano_executor_avg
FNDA:1,_RNvNtNtCsldCax6rooq1_18sqlrustgo_executor8executor5testss_35test_aggregate_volcano_executor_sum
FNDA:1,_RNvNtNtCsldCax6rooq1_18sqlrustgo_executor8executor5testss_35test_seq_scan_volcano_executor_name
FNDA:1,_RNvNtNtCsldCax6rooq1_18sqlrustgo_executor8executor5testss_35test_volcano_executor_schema_method
FNDA:1,_RNvNtNtCsldCax6rooq1_18sqlrustgo_executor8executor5testss_36test_aggregate_volcano_executor_name
FNDA:1,_RNvNtNtCsldCax6rooq1_18sqlrustgo_executor8executor5testss_36test_hash_join_volcano_executor_name
FNDA:1,_RNvNtNtCsldCax6rooq1_18sqlrustgo_executor8executor5testss_36test_seq_scan_volcano_executor_close
FNDA:1,_RNvNtNtCsldCax6rooq1_18sqlrustgo_executor8executor5testss_36test_sort_volcano_executor_ascending
FNDA:1,_RNvNtNtCsldCax6rooq1_18sqlrustgo_executor8executor5testss_37test_aggregate_volcano_executor_count
FNDA:1,_RNvNtNtCsldCax6rooq1_18sqlrustgo_executor8executor5testss_37test_projection_volcano_executor_name
FNDA:1,_RNvNtNtCsldCax6rooq1_18sqlrustgo_executor8executor5testss_37test_seq_scan_volcano_executor_schema
FNDA:1,_RNvNtNtCsldCax6rooq1_18sqlrustgo_executor8executor5testss_37test_sort_volcano_executor_descending
FNDA:1,_RNvNtNtCsldCax6rooq1_18sqlrustgo_executor8executor5testss_38test_sort_volcano_executor_empty_input
FNDA:1,_RNvNtNtCsldCax6rooq1_18sqlrustgo_executor8executor5testss_39test_aggregate_volcano_executor_min_max
FNDA:1,_RNvNtNtCsldCax6rooq1_18sqlrustgo_executor8executor5testss_39test_executor_result_with_affected_rows
FNDA:1,_RNvNtNtCsldCax6rooq1_18sqlrustgo_executor8executor5testss_39test_executor_result_with_multiple_rows
FNDA:1,_RNvNtNtCsldCax6rooq1_18sqlrustgo_executor8executor5testss_39test_limit_volcano_executor_with_offset
FNDA:1,_RNvNtNtCsldCax6rooq1_18sqlrustgo_executor8executor5testss_39test_volcano_executor_all_rows_consumed
FNDA:1,_RNvNtNtCsldCax6rooq1_18sqlrustgo_executor8executor5testss_41test_hash_join_volcano_executor_left_join
FNDA:1,_RNvNtNtCsldCax6rooq1_18sqlrustgo_executor8executor5testss_42test_hash_join_volcano_executor_inner_join
FNDA:1,_RNvNtNtCsldCax6rooq1_18sqlrustgo_executor8executor5testss_42test_mock_storage_for_executor_empty_table
FNDA:1,_RNvNtNtCsldCax6rooq1_18sqlrustgo_executor8executor5testss_42test_seq_scan_volcano_executor_double_init
FNDA:1,_RNvNtNtCsldCax6rooq1_18sqlrustgo_executor8executor5testss_42test_sort_merge_join_volcano_executor_name
FNDA:1,_RNvNtNtCsldCax6rooq1_18sqlrustgo_executor8executor5testss_43test_aggregate_volcano_executor_empty_input
FNDA:1,_RNvNtNtCsldCax6rooq1_18sqlrustgo_executor8executor5testss_43test_seq_scan_volcano_executor_empty_result
FNDA:1,_RNvNtNtCsldCax6rooq1_18sqlrustgo_executor8executor5testss_43test_seq_scan_volcano_executor_with_storage
FNDA:1,_RNvNtNtCsldCax6rooq1_18sqlrustgo_executor8executor5testss_43test_volcano_executor_not_initialized_error
FNDA:1,_RNvNtNtCsldCax6rooq1_18sqlrustgo_executor8executor5testss_44test_projection_volcano_executor_empty_input
FNDA:1,_RNvNtNtCsldCax6rooq1_18sqlrustgo_executor8executor5testss_47test_seq_scan_volcano_executor_next_before_init
FNDA:1,_RNvNtNtCsldCax6rooq1_18sqlrustgo_executor8executor5testss_47test_sort_merge_join_volcano_executor_left_join
FNDA:1,_RNvNtNtCsldCax6rooq1_18sqlrustgo_executor8executor5testss_48test_sort_merge_join_volcano_executor_inner_join
FNDA:1,_RNvNtNtCsldCax6rooq1_18sqlrustgo_executor8executor5testss_49test_projection_volcano_executor_multiple_columns
FNDA:1,_RNvXs0_NtNtCsldCax6rooq1_18sqlrustgo_executor8executor5testsNtB5_12MockExecutorNtB7_8Executor4name
FNDA:1,_RNvXs0_NtNtCsldCax6rooq1_18sqlrustgo_executor8executor5testsNtB5_12MockExecutorNtB7_8Executor8is_ready
FNDA:3,_RNvXs3_NtNtCsldCax6rooq1_18sqlrustgo_executor8executor5testsNtB5_19MockVolcanoExecutorNtB7_15VolcanoExecutor14is_initialized
FNDA:51,_RNvXs3_NtNtCsldCax6rooq1_18sqlrustgo_executor8executor5testsNtB5_19MockVolcanoExecutorNtB7_15VolcanoExecutor4init
FNDA:1,_RNvXs3_NtNtCsldCax6rooq1_18sqlrustgo_executor8executor5testsNtB5_19MockVolcanoExecutorNtB7_15VolcanoExecutor4name
FNDA:135,_RNvXs3_NtNtCsldCax6rooq1_18sqlrustgo_executor8executor5testsNtB5_19MockVolcanoExecutorNtB7_15VolcanoExecutor4next
FNDA:35,_RNvXs3_NtNtCsldCax6rooq1_18sqlrustgo_executor8executor5testsNtB5_19MockVolcanoExecutorNtB7_15VolcanoExecutor5close
FNDA:1,_RNvXs3_NtNtCsldCax6rooq1_18sqlrustgo_executor8executor5testsNtB5_19MockVolcanoExecutorNtB7_15VolcanoExecutor6as_any
FNDA:2,_RNvXs3_NtNtCsldCax6rooq1_18sqlrustgo_executor8executor5testsNtB5_19MockVolcanoExecutorNtB7_15VolcanoExecutor6schema
FNDA:65,_RNvMNtCsldCax6rooq1_18sqlrustgo_executor8executorNtB2_14ExecutorResult3new
FNDA:7,_RNvMNtCsldCax6rooq1_18sqlrustgo_executor8executorNtB2_14ExecutorResult5empty
FNDA:4,_RNvMs1_NtCsldCax6rooq1_18sqlrustgo_executor8executorNtB5_25ProjectionVolcanoExecutor3new
FNDA:8,_RNvMs3_NtCsldCax6rooq1_18sqlrustgo_executor8executorNtB5_24AggregateVolcanoExecutor17compute_aggregate
FNDA:0,_RNvMs3_NtCsldCax6rooq1_18sqlrustgo_executor8executorNtB5_24AggregateVolcanoExecutor20evaluate_having_expr
FNDA:6,_RNvMs3_NtCsldCax6rooq1_18sqlrustgo_executor8executorNtB5_24AggregateVolcanoExecutor3new
FNDA:0,_RNvMs5_NtCsldCax6rooq1_18sqlrustgo_executor8executorNtB5_23HashJoinVolcanoExecutor10next_cross
FNDA:3,_RNvMs5_NtCsldCax6rooq1_18sqlrustgo_executor8executorNtB5_23HashJoinVolcanoExecutor10next_inner
FNDA:0,_RNvMs5_NtCsldCax6rooq1_18sqlrustgo_executor8executorNtB5_23HashJoinVolcanoExecutor10next_right
FNDA:0,_RNvMs5_NtCsldCax6rooq1_18sqlrustgo_executor8executorNtB5_23HashJoinVolcanoExecutor14next_left_anti
FNDA:0,_RNvMs5_NtCsldCax6rooq1_18sqlrustgo_executor8executorNtB5_23HashJoinVolcanoExecutor14next_left_semi
FNDA:0,_RNvMs5_NtCsldCax6rooq1_18sqlrustgo_executor8executorNtB5_23HashJoinVolcanoExecutor15next_right_anti
FNDA:0,_RNvMs5_NtCsldCax6rooq1_18sqlrustgo_executor8executorNtB5_23HashJoinVolcanoExecutor15next_right_semi
FNDA:3,_RNvMs5_NtCsldCax6rooq1_18sqlrustgo_executor8executorNtB5_23HashJoinVolcanoExecutor3new
FNDA:0,_RNvMs5_NtCsldCax6rooq1_18sqlrustgo_executor8executorNtB5_23HashJoinVolcanoExecutor9next_full
FNDA:3,_RNvMs5_NtCsldCax6rooq1_18sqlrustgo_executor8executorNtB5_23HashJoinVolcanoExecutor9next_left
FNDA:5,_RNvMs7_NtCsldCax6rooq1_18sqlrustgo_executor8executorNtB5_28SortMergeJoinVolcanoExecutor3new
FNDA:0,_RNvMs8_NtCsldCax6rooq1_18sqlrustgo_executor8executorNtB5_28SortMergeJoinVolcanoExecutor10next_cross
FNDA:5,_RNvMs8_NtCsldCax6rooq1_18sqlrustgo_executor8executorNtB5_28SortMergeJoinVolcanoExecutor10next_inner
FNDA:0,_RNvMs8_NtCsldCax6rooq1_18sqlrustgo_executor8executorNtB5_28SortMergeJoinVolcanoExecutor10next_right
FNDA:0,_RNvMs8_NtCsldCax6rooq1_18sqlrustgo_executor8executorNtB5_28SortMergeJoinVolcanoExecutor14next_left_anti
FNDA:0,_RNvMs8_NtCsldCax6rooq1_18sqlrustgo_executor8executorNtB5_28SortMergeJoinVolcanoExecutor14next_left_semi
FNDA:0,_RNvMs8_NtCsldCax6rooq1_18sqlrustgo_executor8executorNtB5_28SortMergeJoinVolcanoExecutor15next_right_anti
FNDA:0,_RNvMs8_NtCsldCax6rooq1_18sqlrustgo_executor8executorNtB5_28SortMergeJoinVolcanoExecutor15next_right_semi
FNDA:0,_RNvMs8_NtCsldCax6rooq1_18sqlrustgo_executor8executorNtB5_28SortMergeJoinVolcanoExecutor8sort_key
FNDA:0,_RNvMs8_NtCsldCax6rooq1_18sqlrustgo_executor8executorNtB5_28SortMergeJoinVolcanoExecutor9next_full
FNDA:3,_RNvMs8_NtCsldCax6rooq1_18sqlrustgo_executor8executorNtB5_28SortMergeJoinVolcanoExecutor9next_left
FNDA:7,_RNvMs_NtCsldCax6rooq1_18sqlrustgo_executor8executorNtB4_22SeqScanVolcanoExecutor3new
FNDA:6,_RNvMsa_NtCsldCax6rooq1_18sqlrustgo_executor8executorNtB5_19SortVolcanoExecutor3new
FNDA:4,_RNvMsc_NtCsldCax6rooq1_18sqlrustgo_executor8executorNtB5_29NestedLoopJoinVolcanoExecutor10next_cross
FNDA:7,_RNvMsc_NtCsldCax6rooq1_18sqlrustgo_executor8executorNtB5_29NestedLoopJoinVolcanoExecutor10next_inner
FNDA:0,_RNvMsc_NtCsldCax6rooq1_18sqlrustgo_executor8executorNtB5_29NestedLoopJoinVolcanoExecutor15next_full_outer
FNDA:2,_RNvMsc_NtCsldCax6rooq1_18sqlrustgo_executor8executorNtB5_29NestedLoopJoinVolcanoExecutor15next_left_outer
FNDA:1,_RNvMsc_NtCsldCax6rooq1_18sqlrustgo_executor8executorNtB5_29NestedLoopJoinVolcanoExecutor16next_right_outer
FNDA:6,_RNvMsc_NtCsldCax6rooq1_18sqlrustgo_executor8executorNtB5_29NestedLoopJoinVolcanoExecutor3new
FNDA:15,_RNvMse_NtCsldCax6rooq1_18sqlrustgo_executor8executorNtB5_21SortMergeJoinExecutor12compare_keys
FNDA:3,_RNvMse_NtCsldCax6rooq1_18sqlrustgo_executor8executorNtB5_21SortMergeJoinExecutor3new
FNDA:29,_RNvMse_NtCsldCax6rooq1_18sqlrustgo_executor8executorNtB5_21SortMergeJoinExecutor8sort_key
FNDA:0,_RNvMsg_NtCsldCax6rooq1_18sqlrustgo_executor8executorNtB5_21SortMergeJoinExecutor10next_cross
FNDA:3,_RNvMsg_NtCsldCax6rooq1_18sqlrustgo_executor8executorNtB5_21SortMergeJoinExecutor10next_inner
FNDA:0,_RNvMsg_NtCsldCax6rooq1_18sqlrustgo_executor8executorNtB5_21SortMergeJoinExecutor10next_right
FNDA:0,_RNvMsg_NtCsldCax6rooq1_18sqlrustgo_executor8executorNtB5_21SortMergeJoinExecutor9next_full
FNDA:3,_RNvMsg_NtCsldCax6rooq1_18sqlrustgo_executor8executorNtB5_21SortMergeJoinExecutor9next_left
FNDA:1,_RNvMsp_NtCsldCax6rooq1_18sqlrustgo_executor8executorNtB5_20LimitVolcanoExecutor3new
FNDA:5,_RNvMss_NtCsldCax6rooq1_18sqlrustgo_executor8executorNtB5_22MockStorageForExecutor10with_table
FNDA:9,_RNvMss_NtCsldCax6rooq1_18sqlrustgo_executor8executorNtB5_22MockStorageForExecutor3new
FNDA:3,_RNvNtCsldCax6rooq1_18sqlrustgo_executor8executor15execute_collect
FNDA:22,_RNvNtCsldCax6rooq1_18sqlrustgo_executor8executor17compare_join_keys
FNDA:1,_RNvXs0_NtCsldCax6rooq1_18sqlrustgo_executor8executorNtB5_22SeqScanVolcanoExecutorNtB5_15VolcanoExecutor14is_initialized
FNDA:5,_RNvXs0_NtCsldCax6rooq1_18sqlrustgo_executor8executorNtB5_22SeqScanVolcanoExecutorNtB5_15VolcanoExecutor4init
FNDA:1,_RNvXs0_NtCsldCax6rooq1_18sqlrustgo_executor8executorNtB5_22SeqScanVolcanoExecutorNtB5_15VolcanoExecutor4name
FNDA:7,_RNvXs0_NtCsldCax6rooq1_18sqlrustgo_executor8executorNtB5_22SeqScanVolcanoExecutorNtB5_15VolcanoExecutor4next
FNDA:1,_RNvXs0_NtCsldCax6rooq1_18sqlrustgo_executor8executorNtB5_22SeqScanVolcanoExecutorNtB5_15VolcanoExecutor5close
FNDA:1,_RNvXs0_NtCsldCax6rooq1_18sqlrustgo_executor8executorNtB5_22SeqScanVolcanoExecutorNtB5_15VolcanoExecutor6schema
FNDA:3,_RNvXs2_NtCsldCax6rooq1_18sqlrustgo_executor8executorNtB5_25ProjectionVolcanoExecutorNtB5_15VolcanoExecutor4init
FNDA:1,_RNvXs2_NtCsldCax6rooq1_18sqlrustgo_executor8executorNtB5_25ProjectionVolcanoExecutorNtB5_15VolcanoExecutor4name
FNDA:3,_RNvXs2_NtCsldCax6rooq1_18sqlrustgo_executor8executorNtB5_25ProjectionVolcanoExecutorNtB5_15VolcanoExecutor4next
FNDA:5,_RNvXs4_NtCsldCax6rooq1_18sqlrustgo_executor8executorNtB5_24AggregateVolcanoExecutorNtB5_15VolcanoExecutor4init
FNDA:1,_RNvXs4_NtCsldCax6rooq1_18sqlrustgo_executor8executorNtB5_24AggregateVolcanoExecutorNtB5_15VolcanoExecutor4name
FNDA:13,_RNvXs4_NtCsldCax6rooq1_18sqlrustgo_executor8executorNtB5_24AggregateVolcanoExecutorNtB5_15VolcanoExecutor4next
FNDA:2,_RNvXs6_NtCsldCax6rooq1_18sqlrustgo_executor8executorNtB5_23HashJoinVolcanoExecutorNtB5_15VolcanoExecutor4init
FNDA:1,_RNvXs6_NtCsldCax6rooq1_18sqlrustgo_executor8executorNtB5_23HashJoinVolcanoExecutorNtB5_15VolcanoExecutor4name
FNDA:6,_RNvXs6_NtCsldCax6rooq1_18sqlrustgo_executor8executorNtB5_23HashJoinVolcanoExecutorNtB5_15VolcanoExecutor4next
FNDA:1,_RNvXs9_NtCsldCax6rooq1_18sqlrustgo_executor8executorNtB5_28SortMergeJoinVolcanoExecutorNtB5_15VolcanoExecutor14is_initialized
FNDA:4,_RNvXs9_NtCsldCax6rooq1_18sqlrustgo_executor8executorNtB5_28SortMergeJoinVolcanoExecutorNtB5_15VolcanoExecutor4init
FNDA:1,_RNvXs9_NtCsldCax6rooq1_18sqlrustgo_executor8executorNtB5_28SortMergeJoinVolcanoExecutorNtB5_15VolcanoExecutor4name
FNDA:8,_RNvXs9_NtCsldCax6rooq1_18sqlrustgo_executor8executorNtB5_28SortMergeJoinVolcanoExecutorNtB5_15VolcanoExecutor4next
FNDA:1,_RNvXs9_NtCsldCax6rooq1_18sqlrustgo_executor8executorNtB5_28SortMergeJoinVolcanoExecutorNtB5_15VolcanoExecutor5close
FNDA:1,_RNvXsb_NtCsldCax6rooq1_18sqlrustgo_executor8executorNtB5_19SortVolcanoExecutorNtB5_15VolcanoExecutor14is_initialized
FNDA:5,_RNvXsb_NtCsldCax6rooq1_18sqlrustgo_executor8executorNtB5_19SortVolcanoExecutorNtB5_15VolcanoExecutor4init
FNDA:1,_RNvXsb_NtCsldCax6rooq1_18sqlrustgo_executor8executorNtB5_19SortVolcanoExecutorNtB5_15VolcanoExecutor4name
FNDA:14,_RNvXsb_NtCsldCax6rooq1_18sqlrustgo_executor8executorNtB5_19SortVolcanoExecutorNtB5_15VolcanoExecutor4next
FNDA:1,_RNvXsb_NtCsldCax6rooq1_18sqlrustgo_executor8executorNtB5_19SortVolcanoExecutorNtB5_15VolcanoExecutor5close
FNDA:6,_RNvXsd_NtCsldCax6rooq1_18sqlrustgo_executor8executorNtB5_29NestedLoopJoinVolcanoExecutorNtB5_15VolcanoExecutor4init
FNDA:1,_RNvXsd_NtCsldCax6rooq1_18sqlrustgo_executor8executorNtB5_29NestedLoopJoinVolcanoExecutorNtB5_15VolcanoExecutor4name
FNDA:14,_RNvXsd_NtCsldCax6rooq1_18sqlrustgo_executor8executorNtB5_29NestedLoopJoinVolcanoExecutorNtB5_15VolcanoExecutor4next
FNDA:1,_RNvXsd_NtCsldCax6rooq1_18sqlrustgo_executor8executorNtB5_29NestedLoopJoinVolcanoExecutorNtB5_15VolcanoExecutor5close
FNDA:2,_RNvXsf_NtCsldCax6rooq1_18sqlrustgo_executor8executorNtB5_21SortMergeJoinExecutorNtB5_15VolcanoExecutor4init
FNDA:1,_RNvXsf_NtCsldCax6rooq1_18sqlrustgo_executor8executorNtB5_21SortMergeJoinExecutorNtB5_15VolcanoExecutor4name
FNDA:6,_RNvXsf_NtCsldCax6rooq1_18sqlrustgo_executor8executorNtB5_21SortMergeJoinExecutorNtB5_15VolcanoExecutor4next
FNDA:1,_RNvXsq_NtCsldCax6rooq1_18sqlrustgo_executor8executorNtB5_20LimitVolcanoExecutorNtB5_15VolcanoExecutor4init
FNDA:3,_RNvXsq_NtCsldCax6rooq1_18sqlrustgo_executor8executorNtB5_20LimitVolcanoExecutorNtB5_15VolcanoExecutor4next
FNDA:6,_RNvXsu_NtCsldCax6rooq1_18sqlrustgo_executor8executorNtB5_22MockStorageForExecutorNtB5_7Storage4scan
FNDA:1,_RINvNvNtNtCsldCax6rooq1_18sqlrustgo_executor8executor5testss_23test_executor_send_sync6__checkNtB4_12MockExecutorEB8_
FNDA:1,_RINvNvNtNtCsldCax6rooq1_18sqlrustgo_executor8executor5testss_23test_executor_send_sync6__checkNtB6_14ExecutorResultEB8_
FNDA:1,_RINvNvNtNtCsldCax6rooq1_18sqlrustgo_executor8executor5testss_31test_volcano_executor_send_sync6__checkINtNtCsj0gLuUEfogP_5alloc5boxed3BoxDNtB6_15VolcanoExecutorEL_EEB8_
FNDA:1,_RINvNvNtNtCsldCax6rooq1_18sqlrustgo_executor8executor5testss_31test_volcano_executor_send_sync6__checkNtB4_19MockVolcanoExecutorEB8_
FNDA:3,_RNCNvNtNtCsldCax6rooq1_18sqlrustgo_executor8executor5testss_31test_smj_volcano_exec_left_join0B7_
FNDA:4,_RNCNvNtNtCsldCax6rooq1_18sqlrustgo_executor8executor5testss_31test_sort_volcano_executor_text0B7_
FNDA:3,_RNCNvNtNtCsldCax6rooq1_18sqlrustgo_executor8executor5testss_32test_smj_volcano_exec_inner_join0B7_
FNDA:1,_RNCNvNtNtCsldCax6rooq1_18sqlrustgo_executor8executor5testss_33test_smj_volcano_exec_empty_input0B7_
FNDA:3,_RNCNvNtNtCsldCax6rooq1_18sqlrustgo_executor8executor5testss_35test_aggregate_volcano_executor_avg0B7_
FNDA:3,_RNCNvNtNtCsldCax6rooq1_18sqlrustgo_executor8executor5testss_35test_aggregate_volcano_executor_sum0B7_
FNDA:4,_RNCNvNtNtCsldCax6rooq1_18sqlrustgo_executor8executor5testss_36test_sort_volcano_executor_ascending0B7_
FNDA:3,_RNCNvNtNtCsldCax6rooq1_18sqlrustgo_executor8executor5testss_37test_aggregate_volcano_executor_count0B7_
FNDA:4,_RNCNvNtNtCsldCax6rooq1_18sqlrustgo_executor8executor5testss_37test_sort_volcano_executor_descending0B7_
FNDA:3,_RNCNvNtNtCsldCax6rooq1_18sqlrustgo_executor8executor5testss_39test_aggregate_volcano_executor_min_max0B7_
FNDA:3,_RNCNvNtNtCsldCax6rooq1_18sqlrustgo_executor8executor5testss_39test_limit_volcano_executor_with_offset0B7_
FNDA:3,_RNCNvNtNtCsldCax6rooq1_18sqlrustgo_executor8executor5testss_41test_hash_join_volcano_executor_left_join0B7_
FNDA:3,_RNCNvNtNtCsldCax6rooq1_18sqlrustgo_executor8executor5testss_42test_hash_join_volcano_executor_inner_join0B7_
FNDA:4,_RNCNvNtNtCsldCax6rooq1_18sqlrustgo_executor8executor5testss_43test_seq_scan_volcano_executor_with_storage0B7_
FNDA:3,_RNCNvNtNtCsldCax6rooq1_18sqlrustgo_executor8executor5testss_47test_sort_merge_join_volcano_executor_left_join0B7_
FNDA:3,_RNCNvNtNtCsldCax6rooq1_18sqlrustgo_executor8executor5testss_48test_sort_merge_join_volcano_executor_inner_join0B7_
FNDA:0,_RNvYNtNtNtCsldCax6rooq1_18sqlrustgo_executor8executor5tests19MockVolcanoExecutorNtB6_15VolcanoExecutor13set_outer_rowB8_
FNDA:0,_RNvYNtNtNtCsldCax6rooq1_18sqlrustgo_executor8executor5tests19MockVolcanoExecutorNtB6_15VolcanoExecutor18requires_outer_rowB8_
FNDA:0,_RNvYNtNtNtCsldCax6rooq1_18sqlrustgo_executor8executor5tests19MockVolcanoExecutorNtB6_15VolcanoExecutor8next_refB8_
FNDA:0,_RNvYNtNtNtCsldCax6rooq1_18sqlrustgo_executor6filter5tests12MockExecutorNtNtB8_8executor15VolcanoExecutor13set_outer_rowB8_
FNDA:0,_RNvYNtNtNtCsldCax6rooq1_18sqlrustgo_executor6filter5tests12MockExecutorNtNtB8_8executor15VolcanoExecutor18requires_outer_rowB8_
FNDA:0,_RNvYNtNtNtCsldCax6rooq1_18sqlrustgo_executor6filter5tests12MockExecutorNtNtB8_8executor15VolcanoExecutor8next_refB8_
FNDA:0,_RNvYNtNtNtCsldCax6rooq1_18sqlrustgo_executor6filter5tests20MockExecutorWithDataNtNtB8_8executor15VolcanoExecutor13set_outer_rowB8_
FNDA:0,_RNvYNtNtNtCsldCax6rooq1_18sqlrustgo_executor6filter5tests20MockExecutorWithDataNtNtB8_8executor15VolcanoExecutor18requires_outer_rowB8_
FNDA:0,_RNvYNtNtNtCsldCax6rooq1_18sqlrustgo_executor6filter5tests20MockExecutorWithDataNtNtB8_8executor15VolcanoExecutor8next_refB8_
FNDA:12,_RNCNCNvMs3_NtCsldCax6rooq1_18sqlrustgo_executor8executorNtB9_24AggregateVolcanoExecutor17compute_aggregate00Bb_
FNDA:0,_RNCNCNvMs3_NtCsldCax6rooq1_18sqlrustgo_executor8executorNtB9_24AggregateVolcanoExecutor20evaluate_having_expr00Bb_
FNDA:15,_RNCNvMs3_NtCsldCax6rooq1_18sqlrustgo_executor8executorNtB7_24AggregateVolcanoExecutor17compute_aggregate0B9_
FNDA:0,_RNCNvMs3_NtCsldCax6rooq1_18sqlrustgo_executor8executorNtB7_24AggregateVolcanoExecutor20evaluate_having_expr0B9_
FNDA:0,_RNCNvMs5_NtCsldCax6rooq1_18sqlrustgo_executor8executorNtB7_23HashJoinVolcanoExecutor10next_cross0B9_
FNDA:0,_RNCNvMs5_NtCsldCax6rooq1_18sqlrustgo_executor8executorNtB7_23HashJoinVolcanoExecutor15next_right_anti0B9_
FNDA:0,_RNCNvMs5_NtCsldCax6rooq1_18sqlrustgo_executor8executorNtB7_23HashJoinVolcanoExecutor15next_right_semi0B9_
FNDA:7,_RNCNvMs_NtCsldCax6rooq1_18sqlrustgo_executor8executorNtB6_22SeqScanVolcanoExecutor3new0B8_
FNDA:5,_RNCNvXs0_NtCsldCax6rooq1_18sqlrustgo_executor8executorNtB7_22SeqScanVolcanoExecutorNtB7_15VolcanoExecutor4init0B9_
FNDA:3,_RNCNvXs2_NtCsldCax6rooq1_18sqlrustgo_executor8executorNtB7_25ProjectionVolcanoExecutorNtB7_15VolcanoExecutor4next0B9_
FNDA:12,_RNCNvXs4_NtCsldCax6rooq1_18sqlrustgo_executor8executorNtB7_24AggregateVolcanoExecutorNtB7_15VolcanoExecutor4init0B9_
FNDA:0,_RNCNvXs4_NtCsldCax6rooq1_18sqlrustgo_executor8executorNtB7_24AggregateVolcanoExecutorNtB7_15VolcanoExecutor4inits0_0B9_
FNDA:4,_RNCNvXs4_NtCsldCax6rooq1_18sqlrustgo_executor8executorNtB7_24AggregateVolcanoExecutorNtB7_15VolcanoExecutor4inits_0B9_
FNDA:3,_RNCNvXs9_NtCsldCax6rooq1_18sqlrustgo_executor8executorNtB7_28SortMergeJoinVolcanoExecutorNtB7_15VolcanoExecutor4init0B9_
FNDA:2,_RNCNvXs9_NtCsldCax6rooq1_18sqlrustgo_executor8executorNtB7_28SortMergeJoinVolcanoExecutorNtB7_15VolcanoExecutor4inits_0B9_
FNDA:10,_RNCNvXsb_NtCsldCax6rooq1_18sqlrustgo_executor8executorNtB7_19SortVolcanoExecutorNtB7_15VolcanoExecutor4init0B9_
FNDA:3,_RNCNvXsf_NtCsldCax6rooq1_18sqlrustgo_executor8executorNtB7_21SortMergeJoinExecutorNtB7_15VolcanoExecutor4init0B9_
FNDA:3,_RNCNvXsf_NtCsldCax6rooq1_18sqlrustgo_executor8executorNtB7_21SortMergeJoinExecutorNtB7_15VolcanoExecutor4inits_0B9_
FNDA:0,_RNvYNtNtCsldCax6rooq1_18sqlrustgo_executor8executor22MockStorageForExecutorNtB4_7Storage14scan_predicateB6_
FNDA:0,_RNvYNtNtCs4qFySXYcYQq_18sqlrustgo_executor15window_executor21WindowVolcanoExecutorNtNtB6_8executor15VolcanoExecutor13set_outer_rowB6_
FNDA:0,_RNvYNtNtCs4qFySXYcYQq_18sqlrustgo_executor15window_executor21WindowVolcanoExecutorNtNtB6_8executor15VolcanoExecutor18requires_outer_rowB6_
FNDA:0,_RNvYNtNtCs4qFySXYcYQq_18sqlrustgo_executor15window_executor21WindowVolcanoExecutorNtNtB6_8executor15VolcanoExecutor8next_refB6_
FNDA:0,_RNvMNtCs4qFySXYcYQq_18sqlrustgo_executor8executorNtB2_14ExecutorResult3new
FNDA:0,_RNvMNtCs4qFySXYcYQq_18sqlrustgo_executor8executorNtB2_14ExecutorResult5empty
FNDA:0,_RNvMs1_NtCs4qFySXYcYQq_18sqlrustgo_executor8executorNtB5_25ProjectionVolcanoExecutor3new
FNDA:0,_RNvMs3_NtCs4qFySXYcYQq_18sqlrustgo_executor8executorNtB5_24AggregateVolcanoExecutor17compute_aggregate
FNDA:0,_RNvMs3_NtCs4qFySXYcYQq_18sqlrustgo_executor8executorNtB5_24AggregateVolcanoExecutor20evaluate_having_expr
FNDA:0,_RNvMs3_NtCs4qFySXYcYQq_18sqlrustgo_executor8executorNtB5_24AggregateVolcanoExecutor3new
FNDA:0,_RNvMs5_NtCs4qFySXYcYQq_18sqlrustgo_executor8executorNtB5_23HashJoinVolcanoExecutor10next_cross
FNDA:0,_RNvMs5_NtCs4qFySXYcYQq_18sqlrustgo_executor8executorNtB5_23HashJoinVolcanoExecutor10next_inner
FNDA:0,_RNvMs5_NtCs4qFySXYcYQq_18sqlrustgo_executor8executorNtB5_23HashJoinVolcanoExecutor10next_right
FNDA:0,_RNvMs5_NtCs4qFySXYcYQq_18sqlrustgo_executor8executorNtB5_23HashJoinVolcanoExecutor14next_left_anti
FNDA:0,_RNvMs5_NtCs4qFySXYcYQq_18sqlrustgo_executor8executorNtB5_23HashJoinVolcanoExecutor14next_left_semi
FNDA:0,_RNvMs5_NtCs4qFySXYcYQq_18sqlrustgo_executor8executorNtB5_23HashJoinVolcanoExecutor15next_right_anti
FNDA:0,_RNvMs5_NtCs4qFySXYcYQq_18sqlrustgo_executor8executorNtB5_23HashJoinVolcanoExecutor15next_right_semi
FNDA:0,_RNvMs5_NtCs4qFySXYcYQq_18sqlrustgo_executor8executorNtB5_23HashJoinVolcanoExecutor3new
FNDA:0,_RNvMs5_NtCs4qFySXYcYQq_18sqlrustgo_executor8executorNtB5_23HashJoinVolcanoExecutor9next_full
FNDA:0,_RNvMs5_NtCs4qFySXYcYQq_18sqlrustgo_executor8executorNtB5_23HashJoinVolcanoExecutor9next_left
FNDA:0,_RNvMs7_NtCs4qFySXYcYQq_18sqlrustgo_executor8executorNtB5_28SortMergeJoinVolcanoExecutor3new
FNDA:0,_RNvMs8_NtCs4qFySXYcYQq_18sqlrustgo_executor8executorNtB5_28SortMergeJoinVolcanoExecutor10next_cross
FNDA:0,_RNvMs8_NtCs4qFySXYcYQq_18sqlrustgo_executor8executorNtB5_28SortMergeJoinVolcanoExecutor10next_inner
FNDA:0,_RNvMs8_NtCs4qFySXYcYQq_18sqlrustgo_executor8executorNtB5_28SortMergeJoinVolcanoExecutor10next_right
FNDA:0,_RNvMs8_NtCs4qFySXYcYQq_18sqlrustgo_executor8executorNtB5_28SortMergeJoinVolcanoExecutor14next_left_anti
FNDA:0,_RNvMs8_NtCs4qFySXYcYQq_18sqlrustgo_executor8executorNtB5_28SortMergeJoinVolcanoExecutor14next_left_semi
FNDA:0,_RNvMs8_NtCs4qFySXYcYQq_18sqlrustgo_executor8executorNtB5_28SortMergeJoinVolcanoExecutor15next_right_anti
FNDA:0,_RNvMs8_NtCs4qFySXYcYQq_18sqlrustgo_executor8executorNtB5_28SortMergeJoinVolcanoExecutor15next_right_semi
FNDA:0,_RNvMs8_NtCs4qFySXYcYQq_18sqlrustgo_executor8executorNtB5_28SortMergeJoinVolcanoExecutor8sort_key
FNDA:0,_RNvMs8_NtCs4qFySXYcYQq_18sqlrustgo_executor8executorNtB5_28SortMergeJoinVolcanoExecutor9next_full
FNDA:0,_RNvMs8_NtCs4qFySXYcYQq_18sqlrustgo_executor8executorNtB5_28SortMergeJoinVolcanoExecutor9next_left
FNDA:0,_RNvMs_NtCs4qFySXYcYQq_18sqlrustgo_executor8executorNtB4_22SeqScanVolcanoExecutor14with_predicate
FNDA:0,_RNvMs_NtCs4qFySXYcYQq_18sqlrustgo_executor8executorNtB4_22SeqScanVolcanoExecutor3new
FNDA:0,_RNvMs_NtCs4qFySXYcYQq_18sqlrustgo_executor8executorNtB4_22SeqScanVolcanoExecutor8next_ref
FNDA:0,_RNvMsa_NtCs4qFySXYcYQq_18sqlrustgo_executor8executorNtB5_19SortVolcanoExecutor3new
FNDA:0,_RNvMsc_NtCs4qFySXYcYQq_18sqlrustgo_executor8executorNtB5_29NestedLoopJoinVolcanoExecutor10next_cross
FNDA:0,_RNvMsc_NtCs4qFySXYcYQq_18sqlrustgo_executor8executorNtB5_29NestedLoopJoinVolcanoExecutor10next_inner
FNDA:0,_RNvMsc_NtCs4qFySXYcYQq_18sqlrustgo_executor8executorNtB5_29NestedLoopJoinVolcanoExecutor15next_full_outer
FNDA:0,_RNvMsc_NtCs4qFySXYcYQq_18sqlrustgo_executor8executorNtB5_29NestedLoopJoinVolcanoExecutor15next_left_outer
FNDA:0,_RNvMsc_NtCs4qFySXYcYQq_18sqlrustgo_executor8executorNtB5_29NestedLoopJoinVolcanoExecutor16next_right_outer
FNDA:0,_RNvMsc_NtCs4qFySXYcYQq_18sqlrustgo_executor8executorNtB5_29NestedLoopJoinVolcanoExecutor3new
FNDA:0,_RNvMse_NtCs4qFySXYcYQq_18sqlrustgo_executor8executorNtB5_21SortMergeJoinExecutor12compare_keys
FNDA:0,_RNvMse_NtCs4qFySXYcYQq_18sqlrustgo_executor8executorNtB5_21SortMergeJoinExecutor3new
FNDA:0,_RNvMse_NtCs4qFySXYcYQq_18sqlrustgo_executor8executorNtB5_21SortMergeJoinExecutor8sort_key
FNDA:0,_RNvMsg_NtCs4qFySXYcYQq_18sqlrustgo_executor8executorNtB5_21SortMergeJoinExecutor10next_cross
FNDA:0,_RNvMsg_NtCs4qFySXYcYQq_18sqlrustgo_executor8executorNtB5_21SortMergeJoinExecutor10next_inner
FNDA:0,_RNvMsg_NtCs4qFySXYcYQq_18sqlrustgo_executor8executorNtB5_21SortMergeJoinExecutor10next_right
FNDA:0,_RNvMsg_NtCs4qFySXYcYQq_18sqlrustgo_executor8executorNtB5_21SortMergeJoinExecutor9next_full
FNDA:0,_RNvMsg_NtCs4qFySXYcYQq_18sqlrustgo_executor8executorNtB5_21SortMergeJoinExecutor9next_left
FNDA:0,_RNvMsh_NtCs4qFySXYcYQq_18sqlrustgo_executor8executorNtB5_25InSubqueryVolcanoExecutor13has_outer_row
FNDA:0,_RNvMsh_NtCs4qFySXYcYQq_18sqlrustgo_executor8executorNtB5_25InSubqueryVolcanoExecutor13set_outer_row
FNDA:0,_RNvMsh_NtCs4qFySXYcYQq_18sqlrustgo_executor8executorNtB5_25InSubqueryVolcanoExecutor3new
FNDA:0,_RNvMsk_NtCs4qFySXYcYQq_18sqlrustgo_executor8executorNtB5_21ExistsVolcanoExecutor3new
FNDA:0,_RNvMsm_NtCs4qFySXYcYQq_18sqlrustgo_executor8executorNtB5_21AnyAllVolcanoExecutor13has_outer_row
FNDA:0,_RNvMsm_NtCs4qFySXYcYQq_18sqlrustgo_executor8executorNtB5_21AnyAllVolcanoExecutor13set_outer_row
FNDA:0,_RNvMsm_NtCs4qFySXYcYQq_18sqlrustgo_executor8executorNtB5_21AnyAllVolcanoExecutor14compare_values
FNDA:0,_RNvMsm_NtCs4qFySXYcYQq_18sqlrustgo_executor8executorNtB5_21AnyAllVolcanoExecutor3new
FNDA:0,_RNvMsp_NtCs4qFySXYcYQq_18sqlrustgo_executor8executorNtB5_20LimitVolcanoExecutor3new
FNDA:0,_RNvMsr_NtCs4qFySXYcYQq_18sqlrustgo_executor8executorNtB5_18VolExecutorBuilder10build_sort
FNDA:0,_RNvMsr_NtCs4qFySXYcYQq_18sqlrustgo_executor8executorNtB5_18VolExecutorBuilder11build_limit
FNDA:0,_RNvMsr_NtCs4qFySXYcYQq_18sqlrustgo_executor8executorNtB5_18VolExecutorBuilder12build_exists
FNDA:0,_RNvMsr_NtCs4qFySXYcYQq_18sqlrustgo_executor8executorNtB5_18VolExecutorBuilder12build_filter
FNDA:0,_RNvMsr_NtCs4qFySXYcYQq_18sqlrustgo_executor8executorNtB5_18VolExecutorBuilder12build_window
FNDA:0,_RNvMsr_NtCs4qFySXYcYQq_18sqlrustgo_executor8executorNtB5_18VolExecutorBuilder13build_any_all
FNDA:0,_RNvMsr_NtCs4qFySXYcYQq_18sqlrustgo_executor8executorNtB5_18VolExecutorBuilder14build_seq_scan
FNDA:0,_RNvMsr_NtCs4qFySXYcYQq_18sqlrustgo_executor8executorNtB5_18VolExecutorBuilder15build_aggregate
FNDA:0,_RNvMsr_NtCs4qFySXYcYQq_18sqlrustgo_executor8executorNtB5_18VolExecutorBuilder15build_hash_join
FNDA:0,_RNvMsr_NtCs4qFySXYcYQq_18sqlrustgo_executor8executorNtB5_18VolExecutorBuilder16build_projection
FNDA:0,_RNvMsr_NtCs4qFySXYcYQq_18sqlrustgo_executor8executorNtB5_18VolExecutorBuilder17build_in_subquery
FNDA:0,_RNvMsr_NtCs4qFySXYcYQq_18sqlrustgo_executor8executorNtB5_18VolExecutorBuilder25set_outer_row_on_executor
FNDA:0,_RNvMsr_NtCs4qFySXYcYQq_18sqlrustgo_executor8executorNtB5_18VolExecutorBuilder3new
FNDA:0,_RNvMsr_NtCs4qFySXYcYQq_18sqlrustgo_executor8executorNtB5_18VolExecutorBuilder5build
FNDA:0,_RNvMss_NtCs4qFySXYcYQq_18sqlrustgo_executor8executorNtB5_22MockStorageForExecutor10with_table
FNDA:0,_RNvMss_NtCs4qFySXYcYQq_18sqlrustgo_executor8executorNtB5_22MockStorageForExecutor3new
FNDA:0,_RNvNtCs4qFySXYcYQq_18sqlrustgo_executor8executor15execute_collect
FNDA:0,_RNvNtCs4qFySXYcYQq_18sqlrustgo_executor8executor17compare_join_keys
FNDA:0,_RNvXs0_NtCs4qFySXYcYQq_18sqlrustgo_executor8executorNtB5_22SeqScanVolcanoExecutorNtB5_15VolcanoExecutor14is_initialized
FNDA:0,_RNvXs0_NtCs4qFySXYcYQq_18sqlrustgo_executor8executorNtB5_22SeqScanVolcanoExecutorNtB5_15VolcanoExecutor4init
FNDA:0,_RNvXs0_NtCs4qFySXYcYQq_18sqlrustgo_executor8executorNtB5_22SeqScanVolcanoExecutorNtB5_15VolcanoExecutor4name
FNDA:0,_RNvXs0_NtCs4qFySXYcYQq_18sqlrustgo_executor8executorNtB5_22SeqScanVolcanoExecutorNtB5_15VolcanoExecutor4next
FNDA:0,_RNvXs0_NtCs4qFySXYcYQq_18sqlrustgo_executor8executorNtB5_22SeqScanVolcanoExecutorNtB5_15VolcanoExecutor5close
FNDA:0,_RNvXs0_NtCs4qFySXYcYQq_18sqlrustgo_executor8executorNtB5_22SeqScanVolcanoExecutorNtB5_15VolcanoExecutor6as_any
FNDA:0,_RNvXs0_NtCs4qFySXYcYQq_18sqlrustgo_executor8executorNtB5_22SeqScanVolcanoExecutorNtB5_15VolcanoExecutor6schema
FNDA:0,_RNvXs2_NtCs4qFySXYcYQq_18sqlrustgo_executor8executorNtB5_25ProjectionVolcanoExecutorNtB5_15VolcanoExecutor14is_initialized
FNDA:0,_RNvXs2_NtCs4qFySXYcYQq_18sqlrustgo_executor8executorNtB5_25ProjectionVolcanoExecutorNtB5_15VolcanoExecutor4init
FNDA:0,_RNvXs2_NtCs4qFySXYcYQq_18sqlrustgo_executor8executorNtB5_25ProjectionVolcanoExecutorNtB5_15VolcanoExecutor4name
FNDA:0,_RNvXs2_NtCs4qFySXYcYQq_18sqlrustgo_executor8executorNtB5_25ProjectionVolcanoExecutorNtB5_15VolcanoExecutor4next
FNDA:0,_RNvXs2_NtCs4qFySXYcYQq_18sqlrustgo_executor8executorNtB5_25ProjectionVolcanoExecutorNtB5_15VolcanoExecutor5close
FNDA:0,_RNvXs2_NtCs4qFySXYcYQq_18sqlrustgo_executor8executorNtB5_25ProjectionVolcanoExecutorNtB5_15VolcanoExecutor6as_any
FNDA:0,_RNvXs2_NtCs4qFySXYcYQq_18sqlrustgo_executor8executorNtB5_25ProjectionVolcanoExecutorNtB5_15VolcanoExecutor6schema
FNDA:0,_RNvXs4_NtCs4qFySXYcYQq_18sqlrustgo_executor8executorNtB5_24AggregateVolcanoExecutorNtB5_15VolcanoExecutor14is_initialized
FNDA:0,_RNvXs4_NtCs4qFySXYcYQq_18sqlrustgo_executor8executorNtB5_24AggregateVolcanoExecutorNtB5_15VolcanoExecutor4init
FNDA:0,_RNvXs4_NtCs4qFySXYcYQq_18sqlrustgo_executor8executorNtB5_24AggregateVolcanoExecutorNtB5_15VolcanoExecutor4name
FNDA:0,_RNvXs4_NtCs4qFySXYcYQq_18sqlrustgo_executor8executorNtB5_24AggregateVolcanoExecutorNtB5_15VolcanoExecutor4next
FNDA:0,_RNvXs4_NtCs4qFySXYcYQq_18sqlrustgo_executor8executorNtB5_24AggregateVolcanoExecutorNtB5_15VolcanoExecutor5close
FNDA:0,_RNvXs4_NtCs4qFySXYcYQq_18sqlrustgo_executor8executorNtB5_24AggregateVolcanoExecutorNtB5_15VolcanoExecutor6as_any
FNDA:0,_RNvXs4_NtCs4qFySXYcYQq_18sqlrustgo_executor8executorNtB5_24AggregateVolcanoExecutorNtB5_15VolcanoExecutor6schema
FNDA:0,_RNvXs6_NtCs4qFySXYcYQq_18sqlrustgo_executor8executorNtB5_23HashJoinVolcanoExecutorNtB5_15VolcanoExecutor14is_initialized
FNDA:0,_RNvXs6_NtCs4qFySXYcYQq_18sqlrustgo_executor8executorNtB5_23HashJoinVolcanoExecutorNtB5_15VolcanoExecutor4init
FNDA:0,_RNvXs6_NtCs4qFySXYcYQq_18sqlrustgo_executor8executorNtB5_23HashJoinVolcanoExecutorNtB5_15VolcanoExecutor4name
FNDA:0,_RNvXs6_NtCs4qFySXYcYQq_18sqlrustgo_executor8executorNtB5_23HashJoinVolcanoExecutorNtB5_15VolcanoExecutor4next
FNDA:0,_RNvXs6_NtCs4qFySXYcYQq_18sqlrustgo_executor8executorNtB5_23HashJoinVolcanoExecutorNtB5_15VolcanoExecutor5close
FNDA:0,_RNvXs6_NtCs4qFySXYcYQq_18sqlrustgo_executor8executorNtB5_23HashJoinVolcanoExecutorNtB5_15VolcanoExecutor6as_any
FNDA:0,_RNvXs6_NtCs4qFySXYcYQq_18sqlrustgo_executor8executorNtB5_23HashJoinVolcanoExecutorNtB5_15VolcanoExecutor6schema
FNDA:0,_RNvXs9_NtCs4qFySXYcYQq_18sqlrustgo_executor8executorNtB5_28SortMergeJoinVolcanoExecutorNtB5_15VolcanoExecutor14is_initialized
FNDA:0,_RNvXs9_NtCs4qFySXYcYQq_18sqlrustgo_executor8executorNtB5_28SortMergeJoinVolcanoExecutorNtB5_15VolcanoExecutor4init
FNDA:0,_RNvXs9_NtCs4qFySXYcYQq_18sqlrustgo_executor8executorNtB5_28SortMergeJoinVolcanoExecutorNtB5_15VolcanoExecutor4name
FNDA:0,_RNvXs9_NtCs4qFySXYcYQq_18sqlrustgo_executor8executorNtB5_28SortMergeJoinVolcanoExecutorNtB5_15VolcanoExecutor4next
FNDA:0,_RNvXs9_NtCs4qFySXYcYQq_18sqlrustgo_executor8executorNtB5_28SortMergeJoinVolcanoExecutorNtB5_15VolcanoExecutor5close
FNDA:0,_RNvXs9_NtCs4qFySXYcYQq_18sqlrustgo_executor8executorNtB5_28SortMergeJoinVolcanoExecutorNtB5_15VolcanoExecutor6as_any
FNDA:0,_RNvXs9_NtCs4qFySXYcYQq_18sqlrustgo_executor8executorNtB5_28SortMergeJoinVolcanoExecutorNtB5_15VolcanoExecutor6schema
FNDA:0,_RNvXsb_NtCs4qFySXYcYQq_18sqlrustgo_executor8executorNtB5_19SortVolcanoExecutorNtB5_15VolcanoExecutor14is_initialized
FNDA:0,_RNvXsb_NtCs4qFySXYcYQq_18sqlrustgo_executor8executorNtB5_19SortVolcanoExecutorNtB5_15VolcanoExecutor4init
FNDA:0,_RNvXsb_NtCs4qFySXYcYQq_18sqlrustgo_executor8executorNtB5_19SortVolcanoExecutorNtB5_15VolcanoExecutor4name
FNDA:0,_RNvXsb_NtCs4qFySXYcYQq_18sqlrustgo_executor8executorNtB5_19SortVolcanoExecutorNtB5_15VolcanoExecutor4next
FNDA:0,_RNvXsb_NtCs4qFySXYcYQq_18sqlrustgo_executor8executorNtB5_19SortVolcanoExecutorNtB5_15VolcanoExecutor5close
FNDA:0,_RNvXsb_NtCs4qFySXYcYQq_18sqlrustgo_executor8executorNtB5_19SortVolcanoExecutorNtB5_15VolcanoExecutor6as_any
FNDA:0,_RNvXsb_NtCs4qFySXYcYQq_18sqlrustgo_executor8executorNtB5_19SortVolcanoExecutorNtB5_15VolcanoExecutor6schema
FNDA:0,_RNvXsd_NtCs4qFySXYcYQq_18sqlrustgo_executor8executorNtB5_29NestedLoopJoinVolcanoExecutorNtB5_15VolcanoExecutor14is_initialized
FNDA:0,_RNvXsd_NtCs4qFySXYcYQq_18sqlrustgo_executor8executorNtB5_29NestedLoopJoinVolcanoExecutorNtB5_15VolcanoExecutor4init
FNDA:0,_RNvXsd_NtCs4qFySXYcYQq_18sqlrustgo_executor8executorNtB5_29NestedLoopJoinVolcanoExecutorNtB5_15VolcanoExecutor4name
FNDA:0,_RNvXsd_NtCs4qFySXYcYQq_18sqlrustgo_executor8executorNtB5_29NestedLoopJoinVolcanoExecutorNtB5_15VolcanoExecutor4next
FNDA:0,_RNvXsd_NtCs4qFySXYcYQq_18sqlrustgo_executor8executorNtB5_29NestedLoopJoinVolcanoExecutorNtB5_15VolcanoExecutor5close
FNDA:0,_RNvXsd_NtCs4qFySXYcYQq_18sqlrustgo_executor8executorNtB5_29NestedLoopJoinVolcanoExecutorNtB5_15VolcanoExecutor6as_any
FNDA:0,_RNvXsd_NtCs4qFySXYcYQq_18sqlrustgo_executor8executorNtB5_29NestedLoopJoinVolcanoExecutorNtB5_15VolcanoExecutor6schema
FNDA:0,_RNvXsf_NtCs4qFySXYcYQq_18sqlrustgo_executor8executorNtB5_21SortMergeJoinExecutorNtB5_15VolcanoExecutor14is_initialized
FNDA:0,_RNvXsf_NtCs4qFySXYcYQq_18sqlrustgo_executor8executorNtB5_21SortMergeJoinExecutorNtB5_15VolcanoExecutor4init
FNDA:0,_RNvXsf_NtCs4qFySXYcYQq_18sqlrustgo_executor8executorNtB5_21SortMergeJoinExecutorNtB5_15VolcanoExecutor4name
FNDA:0,_RNvXsf_NtCs4qFySXYcYQq_18sqlrustgo_executor8executorNtB5_21SortMergeJoinExecutorNtB5_15VolcanoExecutor4next
FNDA:0,_RNvXsf_NtCs4qFySXYcYQq_18sqlrustgo_executor8executorNtB5_21SortMergeJoinExecutorNtB5_15VolcanoExecutor5close
FNDA:0,_RNvXsf_NtCs4qFySXYcYQq_18sqlrustgo_executor8executorNtB5_21SortMergeJoinExecutorNtB5_15VolcanoExecutor6as_any
FNDA:0,_RNvXsf_NtCs4qFySXYcYQq_18sqlrustgo_executor8executorNtB5_21SortMergeJoinExecutorNtB5_15VolcanoExecutor6schema
FNDA:0,_RNvXsi_NtCs4qFySXYcYQq_18sqlrustgo_executor8executorNtB5_25InSubqueryVolcanoExecutorNtB5_21OuterRowAwareExecutor13has_outer_row
FNDA:0,_RNvXsi_NtCs4qFySXYcYQq_18sqlrustgo_executor8executorNtB5_25InSubqueryVolcanoExecutorNtB5_21OuterRowAwareExecutor13set_outer_row
FNDA:0,_RNvXsj_NtCs4qFySXYcYQq_18sqlrustgo_executor8executorNtB5_25InSubqueryVolcanoExecutorNtB5_15VolcanoExecutor14is_initialized
FNDA:0,_RNvXsj_NtCs4qFySXYcYQq_18sqlrustgo_executor8executorNtB5_25InSubqueryVolcanoExecutorNtB5_15VolcanoExecutor4init
FNDA:0,_RNvXsj_NtCs4qFySXYcYQq_18sqlrustgo_executor8executorNtB5_25InSubqueryVolcanoExecutorNtB5_15VolcanoExecutor4name
FNDA:0,_RNvXsj_NtCs4qFySXYcYQq_18sqlrustgo_executor8executorNtB5_25InSubqueryVolcanoExecutorNtB5_15VolcanoExecutor4next
FNDA:0,_RNvXsj_NtCs4qFySXYcYQq_18sqlrustgo_executor8executorNtB5_25InSubqueryVolcanoExecutorNtB5_15VolcanoExecutor5close
FNDA:0,_RNvXsj_NtCs4qFySXYcYQq_18sqlrustgo_executor8executorNtB5_25InSubqueryVolcanoExecutorNtB5_15VolcanoExecutor6as_any
FNDA:0,_RNvXsj_NtCs4qFySXYcYQq_18sqlrustgo_executor8executorNtB5_25InSubqueryVolcanoExecutorNtB5_15VolcanoExecutor6schema
FNDA:0,_RNvXsl_NtCs4qFySXYcYQq_18sqlrustgo_executor8executorNtB5_21ExistsVolcanoExecutorNtB5_15VolcanoExecutor14is_initialized
FNDA:0,_RNvXsl_NtCs4qFySXYcYQq_18sqlrustgo_executor8executorNtB5_21ExistsVolcanoExecutorNtB5_15VolcanoExecutor4init
FNDA:0,_RNvXsl_NtCs4qFySXYcYQq_18sqlrustgo_executor8executorNtB5_21ExistsVolcanoExecutorNtB5_15VolcanoExecutor4name
FNDA:0,_RNvXsl_NtCs4qFySXYcYQq_18sqlrustgo_executor8executorNtB5_21ExistsVolcanoExecutorNtB5_15VolcanoExecutor4next
FNDA:0,_RNvXsl_NtCs4qFySXYcYQq_18sqlrustgo_executor8executorNtB5_21ExistsVolcanoExecutorNtB5_15VolcanoExecutor5close
FNDA:0,_RNvXsl_NtCs4qFySXYcYQq_18sqlrustgo_executor8executorNtB5_21ExistsVolcanoExecutorNtB5_15VolcanoExecutor6as_any
FNDA:0,_RNvXsl_NtCs4qFySXYcYQq_18sqlrustgo_executor8executorNtB5_21ExistsVolcanoExecutorNtB5_15VolcanoExecutor6schema
FNDA:0,_RNvXsn_NtCs4qFySXYcYQq_18sqlrustgo_executor8executorNtB5_21AnyAllVolcanoExecutorNtB5_15VolcanoExecutor14is_initialized
FNDA:0,_RNvXsn_NtCs4qFySXYcYQq_18sqlrustgo_executor8executorNtB5_21AnyAllVolcanoExecutorNtB5_15VolcanoExecutor4init
FNDA:0,_RNvXsn_NtCs4qFySXYcYQq_18sqlrustgo_executor8executorNtB5_21AnyAllVolcanoExecutorNtB5_15VolcanoExecutor4name
FNDA:0,_RNvXsn_NtCs4qFySXYcYQq_18sqlrustgo_executor8executorNtB5_21AnyAllVolcanoExecutorNtB5_15VolcanoExecutor4next
FNDA:0,_RNvXsn_NtCs4qFySXYcYQq_18sqlrustgo_executor8executorNtB5_21AnyAllVolcanoExecutorNtB5_15VolcanoExecutor5close
FNDA:0,_RNvXsn_NtCs4qFySXYcYQq_18sqlrustgo_executor8executorNtB5_21AnyAllVolcanoExecutorNtB5_15VolcanoExecutor6as_any
FNDA:0,_RNvXsn_NtCs4qFySXYcYQq_18sqlrustgo_executor8executorNtB5_21AnyAllVolcanoExecutorNtB5_15VolcanoExecutor6schema
FNDA:0,_RNvXso_NtCs4qFySXYcYQq_18sqlrustgo_executor8executorNtB5_21AnyAllVolcanoExecutorNtB5_21OuterRowAwareExecutor13has_outer_row
FNDA:0,_RNvXso_NtCs4qFySXYcYQq_18sqlrustgo_executor8executorNtB5_21AnyAllVolcanoExecutorNtB5_21OuterRowAwareExecutor13set_outer_row
FNDA:0,_RNvXsq_NtCs4qFySXYcYQq_18sqlrustgo_executor8executorNtB5_20LimitVolcanoExecutorNtB5_15VolcanoExecutor14is_initialized
FNDA:0,_RNvXsq_NtCs4qFySXYcYQq_18sqlrustgo_executor8executorNtB5_20LimitVolcanoExecutorNtB5_15VolcanoExecutor4init
FNDA:0,_RNvXsq_NtCs4qFySXYcYQq_18sqlrustgo_executor8executorNtB5_20LimitVolcanoExecutorNtB5_15VolcanoExecutor4name
FNDA:0,_RNvXsq_NtCs4qFySXYcYQq_18sqlrustgo_executor8executorNtB5_20LimitVolcanoExecutorNtB5_15VolcanoExecutor4next
FNDA:0,_RNvXsq_NtCs4qFySXYcYQq_18sqlrustgo_executor8executorNtB5_20LimitVolcanoExecutorNtB5_15VolcanoExecutor5close
FNDA:0,_RNvXsq_NtCs4qFySXYcYQq_18sqlrustgo_executor8executorNtB5_20LimitVolcanoExecutorNtB5_15VolcanoExecutor6as_any
FNDA:0,_RNvXsq_NtCs4qFySXYcYQq_18sqlrustgo_executor8executorNtB5_20LimitVolcanoExecutorNtB5_15VolcanoExecutor6schema
FNDA:0,_RNvXst_NtCs4qFySXYcYQq_18sqlrustgo_executor8executorNtB5_22MockStorageForExecutorNtNtCs8nPosuWgJFh_4core7default7Default7default
FNDA:0,_RNvXsu_NtCs4qFySXYcYQq_18sqlrustgo_executor8executorNtB5_22MockStorageForExecutorNtB5_7Storage4scan
FNDA:0,_RNvYNtNtCs4qFySXYcYQq_18sqlrustgo_executor6filter21FilterVolcanoExecutorNtNtB6_8executor15VolcanoExecutor13set_outer_rowB6_
FNDA:0,_RNvYNtNtCs4qFySXYcYQq_18sqlrustgo_executor6filter21FilterVolcanoExecutorNtNtB6_8executor15VolcanoExecutor18requires_outer_rowB6_
FNDA:0,_RNvYNtNtCs4qFySXYcYQq_18sqlrustgo_executor6filter21FilterVolcanoExecutorNtNtB6_8executor15VolcanoExecutor8next_refB6_
FNDA:0,_RNCNCNvMs3_NtCs4qFySXYcYQq_18sqlrustgo_executor8executorNtB9_24AggregateVolcanoExecutor17compute_aggregate00Bb_
FNDA:0,_RNCNCNvMs3_NtCs4qFySXYcYQq_18sqlrustgo_executor8executorNtB9_24AggregateVolcanoExecutor20evaluate_having_expr00Bb_
FNDA:0,_RNCNvMs3_NtCs4qFySXYcYQq_18sqlrustgo_executor8executorNtB7_24AggregateVolcanoExecutor17compute_aggregate0B9_
FNDA:0,_RNCNvMs3_NtCs4qFySXYcYQq_18sqlrustgo_executor8executorNtB7_24AggregateVolcanoExecutor20evaluate_having_expr0B9_
FNDA:0,_RNCNvMs5_NtCs4qFySXYcYQq_18sqlrustgo_executor8executorNtB7_23HashJoinVolcanoExecutor10next_cross0B9_
FNDA:0,_RNCNvMs5_NtCs4qFySXYcYQq_18sqlrustgo_executor8executorNtB7_23HashJoinVolcanoExecutor15next_right_anti0B9_
FNDA:0,_RNCNvMs5_NtCs4qFySXYcYQq_18sqlrustgo_executor8executorNtB7_23HashJoinVolcanoExecutor15next_right_semi0B9_
FNDA:0,_RNCNvMs_NtCs4qFySXYcYQq_18sqlrustgo_executor8executorNtB6_22SeqScanVolcanoExecutor3new0B8_
FNDA:0,_RNCNvMsh_NtCs4qFySXYcYQq_18sqlrustgo_executor8executorNtB7_25InSubqueryVolcanoExecutor13set_outer_row0B9_
FNDA:0,_RNCNvMsm_NtCs4qFySXYcYQq_18sqlrustgo_executor8executorNtB7_21AnyAllVolcanoExecutor13set_outer_row0B9_
FNDA:0,_RNCNvMsr_NtCs4qFySXYcYQq_18sqlrustgo_executor8executorNtB7_18VolExecutorBuilder10build_sort0B9_
FNDA:0,_RNCNvMsr_NtCs4qFySXYcYQq_18sqlrustgo_executor8executorNtB7_18VolExecutorBuilder11build_limit0B9_
FNDA:0,_RNCNvMsr_NtCs4qFySXYcYQq_18sqlrustgo_executor8executorNtB7_18VolExecutorBuilder11build_limits_0B9_
FNDA:0,_RNCNvMsr_NtCs4qFySXYcYQq_18sqlrustgo_executor8executorNtB7_18VolExecutorBuilder12build_filter0B9_
FNDA:0,_RNCNvMsr_NtCs4qFySXYcYQq_18sqlrustgo_executor8executorNtB7_18VolExecutorBuilder12build_window0B9_
FNDA:0,_RNCNvMsr_NtCs4qFySXYcYQq_18sqlrustgo_executor8executorNtB7_18VolExecutorBuilder13build_any_all0B9_
FNDA:0,_RNCNvMsr_NtCs4qFySXYcYQq_18sqlrustgo_executor8executorNtB7_18VolExecutorBuilder15build_aggregate0B9_
FNDA:0,_RNCNvMsr_NtCs4qFySXYcYQq_18sqlrustgo_executor8executorNtB7_18VolExecutorBuilder15build_hash_join0B9_
FNDA:0,_RNCNvMsr_NtCs4qFySXYcYQq_18sqlrustgo_executor8executorNtB7_18VolExecutorBuilder16build_projection0B9_
FNDA:0,_RNCNvMsr_NtCs4qFySXYcYQq_18sqlrustgo_executor8executorNtB7_18VolExecutorBuilder17build_in_subquery0B9_
FNDA:0,_RNCNvXs0_NtCs4qFySXYcYQq_18sqlrustgo_executor8executorNtB7_22SeqScanVolcanoExecutorNtB7_15VolcanoExecutor4init0B9_
FNDA:0,_RNCNvXs2_NtCs4qFySXYcYQq_18sqlrustgo_executor8executorNtB7_25ProjectionVolcanoExecutorNtB7_15VolcanoExecutor4next0B9_
FNDA:0,_RNCNvXs4_NtCs4qFySXYcYQq_18sqlrustgo_executor8executorNtB7_24AggregateVolcanoExecutorNtB7_15VolcanoExecutor4init0B9_
FNDA:0,_RNCNvXs4_NtCs4qFySXYcYQq_18sqlrustgo_executor8executorNtB7_24AggregateVolcanoExecutorNtB7_15VolcanoExecutor4inits0_0B9_
FNDA:0,_RNCNvXs4_NtCs4qFySXYcYQq_18sqlrustgo_executor8executorNtB7_24AggregateVolcanoExecutorNtB7_15VolcanoExecutor4inits_0B9_
FNDA:0,_RNCNvXs9_NtCs4qFySXYcYQq_18sqlrustgo_executor8executorNtB7_28SortMergeJoinVolcanoExecutorNtB7_15VolcanoExecutor4init0B9_
FNDA:0,_RNCNvXs9_NtCs4qFySXYcYQq_18sqlrustgo_executor8executorNtB7_28SortMergeJoinVolcanoExecutorNtB7_15VolcanoExecutor4inits_0B9_
FNDA:0,_RNCNvXsb_NtCs4qFySXYcYQq_18sqlrustgo_executor8executorNtB7_19SortVolcanoExecutorNtB7_15VolcanoExecutor4init0B9_
FNDA:0,_RNCNvXsf_NtCs4qFySXYcYQq_18sqlrustgo_executor8executorNtB7_21SortMergeJoinExecutorNtB7_15VolcanoExecutor4init0B9_
FNDA:0,_RNCNvXsf_NtCs4qFySXYcYQq_18sqlrustgo_executor8executorNtB7_21SortMergeJoinExecutorNtB7_15VolcanoExecutor4inits_0B9_
FNDA:0,_RNCNvXsi_NtCs4qFySXYcYQq_18sqlrustgo_executor8executorNtB7_25InSubqueryVolcanoExecutorNtB7_21OuterRowAwareExecutor13set_outer_row0B9_
FNDA:0,_RNCNvXsj_NtCs4qFySXYcYQq_18sqlrustgo_executor8executorNtB7_25InSubqueryVolcanoExecutorNtB7_15VolcanoExecutor4next0B9_
FNDA:0,_RNCNvXso_NtCs4qFySXYcYQq_18sqlrustgo_executor8executorNtB7_21AnyAllVolcanoExecutorNtB7_21OuterRowAwareExecutor13set_outer_row0B9_
FNDA:0,_RNvYNtNtCs4qFySXYcYQq_18sqlrustgo_executor8executor19SortVolcanoExecutorNtB4_15VolcanoExecutor13set_outer_rowB6_
FNDA:0,_RNvYNtNtCs4qFySXYcYQq_18sqlrustgo_executor8executor19SortVolcanoExecutorNtB4_15VolcanoExecutor18requires_outer_rowB6_
FNDA:0,_RNvYNtNtCs4qFySXYcYQq_18sqlrustgo_executor8executor19SortVolcanoExecutorNtB4_15VolcanoExecutor8next_refB6_
FNDA:0,_RNvYNtNtCs4qFySXYcYQq_18sqlrustgo_executor8executor20LimitVolcanoExecutorNtB4_15VolcanoExecutor13set_outer_rowB6_
FNDA:0,_RNvYNtNtCs4qFySXYcYQq_18sqlrustgo_executor8executor20LimitVolcanoExecutorNtB4_15VolcanoExecutor18requires_outer_rowB6_
FNDA:0,_RNvYNtNtCs4qFySXYcYQq_18sqlrustgo_executor8executor20LimitVolcanoExecutorNtB4_15VolcanoExecutor8next_refB6_
FNDA:0,_RNvYNtNtCs4qFySXYcYQq_18sqlrustgo_executor8executor21AnyAllVolcanoExecutorNtB4_15VolcanoExecutor13set_outer_rowB6_
FNDA:0,_RNvYNtNtCs4qFySXYcYQq_18sqlrustgo_executor8executor21AnyAllVolcanoExecutorNtB4_15VolcanoExecutor18requires_outer_rowB6_
FNDA:0,_RNvYNtNtCs4qFySXYcYQq_18sqlrustgo_executor8executor21AnyAllVolcanoExecutorNtB4_15VolcanoExecutor8next_refB6_
FNDA:0,_RNvYNtNtCs4qFySXYcYQq_18sqlrustgo_executor8executor21ExistsVolcanoExecutorNtB4_15VolcanoExecutor13set_outer_rowB6_
FNDA:0,_RNvYNtNtCs4qFySXYcYQq_18sqlrustgo_executor8executor21ExistsVolcanoExecutorNtB4_15VolcanoExecutor18requires_outer_rowB6_
FNDA:0,_RNvYNtNtCs4qFySXYcYQq_18sqlrustgo_executor8executor21ExistsVolcanoExecutorNtB4_15VolcanoExecutor8next_refB6_
FNDA:0,_RNvYNtNtCs4qFySXYcYQq_18sqlrustgo_executor8executor22SeqScanVolcanoExecutorNtB4_15VolcanoExecutor13set_outer_rowB6_
FNDA:0,_RNvYNtNtCs4qFySXYcYQq_18sqlrustgo_executor8executor22SeqScanVolcanoExecutorNtB4_15VolcanoExecutor18requires_outer_rowB6_
FNDA:0,_RNvYNtNtCs4qFySXYcYQq_18sqlrustgo_executor8executor22SeqScanVolcanoExecutorNtB4_15VolcanoExecutor8next_refB6_
FNDA:0,_RNvYNtNtCs4qFySXYcYQq_18sqlrustgo_executor8executor23HashJoinVolcanoExecutorNtB4_15VolcanoExecutor13set_outer_rowB6_
FNDA:0,_RNvYNtNtCs4qFySXYcYQq_18sqlrustgo_executor8executor23HashJoinVolcanoExecutorNtB4_15VolcanoExecutor18requires_outer_rowB6_
FNDA:0,_RNvYNtNtCs4qFySXYcYQq_18sqlrustgo_executor8executor23HashJoinVolcanoExecutorNtB4_15VolcanoExecutor8next_refB6_
FNDA:0,_RNvYNtNtCs4qFySXYcYQq_18sqlrustgo_executor8executor24AggregateVolcanoExecutorNtB4_15VolcanoExecutor13set_outer_rowB6_
FNDA:0,_RNvYNtNtCs4qFySXYcYQq_18sqlrustgo_executor8executor24AggregateVolcanoExecutorNtB4_15VolcanoExecutor18requires_outer_rowB6_
FNDA:0,_RNvYNtNtCs4qFySXYcYQq_18sqlrustgo_executor8executor24AggregateVolcanoExecutorNtB4_15VolcanoExecutor8next_refB6_
FNDA:0,_RNvYNtNtCs4qFySXYcYQq_18sqlrustgo_executor8executor25InSubqueryVolcanoExecutorNtB4_15VolcanoExecutor13set_outer_rowB6_
FNDA:0,_RNvYNtNtCs4qFySXYcYQq_18sqlrustgo_executor8executor25InSubqueryVolcanoExecutorNtB4_15VolcanoExecutor18requires_outer_rowB6_
FNDA:0,_RNvYNtNtCs4qFySXYcYQq_18sqlrustgo_executor8executor25InSubqueryVolcanoExecutorNtB4_15VolcanoExecutor8next_refB6_
FNDA:0,_RNvYNtNtCs4qFySXYcYQq_18sqlrustgo_executor8executor25ProjectionVolcanoExecutorNtB4_15VolcanoExecutor13set_outer_rowB6_
FNDA:0,_RNvYNtNtCs4qFySXYcYQq_18sqlrustgo_executor8executor25ProjectionVolcanoExecutorNtB4_15VolcanoExecutor18requires_outer_rowB6_
FNDA:0,_RNvYNtNtCs4qFySXYcYQq_18sqlrustgo_executor8executor25ProjectionVolcanoExecutorNtB4_15VolcanoExecutor8next_refB6_
FNDA:0,_RNvYNtNtCs4qFySXYcYQq_18sqlrustgo_executor8executor29NestedLoopJoinVolcanoExecutorNtB4_15VolcanoExecutor13set_outer_rowB6_
FNDA:0,_RNvYNtNtCs4qFySXYcYQq_18sqlrustgo_executor8executor29NestedLoopJoinVolcanoExecutorNtB4_15VolcanoExecutor18requires_outer_rowB6_
FNDA:0,_RNvYNtNtCs4qFySXYcYQq_18sqlrustgo_executor8executor29NestedLoopJoinVolcanoExecutorNtB4_15VolcanoExecutor8next_refB6_
FNF:300
FNH:173
DA:16,65
DA:17,65
DA:18,65
DA:19,65
DA:20,65
DA:21,65
DA:22,7
DA:23,7
DA:24,7
DA:25,7
DA:26,7
DA:27,7
DA:43,0
DA:44,0
DA:45,0
DA:49,0
DA:53,0
DA:54,0
DA:55,0
DA:77,3
DA:78,3
DA:79,3
DA:80,8
DA:81,5
DA:82,5
DA:83,3
DA:84,3
DA:85,3
DA:105,7
DA:107,7
DA:108,7
DA:109,7
DA:112,7
DA:113,7
DA:114,7
DA:115,7
DA:116,7
DA:117,7
DA:118,0
DA:119,0
DA:120,0
DA:121,0
DA:122,0
DA:123,0
DA:124,0
DA:125,7
DA:126,7
DA:127,7
DA:129,7
DA:131,0
DA:132,0
DA:133,0
DA:134,0
DA:140,0
DA:141,0
DA:142,0
DA:143,0
DA:144,0
DA:145,0
DA:146,0
DA:147,0
DA:148,0
DA:149,0
DA:150,0
DA:154,5
DA:155,5
DA:156,1
DA:157,4
DA:158,4
DA:159,0
DA:160,0
DA:161,0
DA:163,4
DA:165,5
DA:166,4
DA:167,4
DA:168,4
DA:169,5
DA:171,7
DA:172,7
DA:173,1
DA:174,6
DA:175,6
DA:176,2
DA:177,4
DA:179,4
DA:180,4
DA:181,4
DA:182,7
DA:184,1
DA:185,1
DA:186,1
DA:187,1
DA:188,1
DA:189,1
DA:190,1
DA:191,1
DA:192,1
DA:193,1
DA:194,1
DA:195,1
DA:196,1
DA:197,1
DA:198,1
DA:199,0
DA:200,0
DA:201,0
DA:213,4
DA:214,4
DA:215,4
DA:216,4
DA:217,4
DA:218,4
DA:219,4
DA:220,4
DA:221,4
DA:222,4
DA:223,4
DA:224,4
DA:225,4
DA:226,4
DA:230,3
DA:231,3
DA:232,3
DA:233,3
DA:234,3
DA:235,3
DA:236,3
DA:237,2
DA:238,2
DA:239,2
DA:240,3
DA:241,3
DA:242,3
DA:243,3
DA:244,2
DA:245,2
DA:247,1
DA:249,3
DA:250,0
DA:251,0
DA:252,0
DA:253,0
DA:254,0
DA:255,0
DA:256,0
DA:257,0
DA:258,1
DA:259,1
DA:260,1
DA:261,0
DA:262,0
DA:263,0
DA:264,0
DA:265,0
DA:266,0
DA:283,6
DA:284,6
DA:285,6
DA:286,6
DA:287,6
DA:288,6
DA:289,6
DA:290,6
DA:291,6
DA:292,6
DA:293,6
DA:294,6
DA:295,6
DA:296,6
DA:297,6
DA:298,6
DA:299,6
DA:300,6
DA:301,6
DA:302,6
DA:303,6
DA:305,8
DA:306,8
DA:307,10
DA:308,10
DA:309,10
DA:310,10
DA:311,15
DA:312,15
DA:313,3
DA:315,12
DA:316,12
DA:317,12
DA:318,12
DA:319,12
DA:321,15
DA:322,10
DA:324,10
DA:326,2
DA:329,2
DA:330,3
DA:331,3
DA:332,3
DA:333,3
DA:335,2
DA:338,2
DA:339,2
DA:340,3
DA:341,3
DA:342,3
DA:343,3
DA:344,3
DA:346,2
DA:347,2
DA:349,0
DA:353,2
DA:354,3
DA:355,3
DA:356,1
DA:357,1
DA:358,2
DA:359,0
DA:361,0
DA:363,2
DA:366,2
DA:367,3
DA:368,3
DA:369,1
DA:370,1
DA:371,2
DA:372,1
DA:374,0
DA:376,2
DA:379,10
DA:380,0
DA:382,8
DA:383,8
DA:387,0
DA:388,0
DA:389,0
DA:390,0
DA:391,0
DA:392,0
DA:393,0
DA:395,0
DA:396,0
DA:397,0
DA:398,0
DA:399,0
DA:401,0
DA:402,0
DA:403,0
DA:404,0
DA:405,0
DA:407,0
DA:408,0
DA:410,0
DA:412,0
DA:415,0
DA:416,0
DA:417,0
DA:418,0
DA:419,0
DA:421,0
DA:424,0
DA:425,0
DA:426,0
DA:427,0
DA:428,0
DA:429,0
DA:430,0
DA:432,0
DA:433,0
DA:435,0
DA:439,0
DA:440,0
DA:441,0
DA:442,0
DA:443,0
DA:444,0
DA:445,0
DA:447,0
DA:449,0
DA:452,0
DA:453,0
DA:454,0
DA:455,0
DA:456,0
DA:457,0
DA:458,0
DA:460,0
DA:462,0
DA:466,0
DA:467,0
DA:469,0
DA:472,0
DA:473,0
DA:474,0
DA:477,0
DA:478,0
DA:479,0
DA:480,0
DA:481,0
DA:482,0
DA:483,0
DA:484,0
DA:485,0
DA:486,0
DA:490,0
DA:491,0
DA:492,0
DA:494,0
DA:497,0
DA:499,0
DA:503,5
DA:504,5
DA:505,5
DA:506,17
DA:507,12
DA:508,12
DA:509,5
DA:510,12
DA:511,12
DA:512,12
DA:513,12
DA:514,12
DA:515,12
DA:516,12
DA:517,12
DA:518,12
DA:519,12
DA:521,5
DA:522,5
DA:523,4
DA:524,4
DA:525,4
DA:526,4
DA:527,4
DA:528,4
DA:529,0
DA:531,0
DA:532,0
DA:533,0
DA:534,0
DA:535,0
DA:537,0
DA:540,0
DA:541,4
DA:544,5
DA:545,0
DA:546,0
DA:547,0
DA:548,0
DA:549,0
DA:550,0
DA:552,0
DA:553,0
DA:554,0
DA:555,0
DA:556,5
DA:558,5
DA:559,5
DA:560,5
DA:561,5
DA:563,13
DA:564,13
DA:565,0
DA:566,13
DA:567,13
DA:568,5
DA:569,8
DA:570,8
DA:571,8
DA:572,8
DA:573,8
DA:574,8
DA:575,8
DA:576,13
DA:578,0
DA:579,0
DA:580,0
DA:581,0
DA:582,0
DA:583,0
DA:584,0
DA:585,0
DA:586,0
DA:587,1
DA:588,1
DA:589,1
DA:590,0
DA:591,0
DA:592,0
DA:593,0
DA:594,0
DA:595,0
DA:619,3
DA:620,3
DA:621,3
DA:622,3
DA:623,3
DA:624,3
DA:625,3
DA:626,3
DA:627,3
DA:628,3
DA:629,3
DA:630,3
DA:631,3
DA:632,3
DA:633,3
DA:634,3
DA:635,3
DA:636,3
DA:637,3
DA:638,3
DA:639,3
DA:640,3
DA:641,3
DA:642,3
DA:643,3
DA:644,3
DA:646,3
DA:647,5
DA:648,4
DA:649,4
DA:650,4
DA:652,0
DA:654,4
DA:655,4
DA:656,2
DA:657,2
DA:658,2
DA:659,2
DA:660,2
DA:661,0
DA:662,2
DA:663,2
DA:665,1
DA:666,3
DA:668,3
DA:669,4
DA:670,3
DA:671,3
DA:672,3
DA:674,0
DA:676,3
DA:677,2
DA:678,1
DA:679,1
DA:680,1
DA:681,1
DA:682,1
DA:683,1
DA:684,1
DA:686,1
DA:687,2
DA:688,2
DA:689,2
DA:690,1
DA:691,1
DA:692,1
DA:694,1
DA:695,1
DA:697,1
DA:698,3
DA:700,0
DA:701,0
DA:702,0
DA:703,0
DA:704,0
DA:705,0
DA:706,0
DA:707,0
DA:710,0
DA:711,0
DA:713,0
DA:714,0
DA:715,0
DA:716,0
DA:717,0
DA:718,0
DA:719,0
DA:720,0
DA:721,0
DA:723,0
DA:724,0
DA:725,0
DA:726,0
DA:728,0
DA:729,0
DA:731,0
DA:733,0
DA:734,0
DA:735,0
DA:736,0
DA:737,0
DA:738,0
DA:739,0
DA:740,0
DA:741,0
DA:742,0
DA:744,0
DA:746,0
DA:747,0
DA:749,0
DA:750,0
DA:752,0
DA:753,0
DA:754,0
DA:755,0
DA:756,0
DA:758,0
DA:760,0
DA:762,0
DA:763,0
DA:764,0
DA:766,0
DA:767,0
DA:769,0
DA:770,0
DA:771,0
DA:772,0
DA:773,0
DA:775,0
DA:776,0
DA:777,0
DA:778,0
DA:780,0
DA:782,0
DA:784,0
DA:785,0
DA:786,0
DA:787,0
DA:788,0
DA:789,0
DA:791,0
DA:792,0
DA:794,0
DA:795,0
DA:796,0
DA:797,0
DA:798,0
DA:800,0
DA:802,0
DA:804,0
DA:805,0
DA:806,0
DA:808,0
DA:809,0
DA:811,0
DA:812,0
DA:813,0
DA:814,0
DA:815,0
DA:817,0
DA:818,0
DA:819,0
DA:821,0
DA:823,0
DA:825,0
DA:826,0
DA:827,0
DA:828,0
DA:829,0
DA:830,0
DA:831,0
DA:833,0
DA:834,0
DA:838,2
DA:839,2
DA:840,2
DA:841,6
DA:842,4
DA:843,4
DA:845,0
DA:847,4
DA:849,6
DA:850,4
DA:851,4
DA:852,2
DA:853,2
DA:854,2
DA:855,2
DA:856,2
DA:858,6
DA:859,6
DA:860,0
DA:861,6
DA:862,6
DA:863,3
DA:864,3
DA:865,0
DA:866,0
DA:867,0
DA:868,0
DA:869,0
DA:870,0
DA:871,0
DA:873,6
DA:875,0
DA:876,0
DA:877,0
DA:878,0
DA:879,0
DA:880,0
DA:881,0
DA:882,0
DA:883,0
DA:884,0
DA:885,0
DA:886,0
DA:887,0
DA:888,0
DA:889,0
DA:890,0
DA:891,0
DA:892,1
DA:893,1
DA:894,1
DA:895,0
DA:896,0
DA:897,0
DA:898,0
DA:899,0
DA:900,0
DA:929,5
DA:930,5
DA:931,5
DA:932,5
DA:933,5
DA:934,5
DA:935,5
DA:936,5
DA:937,5
DA:938,5
DA:939,5
DA:940,5
DA:941,5
DA:942,5
DA:943,5
DA:944,5
DA:945,5
DA:946,5
DA:947,5
DA:948,5
DA:949,5
DA:950,5
DA:951,5
DA:952,5
DA:953,5
DA:954,5
DA:955,5
DA:956,5
DA:960,22
DA:961,22
DA:962,22
DA:964,22
DA:965,21
DA:966,1
DA:967,0
DA:968,0
DA:969,0
DA:970,0
DA:971,0
DA:973,0
DA:976,0
DA:978,22
DA:981,0
DA:982,0
DA:983,0
DA:985,5
DA:988,6
DA:989,0
DA:990,0
DA:991,0
DA:992,0
DA:993,0
DA:994,6
DA:997,6
DA:998,6
DA:1001,6
DA:1003,2
DA:1004,4
DA:1006,4
DA:1007,4
DA:1009,4
DA:1011,4
DA:1014,6
DA:1015,4
DA:1016,4
DA:1017,3
DA:1018,3
DA:1019,3
DA:1020,3
DA:1023,3
DA:1024,3
DA:1026,3
DA:1027,3
DA:1028,3
DA:1029,0
DA:1030,1
DA:1031,1
DA:1032,1
DA:1033,1
DA:1034,0
DA:1035,0
DA:1036,0
DA:1038,5
DA:1040,3
DA:1044,5
DA:1045,1
DA:1046,4
DA:1049,4
DA:1050,0
DA:1051,0
DA:1052,0
DA:1053,0
DA:1054,4
DA:1057,4
DA:1058,4
DA:1060,4
DA:1063,4
DA:1064,1
DA:1065,2
DA:1066,2
DA:1067,2
DA:1068,1
DA:1069,1
DA:1070,1
DA:1071,3
DA:1073,3
DA:1074,3
DA:1076,3
DA:1078,2
DA:1079,2
DA:1080,2
DA:1081,1
DA:1082,1
DA:1083,1
DA:1084,1
DA:1086,1
DA:1087,1
DA:1088,1
DA:1089,1
DA:1091,1
DA:1092,1
DA:1093,1
DA:1094,0
DA:1095,2
DA:1097,0
DA:1098,0
DA:1099,0
DA:1100,0
DA:1101,0
DA:1102,0
DA:1103,0
DA:1104,2
DA:1105,2
DA:1106,2
DA:1108,3
DA:1110,0
DA:1112,0
DA:1113,0
DA:1114,0
DA:1115,0
DA:1116,0
DA:1117,0
DA:1118,0
DA:1119,0
DA:1121,0
DA:1122,0
DA:1124,0
DA:1125,0
DA:1126,0
DA:1127,0
DA:1129,0
DA:1130,0
DA:1131,0
DA:1132,0
DA:1133,0
DA:1134,0
DA:1135,0
DA:1136,0
DA:1137,0
DA:1138,0
DA:1140,0
DA:1141,0
DA:1143,0
DA:1144,0
DA:1145,0
DA:1146,0
DA:1147,0
DA:1149,0
DA:1150,0
DA:1151,0
DA:1153,0
DA:1154,0
DA:1155,0
DA:1156,0
DA:1157,0
DA:1158,0
DA:1159,0
DA:1160,0
DA:1161,0
DA:1162,0
DA:1163,0
DA:1164,0
DA:1165,0
DA:1166,0
DA:1167,0
DA:1168,0
DA:1169,0
DA:1170,0
DA:1171,0
DA:1172,0
DA:1173,0
DA:1175,0
DA:1177,0
DA:1178,0
DA:1179,0
DA:1180,0
DA:1181,0
DA:1182,0
DA:1183,0
DA:1184,0
DA:1185,0
DA:1187,0
DA:1188,0
DA:1189,0
DA:1190,0
DA:1192,0
DA:1194,0
DA:1195,0
DA:1197,0
DA:1198,0
DA:1199,0
DA:1200,0
DA:1201,0
DA:1202,0
DA:1204,0
DA:1205,0
DA:1207,0
DA:1208,0
DA:1210,0
DA:1211,0
DA:1212,0
DA:1213,0
DA:1215,0
DA:1217,0
DA:1218,0
DA:1219,0
DA:1220,0
DA:1221,0
DA:1224,0
DA:1225,0
DA:1227,0
DA:1228,0
DA:1229,0
DA:1230,0
DA:1232,0
DA:1234,0
DA:1235,0
DA:1236,0
DA:1237,0
DA:1238,0
DA:1241,0
DA:1242,0
DA:1244,0
DA:1245,0
DA:1246,0
DA:1247,0
DA:1249,0
DA:1251,0
DA:1252,0
DA:1253,0
DA:1254,0
DA:1255,0
DA:1256,0
DA:1257,0
DA:1260,0
DA:1261,0
DA:1262,0
DA:1264,0
DA:1265,0
DA:1267,0
DA:1268,0
DA:1269,0
DA:1270,0
DA:1272,0
DA:1274,0
DA:1275,0
DA:1276,0
DA:1277,0
DA:1278,0
DA:1279,0
DA:1280,0
DA:1283,0
DA:1284,0
DA:1285,0
DA:1287,0
DA:1288,0
DA:1292,4
DA:1294,4
DA:1295,10
DA:1296,6
DA:1297,6
DA:1298,4
DA:1301,4
DA:1302,10
DA:1303,6
DA:1304,6
DA:1305,4
DA:1308,4
DA:1309,4
DA:1312,4
DA:1313,4
DA:1314,4
DA:1315,4
DA:1316,4
DA:1317,4
DA:1318,4
DA:1319,4
DA:1320,4
DA:1322,4
DA:1323,4
DA:1325,8
DA:1326,8
DA:1327,0
DA:1328,8
DA:1330,8
DA:1331,5
DA:1332,3
DA:1333,0
DA:1334,0
DA:1335,0
DA:1336,0
DA:1337,0
DA:1338,0
DA:1339,0
DA:1341,8
DA:1343,1
DA:1344,1
DA:1345,1
DA:1346,1
DA:1347,1
DA:1348,1
DA:1349,1
DA:1350,1
DA:1351,1
DA:1352,1
DA:1353,1
DA:1355,0
DA:1356,0
DA:1357,0
DA:1359,1
DA:1360,1
DA:1361,1
DA:1363,1
DA:1364,1
DA:1365,1
DA:1367,0
DA:1368,0
DA:1369,0
DA:1383,6
DA:1384,6
DA:1385,6
DA:1386,6
DA:1387,6
DA:1388,6
DA:1389,6
DA:1390,6
DA:1391,6
DA:1392,6
DA:1393,6
DA:1394,6
DA:1395,6
DA:1396,6
DA:1397,6
DA:1398,6
DA:1402,5
DA:1403,5
DA:1404,16
DA:1405,11
DA:1406,11
DA:1407,5
DA:1408,10
DA:1409,10
DA:1410,10
DA:1411,10
DA:1412,10
DA:1413,10
DA:1414,10
DA:1415,10
DA:1416,10
DA:1417,10
DA:1418,10
DA:1419,7
DA:1420,3
DA:1421,0
DA:1423,10
DA:1424,10
DA:1425,10
DA:1426,0
DA:1428,0
DA:1429,10
DA:1430,5
DA:1431,5
DA:1432,5
DA:1433,5
DA:1435,14
DA:1436,14
DA:1437,0
DA:1438,14
DA:1439,14
DA:1440,4
DA:1441,10
DA:1442,10
DA:1443,10
DA:1444,10
DA:1445,14
DA:1447,1
DA:1448,1
DA:1449,1
DA:1450,1
DA:1451,1
DA:1452,1
DA:1453,0
DA:1454,0
DA:1455,0
DA:1456,1
DA:1457,1
DA:1458,1
DA:1460,1
DA:1461,1
DA:1462,1
DA:1464,0
DA:1465,0
DA:1466,0
DA:1490,6
DA:1491,6
DA:1492,6
DA:1493,6
DA:1494,6
DA:1495,6
DA:1496,6
DA:1497,6
DA:1498,6
DA:1499,6
DA:1500,6
DA:1501,6
DA:1502,6
DA:1503,6
DA:1504,6
DA:1505,6
DA:1506,6
DA:1507,6
DA:1508,6
DA:1509,6
DA:1510,6
DA:1511,6
DA:1512,6
DA:1513,6
DA:1515,7
DA:1517,7
DA:1518,1
DA:1519,6
DA:1521,6
DA:1522,6
DA:1524,6
DA:1525,6
DA:1526,6
DA:1527,6
DA:1528,4
DA:1529,4
DA:1530,4
DA:1531,6
DA:1533,7
DA:1535,2
DA:1537,2
DA:1538,0
DA:1539,2
DA:1541,2
DA:1543,2
DA:1544,2
DA:1545,2
DA:1547,2
DA:1548,2
DA:1549,2
DA:1550,2
DA:1552,0
DA:1553,0
DA:1554,0
DA:1555,0
DA:1556,0
DA:1557,0
DA:1560,2
DA:1562,1
DA:1564,1
DA:1565,0
DA:1566,0
DA:1567,0
DA:1568,0
DA:1569,0
DA:1570,0
DA:1571,0
DA:1573,0
DA:1574,1
DA:1576,1
DA:1577,1
DA:1578,1
DA:1580,1
DA:1581,1
DA:1583,1
DA:1584,1
DA:1585,1
DA:1586,1
DA:1587,1
DA:1588,1
DA:1589,0
DA:1591,0
DA:1593,1
DA:1595,0
DA:1597,0
DA:1598,0
DA:1600,0
DA:1601,0
DA:1602,0
DA:1604,0
DA:1605,0
DA:1606,0
DA:1607,0
DA:1608,0
DA:1609,0
DA:1610,0
DA:1611,0
DA:1613,0
DA:1614,0
DA:1615,0
DA:1616,0
DA:1617,0
DA:1618,0
DA:1620,0
DA:1622,0
DA:1623,0
DA:1624,0
DA:1625,0
DA:1626,0
DA:1627,0
DA:1628,0
DA:1629,0
DA:1632,0
DA:1634,0
DA:1636,4
DA:1638,4
DA:1639,1
DA:1640,3
DA:1642,3
DA:1643,3
DA:1645,3
DA:1646,3
DA:1647,3
DA:1648,3
DA:1649,1
DA:1650,1
DA:1651,2
DA:1652,3
DA:1654,4
DA:1658,6
DA:1659,6
DA:1660,14
DA:1661,8
DA:1662,8
DA:1663,6
DA:1665,6
DA:1666,16
DA:1667,10
DA:1668,10
DA:1669,10
DA:1670,6
DA:1672,6
DA:1673,6
DA:1674,6
DA:1675,6
DA:1676,6
DA:1678,14
DA:1679,14
DA:1680,0
DA:1681,14
DA:1683,14
DA:1684,7
DA:1685,2
DA:1686,1
DA:1687,0
DA:1688,4
DA:1689,0
DA:1691,14
DA:1693,1
DA:1694,1
DA:1695,1
DA:1696,1
DA:1697,1
DA:1698,1
DA:1699,1
DA:1701,0
DA:1702,0
DA:1703,0
DA:1705,1
DA:1706,1
DA:1707,1
DA:1709,0
DA:1710,0
DA:1711,0
DA:1713,0
DA:1714,0
DA:1715,0
DA:1740,3
DA:1741,3
DA:1742,3
DA:1743,3
DA:1744,3
DA:1745,3
DA:1746,3
DA:1747,3
DA:1748,3
DA:1749,3
DA:1750,3
DA:1751,3
DA:1752,3
DA:1753,3
DA:1754,3
DA:1755,3
DA:1756,3
DA:1757,3
DA:1758,3
DA:1759,3
DA:1760,3
DA:1761,3
DA:1762,3
DA:1763,3
DA:1764,3
DA:1765,3
DA:1766,3
DA:1767,3
DA:1769,29
DA:1770,29
DA:1771,29
DA:1773,15
DA:1774,15
DA:1775,15
DA:1776,0
DA:1777,0
DA:1779,15
DA:1783,2
DA:1784,2
DA:1785,2
DA:1787,7
DA:1788,5
DA:1789,5
DA:1790,7
DA:1791,5
DA:1792,5
DA:1793,5
DA:1795,2
DA:1796,3
DA:1797,2
DA:1798,3
DA:1800,2
DA:1801,2
DA:1802,2
DA:1803,2
DA:1804,2
DA:1805,2
DA:1806,2
DA:1807,2
DA:1808,2
DA:1809,2
DA:1811,6
DA:1812,6
DA:1813,0
DA:1814,6
DA:1816,6
DA:1817,3
DA:1818,3
DA:1819,0
DA:1820,0
DA:1821,0
DA:1822,0
DA:1824,6
DA:1826,0
DA:1827,0
DA:1828,0
DA:1829,0
DA:1830,0
DA:1831,0
DA:1832,0
DA:1833,0
DA:1834,0
DA:1836,0
DA:1837,0
DA:1838,0
DA:1840,1
DA:1841,1
DA:1842,1
DA:1844,0
DA:1845,0
DA:1846,0
DA:1848,0
DA:1849,0
DA:1850,0
DA:1854,3
DA:1855,6
DA:1856,5
DA:1857,5
DA:1858,5
DA:1859,5
DA:1861,5
DA:1863,2
DA:1864,2
DA:1865,2
DA:1866,2
DA:1868,3
DA:1869,3
DA:1870,3
DA:1871,0
DA:1872,0
DA:1873,0
DA:1876,1
DA:1877,3
DA:1879,3
DA:1880,4
DA:1881,3
DA:1882,3
DA:1884,5
DA:1885,4
DA:1886,4
DA:1888,4
DA:1890,1
DA:1891,1
DA:1892,1
DA:1893,1
DA:1894,1
DA:1895,1
DA:1898,1
DA:1900,2
DA:1901,2
DA:1902,2
DA:1906,2
DA:1907,1
DA:1908,2
DA:1909,2
DA:1910,2
DA:1911,1
DA:1912,1
DA:1913,1
DA:1914,1
DA:1915,1
DA:1917,1
DA:1918,1
DA:1919,1
DA:1921,1
DA:1922,3
DA:1924,0
DA:1926,0
DA:1927,0
DA:1928,0
DA:1929,0
DA:1930,0
DA:1931,0
DA:1932,0
DA:1933,0
DA:1935,0
DA:1936,0
DA:1938,0
DA:1939,0
DA:1940,0
DA:1942,0
DA:1943,0
DA:1944,0
DA:1946,0
DA:1948,0
DA:1949,0
DA:1950,0
DA:1951,0
DA:1952,0
DA:1953,0
DA:1956,0
DA:1958,0
DA:1959,0
DA:1960,0
DA:1964,0
DA:1965,0
DA:1966,0
DA:1967,0
DA:1968,0
DA:1969,0
DA:1971,0
DA:1972,0
DA:1973,0
DA:1976,0
DA:1978,0
DA:1980,0
DA:1981,0
DA:1982,0
DA:1983,0
DA:1984,0
DA:1985,0
DA:1986,0
DA:1987,0
DA:1988,0
DA:1990,0
DA:1991,0
DA:1992,0
DA:1993,0
DA:1995,0
DA:1997,0
DA:1998,0
DA:2000,0
DA:2001,0
DA:2002,0
DA:2003,0
DA:2004,0
DA:2005,0
DA:2007,0
DA:2008,0
DA:2010,0
DA:2011,0
DA:2025,0
DA:2026,0
DA:2027,0
DA:2028,0
DA:2029,0
DA:2030,0
DA:2031,0
DA:2032,0
DA:2033,0
DA:2034,0
DA:2035,0
DA:2037,0
DA:2038,0
DA:2039,0
DA:2041,0
DA:2042,0
DA:2043,0
DA:2047,0
DA:2048,0
DA:2049,0
DA:2051,0
DA:2052,0
DA:2053,0
DA:2057,0
DA:2058,0
DA:2059,0
DA:2060,0
DA:2061,0
DA:2062,0
DA:2063,0
DA:2064,0
DA:2066,0
DA:2067,0
DA:2068,0
DA:2070,0
DA:2071,0
DA:2072,0
DA:2073,0
DA:2074,0
DA:2076,0
DA:2077,0
DA:2079,0
DA:2082,0
DA:2086,0
DA:2087,0
DA:2088,0
DA:2089,0
DA:2091,0
DA:2094,0
DA:2095,0
DA:2097,0
DA:2098,0
DA:2099,0
DA:2100,0
DA:2101,0
DA:2102,0
DA:2103,0
DA:2104,0
DA:2105,0
DA:2106,0
DA:2107,0
DA:2108,0
DA:2109,0
DA:2110,0
DA:2111,0
DA:2112,0
DA:2113,0
DA:2125,0
DA:2126,0
DA:2127,0
DA:2128,0
DA:2129,0
DA:2130,0
DA:2131,0
DA:2132,0
DA:2133,0
DA:2137,0
DA:2138,0
DA:2139,0
DA:2140,0
DA:2141,0
DA:2142,0
DA:2143,0
DA:2144,0
DA:2145,0
DA:2146,0
DA:2147,0
DA:2149,0
DA:2150,0
DA:2151,0
DA:2152,0
DA:2153,0
DA:2154,0
DA:2155,0
DA:2157,0
DA:2158,0
DA:2159,0
DA:2160,0
DA:2161,0
DA:2162,0
DA:2163,0
DA:2164,0
DA:2165,0
DA:2166,0
DA:2167,0
DA:2168,0
DA:2169,0
DA:2170,0
DA:2171,0
DA:2172,0
DA:2173,0
DA:2189,0
DA:2190,0
DA:2191,0
DA:2192,0
DA:2193,0
DA:2194,0
DA:2195,0
DA:2196,0
DA:2197,0
DA:2198,0
DA:2199,0
DA:2200,0
DA:2201,0
DA:2202,0
DA:2203,0
DA:2204,0
DA:2205,0
DA:2206,0
DA:2207,0
DA:2209,0
DA:2210,0
DA:2211,0
DA:2213,0
DA:2214,0
DA:2215,0
DA:2217,0
DA:2219,0
DA:2220,0
DA:2221,0
DA:2222,0
DA:2223,0
DA:2224,0
DA:2225,0
DA:2226,0
DA:2227,0
DA:2228,0
DA:2229,0
DA:2230,0
DA:2231,0
DA:2232,0
DA:2234,0
DA:2238,0
DA:2239,0
DA:2240,0
DA:2241,0
DA:2242,0
DA:2243,0
DA:2244,0
DA:2245,0
DA:2247,0
DA:2248,0
DA:2249,0
DA:2251,0
DA:2252,0
DA:2253,0
DA:2254,0
DA:2255,0
DA:2257,0
DA:2258,0
DA:2260,0
DA:2261,0
DA:2265,0
DA:2266,0
DA:2268,0
DA:2269,0
DA:2271,0
DA:2272,0
DA:2273,0
DA:2274,0
DA:2275,0
DA:2278,0
DA:2280,0
DA:2283,0
DA:2285,0
DA:2288,0
DA:2291,0
DA:2292,0
DA:2294,0
DA:2295,0
DA:2296,0
DA:2297,0
DA:2298,0
DA:2299,0
DA:2300,0
DA:2301,0
DA:2302,0
DA:2303,0
DA:2304,0
DA:2305,0
DA:2306,0
DA:2307,0
DA:2308,0
DA:2309,0
DA:2310,0
DA:2314,0
DA:2315,0
DA:2316,0
DA:2318,0
DA:2319,0
DA:2320,0
DA:2333,1
DA:2334,1
DA:2335,1
DA:2336,1
DA:2337,1
DA:2338,1
DA:2339,1
DA:2340,1
DA:2341,1
DA:2342,1
DA:2343,1
DA:2344,1
DA:2345,1
DA:2346,1
DA:2347,1
DA:2351,1
DA:2352,1
DA:2353,1
DA:2354,1
DA:2355,1
DA:2356,1
DA:2358,3
DA:2359,3
DA:2360,0
DA:2361,3
DA:2362,5
DA:2363,2
DA:2364,0
DA:2365,2
DA:2366,2
DA:2368,3
DA:2369,1
DA:2370,2
DA:2371,2
DA:2372,2
DA:2373,2
DA:2374,2
DA:2375,2
DA:2376,3
DA:2378,0
DA:2379,0
DA:2380,0
DA:2381,0
DA:2382,0
DA:2383,0
DA:2384,0
DA:2385,0
DA:2386,0
DA:2387,0
DA:2388,0
DA:2389,0
DA:2390,0
DA:2391,0
DA:2392,0
DA:2393,0
DA:2394,0
DA:2402,0
DA:2403,0
DA:2404,0
DA:2406,0
DA:2407,0
DA:2408,0
DA:2409,0
DA:2410,0
DA:2411,0
DA:2412,0
DA:2413,0
DA:2414,0
DA:2415,0
DA:2416,0
DA:2417,0
DA:2418,0
DA:2419,0
DA:2420,0
DA:2421,0
DA:2422,0
DA:2424,0
DA:2426,0
DA:2427,0
DA:2428,0
DA:2429,0
DA:2430,0
DA:2431,0
DA:2433,0
DA:2434,0
DA:2435,0
DA:2436,0
DA:2437,0
DA:2438,0
DA:2439,0
DA:2440,0
DA:2441,0
DA:2442,0
DA:2443,0
DA:2444,0
DA:2445,0
DA:2446,0
DA:2447,0
DA:2448,0
DA:2449,0
DA:2450,0
DA:2451,0
DA:2452,0
DA:2454,0
DA:2455,0
DA:2456,0
DA:2457,0
DA:2458,0
DA:2459,0
DA:2460,0
DA:2461,0
DA:2462,0
DA:2463,0
DA:2464,0
DA:2465,0
DA:2466,0
DA:2468,0
DA:2469,0
DA:2470,0
DA:2471,0
DA:2472,0
DA:2473,0
DA:2474,0
DA:2475,0
DA:2476,0
DA:2477,0
DA:2478,0
DA:2479,0
DA:2480,0
DA:2481,0
DA:2482,0
DA:2483,0
DA:2484,0
DA:2485,0
DA:2486,0
DA:2487,0
DA:2488,0
DA:2489,0
DA:2491,0
DA:2492,0
DA:2493,0
DA:2494,0
DA:2495,0
DA:2496,0
DA:2497,0
DA:2498,0
DA:2499,0
DA:2500,0
DA:2501,0
DA:2502,0
DA:2503,0
DA:2504,0
DA:2505,0
DA:2507,0
DA:2510,0
DA:2518,0
DA:2519,0
DA:2520,0
DA:2521,0
DA:2522,0
DA:2523,0
DA:2524,0
DA:2525,0
DA:2527,0
DA:2530,0
DA:2531,0
DA:2532,0
DA:2533,0
DA:2534,0
DA:2535,0
DA:2536,0
DA:2537,0
DA:2538,0
DA:2540,0
DA:2541,0
DA:2542,0
DA:2543,0
DA:2544,0
DA:2545,0
DA:2546,0
DA:2548,0
DA:2549,0
DA:2550,0
DA:2551,0
DA:2552,0
DA:2553,0
DA:2554,0
DA:2555,0
DA:2556,0
DA:2557,0
DA:2558,0
DA:2559,0
DA:2560,0
DA:2561,0
DA:2562,0
DA:2563,0
DA:2564,0
DA:2565,0
DA:2566,0
DA:2567,0
DA:2569,0
DA:2570,0
DA:2571,0
DA:2572,0
DA:2573,0
DA:2574,0
DA:2575,0
DA:2576,0
DA:2577,0
DA:2578,0
DA:2579,0
DA:2580,0
DA:2581,0
DA:2582,0
DA:2583,0
DA:2584,0
DA:2585,0
DA:2586,0
DA:2587,0
DA:2588,0
DA:2590,0
DA:2591,0
DA:2592,0
DA:2593,0
DA:2594,0
DA:2595,0
DA:2596,0
DA:2597,0
DA:2598,0
DA:2599,0
DA:2600,0
DA:2601,0
DA:2602,0
DA:2603,0
DA:2604,0
DA:2605,0
DA:2606,0
DA:2607,0
DA:2608,0
DA:2609,0
DA:2610,0
DA:2611,0
DA:2612,0
DA:2614,0
DA:2615,0
DA:2616,0
DA:2617,0
DA:2618,0
DA:2619,0
DA:2620,0
DA:2621,0
DA:2622,0
DA:2623,0
DA:2624,0
DA:2625,0
DA:2626,0
DA:2627,0
DA:2628,0
DA:2629,0
DA:2630,0
DA:2631,0
DA:2633,0
DA:2634,0
DA:2635,0
DA:2636,0
DA:2637,0
DA:2638,0
DA:2639,0
DA:2640,0
DA:2641,0
DA:2642,0
DA:2643,0
DA:2644,0
DA:2645,0
DA:2646,0
DA:2647,0
DA:2648,0
DA:2649,0
DA:2650,0
DA:2651,0
DA:2652,0
DA:2654,0
DA:2655,0
DA:2656,0
DA:2657,0
DA:2658,0
DA:2659,0
DA:2660,0
DA:2661,0
DA:2662,0
DA:2663,0
DA:2664,0
DA:2665,0
DA:2667,0
DA:2668,0
DA:2669,0
DA:2670,0
DA:2671,0
DA:2672,0
DA:2673,0
DA:2674,0
DA:2675,0
DA:2681,0
DA:2682,0
DA:2683,0
DA:2684,0
DA:2685,0
DA:2686,0
DA:2687,0
DA:2695,9
DA:2696,9
DA:2697,9
DA:2698,9
DA:2699,9
DA:2701,5
DA:2702,5
DA:2703,5
DA:2704,5
DA:2708,0
DA:2709,0
DA:2710,0
DA:2714,6
DA:2715,6
DA:2716,6
DA:2726,2
DA:2727,2
DA:2728,2
DA:2731,0
DA:2732,0
DA:2733,0
DA:2736,0
DA:2737,0
DA:2738,0
DA:2739,1
DA:2740,1
DA:2741,1
DA:2742,1
DA:2743,1
DA:2744,1
DA:2748,1
DA:2749,1
DA:2750,1
DA:2751,1
DA:2752,1
DA:2753,1
DA:2754,1
DA:2757,1
DA:2758,1
DA:2759,1
DA:2760,1
DA:2761,1
DA:2764,1
DA:2765,1
DA:2766,1
DA:2767,1
DA:2769,1
DA:2770,1
DA:2771,1
DA:2774,1
DA:2775,2
DA:2776,1
DA:2777,1
DA:2778,1
DA:2781,1
DA:2782,1
DA:2783,1
DA:2792,22
DA:2793,22
DA:2794,22
DA:2795,22
DA:2796,22
DA:2797,22
DA:2798,22
DA:2799,22
DA:2800,22
DA:2801,22
DA:2802,22
DA:2803,22
DA:2804,22
DA:2805,22
DA:2807,43
DA:2808,43
DA:2809,43
DA:2810,43
DA:2811,43
DA:2812,43
DA:2813,43
DA:2814,43
DA:2817,0
DA:2818,0
DA:2819,0
DA:2822,51
DA:2823,51
DA:2824,51
DA:2825,51
DA:2826,51
DA:2827,135
DA:2828,135
DA:2829,2
DA:2830,133
DA:2831,133
DA:2832,44
DA:2833,89
DA:2834,89
DA:2835,89
DA:2836,89
DA:2837,135
DA:2838,35
DA:2839,35
DA:2840,35
DA:2841,35
DA:2842,2
DA:2843,2
DA:2844,2
DA:2845,1
DA:2846,1
DA:2847,1
DA:2848,3
DA:2849,3
DA:2850,3
DA:2851,1
DA:2852,1
DA:2853,1
DA:2857,1
DA:2858,1
DA:2859,1
DA:2860,1
DA:2861,1
DA:2862,1
DA:2863,1
DA:2864,1
DA:2865,1
DA:2866,1
DA:2867,1
DA:2868,1
DA:2869,1
DA:2870,1
DA:2871,1
DA:2872,1
DA:2873,1
DA:2876,1
DA:2877,1
DA:2878,1
DA:2879,1
DA:2881,1
DA:2882,1
DA:2883,1
DA:2884,1
DA:2886,1
DA:2887,1
DA:2888,1
DA:2889,1
DA:2890,1
DA:2892,1
DA:2893,1
DA:2894,1
DA:2895,1
DA:2897,1
DA:2898,1
DA:2899,1
DA:2900,1
DA:2901,1
DA:2903,1
DA:2904,2
DA:2905,1
DA:2906,1
DA:2907,1
DA:2910,1
DA:2911,1
DA:2912,1
DA:2913,1
DA:2914,1
DA:2915,1
DA:2918,1
DA:2919,1
DA:2920,1
DA:2921,1
DA:2922,1
DA:2923,1
DA:2924,1
DA:2925,1
DA:2927,1
DA:2930,1
DA:2931,1
DA:2932,1
DA:2933,1
DA:2934,1
DA:2935,1
DA:2938,1
DA:2939,1
DA:2940,1
DA:2941,1
DA:2942,1
DA:2945,1
DA:2946,1
DA:2947,1
DA:2948,1
DA:2949,1
DA:2952,1
DA:2953,1
DA:2954,1
DA:2955,1
DA:2956,1
DA:2959,1
DA:2960,1
DA:2961,1
DA:2962,1
DA:2963,1
DA:2965,1
DA:2966,1
DA:2967,1
DA:2968,1
DA:2971,1
DA:2972,1
DA:2973,1
DA:2974,1
DA:2975,1
DA:2978,1
DA:2979,1
DA:2980,1
DA:2981,1
DA:2982,1
DA:2983,1
DA:2984,1
DA:2985,1
DA:2988,1
DA:2989,1
DA:2990,1
DA:2991,1
DA:2992,1
DA:2995,1
DA:2996,1
DA:2997,1
DA:2998,1
DA:2999,1
DA:3001,1
DA:3002,1
DA:3003,1
DA:3004,1
DA:3007,1
DA:3008,1
DA:3009,1
DA:3010,1
DA:3013,1
DA:3014,1
DA:3015,1
DA:3016,1
DA:3017,1
DA:3018,1
DA:3022,1
DA:3023,1
DA:3024,1
DA:3027,1
DA:3028,1
DA:3029,1
DA:3030,1
DA:3031,1
DA:3034,1
DA:3037,1
DA:3038,1
DA:3039,1
DA:3040,1
DA:3041,1
DA:3042,1
DA:3045,1
DA:3046,1
DA:3048,1
DA:3049,4
DA:3050,1
DA:3051,1
DA:3054,1
DA:3055,1
DA:3056,1
DA:3057,1
DA:3060,1
DA:3061,1
DA:3062,1
DA:3064,1
DA:3065,1
DA:3066,1
DA:3067,1
DA:3069,1
DA:3070,1
DA:3072,1
DA:3073,1
DA:3074,1
DA:3075,1
DA:3078,1
DA:3079,1
DA:3080,1
DA:3081,1
DA:3084,1
DA:3085,1
DA:3086,1
DA:3088,1
DA:3089,1
DA:3090,1
DA:3092,1
DA:3093,1
DA:3094,1
DA:3097,1
DA:3098,1
DA:3100,1
DA:3101,1
DA:3102,1
DA:3105,1
DA:3106,1
DA:3108,1
DA:3109,1
DA:3110,1
DA:3111,1
DA:3112,1
DA:3114,1
DA:3115,1
DA:3117,1
DA:3118,1
DA:3119,1
DA:3122,1
DA:3123,1
DA:3124,1
DA:3125,1
DA:3126,1
DA:3128,1
DA:3129,1
DA:3130,1
DA:3133,1
DA:3134,1
DA:3135,1
DA:3136,1
DA:3137,1
DA:3138,1
DA:3139,1
DA:3142,1
DA:3144,1
DA:3145,1
DA:3147,3
DA:3148,1
DA:3149,1
DA:3152,1
DA:3153,1
DA:3154,1
DA:3155,1
DA:3156,1
DA:3159,1
DA:3160,1
DA:3161,1
DA:3163,1
DA:3164,1
DA:3165,1
DA:3168,1
DA:3169,1
DA:3170,1
DA:3171,1
DA:3172,1
DA:3173,1
DA:3174,1
DA:3175,1
DA:3177,1
DA:3178,1
DA:3179,1
DA:3180,1
DA:3181,1
DA:3182,1
DA:3183,1
DA:3185,1
DA:3187,3
DA:3188,1
DA:3189,1
DA:3192,1
DA:3193,1
DA:3194,1
DA:3195,1
DA:3196,1
DA:3199,1
DA:3200,1
DA:3201,1
DA:3203,1
DA:3204,1
DA:3205,1
DA:3208,1
DA:3209,1
DA:3210,1
DA:3211,1
DA:3212,1
DA:3213,1
DA:3214,1
DA:3215,1
DA:3216,1
DA:3217,1
DA:3219,1
DA:3220,1
DA:3221,1
DA:3222,1
DA:3223,1
DA:3224,1
DA:3225,1
DA:3227,1
DA:3229,3
DA:3230,1
DA:3231,1
DA:3234,1
DA:3235,1
DA:3237,1
DA:3238,1
DA:3240,1
DA:3241,1
DA:3242,1
DA:3243,1
DA:3244,1
DA:3245,1
DA:3247,1
DA:3248,1
DA:3249,1
DA:3250,1
DA:3251,1
DA:3252,1
DA:3253,1
DA:3255,1
DA:3257,1
DA:3258,1
DA:3259,1
DA:3262,1
DA:3263,1
DA:3264,1
DA:3265,1
DA:3267,1
DA:3268,1
DA:3269,1
DA:3272,1
DA:3273,1
DA:3274,1
DA:3275,1
DA:3277,1
DA:3278,1
DA:3279,1
DA:3282,1
DA:3283,1
DA:3284,1
DA:3286,1
DA:3287,1
DA:3288,1
DA:3290,1
DA:3291,1
DA:3292,1
DA:3293,1
DA:3294,1
DA:3297,1
DA:3298,1
DA:3299,1
DA:3300,1
DA:3301,1
DA:3302,1
DA:3303,1
DA:3305,1
DA:3307,3
DA:3308,1
DA:3309,1
DA:3312,1
DA:3313,1
DA:3314,1
DA:3315,1
DA:3317,1
DA:3318,1
DA:3319,1
DA:3322,1
DA:3323,1
DA:3324,1
DA:3326,1
DA:3327,1
DA:3328,1
DA:3330,1
DA:3331,1
DA:3332,1
DA:3333,1
DA:3334,1
DA:3337,1
DA:3338,1
DA:3339,1
DA:3340,1
DA:3341,1
DA:3342,1
DA:3343,1
DA:3345,1
DA:3347,3
DA:3348,1
DA:3349,1
DA:3352,1
DA:3353,1
DA:3354,1
DA:3355,1
DA:3356,1
DA:3357,1
DA:3359,1
DA:3360,1
DA:3361,1
DA:3362,1
DA:3363,1
DA:3364,1
DA:3365,1
DA:3367,1
DA:3368,1
DA:3371,1
DA:3372,1
DA:3373,1
DA:3374,1
DA:3375,1
DA:3377,1
DA:3378,1
DA:3379,1
DA:3380,1
DA:3383,1
DA:3384,1
DA:3385,1
DA:3387,1
DA:3388,1
DA:3389,1
DA:3391,1
DA:3392,1
DA:3393,1
DA:3394,1
DA:3395,1
DA:3398,1
DA:3399,1
DA:3400,1
DA:3401,1
DA:3402,1
DA:3403,1
DA:3404,1
DA:3406,1
DA:3408,3
DA:3409,1
DA:3410,1
DA:3411,1
DA:3412,1
DA:3413,1
DA:3414,1
DA:3417,1
DA:3418,1
DA:3419,1
DA:3420,1
DA:3422,1
DA:3423,1
DA:3424,1
DA:3427,1
DA:3428,1
DA:3429,1
DA:3431,1
DA:3432,1
DA:3433,1
DA:3435,1
DA:3436,1
DA:3437,1
DA:3438,1
DA:3439,1
DA:3442,1
DA:3443,1
DA:3444,1
DA:3445,1
DA:3446,1
DA:3447,1
DA:3448,1
DA:3450,1
DA:3452,3
DA:3453,1
DA:3454,1
DA:3457,1
DA:3458,1
DA:3459,1
DA:3460,1
DA:3461,1
DA:3462,1
DA:3464,1
DA:3465,1
DA:3466,1
DA:3467,1
DA:3468,1
DA:3469,1
DA:3470,1
DA:3472,1
DA:3473,1
DA:3476,1
DA:3477,1
DA:3478,1
DA:3479,1
DA:3480,1
DA:3483,1
DA:3484,1
DA:3486,1
DA:3487,1
DA:3488,1
DA:3489,1
DA:3490,1
DA:3492,1
DA:3493,1
DA:3495,4
DA:3496,1
DA:3497,1
DA:3498,1
DA:3499,1
DA:3500,1
DA:3503,1
DA:3504,1
DA:3505,1
DA:3506,1
DA:3507,1
DA:3510,1
DA:3511,1
DA:3513,1
DA:3514,1
DA:3515,1
DA:3516,1
DA:3517,1
DA:3519,1
DA:3520,1
DA:3522,4
DA:3523,1
DA:3524,1
DA:3525,1
DA:3526,1
DA:3527,1
DA:3530,1
DA:3531,1
DA:3532,1
DA:3533,1
DA:3534,1
DA:3537,1
DA:3538,1
DA:3540,1
DA:3541,1
DA:3542,1
DA:3543,1
DA:3544,1
DA:3545,1
DA:3546,1
DA:3548,1
DA:3549,1
DA:3551,4
DA:3552,1
DA:3553,1
DA:3554,1
DA:3557,1
DA:3558,1
DA:3560,1
DA:3561,1
DA:3563,1
DA:3564,1
DA:3565,1
DA:3566,1
DA:3567,1
DA:3569,1
DA:3570,1
DA:3572,1
DA:3573,1
DA:3574,1
DA:3577,1
DA:3578,1
DA:3579,1
DA:3580,1
DA:3582,1
DA:3583,1
DA:3584,1
DA:3587,1
DA:3588,1
DA:3589,1
DA:3590,1
DA:3593,1
DA:3594,1
DA:3596,1
DA:3597,1
DA:3598,1
DA:3599,1
DA:3600,1
DA:3602,1
DA:3603,1
DA:3604,1
DA:3605,1
DA:3606,1
DA:3607,1
DA:3610,1
DA:3611,1
DA:3612,1
DA:3613,1
DA:3614,1
DA:3617,1
DA:3618,1
DA:3619,1
DA:3621,1
DA:3622,1
DA:3623,1
DA:3626,1
DA:3627,1
DA:3628,1
DA:3629,1
DA:3630,1
DA:3631,1
DA:3632,1
DA:3633,1
DA:3634,1
DA:3635,1
DA:3637,1
DA:3638,1
DA:3639,1
DA:3640,1
DA:3641,1
DA:3642,1
DA:3643,1
DA:3645,1
DA:3647,3
DA:3648,1
DA:3649,1
DA:3652,1
DA:3653,1
DA:3654,1
DA:3655,1
DA:3656,1
DA:3659,1
DA:3660,1
DA:3661,1
DA:3663,1
DA:3664,1
DA:3665,1
DA:3666,1
DA:3669,1
DA:3670,1
DA:3671,1
DA:3672,1
DA:3673,1
DA:3674,1
DA:3675,1
DA:3676,1
DA:3677,1
DA:3678,1
DA:3679,1
DA:3680,1
DA:3681,1
DA:3682,1
DA:3683,1
DA:3684,1
DA:3685,1
DA:3686,1
DA:3689,1
DA:3690,1
DA:3691,1
DA:3692,1
DA:3693,1
DA:3694,1
DA:3695,1
DA:3697,1
DA:3699,3
DA:3700,1
DA:3701,1
DA:3706,1
DA:3708,1
DA:3709,1
DA:3710,1
DA:3712,1
DA:3713,1
DA:3714,1
DA:3717,1
DA:3718,1
DA:3719,1
DA:3721,1
DA:3722,1
DA:3723,1
DA:3725,1
DA:3726,1
DA:3727,1
DA:3728,1
DA:3729,1
DA:3732,1
DA:3733,1
DA:3734,1
DA:3735,1
DA:3736,1
DA:3737,1
DA:3738,1
DA:3741,1
DA:3743,3
DA:3745,1
DA:3746,1
DA:3749,1
DA:3751,1
DA:3752,1
DA:3753,1
DA:3755,1
DA:3756,1
DA:3757,1
DA:3760,1
DA:3761,1
DA:3762,1
DA:3764,1
DA:3765,1
DA:3766,1
DA:3768,1
DA:3769,1
DA:3770,1
DA:3771,1
DA:3772,1
DA:3775,1
DA:3776,1
DA:3777,1
DA:3778,1
DA:3779,1
DA:3780,1
DA:3781,1
DA:3784,1
DA:3786,3
DA:3788,1
DA:3790,1
DA:3791,1
DA:3794,1
DA:3796,1
DA:3797,1
DA:3798,1
DA:3799,1
DA:3801,1
DA:3802,1
DA:3803,1
DA:3804,1
DA:3805,1
DA:3808,1
DA:3809,1
DA:3810,1
DA:3811,1
DA:3812,1
DA:3813,1
DA:3814,1
DA:3817,1
DA:3819,1
DA:3820,1
DA:3821,1
DA:3824,1
DA:3825,1
DA:3826,1
DA:3827,1
DA:3828,1
DA:3829,1
DA:3831,1
DA:3832,1
DA:3833,1
DA:3834,1
DA:3835,1
DA:3836,1
DA:3837,1
DA:3839,1
DA:3840,1
DA:3843,1
DA:3844,1
DA:3845,1
DA:3846,1
DA:3848,1
DA:3849,1
DA:3850,1
DA:3852,1
DA:3853,1
DA:3854,1
DA:3855,1
DA:3856,1
DA:3859,1
DA:3860,1
DA:3861,1
DA:3862,1
DA:3863,1
DA:3864,1
DA:3865,1
DA:3868,1
DA:3869,1
DA:3870,1
DA:3871,1
DA:3872,1
DA:3875,1
DA:3877,1
DA:3878,1
DA:3879,1
DA:3880,1
DA:3882,1
DA:3883,1
DA:3884,1
DA:3885,1
DA:3887,1
DA:3888,1
DA:3889,1
DA:3890,1
DA:3893,1
DA:3894,1
DA:3895,1
DA:3896,1
DA:3897,1
DA:3902,1
DA:3903,1
DA:3904,1
DA:3905,1
DA:3907,1
DA:3908,1
DA:3909,1
DA:3912,1
DA:3913,1
DA:3914,1
DA:3915,1
DA:3916,1
DA:3919,1
DA:3920,1
DA:3921,1
DA:3922,1
DA:3923,1
DA:3924,1
DA:3925,1
DA:3928,1
DA:3929,1
DA:3932,1
DA:3933,1
DA:3934,1
DA:3935,1
DA:3937,1
DA:3938,1
DA:3939,1
DA:3940,1
DA:3942,1
DA:3943,1
DA:3944,1
DA:3945,1
DA:3947,1
DA:3948,1
DA:3949,1
DA:3950,1
DA:3952,1
DA:3953,1
DA:3954,1
DA:3957,1
DA:3958,1
DA:3959,1
DA:3960,1
DA:3961,1
DA:3962,1
DA:3963,1
DA:3964,1
DA:3967,1
DA:3968,1
DA:3969,1
DA:3970,1
DA:3971,1
DA:3974,1
DA:3975,1
DA:3976,1
DA:3977,1
DA:3978,1
DA:3979,1
DA:3980,1
DA:3983,1
DA:3984,1
DA:3987,3
DA:3988,3
DA:3989,3
DA:3992,1
DA:3993,1
DA:3994,1
DA:3997,1
DA:3998,1
DA:3999,1
DA:4000,1
DA:4001,1
DA:4002,1
DA:4003,1
DA:4006,1
DA:4007,1
DA:4008,1
DA:4009,1
DA:4010,1
DA:4013,1
DA:4014,1
DA:4015,1
DA:4016,1
DA:4017,1
DA:4018,1
DA:4019,1
DA:4022,1
DA:4023,1
DA:4028,1
DA:4029,1
DA:4031,1
DA:4032,1
DA:4033,1
DA:4036,1
DA:4037,1
DA:4038,1
DA:4039,1
DA:4041,1
DA:4042,1
DA:4043,1
DA:4045,1
DA:4046,1
DA:4047,1
DA:4048,1
DA:4049,1
DA:4052,1
DA:4053,1
DA:4054,1
DA:4055,1
DA:4056,1
DA:4057,1
DA:4058,1
DA:4061,1
DA:4062,1
DA:4064,1
DA:4065,1
DA:4066,1
DA:4069,1
DA:4070,1
DA:4071,1
DA:4072,1
DA:4074,1
DA:4075,1
DA:4076,1
DA:4077,1
DA:4078,1
DA:4079,1
DA:4080,1
DA:4082,1
DA:4083,1
DA:4086,1
DA:4087,1
DA:4088,1
DA:4089,1
DA:4090,1
DA:4091,1
DA:4092,1
DA:4094,1
DA:4095,1
DA:4096,1
DA:4097,1
DA:4098,1
DA:4101,1
DA:4102,1
DA:4103,1
DA:4104,1
DA:4105,1
DA:4106,1
DA:4107,1
DA:4110,1
DA:4111,1
DA:4112,1
DA:4115,1
DA:4116,1
DA:4117,1
DA:4118,1
DA:4121,1
DA:4124,1
DA:4125,1
DA:4127,1
DA:4128,1
DA:4130,1
DA:4131,1
DA:4132,1
DA:4135,1
DA:4138,1
DA:4139,1
DA:4141,1
DA:4142,1
DA:4144,1
DA:4145,1
DA:4146,1
DA:4149,1
DA:4152,1
DA:4153,1
DA:4154,1
DA:4156,1
DA:4157,1
DA:4158,1
DA:4159,1
DA:4162,1
DA:4165,1
DA:4166,1
DA:4168,1
DA:4169,1
DA:4171,1
DA:4172,1
DA:4173,1
DA:4174,1
DA:4175,1
DA:4178,1
DA:4181,1
DA:4182,1
DA:4183,1
DA:4185,1
DA:4186,1
DA:4187,1
DA:4190,1
DA:4193,1
DA:4194,1
DA:4195,1
DA:4197,1
DA:4198,1
BRF:0
BRH:0
LF:3078
LH:1907
end_of_record
SF:/home/openclaw/dev/yinglichina8848/sqlrustgo/crates/executor/src/executor_metrics.rs
FN:183,_RNCNvMs1_NtCsldCax6rooq1_18sqlrustgo_executor16executor_metricsNtB7_15ExecutorMetrics19record_rows_by_type0B9_
FN:43,_RNvMNtCsldCax6rooq1_18sqlrustgo_executor16executor_metricsNtB2_15ExecutorMetrics14rows_processed
FN:173,_RNvMs1_NtCsldCax6rooq1_18sqlrustgo_executor16executor_metricsNtB5_15ExecutorMetrics11record_rows
FN:178,_RNvMs1_NtCsldCax6rooq1_18sqlrustgo_executor16executor_metricsNtB5_15ExecutorMetrics19record_rows_by_type
FN:129,_RNvXs0_NtCsldCax6rooq1_18sqlrustgo_executor16executor_metricsNtB5_15ExecutorMetricsNtNtCs388HCo0GcAO_16sqlrustgo_common7metrics7Metrics10get_metric
FN:147,_RNvXs0_NtCsldCax6rooq1_18sqlrustgo_executor16executor_metricsNtB5_15ExecutorMetricsNtNtCs388HCo0GcAO_16sqlrustgo_common7metrics7Metrics16get_metric_names
FN:125,_RNvXs0_NtCsldCax6rooq1_18sqlrustgo_executor16executor_metricsNtB5_15ExecutorMetricsNtNtCs388HCo0GcAO_16sqlrustgo_common7metrics7Metrics16record_cache_hit
FN:121,_RNvXs0_NtCsldCax6rooq1_18sqlrustgo_executor16executor_metricsNtB5_15ExecutorMetricsNtNtCs388HCo0GcAO_16sqlrustgo_common7metrics7Metrics17record_bytes_read
FN:127,_RNvXs0_NtCsldCax6rooq1_18sqlrustgo_executor16executor_metricsNtB5_15ExecutorMetricsNtNtCs388HCo0GcAO_16sqlrustgo_common7metrics7Metrics17record_cache_miss
FN:123,_RNvXs0_NtCsldCax6rooq1_18sqlrustgo_executor16executor_metricsNtB5_15ExecutorMetricsNtNtCs388HCo0GcAO_16sqlrustgo_common7metrics7Metrics20record_bytes_written
FN:116,_RNvXs0_NtCsldCax6rooq1_18sqlrustgo_executor16executor_metricsNtB5_15ExecutorMetricsNtNtCs388HCo0GcAO_16sqlrustgo_common7metrics7Metrics22record_error_with_type
FN:160,_RNvXs0_NtCsldCax6rooq1_18sqlrustgo_executor16executor_metricsNtB5_15ExecutorMetricsNtNtCs388HCo0GcAO_16sqlrustgo_common7metrics7Metrics5reset
FN:87,_RNvXs_NtCsldCax6rooq1_18sqlrustgo_executor16executor_metricsNtB4_15ExecutorMetricsNtNtCs8nPosuWgJFh_4core7default7Default7default
FN:62,_RNCNvMNtCsldCax6rooq1_18sqlrustgo_executor16executor_metricsNtB4_15ExecutorMetrics15queries_by_type0B6_
FN:217,_RNCNvMs2_NtCsldCax6rooq1_18sqlrustgo_executor16executor_metricsNtB7_20ExecutorMetricsTimer4stop0B9_
FN:223,_RNCNvMs2_NtCsldCax6rooq1_18sqlrustgo_executor16executor_metricsNtB7_20ExecutorMetricsTimer4stops_0B9_
FN:103,_RNCNvXs0_NtCsldCax6rooq1_18sqlrustgo_executor16executor_metricsNtB7_15ExecutorMetricsNtNtCs388HCo0GcAO_16sqlrustgo_common7metrics7Metrics12record_query0B9_
FN:108,_RNCNvXs0_NtCsldCax6rooq1_18sqlrustgo_executor16executor_metricsNtB7_15ExecutorMetricsNtNtCs388HCo0GcAO_16sqlrustgo_common7metrics7Metrics12record_querys_0B9_
FN:75,_RNvMNtCsldCax6rooq1_18sqlrustgo_executor16executor_metricsNtB2_15ExecutorMetrics12success_rate
FN:35,_RNvMNtCsldCax6rooq1_18sqlrustgo_executor16executor_metricsNtB2_15ExecutorMetrics13queries_total
FN:39,_RNvMNtCsldCax6rooq1_18sqlrustgo_executor16executor_metricsNtB2_15ExecutorMetrics14queries_failed
FN:55,_RNvMNtCsldCax6rooq1_18sqlrustgo_executor16executor_metricsNtB2_15ExecutorMetrics15execution_count
FN:59,_RNvMNtCsldCax6rooq1_18sqlrustgo_executor16executor_metricsNtB2_15ExecutorMetrics15queries_by_type
FN:51,_RNvMNtCsldCax6rooq1_18sqlrustgo_executor16executor_metricsNtB2_15ExecutorMetrics17query_duration_ms
FN:47,_RNvMNtCsldCax6rooq1_18sqlrustgo_executor16executor_metricsNtB2_15ExecutorMetrics17query_duration_ns
FN:66,_RNvMNtCsldCax6rooq1_18sqlrustgo_executor16executor_metricsNtB2_15ExecutorMetrics21avg_query_duration_ms
FN:22,_RNvMNtCsldCax6rooq1_18sqlrustgo_executor16executor_metricsNtB2_15ExecutorMetrics3new
FN:195,_RNvMs2_NtCsldCax6rooq1_18sqlrustgo_executor16executor_metricsNtB5_20ExecutorMetricsTimer3new
FN:203,_RNvMs2_NtCsldCax6rooq1_18sqlrustgo_executor16executor_metricsNtB5_20ExecutorMetricsTimer4stop
FN:112,_RNvXs0_NtCsldCax6rooq1_18sqlrustgo_executor16executor_metricsNtB5_15ExecutorMetricsNtNtCs388HCo0GcAO_16sqlrustgo_common7metrics7Metrics12record_error
FN:93,_RNvXs0_NtCsldCax6rooq1_18sqlrustgo_executor16executor_metricsNtB5_15ExecutorMetricsNtNtCs388HCo0GcAO_16sqlrustgo_common7metrics7Metrics12record_query
FN:263,_RNvNtNtCsldCax6rooq1_18sqlrustgo_executor16executor_metrics5testss_27test_executor_metrics_timer
FN:233,_RNvNtNtCsldCax6rooq1_18sqlrustgo_executor16executor_metrics5testss_30test_executor_metrics_creation
FN:327,_RNvNtNtCsldCax6rooq1_18sqlrustgo_executor16executor_metrics5testss_31test_executor_metrics_all_types
FN:247,_RNvNtNtCsldCax6rooq1_18sqlrustgo_executor16executor_metrics5testss_34test_executor_metrics_record_error
FN:240,_RNvNtNtCsldCax6rooq1_18sqlrustgo_executor16executor_metrics5testss_34test_executor_metrics_record_query
FN:255,_RNvNtNtCsldCax6rooq1_18sqlrustgo_executor16executor_metrics5testss_34test_executor_metrics_success_rate
FN:288,_RNvNtNtCsldCax6rooq1_18sqlrustgo_executor16executor_metrics5testss_37test_executor_metrics_execution_count
FN:296,_RNvNtNtCsldCax6rooq1_18sqlrustgo_executor16executor_metrics5testss_37test_executor_metrics_queries_by_type
FN:281,_RNvNtNtCsldCax6rooq1_18sqlrustgo_executor16executor_metrics5testss_39test_executor_metrics_query_duration_ms
FN:274,_RNvNtNtCsldCax6rooq1_18sqlrustgo_executor16executor_metrics5testss_39test_executor_metrics_query_duration_ns
FN:321,_RNvNtNtCsldCax6rooq1_18sqlrustgo_executor16executor_metrics5testss_39test_executor_metrics_success_rate_zero
FN:307,_RNvNtNtCsldCax6rooq1_18sqlrustgo_executor16executor_metrics5testss_43test_executor_metrics_avg_query_duration_ms
FN:315,_RNvNtNtCsldCax6rooq1_18sqlrustgo_executor16executor_metrics5testss_48test_executor_metrics_avg_query_duration_ms_zero
FN:62,_RNCNvMNtCs4qFySXYcYQq_18sqlrustgo_executor16executor_metricsNtB4_15ExecutorMetrics15queries_by_type0B6_
FN:183,_RNCNvMs1_NtCs4qFySXYcYQq_18sqlrustgo_executor16executor_metricsNtB7_15ExecutorMetrics19record_rows_by_type0B9_
FN:217,_RNCNvMs2_NtCs4qFySXYcYQq_18sqlrustgo_executor16executor_metricsNtB7_20ExecutorMetricsTimer4stop0B9_
FN:223,_RNCNvMs2_NtCs4qFySXYcYQq_18sqlrustgo_executor16executor_metricsNtB7_20ExecutorMetricsTimer4stops_0B9_
FN:103,_RNCNvXs0_NtCs4qFySXYcYQq_18sqlrustgo_executor16executor_metricsNtB7_15ExecutorMetricsNtNtCskyl0ory5932_16sqlrustgo_common7metrics7Metrics12record_query0B9_
FN:108,_RNCNvXs0_NtCs4qFySXYcYQq_18sqlrustgo_executor16executor_metricsNtB7_15ExecutorMetricsNtNtCskyl0ory5932_16sqlrustgo_common7metrics7Metrics12record_querys_0B9_
FNDA:0,_RNCNvMs1_NtCsldCax6rooq1_18sqlrustgo_executor16executor_metricsNtB7_15ExecutorMetrics19record_rows_by_type0B9_
FNDA:0,_RNvMNtCsldCax6rooq1_18sqlrustgo_executor16executor_metricsNtB2_15ExecutorMetrics14rows_processed
FNDA:0,_RNvMs1_NtCsldCax6rooq1_18sqlrustgo_executor16executor_metricsNtB5_15ExecutorMetrics11record_rows
FNDA:0,_RNvMs1_NtCsldCax6rooq1_18sqlrustgo_executor16executor_metricsNtB5_15ExecutorMetrics19record_rows_by_type
FNDA:0,_RNvXs0_NtCsldCax6rooq1_18sqlrustgo_executor16executor_metricsNtB5_15ExecutorMetricsNtNtCs388HCo0GcAO_16sqlrustgo_common7metrics7Metrics10get_metric
FNDA:0,_RNvXs0_NtCsldCax6rooq1_18sqlrustgo_executor16executor_metricsNtB5_15ExecutorMetricsNtNtCs388HCo0GcAO_16sqlrustgo_common7metrics7Metrics16get_metric_names
FNDA:0,_RNvXs0_NtCsldCax6rooq1_18sqlrustgo_executor16executor_metricsNtB5_15ExecutorMetricsNtNtCs388HCo0GcAO_16sqlrustgo_common7metrics7Metrics16record_cache_hit
FNDA:0,_RNvXs0_NtCsldCax6rooq1_18sqlrustgo_executor16executor_metricsNtB5_15ExecutorMetricsNtNtCs388HCo0GcAO_16sqlrustgo_common7metrics7Metrics17record_bytes_read
FNDA:0,_RNvXs0_NtCsldCax6rooq1_18sqlrustgo_executor16executor_metricsNtB5_15ExecutorMetricsNtNtCs388HCo0GcAO_16sqlrustgo_common7metrics7Metrics17record_cache_miss
FNDA:0,_RNvXs0_NtCsldCax6rooq1_18sqlrustgo_executor16executor_metricsNtB5_15ExecutorMetricsNtNtCs388HCo0GcAO_16sqlrustgo_common7metrics7Metrics20record_bytes_written
FNDA:0,_RNvXs0_NtCsldCax6rooq1_18sqlrustgo_executor16executor_metricsNtB5_15ExecutorMetricsNtNtCs388HCo0GcAO_16sqlrustgo_common7metrics7Metrics22record_error_with_type
FNDA:0,_RNvXs0_NtCsldCax6rooq1_18sqlrustgo_executor16executor_metricsNtB5_15ExecutorMetricsNtNtCs388HCo0GcAO_16sqlrustgo_common7metrics7Metrics5reset
FNDA:0,_RNvXs_NtCsldCax6rooq1_18sqlrustgo_executor16executor_metricsNtB4_15ExecutorMetricsNtNtCs8nPosuWgJFh_4core7default7Default7default
FNDA:6,_RNCNvMNtCsldCax6rooq1_18sqlrustgo_executor16executor_metricsNtB4_15ExecutorMetrics15queries_by_type0B6_
FNDA:1,_RNCNvMs2_NtCsldCax6rooq1_18sqlrustgo_executor16executor_metricsNtB7_20ExecutorMetricsTimer4stop0B9_
FNDA:1,_RNCNvMs2_NtCsldCax6rooq1_18sqlrustgo_executor16executor_metricsNtB7_20ExecutorMetricsTimer4stops_0B9_
FNDA:14,_RNCNvXs0_NtCsldCax6rooq1_18sqlrustgo_executor16executor_metricsNtB7_15ExecutorMetricsNtNtCs388HCo0GcAO_16sqlrustgo_common7metrics7Metrics12record_query0B9_
FNDA:14,_RNCNvXs0_NtCsldCax6rooq1_18sqlrustgo_executor16executor_metricsNtB7_15ExecutorMetricsNtNtCs388HCo0GcAO_16sqlrustgo_common7metrics7Metrics12record_querys_0B9_
FNDA:2,_RNvMNtCsldCax6rooq1_18sqlrustgo_executor16executor_metricsNtB2_15ExecutorMetrics12success_rate
FNDA:4,_RNvMNtCsldCax6rooq1_18sqlrustgo_executor16executor_metricsNtB2_15ExecutorMetrics13queries_total
FNDA:2,_RNvMNtCsldCax6rooq1_18sqlrustgo_executor16executor_metricsNtB2_15ExecutorMetrics14queries_failed
FNDA:1,_RNvMNtCsldCax6rooq1_18sqlrustgo_executor16executor_metricsNtB2_15ExecutorMetrics15execution_count
FNDA:7,_RNvMNtCsldCax6rooq1_18sqlrustgo_executor16executor_metricsNtB2_15ExecutorMetrics15queries_by_type
FNDA:2,_RNvMNtCsldCax6rooq1_18sqlrustgo_executor16executor_metricsNtB2_15ExecutorMetrics17query_duration_ms
FNDA:1,_RNvMNtCsldCax6rooq1_18sqlrustgo_executor16executor_metricsNtB2_15ExecutorMetrics17query_duration_ns
FNDA:2,_RNvMNtCsldCax6rooq1_18sqlrustgo_executor16executor_metricsNtB2_15ExecutorMetrics21avg_query_duration_ms
FNDA:14,_RNvMNtCsldCax6rooq1_18sqlrustgo_executor16executor_metricsNtB2_15ExecutorMetrics3new
FNDA:1,_RNvMs2_NtCsldCax6rooq1_18sqlrustgo_executor16executor_metricsNtB5_20ExecutorMetricsTimer3new
FNDA:1,_RNvMs2_NtCsldCax6rooq1_18sqlrustgo_executor16executor_metricsNtB5_20ExecutorMetricsTimer4stop
FNDA:2,_RNvXs0_NtCsldCax6rooq1_18sqlrustgo_executor16executor_metricsNtB5_15ExecutorMetricsNtNtCs388HCo0GcAO_16sqlrustgo_common7metrics7Metrics12record_error
FNDA:16,_RNvXs0_NtCsldCax6rooq1_18sqlrustgo_executor16executor_metricsNtB5_15ExecutorMetricsNtNtCs388HCo0GcAO_16sqlrustgo_common7metrics7Metrics12record_query
FNDA:1,_RNvNtNtCsldCax6rooq1_18sqlrustgo_executor16executor_metrics5testss_27test_executor_metrics_timer
FNDA:1,_RNvNtNtCsldCax6rooq1_18sqlrustgo_executor16executor_metrics5testss_30test_executor_metrics_creation
FNDA:1,_RNvNtNtCsldCax6rooq1_18sqlrustgo_executor16executor_metrics5testss_31test_executor_metrics_all_types
FNDA:1,_RNvNtNtCsldCax6rooq1_18sqlrustgo_executor16executor_metrics5testss_34test_executor_metrics_record_error
FNDA:1,_RNvNtNtCsldCax6rooq1_18sqlrustgo_executor16executor_metrics5testss_34test_executor_metrics_record_query
FNDA:1,_RNvNtNtCsldCax6rooq1_18sqlrustgo_executor16executor_metrics5testss_34test_executor_metrics_success_rate
FNDA:1,_RNvNtNtCsldCax6rooq1_18sqlrustgo_executor16executor_metrics5testss_37test_executor_metrics_execution_count
FNDA:1,_RNvNtNtCsldCax6rooq1_18sqlrustgo_executor16executor_metrics5testss_37test_executor_metrics_queries_by_type
FNDA:1,_RNvNtNtCsldCax6rooq1_18sqlrustgo_executor16executor_metrics5testss_39test_executor_metrics_query_duration_ms
FNDA:1,_RNvNtNtCsldCax6rooq1_18sqlrustgo_executor16executor_metrics5testss_39test_executor_metrics_query_duration_ns
FNDA:1,_RNvNtNtCsldCax6rooq1_18sqlrustgo_executor16executor_metrics5testss_39test_executor_metrics_success_rate_zero
FNDA:1,_RNvNtNtCsldCax6rooq1_18sqlrustgo_executor16executor_metrics5testss_43test_executor_metrics_avg_query_duration_ms
FNDA:1,_RNvNtNtCsldCax6rooq1_18sqlrustgo_executor16executor_metrics5testss_48test_executor_metrics_avg_query_duration_ms_zero
FNDA:0,_RNCNvMNtCs4qFySXYcYQq_18sqlrustgo_executor16executor_metricsNtB4_15ExecutorMetrics15queries_by_type0B6_
FNDA:0,_RNCNvMs1_NtCs4qFySXYcYQq_18sqlrustgo_executor16executor_metricsNtB7_15ExecutorMetrics19record_rows_by_type0B9_
FNDA:0,_RNCNvMs2_NtCs4qFySXYcYQq_18sqlrustgo_executor16executor_metricsNtB7_20ExecutorMetricsTimer4stop0B9_
FNDA:0,_RNCNvMs2_NtCs4qFySXYcYQq_18sqlrustgo_executor16executor_metricsNtB7_20ExecutorMetricsTimer4stops_0B9_
FNDA:0,_RNCNvXs0_NtCs4qFySXYcYQq_18sqlrustgo_executor16executor_metricsNtB7_15ExecutorMetricsNtNtCskyl0ory5932_16sqlrustgo_common7metrics7Metrics12record_query0B9_
FNDA:0,_RNCNvXs0_NtCs4qFySXYcYQq_18sqlrustgo_executor16executor_metricsNtB7_15ExecutorMetricsNtNtCskyl0ory5932_16sqlrustgo_common7metrics7Metrics12record_querys_0B9_
FNF:44
FNH:31
DA:22,14
DA:23,14
DA:24,14
DA:25,14
DA:26,14
DA:27,14
DA:28,14
DA:29,14
DA:30,14
DA:31,14
DA:32,14
DA:33,14
DA:35,4
DA:36,4
DA:37,4
DA:39,2
DA:40,2
DA:41,2
DA:43,0
DA:44,0
DA:45,0
DA:47,1
DA:48,1
DA:49,1
DA:51,2
DA:52,2
DA:53,2
DA:55,1
DA:56,1
DA:57,1
DA:59,7
DA:60,7
DA:61,7
DA:62,7
DA:63,7
DA:64,7
DA:66,2
DA:67,2
DA:68,2
DA:69,1
DA:71,1
DA:73,2
DA:75,2
DA:76,2
DA:77,2
DA:78,1
DA:80,1
DA:81,1
DA:83,2
DA:87,0
DA:88,0
DA:89,0
DA:93,16
DA:94,16
DA:95,16
DA:97,16
DA:98,16
DA:99,16
DA:101,16
DA:102,16
DA:103,16
DA:104,16
DA:106,16
DA:107,16
DA:108,16
DA:109,16
DA:110,16
DA:112,2
DA:113,2
DA:114,2
DA:116,0
DA:117,0
DA:118,0
DA:119,0
DA:121,0
DA:123,0
DA:125,0
DA:127,0
DA:129,0
DA:130,0
DA:131,0
DA:132,0
DA:133,0
DA:134,0
DA:135,0
DA:136,0
DA:137,0
DA:138,0
DA:139,0
DA:141,0
DA:142,0
DA:143,0
DA:145,0
DA:147,0
DA:148,0
DA:149,0
DA:150,0
DA:151,0
DA:152,0
DA:153,0
DA:154,0
DA:155,0
DA:156,0
DA:158,0
DA:160,0
DA:161,0
DA:162,0
DA:163,0
DA:164,0
DA:165,0
DA:166,0
DA:167,0
DA:168,0
DA:169,0
DA:173,0
DA:174,0
DA:175,0
DA:176,0
DA:178,0
DA:179,0
DA:180,0
DA:181,0
DA:182,0
DA:183,0
DA:184,0
DA:185,0
DA:195,1
DA:196,1
DA:197,1
DA:198,1
DA:199,1
DA:200,1
DA:201,1
DA:203,1
DA:204,1
DA:206,1
DA:207,1
DA:209,1
DA:210,1
DA:211,1
DA:212,1
DA:214,1
DA:215,1
DA:216,1
DA:217,1
DA:218,1
DA:220,1
DA:221,1
DA:222,1
DA:223,1
DA:224,1
DA:225,1
DA:233,1
DA:234,1
DA:235,1
DA:236,1
DA:237,1
DA:240,1
DA:241,1
DA:242,1
DA:243,1
DA:244,1
DA:247,1
DA:248,1
DA:249,1
DA:250,1
DA:251,1
DA:252,1
DA:255,1
DA:256,1
DA:257,1
DA:258,1
DA:259,1
DA:260,1
DA:263,1
DA:264,1
DA:265,1
DA:266,1
DA:267,1
DA:268,1
DA:269,1
DA:270,1
DA:271,1
DA:274,1
DA:275,1
DA:276,1
DA:277,1
DA:278,1
DA:281,1
DA:282,1
DA:283,1
DA:284,1
DA:285,1
DA:288,1
DA:289,1
DA:290,1
DA:291,1
DA:292,1
DA:293,1
DA:296,1
DA:297,1
DA:298,1
DA:299,1
DA:300,1
DA:301,1
DA:302,1
DA:303,1
DA:304,1
DA:307,1
DA:308,1
DA:309,1
DA:310,1
DA:311,1
DA:312,1
DA:315,1
DA:316,1
DA:317,1
DA:318,1
DA:321,1
DA:322,1
DA:323,1
DA:324,1
DA:327,1
DA:328,1
DA:329,1
DA:330,1
DA:331,1
DA:332,1
DA:333,1
DA:334,1
DA:335,1
DA:336,1
DA:337,1
BRF:0
BRH:0
LF:239
LH:176
end_of_record
SF:/home/openclaw/dev/yinglichina8848/sqlrustgo/crates/executor/src/explain.rs
FN:533,_RNCNvNtNtCsldCax6rooq1_18sqlrustgo_executor7explain5testss_19test_explain_filter0B7_
FN:655,_RNCNvNtNtCsldCax6rooq1_18sqlrustgo_executor7explain5testss_22test_explain_aggregate0B7_
FN:656,_RNCNvNtNtCsldCax6rooq1_18sqlrustgo_executor7explain5testss_22test_explain_aggregates_0B7_
FN:620,_RNCNvNtNtCsldCax6rooq1_18sqlrustgo_executor7explain5testss_22test_explain_hash_join0B7_
FN:624,_RNCNvNtNtCsldCax6rooq1_18sqlrustgo_executor7explain5testss_22test_explain_hash_joins_0B7_
FN:732,_RNCNvNtNtCsldCax6rooq1_18sqlrustgo_executor7explain5testss_23test_explain_with_limit0B7_
FN:733,_RNCNvNtNtCsldCax6rooq1_18sqlrustgo_executor7explain5testss_23test_explain_with_limits_0B7_
FN:142,_RNvXs2_NtCsldCax6rooq1_18sqlrustgo_executor7explainNtB5_13ExplainOutputNtNtCs8nPosuWgJFh_4core7default7Default7default
FN:135,_RNCNvMs1_NtCsldCax6rooq1_18sqlrustgo_executor7explainNtB7_13ExplainOutput14to_string_tree0B9_
FN:352,_RNCNvMs3_NtCsldCax6rooq1_18sqlrustgo_executor7explainNtB7_15ExplainExecutor11format_expr0B9_
FN:407,_RNCNvMs3_NtCsldCax6rooq1_18sqlrustgo_executor7explainNtB7_15ExplainExecutor12format_exprs0B9_
FN:264,_RNCNvMs3_NtCsldCax6rooq1_18sqlrustgo_executor7explainNtB7_15ExplainExecutor17extract_node_info0B9_
FN:425,_RNCNvMs3_NtCsldCax6rooq1_18sqlrustgo_executor7explainNtB7_15ExplainExecutor19format_window_exprs0B9_
FN:416,_RNCNvMs3_NtCsldCax6rooq1_18sqlrustgo_executor7explainNtB7_15ExplainExecutor22format_aggregate_exprs0B9_
FN:82,_RNvMs0_NtCsldCax6rooq1_18sqlrustgo_executor7explainNtB5_11ExplainLine11format_tree
FN:132,_RNvMs1_NtCsldCax6rooq1_18sqlrustgo_executor7explainNtB5_13ExplainOutput14to_string_tree
FN:124,_RNvMs1_NtCsldCax6rooq1_18sqlrustgo_executor7explainNtB5_13ExplainOutput3new
FN:330,_RNvMs3_NtCsldCax6rooq1_18sqlrustgo_executor7explainNtB5_15ExplainExecutor11format_expr
FN:187,_RNvMs3_NtCsldCax6rooq1_18sqlrustgo_executor7explainNtB5_15ExplainExecutor12explain_node
FN:169,_RNvMs3_NtCsldCax6rooq1_18sqlrustgo_executor7explainNtB5_15ExplainExecutor12explain_plan
FN:404,_RNvMs3_NtCsldCax6rooq1_18sqlrustgo_executor7explainNtB5_15ExplainExecutor12format_exprs
FN:431,_RNvMs3_NtCsldCax6rooq1_18sqlrustgo_executor7explainNtB5_15ExplainExecutor12format_value
FN:164,_RNvMs3_NtCsldCax6rooq1_18sqlrustgo_executor7explainNtB5_15ExplainExecutor15explain_analyze
FN:304,_RNvMs3_NtCsldCax6rooq1_18sqlrustgo_executor7explainNtB5_15ExplainExecutor16format_join_type
FN:209,_RNvMs3_NtCsldCax6rooq1_18sqlrustgo_executor7explainNtB5_15ExplainExecutor17extract_node_info
FN:320,_RNvMs3_NtCsldCax6rooq1_18sqlrustgo_executor7explainNtB5_15ExplainExecutor18format_set_op_type
FN:422,_RNvMs3_NtCsldCax6rooq1_18sqlrustgo_executor7explainNtB5_15ExplainExecutor19format_window_exprs
FN:413,_RNvMs3_NtCsldCax6rooq1_18sqlrustgo_executor7explainNtB5_15ExplainExecutor22format_aggregate_exprs
FN:154,_RNvMs3_NtCsldCax6rooq1_18sqlrustgo_executor7explainNtB5_15ExplainExecutor3new
FN:159,_RNvMs3_NtCsldCax6rooq1_18sqlrustgo_executor7explainNtB5_15ExplainExecutor7explain
FN:46,_RNvMs_NtCsldCax6rooq1_18sqlrustgo_executor7explainNtB4_13ExplainConfig15explain_analyze
FN:41,_RNvMs_NtCsldCax6rooq1_18sqlrustgo_executor7explainNtB4_13ExplainConfig7explain
FN:455,_RNvNtCsldCax6rooq1_18sqlrustgo_executor7explain15explain_analyze
FN:450,_RNvNtCsldCax6rooq1_18sqlrustgo_executor7explain7explain
FN:29,_RNvXNtCsldCax6rooq1_18sqlrustgo_executor7explainNtB2_13ExplainConfigNtNtCs8nPosuWgJFh_4core7default7Default7default
FN:481,_RNvNtNtCsldCax6rooq1_18sqlrustgo_executor7explain5tests18create_test_filter
FN:464,_RNvNtNtCsldCax6rooq1_18sqlrustgo_executor7explain5tests20create_test_seq_scan
FN:472,_RNvNtNtCsldCax6rooq1_18sqlrustgo_executor7explain5tests22create_test_projection
FN:523,_RNvNtNtCsldCax6rooq1_18sqlrustgo_executor7explain5testss_19test_explain_filter
FN:496,_RNvNtNtCsldCax6rooq1_18sqlrustgo_executor7explain5testss_21test_explain_seq_scan
FN:628,_RNvNtNtCsldCax6rooq1_18sqlrustgo_executor7explain5testss_22test_explain_aggregate
FN:579,_RNvNtNtCsldCax6rooq1_18sqlrustgo_executor7explain5testss_22test_explain_hash_join
FN:508,_RNvNtNtCsldCax6rooq1_18sqlrustgo_executor7explain5testss_23test_explain_projection
FN:718,_RNvNtNtCsldCax6rooq1_18sqlrustgo_executor7explain5testss_23test_explain_with_limit
FN:537,_RNvNtNtCsldCax6rooq1_18sqlrustgo_executor7explain5testss_24test_explain_tree_format
FN:562,_RNvNtNtCsldCax6rooq1_18sqlrustgo_executor7explain5testss_27test_explain_analyze_config
FN:556,_RNvNtNtCsldCax6rooq1_18sqlrustgo_executor7explain5testss_27test_explain_explain_config
FN:547,_RNvNtNtCsldCax6rooq1_18sqlrustgo_executor7explain5testss_28test_explain_config_defaults
FN:705,_RNvNtNtCsldCax6rooq1_18sqlrustgo_executor7explain5testss_31test_explain_output_format_tree
FN:568,_RNvNtNtCsldCax6rooq1_18sqlrustgo_executor7explain5testss_33test_explain_explain_analyze_mode
FN:695,_RNvNtNtCsldCax6rooq1_18sqlrustgo_executor7explain5testss_36test_explain_analyze_collects_timing
FN:660,_RNvNtNtCsldCax6rooq1_18sqlrustgo_executor7explain5testss_45test_explain_simple_select_with_all_operators
FN:135,_RNCNvMs1_NtCs4qFySXYcYQq_18sqlrustgo_executor7explainNtB7_13ExplainOutput14to_string_tree0B9_
FN:352,_RNCNvMs3_NtCs4qFySXYcYQq_18sqlrustgo_executor7explainNtB7_15ExplainExecutor11format_expr0B9_
FN:407,_RNCNvMs3_NtCs4qFySXYcYQq_18sqlrustgo_executor7explainNtB7_15ExplainExecutor12format_exprs0B9_
FN:264,_RNCNvMs3_NtCs4qFySXYcYQq_18sqlrustgo_executor7explainNtB7_15ExplainExecutor17extract_node_info0B9_
FN:425,_RNCNvMs3_NtCs4qFySXYcYQq_18sqlrustgo_executor7explainNtB7_15ExplainExecutor19format_window_exprs0B9_
FN:416,_RNCNvMs3_NtCs4qFySXYcYQq_18sqlrustgo_executor7explainNtB7_15ExplainExecutor22format_aggregate_exprs0B9_
FN:82,_RNvMs0_NtCs4qFySXYcYQq_18sqlrustgo_executor7explainNtB5_11ExplainLine11format_tree
FN:132,_RNvMs1_NtCs4qFySXYcYQq_18sqlrustgo_executor7explainNtB5_13ExplainOutput14to_string_tree
FN:124,_RNvMs1_NtCs4qFySXYcYQq_18sqlrustgo_executor7explainNtB5_13ExplainOutput3new
FN:330,_RNvMs3_NtCs4qFySXYcYQq_18sqlrustgo_executor7explainNtB5_15ExplainExecutor11format_expr
FN:187,_RNvMs3_NtCs4qFySXYcYQq_18sqlrustgo_executor7explainNtB5_15ExplainExecutor12explain_node
FN:169,_RNvMs3_NtCs4qFySXYcYQq_18sqlrustgo_executor7explainNtB5_15ExplainExecutor12explain_plan
FN:404,_RNvMs3_NtCs4qFySXYcYQq_18sqlrustgo_executor7explainNtB5_15ExplainExecutor12format_exprs
FN:431,_RNvMs3_NtCs4qFySXYcYQq_18sqlrustgo_executor7explainNtB5_15ExplainExecutor12format_value
FN:164,_RNvMs3_NtCs4qFySXYcYQq_18sqlrustgo_executor7explainNtB5_15ExplainExecutor15explain_analyze
FN:304,_RNvMs3_NtCs4qFySXYcYQq_18sqlrustgo_executor7explainNtB5_15ExplainExecutor16format_join_type
FN:209,_RNvMs3_NtCs4qFySXYcYQq_18sqlrustgo_executor7explainNtB5_15ExplainExecutor17extract_node_info
FN:320,_RNvMs3_NtCs4qFySXYcYQq_18sqlrustgo_executor7explainNtB5_15ExplainExecutor18format_set_op_type
FN:422,_RNvMs3_NtCs4qFySXYcYQq_18sqlrustgo_executor7explainNtB5_15ExplainExecutor19format_window_exprs
FN:413,_RNvMs3_NtCs4qFySXYcYQq_18sqlrustgo_executor7explainNtB5_15ExplainExecutor22format_aggregate_exprs
FN:154,_RNvMs3_NtCs4qFySXYcYQq_18sqlrustgo_executor7explainNtB5_15ExplainExecutor3new
FN:159,_RNvMs3_NtCs4qFySXYcYQq_18sqlrustgo_executor7explainNtB5_15ExplainExecutor7explain
FN:46,_RNvMs_NtCs4qFySXYcYQq_18sqlrustgo_executor7explainNtB4_13ExplainConfig15explain_analyze
FN:41,_RNvMs_NtCs4qFySXYcYQq_18sqlrustgo_executor7explainNtB4_13ExplainConfig7explain
FN:455,_RNvNtCs4qFySXYcYQq_18sqlrustgo_executor7explain15explain_analyze
FN:450,_RNvNtCs4qFySXYcYQq_18sqlrustgo_executor7explain7explain
FN:29,_RNvXNtCs4qFySXYcYQq_18sqlrustgo_executor7explainNtB2_13ExplainConfigNtNtCs8nPosuWgJFh_4core7default7Default7default
FN:142,_RNvXs2_NtCs4qFySXYcYQq_18sqlrustgo_executor7explainNtB5_13ExplainOutputNtNtCs8nPosuWgJFh_4core7default7Default7default
FNDA:1,_RNCNvNtNtCsldCax6rooq1_18sqlrustgo_executor7explain5testss_19test_explain_filter0B7_
FNDA:1,_RNCNvNtNtCsldCax6rooq1_18sqlrustgo_executor7explain5testss_22test_explain_aggregate0B7_
FNDA:2,_RNCNvNtNtCsldCax6rooq1_18sqlrustgo_executor7explain5testss_22test_explain_aggregates_0B7_
FNDA:1,_RNCNvNtNtCsldCax6rooq1_18sqlrustgo_executor7explain5testss_22test_explain_hash_join0B7_
FNDA:2,_RNCNvNtNtCsldCax6rooq1_18sqlrustgo_executor7explain5testss_22test_explain_hash_joins_0B7_
FNDA:1,_RNCNvNtNtCsldCax6rooq1_18sqlrustgo_executor7explain5testss_23test_explain_with_limit0B7_
FNDA:2,_RNCNvNtNtCsldCax6rooq1_18sqlrustgo_executor7explain5testss_23test_explain_with_limits_0B7_
FNDA:0,_RNvXs2_NtCsldCax6rooq1_18sqlrustgo_executor7explainNtB5_13ExplainOutputNtNtCs8nPosuWgJFh_4core7default7Default7default
FNDA:2,_RNCNvMs1_NtCsldCax6rooq1_18sqlrustgo_executor7explainNtB7_13ExplainOutput14to_string_tree0B9_
FNDA:1,_RNCNvMs3_NtCsldCax6rooq1_18sqlrustgo_executor7explainNtB7_15ExplainExecutor11format_expr0B9_
FNDA:3,_RNCNvMs3_NtCsldCax6rooq1_18sqlrustgo_executor7explainNtB7_15ExplainExecutor12format_exprs0B9_
FNDA:0,_RNCNvMs3_NtCsldCax6rooq1_18sqlrustgo_executor7explainNtB7_15ExplainExecutor17extract_node_info0B9_
FNDA:0,_RNCNvMs3_NtCsldCax6rooq1_18sqlrustgo_executor7explainNtB7_15ExplainExecutor19format_window_exprs0B9_
FNDA:1,_RNCNvMs3_NtCsldCax6rooq1_18sqlrustgo_executor7explainNtB7_15ExplainExecutor22format_aggregate_exprs0B9_
FNDA:2,_RNvMs0_NtCsldCax6rooq1_18sqlrustgo_executor7explainNtB5_11ExplainLine11format_tree
FNDA:2,_RNvMs1_NtCsldCax6rooq1_18sqlrustgo_executor7explainNtB5_13ExplainOutput14to_string_tree
FNDA:11,_RNvMs1_NtCsldCax6rooq1_18sqlrustgo_executor7explainNtB5_13ExplainOutput3new
FNDA:14,_RNvMs3_NtCsldCax6rooq1_18sqlrustgo_executor7explainNtB5_15ExplainExecutor11format_expr
FNDA:19,_RNvMs3_NtCsldCax6rooq1_18sqlrustgo_executor7explainNtB5_15ExplainExecutor12explain_node
FNDA:11,_RNvMs3_NtCsldCax6rooq1_18sqlrustgo_executor7explainNtB5_15ExplainExecutor12explain_plan
FNDA:3,_RNvMs3_NtCsldCax6rooq1_18sqlrustgo_executor7explainNtB5_15ExplainExecutor12format_exprs
FNDA:2,_RNvMs3_NtCsldCax6rooq1_18sqlrustgo_executor7explainNtB5_15ExplainExecutor12format_value
FNDA:2,_RNvMs3_NtCsldCax6rooq1_18sqlrustgo_executor7explainNtB5_15ExplainExecutor15explain_analyze
FNDA:1,_RNvMs3_NtCsldCax6rooq1_18sqlrustgo_executor7explainNtB5_15ExplainExecutor16format_join_type
FNDA:19,_RNvMs3_NtCsldCax6rooq1_18sqlrustgo_executor7explainNtB5_15ExplainExecutor17extract_node_info
FNDA:0,_RNvMs3_NtCsldCax6rooq1_18sqlrustgo_executor7explainNtB5_15ExplainExecutor18format_set_op_type
FNDA:0,_RNvMs3_NtCsldCax6rooq1_18sqlrustgo_executor7explainNtB5_15ExplainExecutor19format_window_exprs
FNDA:1,_RNvMs3_NtCsldCax6rooq1_18sqlrustgo_executor7explainNtB5_15ExplainExecutor22format_aggregate_exprs
FNDA:11,_RNvMs3_NtCsldCax6rooq1_18sqlrustgo_executor7explainNtB5_15ExplainExecutor3new
FNDA:9,_RNvMs3_NtCsldCax6rooq1_18sqlrustgo_executor7explainNtB5_15ExplainExecutor7explain
FNDA:3,_RNvMs_NtCsldCax6rooq1_18sqlrustgo_executor7explainNtB4_13ExplainConfig15explain_analyze
FNDA:10,_RNvMs_NtCsldCax6rooq1_18sqlrustgo_executor7explainNtB4_13ExplainConfig7explain
FNDA:2,_RNvNtCsldCax6rooq1_18sqlrustgo_executor7explain15explain_analyze
FNDA:9,_RNvNtCsldCax6rooq1_18sqlrustgo_executor7explain7explain
FNDA:14,_RNvXNtCsldCax6rooq1_18sqlrustgo_executor7explainNtB2_13ExplainConfigNtNtCs8nPosuWgJFh_4core7default7Default7default
FNDA:1,_RNvNtNtCsldCax6rooq1_18sqlrustgo_executor7explain5tests18create_test_filter
FNDA:7,_RNvNtNtCsldCax6rooq1_18sqlrustgo_executor7explain5tests20create_test_seq_scan
FNDA:1,_RNvNtNtCsldCax6rooq1_18sqlrustgo_executor7explain5tests22create_test_projection
FNDA:1,_RNvNtNtCsldCax6rooq1_18sqlrustgo_executor7explain5testss_19test_explain_filter
FNDA:1,_RNvNtNtCsldCax6rooq1_18sqlrustgo_executor7explain5testss_21test_explain_seq_scan
FNDA:1,_RNvNtNtCsldCax6rooq1_18sqlrustgo_executor7explain5testss_22test_explain_aggregate
FNDA:1,_RNvNtNtCsldCax6rooq1_18sqlrustgo_executor7explain5testss_22test_explain_hash_join
FNDA:1,_RNvNtNtCsldCax6rooq1_18sqlrustgo_executor7explain5testss_23test_explain_projection
FNDA:1,_RNvNtNtCsldCax6rooq1_18sqlrustgo_executor7explain5testss_23test_explain_with_limit
FNDA:1,_RNvNtNtCsldCax6rooq1_18sqlrustgo_executor7explain5testss_24test_explain_tree_format
FNDA:1,_RNvNtNtCsldCax6rooq1_18sqlrustgo_executor7explain5testss_27test_explain_analyze_config
FNDA:1,_RNvNtNtCsldCax6rooq1_18sqlrustgo_executor7explain5testss_27test_explain_explain_config
FNDA:1,_RNvNtNtCsldCax6rooq1_18sqlrustgo_executor7explain5testss_28test_explain_config_defaults
FNDA:1,_RNvNtNtCsldCax6rooq1_18sqlrustgo_executor7explain5testss_31test_explain_output_format_tree
FNDA:1,_RNvNtNtCsldCax6rooq1_18sqlrustgo_executor7explain5testss_33test_explain_explain_analyze_mode
FNDA:1,_RNvNtNtCsldCax6rooq1_18sqlrustgo_executor7explain5testss_36test_explain_analyze_collects_timing
FNDA:1,_RNvNtNtCsldCax6rooq1_18sqlrustgo_executor7explain5testss_45test_explain_simple_select_with_all_operators
FNDA:0,_RNCNvMs1_NtCs4qFySXYcYQq_18sqlrustgo_executor7explainNtB7_13ExplainOutput14to_string_tree0B9_
FNDA:0,_RNCNvMs3_NtCs4qFySXYcYQq_18sqlrustgo_executor7explainNtB7_15ExplainExecutor11format_expr0B9_
FNDA:0,_RNCNvMs3_NtCs4qFySXYcYQq_18sqlrustgo_executor7explainNtB7_15ExplainExecutor12format_exprs0B9_
FNDA:0,_RNCNvMs3_NtCs4qFySXYcYQq_18sqlrustgo_executor7explainNtB7_15ExplainExecutor17extract_node_info0B9_
FNDA:0,_RNCNvMs3_NtCs4qFySXYcYQq_18sqlrustgo_executor7explainNtB7_15ExplainExecutor19format_window_exprs0B9_
FNDA:0,_RNCNvMs3_NtCs4qFySXYcYQq_18sqlrustgo_executor7explainNtB7_15ExplainExecutor22format_aggregate_exprs0B9_
FNDA:0,_RNvMs0_NtCs4qFySXYcYQq_18sqlrustgo_executor7explainNtB5_11ExplainLine11format_tree
FNDA:0,_RNvMs1_NtCs4qFySXYcYQq_18sqlrustgo_executor7explainNtB5_13ExplainOutput14to_string_tree
FNDA:0,_RNvMs1_NtCs4qFySXYcYQq_18sqlrustgo_executor7explainNtB5_13ExplainOutput3new
FNDA:0,_RNvMs3_NtCs4qFySXYcYQq_18sqlrustgo_executor7explainNtB5_15ExplainExecutor11format_expr
FNDA:0,_RNvMs3_NtCs4qFySXYcYQq_18sqlrustgo_executor7explainNtB5_15ExplainExecutor12explain_node
FNDA:0,_RNvMs3_NtCs4qFySXYcYQq_18sqlrustgo_executor7explainNtB5_15ExplainExecutor12explain_plan
FNDA:0,_RNvMs3_NtCs4qFySXYcYQq_18sqlrustgo_executor7explainNtB5_15ExplainExecutor12format_exprs
FNDA:0,_RNvMs3_NtCs4qFySXYcYQq_18sqlrustgo_executor7explainNtB5_15ExplainExecutor12format_value
FNDA:0,_RNvMs3_NtCs4qFySXYcYQq_18sqlrustgo_executor7explainNtB5_15ExplainExecutor15explain_analyze
FNDA:0,_RNvMs3_NtCs4qFySXYcYQq_18sqlrustgo_executor7explainNtB5_15ExplainExecutor16format_join_type
FNDA:0,_RNvMs3_NtCs4qFySXYcYQq_18sqlrustgo_executor7explainNtB5_15ExplainExecutor17extract_node_info
FNDA:0,_RNvMs3_NtCs4qFySXYcYQq_18sqlrustgo_executor7explainNtB5_15ExplainExecutor18format_set_op_type
FNDA:0,_RNvMs3_NtCs4qFySXYcYQq_18sqlrustgo_executor7explainNtB5_15ExplainExecutor19format_window_exprs
FNDA:0,_RNvMs3_NtCs4qFySXYcYQq_18sqlrustgo_executor7explainNtB5_15ExplainExecutor22format_aggregate_exprs
FNDA:0,_RNvMs3_NtCs4qFySXYcYQq_18sqlrustgo_executor7explainNtB5_15ExplainExecutor3new
FNDA:0,_RNvMs3_NtCs4qFySXYcYQq_18sqlrustgo_executor7explainNtB5_15ExplainExecutor7explain
FNDA:0,_RNvMs_NtCs4qFySXYcYQq_18sqlrustgo_executor7explainNtB4_13ExplainConfig15explain_analyze
FNDA:0,_RNvMs_NtCs4qFySXYcYQq_18sqlrustgo_executor7explainNtB4_13ExplainConfig7explain
FNDA:0,_RNvNtCs4qFySXYcYQq_18sqlrustgo_executor7explain15explain_analyze
FNDA:0,_RNvNtCs4qFySXYcYQq_18sqlrustgo_executor7explain7explain
FNDA:0,_RNvXNtCs4qFySXYcYQq_18sqlrustgo_executor7explainNtB2_13ExplainConfigNtNtCs8nPosuWgJFh_4core7default7Default7default
FNDA:0,_RNvXs2_NtCs4qFySXYcYQq_18sqlrustgo_executor7explainNtB5_13ExplainOutputNtNtCs8nPosuWgJFh_4core7default7Default7default
FNF:52
FNH:47
DA:29,14
DA:30,14
DA:31,14
DA:32,14
DA:33,14
DA:34,14
DA:35,14
DA:36,14
DA:41,10
DA:42,10
DA:43,10
DA:46,3
DA:47,3
DA:48,3
DA:49,3
DA:50,3
DA:51,3
DA:82,2
DA:83,2
DA:84,2
DA:86,2
DA:88,2
DA:89,2
DA:90,2
DA:91,2
DA:93,2
DA:94,2
DA:95,2
DA:97,2
DA:98,0
DA:99,2
DA:101,2
DA:102,0
DA:103,0
DA:104,0
DA:105,0
DA:106,0
DA:107,2
DA:109,2
DA:110,2
DA:124,11
DA:125,11
DA:126,11
DA:127,11
DA:128,11
DA:129,11
DA:132,2
DA:133,2
DA:134,2
DA:135,2
DA:136,2
DA:137,2
DA:138,2
DA:142,0
DA:143,0
DA:144,0
DA:154,11
DA:155,11
DA:156,11
DA:159,9
DA:160,9
DA:161,9
DA:164,2
DA:165,2
DA:166,2
DA:169,11
DA:170,11
DA:171,11
DA:172,2
DA:174,9
DA:177,11
DA:179,11
DA:180,2
DA:181,9
DA:183,11
DA:184,11
DA:187,19
DA:189,19
DA:190,8
DA:191,8
DA:194,19
DA:196,19
DA:197,19
DA:198,19
DA:199,19
DA:200,19
DA:201,19
DA:202,19
DA:203,19
DA:205,19
DA:206,19
DA:209,19
DA:210,19
DA:211,19
DA:212,19
DA:213,19
DA:214,19
DA:215,19
DA:216,19
DA:217,19
DA:220,19
DA:221,12
DA:222,12
DA:223,0
DA:224,12
DA:225,7
DA:226,0
DA:227,0
DA:228,0
DA:229,0
DA:230,0
DA:231,0
DA:232,7
DA:233,2
DA:234,2
DA:235,5
DA:236,2
DA:237,2
DA:238,3
DA:239,1
DA:241,1
DA:243,1
DA:244,1
DA:245,1
DA:246,2
DA:247,0
DA:248,0
DA:249,0
DA:250,0
DA:251,2
DA:252,1
DA:253,1
DA:254,1
DA:255,1
DA:256,1
DA:257,1
DA:258,1
DA:259,1
DA:260,1
DA:261,0
DA:262,0
DA:263,0
DA:264,0
DA:265,0
DA:267,0
DA:268,0
DA:270,0
DA:271,0
DA:272,0
DA:273,0
DA:274,1
DA:275,1
DA:276,1
DA:277,1
DA:278,1
DA:279,0
DA:280,0
DA:281,0
DA:282,0
DA:283,0
DA:284,0
DA:285,0
DA:286,0
DA:287,0
DA:290,19
DA:291,2
DA:292,2
DA:293,2
DA:295,2
DA:296,2
DA:297,2
DA:298,17
DA:300,19
DA:301,19
DA:304,1
DA:305,1
DA:306,1
DA:307,0
DA:308,0
DA:309,0
DA:310,0
DA:311,0
DA:312,0
DA:313,0
DA:314,0
DA:316,1
DA:317,1
DA:320,0
DA:321,0
DA:322,0
DA:323,0
DA:324,0
DA:326,0
DA:327,0
DA:330,14
DA:331,14
DA:332,8
DA:333,2
DA:334,3
DA:335,3
DA:337,3
DA:339,3
DA:342,1
DA:343,1
DA:344,0
DA:345,1
DA:346,0
DA:347,0
DA:348,0
DA:350,1
DA:351,1
DA:352,1
DA:353,1
DA:354,1
DA:355,1
DA:357,0
DA:358,0
DA:359,0
DA:360,0
DA:361,0
DA:362,0
DA:363,0
DA:364,0
DA:365,0
DA:366,0
DA:367,0
DA:368,0
DA:370,0
DA:371,0
DA:372,0
DA:375,0
DA:376,0
DA:378,0
DA:379,0
DA:383,0
DA:384,0
DA:386,0
DA:387,0
DA:388,0
DA:389,0
DA:390,0
DA:391,0
DA:392,0
DA:393,0
DA:394,0
DA:395,0
DA:396,0
DA:397,0
DA:398,0
DA:401,14
DA:404,3
DA:405,3
DA:406,3
DA:407,3
DA:408,3
DA:409,3
DA:410,3
DA:413,1
DA:414,1
DA:415,1
DA:416,1
DA:417,1
DA:418,1
DA:419,1
DA:422,0
DA:423,0
DA:424,0
DA:425,0
DA:426,0
DA:427,0
DA:428,0
DA:431,2
DA:432,2
DA:433,2
DA:434,0
DA:435,0
DA:436,0
DA:437,0
DA:438,0
DA:439,0
DA:440,0
DA:441,0
DA:442,0
DA:443,0
DA:444,0
DA:446,2
DA:450,9
DA:451,9
DA:452,9
DA:455,2
DA:456,2
DA:457,2
DA:464,7
DA:465,7
DA:466,7
DA:467,7
DA:469,7
DA:470,7
DA:472,1
DA:473,1
DA:474,1
DA:475,1
DA:477,1
DA:478,1
DA:479,1
DA:481,1
DA:482,1
DA:483,1
DA:484,1
DA:486,1
DA:487,1
DA:488,1
DA:489,1
DA:490,1
DA:491,1
DA:492,1
DA:493,1
DA:496,1
DA:497,1
DA:498,1
DA:500,1
DA:501,1
DA:502,1
DA:503,1
DA:504,1
DA:505,1
DA:508,1
DA:509,1
DA:510,1
DA:513,1
DA:515,1
DA:516,1
DA:518,1
DA:519,1
DA:520,1
DA:523,1
DA:524,1
DA:525,1
DA:528,1
DA:529,1
DA:530,1
DA:531,1
DA:532,1
DA:533,1
DA:534,1
DA:537,1
DA:538,1
DA:539,1
DA:541,1
DA:542,1
DA:543,1
DA:544,1
DA:547,1
DA:548,1
DA:549,1
DA:550,1
DA:551,1
DA:552,1
DA:553,1
DA:556,1
DA:557,1
DA:558,1
DA:559,1
DA:562,1
DA:563,1
DA:564,1
DA:565,1
DA:568,1
DA:569,1
DA:570,1
DA:573,1
DA:574,1
DA:576,1
DA:579,1
DA:580,1
DA:581,1
DA:582,1
DA:584,1
DA:585,1
DA:586,1
DA:588,1
DA:589,1
DA:590,1
DA:593,1
DA:594,1
DA:596,1
DA:597,1
DA:598,1
DA:599,1
DA:600,1
DA:602,1
DA:603,1
DA:604,1
DA:605,1
DA:606,1
DA:607,1
DA:610,1
DA:613,1
DA:615,1
DA:616,1
DA:617,1
DA:618,1
DA:619,1
DA:620,1
DA:621,1
DA:622,1
DA:623,1
DA:624,2
DA:625,1
DA:628,1
DA:629,1
DA:630,1
DA:631,1
DA:633,1
DA:634,1
DA:635,1
DA:638,1
DA:640,1
DA:641,1
DA:642,1
DA:643,1
DA:644,1
DA:645,1
DA:647,1
DA:649,1
DA:652,1
DA:653,1
DA:654,1
DA:655,1
DA:656,2
DA:657,1
DA:660,1
DA:662,1
DA:663,1
DA:664,1
DA:667,1
DA:669,1
DA:670,1
DA:671,1
DA:672,1
DA:673,1
DA:674,1
DA:676,1
DA:677,1
DA:678,1
DA:680,1
DA:682,1
DA:685,1
DA:686,1
DA:687,1
DA:688,1
DA:689,1
DA:690,1
DA:691,1
DA:692,1
DA:695,1
DA:696,1
DA:697,1
DA:700,1
DA:701,1
DA:702,1
DA:705,1
DA:706,1
DA:707,1
DA:709,1
DA:712,1
DA:713,1
DA:714,1
DA:715,1
DA:718,1
DA:719,1
DA:720,1
DA:721,1
DA:723,1
DA:724,1
DA:726,1
DA:729,1
DA:730,1
DA:731,1
DA:732,1
DA:733,2
DA:734,1
BRF:0
BRH:0
LF:495
LH:382
end_of_record
SF:/home/openclaw/dev/yinglichina8848/sqlrustgo/crates/executor/src/filter.rs
FN:40,_RNvMNtCsldCax6rooq1_18sqlrustgo_executor6filterNtB2_21FilterVolcanoExecutor9predicate
FN:44,_RNvMNtCsldCax6rooq1_18sqlrustgo_executor6filterNtB2_21FilterVolcanoExecutor12input_schema
FN:25,_RNvMNtCsldCax6rooq1_18sqlrustgo_executor6filterNtB2_21FilterVolcanoExecutor3new
FN:87,_RNvXs_NtCsldCax6rooq1_18sqlrustgo_executor6filterNtB4_21FilterVolcanoExecutorNtNtB6_8executor15VolcanoExecutor14is_initialized
FN:50,_RNvXs_NtCsldCax6rooq1_18sqlrustgo_executor6filterNtB4_21FilterVolcanoExecutorNtNtB6_8executor15VolcanoExecutor4init
FN:83,_RNvXs_NtCsldCax6rooq1_18sqlrustgo_executor6filterNtB4_21FilterVolcanoExecutorNtNtB6_8executor15VolcanoExecutor4name
FN:56,_RNvXs_NtCsldCax6rooq1_18sqlrustgo_executor6filterNtB4_21FilterVolcanoExecutorNtNtB6_8executor15VolcanoExecutor4next
FN:73,_RNvXs_NtCsldCax6rooq1_18sqlrustgo_executor6filterNtB4_21FilterVolcanoExecutorNtNtB6_8executor15VolcanoExecutor5close
FN:91,_RNvXs_NtCsldCax6rooq1_18sqlrustgo_executor6filterNtB4_21FilterVolcanoExecutorNtNtB6_8executor15VolcanoExecutor6as_any
FN:79,_RNvXs_NtCsldCax6rooq1_18sqlrustgo_executor6filterNtB4_21FilterVolcanoExecutorNtNtB6_8executor15VolcanoExecutor6schema
FN:108,_RNvMNtNtCsldCax6rooq1_18sqlrustgo_executor6filter5testsNtB2_12MockExecutor3new
FN:156,_RNvMs0_NtNtCsldCax6rooq1_18sqlrustgo_executor6filter5testsNtB5_20MockExecutorWithData3new
FN:232,_RNvNtNtCsldCax6rooq1_18sqlrustgo_executor6filter5testss_25test_filter_executor_init
FN:205,_RNvNtNtCsldCax6rooq1_18sqlrustgo_executor6filter5testss_25test_filter_executor_name
FN:293,_RNvNtNtCsldCax6rooq1_18sqlrustgo_executor6filter5testss_26test_filter_executor_close
FN:311,_RNvNtNtCsldCax6rooq1_18sqlrustgo_executor6filter5testss_27test_filter_executor_as_any
FN:216,_RNvNtNtCsldCax6rooq1_18sqlrustgo_executor6filter5testss_27test_filter_executor_schema
FN:243,_RNvNtNtCsldCax6rooq1_18sqlrustgo_executor6filter5testss_39test_filter_executor_next_filters_false
FN:265,_RNvNtNtCsldCax6rooq1_18sqlrustgo_executor6filter5testss_42test_filter_executor_next_filters_matching
FN:323,_RNvNtNtCsldCax6rooq1_18sqlrustgo_executor6filter5testss_47test_filter_executor_predicate_and_input_schema
FN:195,_RNvXs1_NtNtCsldCax6rooq1_18sqlrustgo_executor6filter5testsNtB5_20MockExecutorWithDataNtNtB9_8executor15VolcanoExecutor14is_initialized
FN:167,_RNvXs1_NtNtCsldCax6rooq1_18sqlrustgo_executor6filter5testsNtB5_20MockExecutorWithDataNtNtB9_8executor15VolcanoExecutor4init
FN:191,_RNvXs1_NtNtCsldCax6rooq1_18sqlrustgo_executor6filter5testsNtB5_20MockExecutorWithDataNtNtB9_8executor15VolcanoExecutor4name
FN:172,_RNvXs1_NtNtCsldCax6rooq1_18sqlrustgo_executor6filter5testsNtB5_20MockExecutorWithDataNtNtB9_8executor15VolcanoExecutor4next
FN:181,_RNvXs1_NtNtCsldCax6rooq1_18sqlrustgo_executor6filter5testsNtB5_20MockExecutorWithDataNtNtB9_8executor15VolcanoExecutor5close
FN:199,_RNvXs1_NtNtCsldCax6rooq1_18sqlrustgo_executor6filter5testsNtB5_20MockExecutorWithDataNtNtB9_8executor15VolcanoExecutor6as_any
FN:187,_RNvXs1_NtNtCsldCax6rooq1_18sqlrustgo_executor6filter5testsNtB5_20MockExecutorWithDataNtNtB9_8executor15VolcanoExecutor6schema
FN:139,_RNvXs_NtNtCsldCax6rooq1_18sqlrustgo_executor6filter5testsNtB4_12MockExecutorNtNtB8_8executor15VolcanoExecutor14is_initialized
FN:117,_RNvXs_NtNtCsldCax6rooq1_18sqlrustgo_executor6filter5testsNtB4_12MockExecutorNtNtB8_8executor15VolcanoExecutor4init
FN:135,_RNvXs_NtNtCsldCax6rooq1_18sqlrustgo_executor6filter5testsNtB4_12MockExecutorNtNtB8_8executor15VolcanoExecutor4name
FN:122,_RNvXs_NtNtCsldCax6rooq1_18sqlrustgo_executor6filter5testsNtB4_12MockExecutorNtNtB8_8executor15VolcanoExecutor4next
FN:126,_RNvXs_NtNtCsldCax6rooq1_18sqlrustgo_executor6filter5testsNtB4_12MockExecutorNtNtB8_8executor15VolcanoExecutor5close
FN:143,_RNvXs_NtNtCsldCax6rooq1_18sqlrustgo_executor6filter5testsNtB4_12MockExecutorNtNtB8_8executor15VolcanoExecutor6as_any
FN:131,_RNvXs_NtNtCsldCax6rooq1_18sqlrustgo_executor6filter5testsNtB4_12MockExecutorNtNtB8_8executor15VolcanoExecutor6schema
FN:44,_RNvMNtCs4qFySXYcYQq_18sqlrustgo_executor6filterNtB2_21FilterVolcanoExecutor12input_schema
FN:25,_RNvMNtCs4qFySXYcYQq_18sqlrustgo_executor6filterNtB2_21FilterVolcanoExecutor3new
FN:40,_RNvMNtCs4qFySXYcYQq_18sqlrustgo_executor6filterNtB2_21FilterVolcanoExecutor9predicate
FN:87,_RNvXs_NtCs4qFySXYcYQq_18sqlrustgo_executor6filterNtB4_21FilterVolcanoExecutorNtNtB6_8executor15VolcanoExecutor14is_initialized
FN:50,_RNvXs_NtCs4qFySXYcYQq_18sqlrustgo_executor6filterNtB4_21FilterVolcanoExecutorNtNtB6_8executor15VolcanoExecutor4init
FN:83,_RNvXs_NtCs4qFySXYcYQq_18sqlrustgo_executor6filterNtB4_21FilterVolcanoExecutorNtNtB6_8executor15VolcanoExecutor4name
FN:56,_RNvXs_NtCs4qFySXYcYQq_18sqlrustgo_executor6filterNtB4_21FilterVolcanoExecutorNtNtB6_8executor15VolcanoExecutor4next
FN:73,_RNvXs_NtCs4qFySXYcYQq_18sqlrustgo_executor6filterNtB4_21FilterVolcanoExecutorNtNtB6_8executor15VolcanoExecutor5close
FN:91,_RNvXs_NtCs4qFySXYcYQq_18sqlrustgo_executor6filterNtB4_21FilterVolcanoExecutorNtNtB6_8executor15VolcanoExecutor6as_any
FN:79,_RNvXs_NtCs4qFySXYcYQq_18sqlrustgo_executor6filterNtB4_21FilterVolcanoExecutorNtNtB6_8executor15VolcanoExecutor6schema
FNDA:0,_RNvMNtCsldCax6rooq1_18sqlrustgo_executor6filterNtB2_21FilterVolcanoExecutor9predicate
FNDA:1,_RNvMNtCsldCax6rooq1_18sqlrustgo_executor6filterNtB2_21FilterVolcanoExecutor12input_schema
FNDA:8,_RNvMNtCsldCax6rooq1_18sqlrustgo_executor6filterNtB2_21FilterVolcanoExecutor3new
FNDA:2,_RNvXs_NtCsldCax6rooq1_18sqlrustgo_executor6filterNtB4_21FilterVolcanoExecutorNtNtB6_8executor15VolcanoExecutor14is_initialized
FNDA:3,_RNvXs_NtCsldCax6rooq1_18sqlrustgo_executor6filterNtB4_21FilterVolcanoExecutorNtNtB6_8executor15VolcanoExecutor4init
FNDA:1,_RNvXs_NtCsldCax6rooq1_18sqlrustgo_executor6filterNtB4_21FilterVolcanoExecutorNtNtB6_8executor15VolcanoExecutor4name
FNDA:2,_RNvXs_NtCsldCax6rooq1_18sqlrustgo_executor6filterNtB4_21FilterVolcanoExecutorNtNtB6_8executor15VolcanoExecutor4next
FNDA:1,_RNvXs_NtCsldCax6rooq1_18sqlrustgo_executor6filterNtB4_21FilterVolcanoExecutorNtNtB6_8executor15VolcanoExecutor5close
FNDA:1,_RNvXs_NtCsldCax6rooq1_18sqlrustgo_executor6filterNtB4_21FilterVolcanoExecutorNtNtB6_8executor15VolcanoExecutor6as_any
FNDA:1,_RNvXs_NtCsldCax6rooq1_18sqlrustgo_executor6filterNtB4_21FilterVolcanoExecutorNtNtB6_8executor15VolcanoExecutor6schema
FNDA:5,_RNvMNtNtCsldCax6rooq1_18sqlrustgo_executor6filter5testsNtB2_12MockExecutor3new
FNDA:3,_RNvMs0_NtNtCsldCax6rooq1_18sqlrustgo_executor6filter5testsNtB5_20MockExecutorWithData3new
FNDA:1,_RNvNtNtCsldCax6rooq1_18sqlrustgo_executor6filter5testss_25test_filter_executor_init
FNDA:1,_RNvNtNtCsldCax6rooq1_18sqlrustgo_executor6filter5testss_25test_filter_executor_name
FNDA:1,_RNvNtNtCsldCax6rooq1_18sqlrustgo_executor6filter5testss_26test_filter_executor_close
FNDA:1,_RNvNtNtCsldCax6rooq1_18sqlrustgo_executor6filter5testss_27test_filter_executor_as_any
FNDA:1,_RNvNtNtCsldCax6rooq1_18sqlrustgo_executor6filter5testss_27test_filter_executor_schema
FNDA:1,_RNvNtNtCsldCax6rooq1_18sqlrustgo_executor6filter5testss_39test_filter_executor_next_filters_false
FNDA:1,_RNvNtNtCsldCax6rooq1_18sqlrustgo_executor6filter5testss_42test_filter_executor_next_filters_matching
FNDA:1,_RNvNtNtCsldCax6rooq1_18sqlrustgo_executor6filter5testss_47test_filter_executor_predicate_and_input_schema
FNDA:0,_RNvXs1_NtNtCsldCax6rooq1_18sqlrustgo_executor6filter5testsNtB5_20MockExecutorWithDataNtNtB9_8executor15VolcanoExecutor14is_initialized
FNDA:3,_RNvXs1_NtNtCsldCax6rooq1_18sqlrustgo_executor6filter5testsNtB5_20MockExecutorWithDataNtNtB9_8executor15VolcanoExecutor4init
FNDA:0,_RNvXs1_NtNtCsldCax6rooq1_18sqlrustgo_executor6filter5testsNtB5_20MockExecutorWithDataNtNtB9_8executor15VolcanoExecutor4name
FNDA:5,_RNvXs1_NtNtCsldCax6rooq1_18sqlrustgo_executor6filter5testsNtB5_20MockExecutorWithDataNtNtB9_8executor15VolcanoExecutor4next
FNDA:1,_RNvXs1_NtNtCsldCax6rooq1_18sqlrustgo_executor6filter5testsNtB5_20MockExecutorWithDataNtNtB9_8executor15VolcanoExecutor5close
FNDA:0,_RNvXs1_NtNtCsldCax6rooq1_18sqlrustgo_executor6filter5testsNtB5_20MockExecutorWithDataNtNtB9_8executor15VolcanoExecutor6as_any
FNDA:0,_RNvXs1_NtNtCsldCax6rooq1_18sqlrustgo_executor6filter5testsNtB5_20MockExecutorWithDataNtNtB9_8executor15VolcanoExecutor6schema
FNDA:0,_RNvXs_NtNtCsldCax6rooq1_18sqlrustgo_executor6filter5testsNtB4_12MockExecutorNtNtB8_8executor15VolcanoExecutor14is_initialized
FNDA:0,_RNvXs_NtNtCsldCax6rooq1_18sqlrustgo_executor6filter5testsNtB4_12MockExecutorNtNtB8_8executor15VolcanoExecutor4init
FNDA:0,_RNvXs_NtNtCsldCax6rooq1_18sqlrustgo_executor6filter5testsNtB4_12MockExecutorNtNtB8_8executor15VolcanoExecutor4name
FNDA:0,_RNvXs_NtNtCsldCax6rooq1_18sqlrustgo_executor6filter5testsNtB4_12MockExecutorNtNtB8_8executor15VolcanoExecutor4next
FNDA:0,_RNvXs_NtNtCsldCax6rooq1_18sqlrustgo_executor6filter5testsNtB4_12MockExecutorNtNtB8_8executor15VolcanoExecutor5close
FNDA:0,_RNvXs_NtNtCsldCax6rooq1_18sqlrustgo_executor6filter5testsNtB4_12MockExecutorNtNtB8_8executor15VolcanoExecutor6as_any
FNDA:0,_RNvXs_NtNtCsldCax6rooq1_18sqlrustgo_executor6filter5testsNtB4_12MockExecutorNtNtB8_8executor15VolcanoExecutor6schema
FNDA:0,_RNvMNtCs4qFySXYcYQq_18sqlrustgo_executor6filterNtB2_21FilterVolcanoExecutor12input_schema
FNDA:0,_RNvMNtCs4qFySXYcYQq_18sqlrustgo_executor6filterNtB2_21FilterVolcanoExecutor3new
FNDA:0,_RNvMNtCs4qFySXYcYQq_18sqlrustgo_executor6filterNtB2_21FilterVolcanoExecutor9predicate
FNDA:0,_RNvXs_NtCs4qFySXYcYQq_18sqlrustgo_executor6filterNtB4_21FilterVolcanoExecutorNtNtB6_8executor15VolcanoExecutor14is_initialized
FNDA:0,_RNvXs_NtCs4qFySXYcYQq_18sqlrustgo_executor6filterNtB4_21FilterVolcanoExecutorNtNtB6_8executor15VolcanoExecutor4init
FNDA:0,_RNvXs_NtCs4qFySXYcYQq_18sqlrustgo_executor6filterNtB4_21FilterVolcanoExecutorNtNtB6_8executor15VolcanoExecutor4name
FNDA:0,_RNvXs_NtCs4qFySXYcYQq_18sqlrustgo_executor6filterNtB4_21FilterVolcanoExecutorNtNtB6_8executor15VolcanoExecutor4next
FNDA:0,_RNvXs_NtCs4qFySXYcYQq_18sqlrustgo_executor6filterNtB4_21FilterVolcanoExecutorNtNtB6_8executor15VolcanoExecutor5close
FNDA:0,_RNvXs_NtCs4qFySXYcYQq_18sqlrustgo_executor6filterNtB4_21FilterVolcanoExecutorNtNtB6_8executor15VolcanoExecutor6as_any
FNDA:0,_RNvXs_NtCs4qFySXYcYQq_18sqlrustgo_executor6filterNtB4_21FilterVolcanoExecutorNtNtB6_8executor15VolcanoExecutor6schema
FNF:34
FNH:22
DA:25,8
DA:26,8
DA:27,8
DA:28,8
DA:29,8
DA:30,8
DA:31,8
DA:32,8
DA:33,8
DA:34,8
DA:35,8
DA:36,8
DA:37,8
DA:38,8
DA:40,0
DA:41,0
DA:42,0
DA:44,1
DA:45,1
DA:46,1
DA:50,3
DA:51,3
DA:52,3
DA:53,3
DA:54,3
DA:56,2
DA:57,5
DA:58,4
DA:60,4
DA:61,1
DA:63,0
DA:64,0
DA:65,0
DA:67,3
DA:70,1
DA:71,2
DA:73,1
DA:74,1
DA:75,1
DA:76,1
DA:77,1
DA:79,1
DA:80,1
DA:81,1
DA:83,1
DA:84,1
DA:85,1
DA:87,2
DA:88,2
DA:89,2
DA:91,1
DA:92,1
DA:93,1
DA:108,5
DA:109,5
DA:110,5
DA:111,5
DA:112,5
DA:113,5
DA:117,0
DA:118,0
DA:119,0
DA:120,0
DA:122,0
DA:123,0
DA:124,0
DA:126,0
DA:127,0
DA:128,0
DA:129,0
DA:131,0
DA:132,0
DA:133,0
DA:135,0
DA:136,0
DA:137,0
DA:139,0
DA:140,0
DA:141,0
DA:143,0
DA:144,0
DA:145,0
DA:156,3
DA:157,3
DA:158,3
DA:159,3
DA:160,3
DA:161,3
DA:162,3
DA:163,3
DA:167,3
DA:168,3
DA:169,3
DA:170,3
DA:172,5
DA:173,5
DA:174,1
DA:175,4
DA:176,4
DA:177,4
DA:178,4
DA:179,5
DA:181,1
DA:182,1
DA:183,1
DA:184,1
DA:185,1
DA:187,0
DA:188,0
DA:189,0
DA:191,0
DA:192,0
DA:193,0
DA:195,0
DA:196,0
DA:197,0
DA:199,0
DA:200,0
DA:201,0
DA:205,1
DA:206,1
DA:207,1
DA:208,1
DA:209,1
DA:210,1
DA:212,1
DA:213,1
DA:216,1
DA:217,1
DA:218,1
DA:219,1
DA:221,1
DA:222,1
DA:223,1
DA:224,1
DA:225,1
DA:226,1
DA:228,1
DA:229,1
DA:232,1
DA:233,1
DA:234,1
DA:235,1
DA:236,1
DA:237,1
DA:239,1
DA:240,1
DA:243,1
DA:244,1
DA:245,1
DA:246,1
DA:249,1
DA:250,1
DA:252,1
DA:253,1
DA:254,1
DA:255,1
DA:256,1
DA:259,1
DA:260,1
DA:261,1
DA:262,1
DA:265,1
DA:266,1
DA:267,1
DA:268,1
DA:269,1
DA:272,1
DA:273,1
DA:275,1
DA:276,1
DA:277,1
DA:278,1
DA:279,1
DA:280,1
DA:281,1
DA:282,1
DA:283,1
DA:286,1
DA:287,1
DA:288,1
DA:289,1
DA:290,1
DA:293,1
DA:294,1
DA:295,1
DA:296,1
DA:298,1
DA:299,1
DA:300,1
DA:301,1
DA:302,1
DA:305,1
DA:306,1
DA:307,1
DA:308,1
DA:311,1
DA:312,1
DA:313,1
DA:314,1
DA:315,1
DA:316,1
DA:318,1
DA:319,1
DA:320,1
DA:323,1
DA:324,1
DA:325,1
DA:326,1
DA:327,1
DA:328,1
DA:329,1
DA:331,1
DA:332,1
BRF:0
BRH:0
LF:214
LH:173
end_of_record
SF:/home/openclaw/dev/yinglichina8848/sqlrustgo/crates/executor/src/harness.rs
FN:66,_RINvMs_NtCsldCax6rooq1_18sqlrustgo_executor7harnessNtB5_16ExecutorTestCase3runpEB7_
FN:158,_RNCNvNtNtCsldCax6rooq1_18sqlrustgo_executor7harness10assertions21assert_contains_value0B7_
FN:18,_RNvMNtCsldCax6rooq1_18sqlrustgo_executor7harnessINtB2_11TestHarnesspE3newB4_
FN:23,_RNvMNtCsldCax6rooq1_18sqlrustgo_executor7harnessINtB2_11TestHarnesspE7executeB4_
FN:29,_RNvMNtCsldCax6rooq1_18sqlrustgo_executor7harnessINtB2_11TestHarnesspE7storageB4_
FN:54,_RNvMs_NtCsldCax6rooq1_18sqlrustgo_executor7harnessNtB4_16ExecutorTestCase11expect_rows
FN:60,_RNvMs_NtCsldCax6rooq1_18sqlrustgo_executor7harnessNtB4_16ExecutorTestCase16expect_first_row
FN:44,_RNvMs_NtCsldCax6rooq1_18sqlrustgo_executor7harnessNtB4_16ExecutorTestCase3new
FN:119,_RNvNtNtCsldCax6rooq1_18sqlrustgo_executor7harness10assertions14assert_no_rows
FN:111,_RNvNtNtCsldCax6rooq1_18sqlrustgo_executor7harness10assertions15assert_has_rows
FN:100,_RNvNtNtCsldCax6rooq1_18sqlrustgo_executor7harness10assertions16assert_row_count
FN:137,_RNvNtNtCsldCax6rooq1_18sqlrustgo_executor7harness10assertions17assert_row_equals
FN:148,_RNvNtNtCsldCax6rooq1_18sqlrustgo_executor7harness10assertions20assert_affected_rows
FN:157,_RNvNtNtCsldCax6rooq1_18sqlrustgo_executor7harness10assertions21assert_contains_value
FN:128,_RNvNtNtCsldCax6rooq1_18sqlrustgo_executor7harness10assertions23assert_first_row_equals
FN:214,_RNvNtNtCsldCax6rooq1_18sqlrustgo_executor7harness7helpers12users_schema
FN:222,_RNvNtNtCsldCax6rooq1_18sqlrustgo_executor7harness7helpers13orders_schema
FN:231,_RNvNtNtCsldCax6rooq1_18sqlrustgo_executor7harness7helpers15products_schema
FN:188,_RNvNtNtCsldCax6rooq1_18sqlrustgo_executor7harness7helpers18create_filter_plan
FN:173,_RNvNtNtCsldCax6rooq1_18sqlrustgo_executor7harness7helpers20create_seq_scan_plan
FN:197,_RNvNtNtCsldCax6rooq1_18sqlrustgo_executor7harness7helpers21create_aggregate_plan
FN:178,_RNvNtNtCsldCax6rooq1_18sqlrustgo_executor7harness7helpers22create_projection_plan
FN:246,_RNvNtNtCsldCax6rooq1_18sqlrustgo_executor7harness8fixtures17setup_users_table
FN:337,_RNvNtNtCsldCax6rooq1_18sqlrustgo_executor7harness8fixtures18setup_orders_table
FN:287,_RNvNtNtCsldCax6rooq1_18sqlrustgo_executor7harness8fixtures21setup_customers_table
FN:158,_RNCNvNtNtCs4qFySXYcYQq_18sqlrustgo_executor7harness10assertions21assert_contains_value0B7_
FNDA:0,_RINvMs_NtCsldCax6rooq1_18sqlrustgo_executor7harnessNtB5_16ExecutorTestCase3runpEB7_
FNDA:0,_RNCNvNtNtCsldCax6rooq1_18sqlrustgo_executor7harness10assertions21assert_contains_value0B7_
FNDA:0,_RNvMNtCsldCax6rooq1_18sqlrustgo_executor7harnessINtB2_11TestHarnesspE3newB4_
FNDA:0,_RNvMNtCsldCax6rooq1_18sqlrustgo_executor7harnessINtB2_11TestHarnesspE7executeB4_
FNDA:0,_RNvMNtCsldCax6rooq1_18sqlrustgo_executor7harnessINtB2_11TestHarnesspE7storageB4_
FNDA:0,_RNvMs_NtCsldCax6rooq1_18sqlrustgo_executor7harnessNtB4_16ExecutorTestCase11expect_rows
FNDA:0,_RNvMs_NtCsldCax6rooq1_18sqlrustgo_executor7harnessNtB4_16ExecutorTestCase16expect_first_row
FNDA:0,_RNvMs_NtCsldCax6rooq1_18sqlrustgo_executor7harnessNtB4_16ExecutorTestCase3new
FNDA:0,_RNvNtNtCsldCax6rooq1_18sqlrustgo_executor7harness10assertions14assert_no_rows
FNDA:0,_RNvNtNtCsldCax6rooq1_18sqlrustgo_executor7harness10assertions15assert_has_rows
FNDA:0,_RNvNtNtCsldCax6rooq1_18sqlrustgo_executor7harness10assertions16assert_row_count
FNDA:0,_RNvNtNtCsldCax6rooq1_18sqlrustgo_executor7harness10assertions17assert_row_equals
FNDA:0,_RNvNtNtCsldCax6rooq1_18sqlrustgo_executor7harness10assertions20assert_affected_rows
FNDA:0,_RNvNtNtCsldCax6rooq1_18sqlrustgo_executor7harness10assertions21assert_contains_value
FNDA:0,_RNvNtNtCsldCax6rooq1_18sqlrustgo_executor7harness10assertions23assert_first_row_equals
FNDA:0,_RNvNtNtCsldCax6rooq1_18sqlrustgo_executor7harness7helpers12users_schema
FNDA:0,_RNvNtNtCsldCax6rooq1_18sqlrustgo_executor7harness7helpers13orders_schema
FNDA:0,_RNvNtNtCsldCax6rooq1_18sqlrustgo_executor7harness7helpers15products_schema
FNDA:0,_RNvNtNtCsldCax6rooq1_18sqlrustgo_executor7harness7helpers18create_filter_plan
FNDA:0,_RNvNtNtCsldCax6rooq1_18sqlrustgo_executor7harness7helpers20create_seq_scan_plan
FNDA:0,_RNvNtNtCsldCax6rooq1_18sqlrustgo_executor7harness7helpers21create_aggregate_plan
FNDA:0,_RNvNtNtCsldCax6rooq1_18sqlrustgo_executor7harness7helpers22create_projection_plan
FNDA:0,_RNvNtNtCsldCax6rooq1_18sqlrustgo_executor7harness8fixtures17setup_users_table
FNDA:0,_RNvNtNtCsldCax6rooq1_18sqlrustgo_executor7harness8fixtures18setup_orders_table
FNDA:0,_RNvNtNtCsldCax6rooq1_18sqlrustgo_executor7harness8fixtures21setup_customers_table
FNDA:0,_RNCNvNtNtCs4qFySXYcYQq_18sqlrustgo_executor7harness10assertions21assert_contains_value0B7_
FNF:25
FNH:0
DA:18,0
DA:19,0
DA:20,0
DA:23,0
DA:24,0
DA:25,0
DA:26,0
DA:29,0
DA:30,0
DA:31,0
DA:44,0
DA:45,0
DA:46,0
DA:47,0
DA:48,0
DA:49,0
DA:50,0
DA:51,0
DA:54,0
DA:55,0
DA:56,0
DA:57,0
DA:60,0
DA:61,0
DA:62,0
DA:63,0
DA:66,0
DA:67,0
DA:69,0
DA:70,0
DA:75,0
DA:78,0
DA:79,0
DA:80,0
DA:84,0
DA:85,0
DA:89,0
DA:91,0
DA:92,0
DA:100,0
DA:101,0
DA:102,0
DA:106,0
DA:108,0
DA:111,0
DA:112,0
DA:113,0
DA:116,0
DA:119,0
DA:120,0
DA:121,0
DA:123,0
DA:125,0
DA:128,0
DA:129,0
DA:130,0
DA:133,0
DA:134,0
DA:137,0
DA:138,0
DA:139,0
DA:142,0
DA:144,0
DA:145,0
DA:148,0
DA:149,0
DA:154,0
DA:157,0
DA:158,0
DA:159,0
DA:160,0
DA:164,0
DA:173,0
DA:174,0
DA:175,0
DA:178,0
DA:179,0
DA:180,0
DA:181,0
DA:182,0
DA:184,0
DA:185,0
DA:188,0
DA:189,0
DA:190,0
DA:191,0
DA:193,0
DA:194,0
DA:197,0
DA:198,0
DA:199,0
DA:200,0
DA:201,0
DA:202,0
DA:204,0
DA:205,0
DA:206,0
DA:207,0
DA:208,0
DA:209,0
DA:210,0
DA:211,0
DA:214,0
DA:215,0
DA:216,0
DA:217,0
DA:219,0
DA:222,0
DA:223,0
DA:224,0
DA:225,0
DA:226,0
DA:228,0
DA:231,0
DA:232,0
DA:233,0
DA:234,0
DA:235,0
DA:237,0
DA:246,0
DA:247,0
DA:248,0
DA:249,0
DA:250,0
DA:251,0
DA:252,0
DA:253,0
DA:254,0
DA:255,0
DA:256,0
DA:257,0
DA:258,0
DA:259,0
DA:260,0
DA:261,0
DA:262,0
DA:263,0
DA:264,0
DA:265,0
DA:266,0
DA:267,0
DA:268,0
DA:269,0
DA:270,0
DA:271,0
DA:272,0
DA:274,0
DA:275,0
DA:276,0
DA:277,0
DA:278,0
DA:279,0
DA:281,0
DA:283,0
DA:284,0
DA:287,0
DA:288,0
DA:289,0
DA:290,0
DA:291,0
DA:292,0
DA:293,0
DA:294,0
DA:295,0
DA:296,0
DA:297,0
DA:298,0
DA:299,0
DA:300,0
DA:301,0
DA:302,0
DA:303,0
DA:304,0
DA:305,0
DA:306,0
DA:307,0
DA:308,0
DA:309,0
DA:310,0
DA:311,0
DA:312,0
DA:313,0
DA:315,0
DA:316,0
DA:317,0
DA:318,0
DA:319,0
DA:320,0
DA:322,0
DA:323,0
DA:324,0
DA:326,0
DA:327,0
DA:328,0
DA:331,0
DA:333,0
DA:334,0
DA:337,0
DA:338,0
DA:339,0
DA:340,0
DA:341,0
DA:342,0
DA:343,0
DA:344,0
DA:345,0
DA:346,0
DA:347,0
DA:348,0
DA:349,0
DA:350,0
DA:351,0
DA:352,0
DA:353,0
DA:354,0
DA:355,0
DA:356,0
DA:357,0
DA:358,0
DA:359,0
DA:360,0
DA:361,0
DA:362,0
DA:363,0
DA:364,0
DA:365,0
DA:366,0
DA:367,0
DA:368,0
DA:369,0
DA:370,0
DA:371,0
DA:372,0
DA:373,0
DA:375,0
DA:376,0
DA:377,0
DA:378,0
DA:379,0
DA:380,0
DA:382,0
DA:384,0
DA:385,0
BRF:0
BRH:0
LF:244
LH:0
end_of_record
SF:/home/openclaw/dev/yinglichina8848/sqlrustgo/crates/executor/src/index_scan.rs
FN:186,_RNvNtCsldCax6rooq1_18sqlrustgo_executor10index_scan20extract_column_value
FN:154,_RNvXININtCsldCax6rooq1_18sqlrustgo_executor10index_scans0_0pEINtB5_24IndexScanVolcanoExecutorpENtNtB7_4scan13IndexScanable13can_use_indexB7_
FN:176,_RNvXININtCsldCax6rooq1_18sqlrustgo_executor10index_scans0_0pEINtB5_24IndexScanVolcanoExecutorpENtNtB7_4scan13IndexScanable17estimate_seq_costB7_
FN:165,_RNvXININtCsldCax6rooq1_18sqlrustgo_executor10index_scans0_0pEINtB5_24IndexScanVolcanoExecutorpENtNtB7_4scan13IndexScanable19estimate_index_costB7_
FN:44,_RNvXININtCsldCax6rooq1_18sqlrustgo_executor10index_scans_0pEINtB5_24IndexScanVolcanoExecutorpENtNtB7_8executor15VolcanoExecutor4initB7_
FN:121,_RNvXININtCsldCax6rooq1_18sqlrustgo_executor10index_scans_0pEINtB5_24IndexScanVolcanoExecutorpENtNtB7_8executor15VolcanoExecutor4nextB7_
FN:130,_RNvXININtCsldCax6rooq1_18sqlrustgo_executor10index_scans_0pEINtB5_24IndexScanVolcanoExecutorpENtNtB7_8executor15VolcanoExecutor5closeB7_
FN:148,_RNvXININtCsldCax6rooq1_18sqlrustgo_executor10index_scans_0pEINtB5_24IndexScanVolcanoExecutorpENtNtB7_8executor15VolcanoExecutor6as_anyB7_
FN:136,_RNvXININtCsldCax6rooq1_18sqlrustgo_executor10index_scans_0pEINtB5_24IndexScanVolcanoExecutorpENtNtB7_8executor15VolcanoExecutor6schemaB7_
FN:24,_RNvMNtCsldCax6rooq1_18sqlrustgo_executor10index_scanINtB2_24IndexScanVolcanoExecutorNtNtCs1u7In8Za3Xp_17sqlrustgo_storage6engine13MemoryStorageE3newB4_
FN:144,_RNvXs_NtCsldCax6rooq1_18sqlrustgo_executor10index_scanINtB4_24IndexScanVolcanoExecutorNtNtCs1u7In8Za3Xp_17sqlrustgo_storage6engine13MemoryStorageENtNtB6_8executor15VolcanoExecutor14is_initializedB6_
FN:140,_RNvXs_NtCsldCax6rooq1_18sqlrustgo_executor10index_scanINtB4_24IndexScanVolcanoExecutorNtNtCs1u7In8Za3Xp_17sqlrustgo_storage6engine13MemoryStorageENtNtB6_8executor15VolcanoExecutor4nameB6_
FN:201,_RNvNtNtCsldCax6rooq1_18sqlrustgo_executor10index_scan5tests19create_test_storage
FN:230,_RNvNtNtCsldCax6rooq1_18sqlrustgo_executor10index_scan5testss_20test_index_scan_name
FN:206,_RNvNtNtCsldCax6rooq1_18sqlrustgo_executor10index_scan5testss_25test_extract_column_value
FN:243,_RNvNtNtCsldCax6rooq1_18sqlrustgo_executor10index_scan5testss_31test_index_scan_not_initialized
FN:221,_RNvNtNtCsldCax6rooq1_18sqlrustgo_executor10index_scan5testss_33test_extract_column_value_invalid
FNDA:3,_RNvNtCsldCax6rooq1_18sqlrustgo_executor10index_scan20extract_column_value
FNDA:0,_RNvXININtCsldCax6rooq1_18sqlrustgo_executor10index_scans0_0pEINtB5_24IndexScanVolcanoExecutorpENtNtB7_4scan13IndexScanable13can_use_indexB7_
FNDA:0,_RNvXININtCsldCax6rooq1_18sqlrustgo_executor10index_scans0_0pEINtB5_24IndexScanVolcanoExecutorpENtNtB7_4scan13IndexScanable17estimate_seq_costB7_
FNDA:0,_RNvXININtCsldCax6rooq1_18sqlrustgo_executor10index_scans0_0pEINtB5_24IndexScanVolcanoExecutorpENtNtB7_4scan13IndexScanable19estimate_index_costB7_
FNDA:0,_RNvXININtCsldCax6rooq1_18sqlrustgo_executor10index_scans_0pEINtB5_24IndexScanVolcanoExecutorpENtNtB7_8executor15VolcanoExecutor4initB7_
FNDA:0,_RNvXININtCsldCax6rooq1_18sqlrustgo_executor10index_scans_0pEINtB5_24IndexScanVolcanoExecutorpENtNtB7_8executor15VolcanoExecutor4nextB7_
FNDA:0,_RNvXININtCsldCax6rooq1_18sqlrustgo_executor10index_scans_0pEINtB5_24IndexScanVolcanoExecutorpENtNtB7_8executor15VolcanoExecutor5closeB7_
FNDA:0,_RNvXININtCsldCax6rooq1_18sqlrustgo_executor10index_scans_0pEINtB5_24IndexScanVolcanoExecutorpENtNtB7_8executor15VolcanoExecutor6as_anyB7_
FNDA:0,_RNvXININtCsldCax6rooq1_18sqlrustgo_executor10index_scans_0pEINtB5_24IndexScanVolcanoExecutorpENtNtB7_8executor15VolcanoExecutor6schemaB7_
FNDA:2,_RNvMNtCsldCax6rooq1_18sqlrustgo_executor10index_scanINtB2_24IndexScanVolcanoExecutorNtNtCs1u7In8Za3Xp_17sqlrustgo_storage6engine13MemoryStorageE3newB4_
FNDA:1,_RNvXs_NtCsldCax6rooq1_18sqlrustgo_executor10index_scanINtB4_24IndexScanVolcanoExecutorNtNtCs1u7In8Za3Xp_17sqlrustgo_storage6engine13MemoryStorageENtNtB6_8executor15VolcanoExecutor14is_initializedB6_
FNDA:1,_RNvXs_NtCsldCax6rooq1_18sqlrustgo_executor10index_scanINtB4_24IndexScanVolcanoExecutorNtNtCs1u7In8Za3Xp_17sqlrustgo_storage6engine13MemoryStorageENtNtB6_8executor15VolcanoExecutor4nameB6_
FNDA:2,_RNvNtNtCsldCax6rooq1_18sqlrustgo_executor10index_scan5tests19create_test_storage
FNDA:1,_RNvNtNtCsldCax6rooq1_18sqlrustgo_executor10index_scan5testss_20test_index_scan_name
FNDA:1,_RNvNtNtCsldCax6rooq1_18sqlrustgo_executor10index_scan5testss_25test_extract_column_value
FNDA:1,_RNvNtNtCsldCax6rooq1_18sqlrustgo_executor10index_scan5testss_31test_index_scan_not_initialized
FNDA:1,_RNvNtNtCsldCax6rooq1_18sqlrustgo_executor10index_scan5testss_33test_extract_column_value_invalid
FNF:17
FNH:9
DA:24,2
DA:25,2
DA:26,2
DA:27,2
DA:28,2
DA:29,2
DA:30,2
DA:31,2
DA:32,2
DA:33,2
DA:34,2
DA:35,2
DA:36,2
DA:37,2
DA:38,2
DA:39,2
DA:40,2
DA:44,0
DA:45,0
DA:48,0
DA:49,0
DA:51,0
DA:52,0
DA:53,0
DA:54,0
DA:55,0
DA:56,0
DA:61,0
DA:62,0
DA:64,0
DA:65,0
DA:66,0
DA:68,0
DA:69,0
DA:73,0
DA:74,0
DA:76,0
DA:77,0
DA:78,0
DA:80,0
DA:81,0
DA:85,0
DA:86,0
DA:88,0
DA:89,0
DA:90,0
DA:92,0
DA:93,0
DA:97,0
DA:98,0
DA:100,0
DA:101,0
DA:102,0
DA:104,0
DA:105,0
DA:108,0
DA:113,0
DA:114,0
DA:115,0
DA:116,0
DA:118,0
DA:119,0
DA:121,0
DA:122,0
DA:123,0
DA:124,0
DA:126,0
DA:128,0
DA:130,0
DA:131,0
DA:132,0
DA:133,0
DA:134,0
DA:136,0
DA:137,0
DA:138,0
DA:140,1
DA:141,1
DA:142,1
DA:144,1
DA:145,1
DA:146,1
DA:148,0
DA:149,0
DA:150,0
DA:154,0
DA:155,0
DA:156,0
DA:163,0
DA:165,0
DA:166,0
DA:167,0
DA:168,0
DA:169,0
DA:170,0
DA:172,0
DA:173,0
DA:174,0
DA:176,0
DA:177,0
DA:178,0
DA:186,3
DA:187,3
DA:188,1
DA:189,1
DA:190,1
DA:192,3
DA:201,2
DA:202,2
DA:203,2
DA:206,1
DA:208,1
DA:209,1
DA:210,1
DA:211,1
DA:214,1
DA:215,1
DA:216,1
DA:217,1
DA:218,1
DA:221,1
DA:223,1
DA:224,1
DA:225,1
DA:226,1
DA:227,1
DA:230,1
DA:231,1
DA:232,1
DA:233,1
DA:234,1
DA:235,1
DA:236,1
DA:237,1
DA:239,1
DA:240,1
DA:243,1
DA:244,1
DA:245,1
DA:246,1
DA:247,1
DA:248,1
DA:249,1
DA:250,1
DA:252,1
DA:253,1
BRF:0
BRH:0
LF:146
LH:68
end_of_record
SF:/home/openclaw/dev/yinglichina8848/sqlrustgo/crates/executor/src/lib.rs
FN:259,_RNvXCsldCax6rooq1_18sqlrustgo_executorNtB2_12MockExecutorNtNtB2_8executor8Executor4name
FN:255,_RNvXCsldCax6rooq1_18sqlrustgo_executorNtB2_12MockExecutorNtNtB2_8executor8Executor7execute
FN:263,_RNvXCsldCax6rooq1_18sqlrustgo_executorNtB2_12MockExecutorNtNtB2_8executor8Executor8is_ready
FN:185,_RNvNtCsldCax6rooq1_18sqlrustgo_executor5testss_14test_log_level
FN:173,_RNvNtCsldCax6rooq1_18sqlrustgo_executor5testss_16test_cache_entry
FN:203,_RNvNtCsldCax6rooq1_18sqlrustgo_executor5testss_17test_record_batch
FN:92,_RNvNtCsldCax6rooq1_18sqlrustgo_executor5testss_19test_module_exports
FN:197,_RNvNtCsldCax6rooq1_18sqlrustgo_executor5testss_20test_vector_creation
FN:225,_RNvNtCsldCax6rooq1_18sqlrustgo_executor5testss_22test_column_array_text
FN:150,_RNvNtCsldCax6rooq1_18sqlrustgo_executor5testss_22test_query_cache_stats
FN:233,_RNvNtCsldCax6rooq1_18sqlrustgo_executor5testss_23test_agg_function_count
FN:160,_RNvNtCsldCax6rooq1_18sqlrustgo_executor5testss_23test_cache_key_equality
FN:209,_RNvNtCsldCax6rooq1_18sqlrustgo_executor5testss_23test_column_array_int64
FN:245,_RNvNtCsldCax6rooq1_18sqlrustgo_executor5testss_24test_query_cache_metrics
FN:217,_RNvNtCsldCax6rooq1_18sqlrustgo_executor5testss_25test_column_array_float64
FN:137,_RNvNtCsldCax6rooq1_18sqlrustgo_executor5testss_26test_executor_result_debug
FN:191,_RNvNtCsldCax6rooq1_18sqlrustgo_executor5testss_28test_session_config_defaults
FN:98,_RNvNtCsldCax6rooq1_18sqlrustgo_executor5testss_29test_executor_result_creation
FN:144,_RNvNtCsldCax6rooq1_18sqlrustgo_executor5testss_30test_executor_metrics_creation
FN:105,_RNvNtCsldCax6rooq1_18sqlrustgo_executor5testss_30test_executor_result_with_data
FN:239,_RNvNtCsldCax6rooq1_18sqlrustgo_executor5testss_31test_query_cache_config_default
FN:126,_RNvNtCsldCax6rooq1_18sqlrustgo_executor5testss_37test_executor_result_with_null_values
FN:113,_RNvNtCsldCax6rooq1_18sqlrustgo_executor5testss_39test_executor_result_with_multiple_rows
FNDA:0,_RNvXCsldCax6rooq1_18sqlrustgo_executorNtB2_12MockExecutorNtNtB2_8executor8Executor4name
FNDA:0,_RNvXCsldCax6rooq1_18sqlrustgo_executorNtB2_12MockExecutorNtNtB2_8executor8Executor7execute
FNDA:0,_RNvXCsldCax6rooq1_18sqlrustgo_executorNtB2_12MockExecutorNtNtB2_8executor8Executor8is_ready
FNDA:1,_RNvNtCsldCax6rooq1_18sqlrustgo_executor5testss_14test_log_level
FNDA:1,_RNvNtCsldCax6rooq1_18sqlrustgo_executor5testss_16test_cache_entry
FNDA:1,_RNvNtCsldCax6rooq1_18sqlrustgo_executor5testss_17test_record_batch
FNDA:1,_RNvNtCsldCax6rooq1_18sqlrustgo_executor5testss_19test_module_exports
FNDA:1,_RNvNtCsldCax6rooq1_18sqlrustgo_executor5testss_20test_vector_creation
FNDA:1,_RNvNtCsldCax6rooq1_18sqlrustgo_executor5testss_22test_column_array_text
FNDA:1,_RNvNtCsldCax6rooq1_18sqlrustgo_executor5testss_22test_query_cache_stats
FNDA:1,_RNvNtCsldCax6rooq1_18sqlrustgo_executor5testss_23test_agg_function_count
FNDA:1,_RNvNtCsldCax6rooq1_18sqlrustgo_executor5testss_23test_cache_key_equality
FNDA:1,_RNvNtCsldCax6rooq1_18sqlrustgo_executor5testss_23test_column_array_int64
FNDA:1,_RNvNtCsldCax6rooq1_18sqlrustgo_executor5testss_24test_query_cache_metrics
FNDA:1,_RNvNtCsldCax6rooq1_18sqlrustgo_executor5testss_25test_column_array_float64
FNDA:1,_RNvNtCsldCax6rooq1_18sqlrustgo_executor5testss_26test_executor_result_debug
FNDA:1,_RNvNtCsldCax6rooq1_18sqlrustgo_executor5testss_28test_session_config_defaults
FNDA:1,_RNvNtCsldCax6rooq1_18sqlrustgo_executor5testss_29test_executor_result_creation
FNDA:1,_RNvNtCsldCax6rooq1_18sqlrustgo_executor5testss_30test_executor_metrics_creation
FNDA:1,_RNvNtCsldCax6rooq1_18sqlrustgo_executor5testss_30test_executor_result_with_data
FNDA:1,_RNvNtCsldCax6rooq1_18sqlrustgo_executor5testss_31test_query_cache_config_default
FNDA:1,_RNvNtCsldCax6rooq1_18sqlrustgo_executor5testss_37test_executor_result_with_null_values
FNDA:1,_RNvNtCsldCax6rooq1_18sqlrustgo_executor5testss_39test_executor_result_with_multiple_rows
FNF:23
FNH:20
DA:92,1
DA:93,1
DA:94,1
DA:95,1
DA:98,1
DA:99,1
DA:100,1
DA:101,1
DA:102,1
DA:105,1
DA:106,1
DA:107,1
DA:108,1
DA:109,1
DA:110,1
DA:113,1
DA:114,1
DA:115,1
DA:116,1
DA:117,1
DA:119,1
DA:120,1
DA:121,1
DA:122,1
DA:123,1
DA:126,1
DA:127,1
DA:128,1
DA:129,1
DA:131,1
DA:132,1
DA:133,1
DA:134,1
DA:137,1
DA:138,1
DA:139,1
DA:140,1
DA:141,1
DA:144,1
DA:145,1
DA:146,1
DA:147,1
DA:150,1
DA:151,1
DA:152,1
DA:153,1
DA:154,1
DA:155,1
DA:156,1
DA:157,1
DA:160,1
DA:161,1
DA:162,1
DA:163,1
DA:164,1
DA:165,1
DA:166,1
DA:167,1
DA:168,1
DA:169,1
DA:170,1
DA:173,1
DA:174,1
DA:175,1
DA:176,1
DA:177,1
DA:178,1
DA:179,1
DA:180,1
DA:181,1
DA:182,1
DA:185,1
DA:186,1
DA:187,1
DA:188,1
DA:191,1
DA:192,1
DA:193,1
DA:194,1
DA:197,1
DA:198,1
DA:199,1
DA:200,1
DA:203,1
DA:204,1
DA:205,1
DA:206,1
DA:209,1
DA:210,1
DA:211,1
DA:212,1
DA:213,1
DA:214,1
DA:217,1
DA:218,1
DA:219,1
DA:220,1
DA:221,1
DA:222,1
DA:225,1
DA:226,1
DA:227,1
DA:228,1
DA:229,1
DA:230,1
DA:233,1
DA:234,1
DA:235,1
DA:236,1
DA:239,1
DA:240,1
DA:241,1
DA:242,1
DA:245,1
DA:246,1
DA:247,1
DA:248,1
DA:255,0
DA:256,0
DA:257,0
DA:259,0
DA:260,0
DA:261,0
DA:263,0
DA:264,0
DA:265,0
BRF:0
BRH:0
LF:126
LH:117
end_of_record
SF:/home/openclaw/dev/yinglichina8848/sqlrustgo/crates/executor/src/local_executor.rs
FN:91,_RNvMNtCsldCax6rooq1_18sqlrustgo_executor14local_executorNtB2_13LocalExecutor11clear_cache
FN:86,_RNvMNtCsldCax6rooq1_18sqlrustgo_executor14local_executorNtB2_13LocalExecutor16invalidate_table
FN:53,_RNvMNtCsldCax6rooq1_18sqlrustgo_executor14local_executorNtB2_13LocalExecutor17with_cache_config
FN:65,_RNvMNtCsldCax6rooq1_18sqlrustgo_executor14local_executorNtB2_13LocalExecutor19with_slow_query_log
FN:74,_RNvMNtCsldCax6rooq1_18sqlrustgo_executor14local_executorNtB2_13LocalExecutor27with_slow_query_log_enabled
FN:96,_RNvMNtCsldCax6rooq1_18sqlrustgo_executor14local_executorNtB2_13LocalExecutor7storage
FN:982,_RNvXs0_NtCsldCax6rooq1_18sqlrustgo_executor14local_executorNtB5_13LocalExecutorNtNtB7_8executor8Executor7execute
FN:682,_RNCNCNvMNtCsldCax6rooq1_18sqlrustgo_executor14local_executorNtB6_13LocalExecutor17execute_hash_join00B8_
FN:363,_RNCNCNvMNtCsldCax6rooq1_18sqlrustgo_executor14local_executorNtB6_13LocalExecutor18execute_projections_00B8_
FN:412,_RNCNvMNtCsldCax6rooq1_18sqlrustgo_executor14local_executorNtB4_13LocalExecutor14execute_filter0B6_
FN:458,_RNCNvMNtCsldCax6rooq1_18sqlrustgo_executor14local_executorNtB4_13LocalExecutor17execute_aggregate0B6_
FN:517,_RNCNvMNtCsldCax6rooq1_18sqlrustgo_executor14local_executorNtB4_13LocalExecutor17execute_aggregates0_0B6_
FN:497,_RNCNvMNtCsldCax6rooq1_18sqlrustgo_executor14local_executorNtB4_13LocalExecutor17execute_aggregates_0B6_
FN:681,_RNCNvMNtCsldCax6rooq1_18sqlrustgo_executor14local_executorNtB4_13LocalExecutor17execute_hash_join0B6_
FN:687,_RNCNvMNtCsldCax6rooq1_18sqlrustgo_executor14local_executorNtB4_13LocalExecutor17execute_hash_joins_0B6_
FN:241,_RNCNvMNtCsldCax6rooq1_18sqlrustgo_executor14local_executorNtB4_13LocalExecutor18execute_index_scan0B6_
FN:347,_RNCNvMNtCsldCax6rooq1_18sqlrustgo_executor14local_executorNtB4_13LocalExecutor18execute_projection0B6_
FN:360,_RNCNvMNtCsldCax6rooq1_18sqlrustgo_executor14local_executorNtB4_13LocalExecutor18execute_projections_0B6_
FN:159,_RNCNvMNtCsldCax6rooq1_18sqlrustgo_executor14local_executorNtB4_13LocalExecutor18execute_with_cache0B6_
FN:781,_RNCNvMNtCsldCax6rooq1_18sqlrustgo_executor14local_executorNtB4_13LocalExecutor23execute_sort_merge_join0B6_
FN:790,_RNCNvMNtCsldCax6rooq1_18sqlrustgo_executor14local_executorNtB4_13LocalExecutor23execute_sort_merge_joins0_0B6_
FN:786,_RNCNvMNtCsldCax6rooq1_18sqlrustgo_executor14local_executorNtB4_13LocalExecutor23execute_sort_merge_joins_0B6_
FN:854,_RNCNvNtCsldCax6rooq1_18sqlrustgo_executor14local_executor15hash_inner_join0B5_
FN:879,_RNCNvNtCsldCax6rooq1_18sqlrustgo_executor14local_executor21sort_merge_inner_join0B5_
FN:932,_RNCNvNtCsldCax6rooq1_18sqlrustgo_executor14local_executor21sort_merge_inner_joins0_0B5_
FN:889,_RNCNvNtCsldCax6rooq1_18sqlrustgo_executor14local_executor21sort_merge_inner_joins_0B5_
FN:1066,_RINvNvNtNtCsldCax6rooq1_18sqlrustgo_executor14local_executor5testss_29test_local_executor_send_sync6__checkNtB6_13LocalExecutorEB8_
FN:1509,_RNvMNvNtNtCsldCax6rooq1_18sqlrustgo_executor14local_executor5testss_35test_execute_with_unknown_plan_typeNtB2_11UnknownPlan3new
FN:1005,_RNvNtNtCsldCax6rooq1_18sqlrustgo_executor14local_executor5tests16make_test_schema
FN:1446,_RNvNtNtCsldCax6rooq1_18sqlrustgo_executor14local_executor5testss_17test_execute_sort
FN:1474,_RNvNtNtCsldCax6rooq1_18sqlrustgo_executor14local_executor5testss_18test_execute_limit
FN:1493,_RNvNtNtCsldCax6rooq1_18sqlrustgo_executor14local_executor5testss_18test_executor_name
FN:1608,_RNvNtNtCsldCax6rooq1_18sqlrustgo_executor14local_executor5testss_22test_executor_is_ready
FN:1072,_RNvNtNtCsldCax6rooq1_18sqlrustgo_executor14local_executor5testss_23test_execute_projection
FN:1240,_RNvNtNtCsldCax6rooq1_18sqlrustgo_executor14local_executor5testss_26test_execute_aggregate_avg
FN:1660,_RNvNtNtCsldCax6rooq1_18sqlrustgo_executor14local_executor5testss_26test_execute_aggregate_max
FN:1616,_RNvNtNtCsldCax6rooq1_18sqlrustgo_executor14local_executor5testss_26test_execute_aggregate_min
FN:1194,_RNvNtNtCsldCax6rooq1_18sqlrustgo_executor14local_executor5testss_26test_execute_aggregate_sum
FN:1704,_RNvNtNtCsldCax6rooq1_18sqlrustgo_executor14local_executor5testss_27test_execute_hash_join_left
FN:1148,_RNvNtNtCsldCax6rooq1_18sqlrustgo_executor14local_executor5testss_28test_execute_aggregate_count
FN:1397,_RNvNtNtCsldCax6rooq1_18sqlrustgo_executor14local_executor5testss_28test_execute_hash_join_cross
FN:1331,_RNvNtNtCsldCax6rooq1_18sqlrustgo_executor14local_executor5testss_28test_execute_hash_join_inner
FN:1013,_RNvNtNtCsldCax6rooq1_18sqlrustgo_executor14local_executor5testss_28test_local_executor_creation
FN:1065,_RNvNtNtCsldCax6rooq1_18sqlrustgo_executor14local_executor5testss_29test_local_executor_send_sync
FN:1571,_RNvNtNtCsldCax6rooq1_18sqlrustgo_executor14local_executor5testss_33test_execute_filter_with_children
FN:1835,_RNvNtNtCsldCax6rooq1_18sqlrustgo_executor14local_executor5testss_33test_execute_sort_merge_join_left
FN:1899,_RNvNtNtCsldCax6rooq1_18sqlrustgo_executor14local_executor5testss_34test_execute_sort_merge_join_empty
FN:1767,_RNvNtNtCsldCax6rooq1_18sqlrustgo_executor14local_executor5testss_34test_execute_sort_merge_join_inner
FN:1501,_RNvNtNtCsldCax6rooq1_18sqlrustgo_executor14local_executor5testss_35test_execute_with_unknown_plan_type
FN:1286,_RNvNtNtCsldCax6rooq1_18sqlrustgo_executor14local_executor5testss_36test_execute_aggregate_with_group_by
FN:1021,_RNvNtNtCsldCax6rooq1_18sqlrustgo_executor14local_executor5testss_36test_local_executor_with_empty_table
FN:1109,_RNvNtNtCsldCax6rooq1_18sqlrustgo_executor14local_executor5testss_40test_execute_projection_multiple_columns
FN:1540,_RNvNtNtCsldCax6rooq1_18sqlrustgo_executor14local_executor5testss_45test_execute_projection_with_empty_projection
FN:1048,_RNvXNvNtNtCsldCax6rooq1_18sqlrustgo_executor14local_executor5testss_36test_local_executor_with_empty_tableNtB2_8MockPlanNtNtCs4LE0xG3RBLs_17sqlrustgo_planner13physical_plan12PhysicalPlan10table_name
FN:1045,_RNvXNvNtNtCsldCax6rooq1_18sqlrustgo_executor14local_executor5testss_36test_local_executor_with_empty_tableNtB2_8MockPlanNtNtCs4LE0xG3RBLs_17sqlrustgo_planner13physical_plan12PhysicalPlan4name
FN:1051,_RNvXNvNtNtCsldCax6rooq1_18sqlrustgo_executor14local_executor5testss_36test_local_executor_with_empty_tableNtB2_8MockPlanNtNtCs4LE0xG3RBLs_17sqlrustgo_planner13physical_plan12PhysicalPlan6as_any
FN:1039,_RNvXNvNtNtCsldCax6rooq1_18sqlrustgo_executor14local_executor5testss_36test_local_executor_with_empty_tableNtB2_8MockPlanNtNtCs4LE0xG3RBLs_17sqlrustgo_planner13physical_plan12PhysicalPlan6schema
FN:1042,_RNvXNvNtNtCsldCax6rooq1_18sqlrustgo_executor14local_executor5testss_36test_local_executor_with_empty_tableNtB2_8MockPlanNtNtCs4LE0xG3RBLs_17sqlrustgo_planner13physical_plan12PhysicalPlan8children
FN:1525,_RNvXs_NvNtNtCsldCax6rooq1_18sqlrustgo_executor14local_executor5testss_35test_execute_with_unknown_plan_typeNtB4_11UnknownPlanNtNtCs4LE0xG3RBLs_17sqlrustgo_planner13physical_plan12PhysicalPlan10table_name
FN:1522,_RNvXs_NvNtNtCsldCax6rooq1_18sqlrustgo_executor14local_executor5testss_35test_execute_with_unknown_plan_typeNtB4_11UnknownPlanNtNtCs4LE0xG3RBLs_17sqlrustgo_planner13physical_plan12PhysicalPlan4name
FN:1528,_RNvXs_NvNtNtCsldCax6rooq1_18sqlrustgo_executor14local_executor5testss_35test_execute_with_unknown_plan_typeNtB4_11UnknownPlanNtNtCs4LE0xG3RBLs_17sqlrustgo_planner13physical_plan12PhysicalPlan6as_any
FN:1516,_RNvXs_NvNtNtCsldCax6rooq1_18sqlrustgo_executor14local_executor5testss_35test_execute_with_unknown_plan_typeNtB4_11UnknownPlanNtNtCs4LE0xG3RBLs_17sqlrustgo_planner13physical_plan12PhysicalPlan6schema
FN:1519,_RNvXs_NvNtNtCsldCax6rooq1_18sqlrustgo_executor14local_executor5testss_35test_execute_with_unknown_plan_typeNtB4_11UnknownPlanNtNtCs4LE0xG3RBLs_17sqlrustgo_planner13physical_plan12PhysicalPlan8children
FN:101,_RNvMNtCsldCax6rooq1_18sqlrustgo_executor14local_executorNtB2_13LocalExecutor13get_cache_key
FN:387,_RNvMNtCsldCax6rooq1_18sqlrustgo_executor14local_executorNtB2_13LocalExecutor14execute_filter
FN:197,_RNvMNtCsldCax6rooq1_18sqlrustgo_executor14local_executorNtB2_13LocalExecutor14extract_tables
FN:191,_RNvMNtCsldCax6rooq1_18sqlrustgo_executor14local_executorNtB2_13LocalExecutor14log_slow_query
FN:209,_RNvMNtCsldCax6rooq1_18sqlrustgo_executor14local_executorNtB2_13LocalExecutor16execute_seq_scan
FN:549,_RNvMNtCsldCax6rooq1_18sqlrustgo_executor14local_executorNtB2_13LocalExecutor17compute_aggregate
FN:428,_RNvMNtCsldCax6rooq1_18sqlrustgo_executor14local_executorNtB2_13LocalExecutor17execute_aggregate
FN:606,_RNvMNtCsldCax6rooq1_18sqlrustgo_executor14local_executorNtB2_13LocalExecutor17execute_hash_join
FN:232,_RNvMNtCsldCax6rooq1_18sqlrustgo_executor14local_executorNtB2_13LocalExecutor18execute_index_scan
FN:334,_RNvMNtCsldCax6rooq1_18sqlrustgo_executor14local_executorNtB2_13LocalExecutor18execute_projection
FN:118,_RNvMNtCsldCax6rooq1_18sqlrustgo_executor14local_executorNtB2_13LocalExecutor18execute_with_cache
FN:729,_RNvMNtCsldCax6rooq1_18sqlrustgo_executor14local_executorNtB2_13LocalExecutor23execute_sort_merge_join
FN:41,_RNvMNtCsldCax6rooq1_18sqlrustgo_executor14local_executorNtB2_13LocalExecutor3new
FN:113,_RNvMNtCsldCax6rooq1_18sqlrustgo_executor14local_executorNtB2_13LocalExecutor7execute
FN:953,_RNvMs_NtCsldCax6rooq1_18sqlrustgo_executor14local_executorNtB4_13LocalExecutor12execute_sort
FN:967,_RNvMs_NtCsldCax6rooq1_18sqlrustgo_executor14local_executorNtB4_13LocalExecutor13execute_limit
FN:829,_RNvNtCsldCax6rooq1_18sqlrustgo_executor14local_executor15hash_inner_join
FN:817,_RNvNtCsldCax6rooq1_18sqlrustgo_executor14local_executor17cartesian_product
FN:865,_RNvNtCsldCax6rooq1_18sqlrustgo_executor14local_executor21sort_merge_inner_join
FN:806,_RNvNtCsldCax6rooq1_18sqlrustgo_executor14local_executor30extract_column_value_for_index
FN:986,_RNvXs0_NtCsldCax6rooq1_18sqlrustgo_executor14local_executorNtB5_13LocalExecutorNtNtB7_8executor8Executor4name
FN:990,_RNvXs0_NtCsldCax6rooq1_18sqlrustgo_executor14local_executorNtB5_13LocalExecutorNtNtB7_8executor8Executor8is_ready
FN:91,_RNvMNtCs4qFySXYcYQq_18sqlrustgo_executor14local_executorNtB2_13LocalExecutor11clear_cache
FN:101,_RNvMNtCs4qFySXYcYQq_18sqlrustgo_executor14local_executorNtB2_13LocalExecutor13get_cache_key
FN:387,_RNvMNtCs4qFySXYcYQq_18sqlrustgo_executor14local_executorNtB2_13LocalExecutor14execute_filter
FN:197,_RNvMNtCs4qFySXYcYQq_18sqlrustgo_executor14local_executorNtB2_13LocalExecutor14extract_tables
FN:191,_RNvMNtCs4qFySXYcYQq_18sqlrustgo_executor14local_executorNtB2_13LocalExecutor14log_slow_query
FN:209,_RNvMNtCs4qFySXYcYQq_18sqlrustgo_executor14local_executorNtB2_13LocalExecutor16execute_seq_scan
FN:86,_RNvMNtCs4qFySXYcYQq_18sqlrustgo_executor14local_executorNtB2_13LocalExecutor16invalidate_table
FN:549,_RNvMNtCs4qFySXYcYQq_18sqlrustgo_executor14local_executorNtB2_13LocalExecutor17compute_aggregate
FN:428,_RNvMNtCs4qFySXYcYQq_18sqlrustgo_executor14local_executorNtB2_13LocalExecutor17execute_aggregate
FN:606,_RNvMNtCs4qFySXYcYQq_18sqlrustgo_executor14local_executorNtB2_13LocalExecutor17execute_hash_join
FN:53,_RNvMNtCs4qFySXYcYQq_18sqlrustgo_executor14local_executorNtB2_13LocalExecutor17with_cache_config
FN:232,_RNvMNtCs4qFySXYcYQq_18sqlrustgo_executor14local_executorNtB2_13LocalExecutor18execute_index_scan
FN:334,_RNvMNtCs4qFySXYcYQq_18sqlrustgo_executor14local_executorNtB2_13LocalExecutor18execute_projection
FN:118,_RNvMNtCs4qFySXYcYQq_18sqlrustgo_executor14local_executorNtB2_13LocalExecutor18execute_with_cache
FN:65,_RNvMNtCs4qFySXYcYQq_18sqlrustgo_executor14local_executorNtB2_13LocalExecutor19with_slow_query_log
FN:729,_RNvMNtCs4qFySXYcYQq_18sqlrustgo_executor14local_executorNtB2_13LocalExecutor23execute_sort_merge_join
FN:74,_RNvMNtCs4qFySXYcYQq_18sqlrustgo_executor14local_executorNtB2_13LocalExecutor27with_slow_query_log_enabled
FN:41,_RNvMNtCs4qFySXYcYQq_18sqlrustgo_executor14local_executorNtB2_13LocalExecutor3new
FN:113,_RNvMNtCs4qFySXYcYQq_18sqlrustgo_executor14local_executorNtB2_13LocalExecutor7execute
FN:96,_RNvMNtCs4qFySXYcYQq_18sqlrustgo_executor14local_executorNtB2_13LocalExecutor7storage
FN:953,_RNvMs_NtCs4qFySXYcYQq_18sqlrustgo_executor14local_executorNtB4_13LocalExecutor12execute_sort
FN:967,_RNvMs_NtCs4qFySXYcYQq_18sqlrustgo_executor14local_executorNtB4_13LocalExecutor13execute_limit
FN:829,_RNvNtCs4qFySXYcYQq_18sqlrustgo_executor14local_executor15hash_inner_join
FN:817,_RNvNtCs4qFySXYcYQq_18sqlrustgo_executor14local_executor17cartesian_product
FN:865,_RNvNtCs4qFySXYcYQq_18sqlrustgo_executor14local_executor21sort_merge_inner_join
FN:806,_RNvNtCs4qFySXYcYQq_18sqlrustgo_executor14local_executor30extract_column_value_for_index
FN:986,_RNvXs0_NtCs4qFySXYcYQq_18sqlrustgo_executor14local_executorNtB5_13LocalExecutorNtNtB7_8executor8Executor4name
FN:982,_RNvXs0_NtCs4qFySXYcYQq_18sqlrustgo_executor14local_executorNtB5_13LocalExecutorNtNtB7_8executor8Executor7execute
FN:990,_RNvXs0_NtCs4qFySXYcYQq_18sqlrustgo_executor14local_executorNtB5_13LocalExecutorNtNtB7_8executor8Executor8is_ready
FN:682,_RNCNCNvMNtCs4qFySXYcYQq_18sqlrustgo_executor14local_executorNtB6_13LocalExecutor17execute_hash_join00B8_
FN:363,_RNCNCNvMNtCs4qFySXYcYQq_18sqlrustgo_executor14local_executorNtB6_13LocalExecutor18execute_projections_00B8_
FN:412,_RNCNvMNtCs4qFySXYcYQq_18sqlrustgo_executor14local_executorNtB4_13LocalExecutor14execute_filter0B6_
FN:458,_RNCNvMNtCs4qFySXYcYQq_18sqlrustgo_executor14local_executorNtB4_13LocalExecutor17execute_aggregate0B6_
FN:517,_RNCNvMNtCs4qFySXYcYQq_18sqlrustgo_executor14local_executorNtB4_13LocalExecutor17execute_aggregates0_0B6_
FN:497,_RNCNvMNtCs4qFySXYcYQq_18sqlrustgo_executor14local_executorNtB4_13LocalExecutor17execute_aggregates_0B6_
FN:681,_RNCNvMNtCs4qFySXYcYQq_18sqlrustgo_executor14local_executorNtB4_13LocalExecutor17execute_hash_join0B6_
FN:687,_RNCNvMNtCs4qFySXYcYQq_18sqlrustgo_executor14local_executorNtB4_13LocalExecutor17execute_hash_joins_0B6_
FN:241,_RNCNvMNtCs4qFySXYcYQq_18sqlrustgo_executor14local_executorNtB4_13LocalExecutor18execute_index_scan0B6_
FN:347,_RNCNvMNtCs4qFySXYcYQq_18sqlrustgo_executor14local_executorNtB4_13LocalExecutor18execute_projection0B6_
FN:360,_RNCNvMNtCs4qFySXYcYQq_18sqlrustgo_executor14local_executorNtB4_13LocalExecutor18execute_projections_0B6_
FN:159,_RNCNvMNtCs4qFySXYcYQq_18sqlrustgo_executor14local_executorNtB4_13LocalExecutor18execute_with_cache0B6_
FN:781,_RNCNvMNtCs4qFySXYcYQq_18sqlrustgo_executor14local_executorNtB4_13LocalExecutor23execute_sort_merge_join0B6_
FN:790,_RNCNvMNtCs4qFySXYcYQq_18sqlrustgo_executor14local_executorNtB4_13LocalExecutor23execute_sort_merge_joins0_0B6_
FN:786,_RNCNvMNtCs4qFySXYcYQq_18sqlrustgo_executor14local_executorNtB4_13LocalExecutor23execute_sort_merge_joins_0B6_
FN:854,_RNCNvNtCs4qFySXYcYQq_18sqlrustgo_executor14local_executor15hash_inner_join0B5_
FN:879,_RNCNvNtCs4qFySXYcYQq_18sqlrustgo_executor14local_executor21sort_merge_inner_join0B5_
FN:932,_RNCNvNtCs4qFySXYcYQq_18sqlrustgo_executor14local_executor21sort_merge_inner_joins0_0B5_
FN:889,_RNCNvNtCs4qFySXYcYQq_18sqlrustgo_executor14local_executor21sort_merge_inner_joins_0B5_
FNDA:0,_RNvMNtCsldCax6rooq1_18sqlrustgo_executor14local_executorNtB2_13LocalExecutor11clear_cache
FNDA:0,_RNvMNtCsldCax6rooq1_18sqlrustgo_executor14local_executorNtB2_13LocalExecutor16invalidate_table
FNDA:0,_RNvMNtCsldCax6rooq1_18sqlrustgo_executor14local_executorNtB2_13LocalExecutor17with_cache_config
FNDA:0,_RNvMNtCsldCax6rooq1_18sqlrustgo_executor14local_executorNtB2_13LocalExecutor19with_slow_query_log
FNDA:0,_RNvMNtCsldCax6rooq1_18sqlrustgo_executor14local_executorNtB2_13LocalExecutor27with_slow_query_log_enabled
FNDA:0,_RNvMNtCsldCax6rooq1_18sqlrustgo_executor14local_executorNtB2_13LocalExecutor7storage
FNDA:0,_RNvXs0_NtCsldCax6rooq1_18sqlrustgo_executor14local_executorNtB5_13LocalExecutorNtNtB7_8executor8Executor7execute
FNDA:0,_RNCNCNvMNtCsldCax6rooq1_18sqlrustgo_executor14local_executorNtB6_13LocalExecutor17execute_hash_join00B8_
FNDA:4,_RNCNCNvMNtCsldCax6rooq1_18sqlrustgo_executor14local_executorNtB6_13LocalExecutor18execute_projections_00B8_
FNDA:2,_RNCNvMNtCsldCax6rooq1_18sqlrustgo_executor14local_executorNtB4_13LocalExecutor14execute_filter0B6_
FNDA:15,_RNCNvMNtCsldCax6rooq1_18sqlrustgo_executor14local_executorNtB4_13LocalExecutor17execute_aggregate0B6_
FNDA:3,_RNCNvMNtCsldCax6rooq1_18sqlrustgo_executor14local_executorNtB4_13LocalExecutor17execute_aggregates0_0B6_
FNDA:3,_RNCNvMNtCsldCax6rooq1_18sqlrustgo_executor14local_executorNtB4_13LocalExecutor17execute_aggregates_0B6_
FNDA:2,_RNCNvMNtCsldCax6rooq1_18sqlrustgo_executor14local_executorNtB4_13LocalExecutor17execute_hash_join0B6_
FNDA:2,_RNCNvMNtCsldCax6rooq1_18sqlrustgo_executor14local_executorNtB4_13LocalExecutor17execute_hash_joins_0B6_
FNDA:0,_RNCNvMNtCsldCax6rooq1_18sqlrustgo_executor14local_executorNtB4_13LocalExecutor18execute_index_scan0B6_
FNDA:3,_RNCNvMNtCsldCax6rooq1_18sqlrustgo_executor14local_executorNtB4_13LocalExecutor18execute_projection0B6_
FNDA:3,_RNCNvMNtCsldCax6rooq1_18sqlrustgo_executor14local_executorNtB4_13LocalExecutor18execute_projections_0B6_
FNDA:0,_RNCNvMNtCsldCax6rooq1_18sqlrustgo_executor14local_executorNtB4_13LocalExecutor18execute_with_cache0B6_
FNDA:0,_RNCNvMNtCsldCax6rooq1_18sqlrustgo_executor14local_executorNtB4_13LocalExecutor23execute_sort_merge_join0B6_
FNDA:2,_RNCNvMNtCsldCax6rooq1_18sqlrustgo_executor14local_executorNtB4_13LocalExecutor23execute_sort_merge_joins0_0B6_
FNDA:2,_RNCNvMNtCsldCax6rooq1_18sqlrustgo_executor14local_executorNtB4_13LocalExecutor23execute_sort_merge_joins_0B6_
FNDA:6,_RNCNvNtCsldCax6rooq1_18sqlrustgo_executor14local_executor15hash_inner_join0B5_
FNDA:2,_RNCNvNtCsldCax6rooq1_18sqlrustgo_executor14local_executor21sort_merge_inner_join0B5_
FNDA:2,_RNCNvNtCsldCax6rooq1_18sqlrustgo_executor14local_executor21sort_merge_inner_joins0_0B5_
FNDA:2,_RNCNvNtCsldCax6rooq1_18sqlrustgo_executor14local_executor21sort_merge_inner_joins_0B5_
FNDA:1,_RINvNvNtNtCsldCax6rooq1_18sqlrustgo_executor14local_executor5testss_29test_local_executor_send_sync6__checkNtB6_13LocalExecutorEB8_
FNDA:1,_RNvMNvNtNtCsldCax6rooq1_18sqlrustgo_executor14local_executor5testss_35test_execute_with_unknown_plan_typeNtB2_11UnknownPlan3new
FNDA:1,_RNvNtNtCsldCax6rooq1_18sqlrustgo_executor14local_executor5tests16make_test_schema
FNDA:1,_RNvNtNtCsldCax6rooq1_18sqlrustgo_executor14local_executor5testss_17test_execute_sort
FNDA:1,_RNvNtNtCsldCax6rooq1_18sqlrustgo_executor14local_executor5testss_18test_execute_limit
FNDA:1,_RNvNtNtCsldCax6rooq1_18sqlrustgo_executor14local_executor5testss_18test_executor_name
FNDA:1,_RNvNtNtCsldCax6rooq1_18sqlrustgo_executor14local_executor5testss_22test_executor_is_ready
FNDA:1,_RNvNtNtCsldCax6rooq1_18sqlrustgo_executor14local_executor5testss_23test_execute_projection
FNDA:1,_RNvNtNtCsldCax6rooq1_18sqlrustgo_executor14local_executor5testss_26test_execute_aggregate_avg
FNDA:1,_RNvNtNtCsldCax6rooq1_18sqlrustgo_executor14local_executor5testss_26test_execute_aggregate_max
FNDA:1,_RNvNtNtCsldCax6rooq1_18sqlrustgo_executor14local_executor5testss_26test_execute_aggregate_min
FNDA:1,_RNvNtNtCsldCax6rooq1_18sqlrustgo_executor14local_executor5testss_26test_execute_aggregate_sum
FNDA:1,_RNvNtNtCsldCax6rooq1_18sqlrustgo_executor14local_executor5testss_27test_execute_hash_join_left
FNDA:1,_RNvNtNtCsldCax6rooq1_18sqlrustgo_executor14local_executor5testss_28test_execute_aggregate_count
FNDA:1,_RNvNtNtCsldCax6rooq1_18sqlrustgo_executor14local_executor5testss_28test_execute_hash_join_cross
FNDA:1,_RNvNtNtCsldCax6rooq1_18sqlrustgo_executor14local_executor5testss_28test_execute_hash_join_inner
FNDA:1,_RNvNtNtCsldCax6rooq1_18sqlrustgo_executor14local_executor5testss_28test_local_executor_creation
FNDA:1,_RNvNtNtCsldCax6rooq1_18sqlrustgo_executor14local_executor5testss_29test_local_executor_send_sync
FNDA:1,_RNvNtNtCsldCax6rooq1_18sqlrustgo_executor14local_executor5testss_33test_execute_filter_with_children
FNDA:1,_RNvNtNtCsldCax6rooq1_18sqlrustgo_executor14local_executor5testss_33test_execute_sort_merge_join_left
FNDA:1,_RNvNtNtCsldCax6rooq1_18sqlrustgo_executor14local_executor5testss_34test_execute_sort_merge_join_empty
FNDA:1,_RNvNtNtCsldCax6rooq1_18sqlrustgo_executor14local_executor5testss_34test_execute_sort_merge_join_inner
FNDA:1,_RNvNtNtCsldCax6rooq1_18sqlrustgo_executor14local_executor5testss_35test_execute_with_unknown_plan_type
FNDA:1,_RNvNtNtCsldCax6rooq1_18sqlrustgo_executor14local_executor5testss_36test_execute_aggregate_with_group_by
FNDA:1,_RNvNtNtCsldCax6rooq1_18sqlrustgo_executor14local_executor5testss_36test_local_executor_with_empty_table
FNDA:1,_RNvNtNtCsldCax6rooq1_18sqlrustgo_executor14local_executor5testss_40test_execute_projection_multiple_columns
FNDA:1,_RNvNtNtCsldCax6rooq1_18sqlrustgo_executor14local_executor5testss_45test_execute_projection_with_empty_projection
FNDA:1,_RNvXNvNtNtCsldCax6rooq1_18sqlrustgo_executor14local_executor5testss_36test_local_executor_with_empty_tableNtB2_8MockPlanNtNtCs4LE0xG3RBLs_17sqlrustgo_planner13physical_plan12PhysicalPlan10table_name
FNDA:1,_RNvXNvNtNtCsldCax6rooq1_18sqlrustgo_executor14local_executor5testss_36test_local_executor_with_empty_tableNtB2_8MockPlanNtNtCs4LE0xG3RBLs_17sqlrustgo_planner13physical_plan12PhysicalPlan4name
FNDA:0,_RNvXNvNtNtCsldCax6rooq1_18sqlrustgo_executor14local_executor5testss_36test_local_executor_with_empty_tableNtB2_8MockPlanNtNtCs4LE0xG3RBLs_17sqlrustgo_planner13physical_plan12PhysicalPlan6as_any
FNDA:0,_RNvXNvNtNtCsldCax6rooq1_18sqlrustgo_executor14local_executor5testss_36test_local_executor_with_empty_tableNtB2_8MockPlanNtNtCs4LE0xG3RBLs_17sqlrustgo_planner13physical_plan12PhysicalPlan6schema
FNDA:0,_RNvXNvNtNtCsldCax6rooq1_18sqlrustgo_executor14local_executor5testss_36test_local_executor_with_empty_tableNtB2_8MockPlanNtNtCs4LE0xG3RBLs_17sqlrustgo_planner13physical_plan12PhysicalPlan8children
FNDA:0,_RNvXs_NvNtNtCsldCax6rooq1_18sqlrustgo_executor14local_executor5testss_35test_execute_with_unknown_plan_typeNtB4_11UnknownPlanNtNtCs4LE0xG3RBLs_17sqlrustgo_planner13physical_plan12PhysicalPlan10table_name
FNDA:1,_RNvXs_NvNtNtCsldCax6rooq1_18sqlrustgo_executor14local_executor5testss_35test_execute_with_unknown_plan_typeNtB4_11UnknownPlanNtNtCs4LE0xG3RBLs_17sqlrustgo_planner13physical_plan12PhysicalPlan4name
FNDA:0,_RNvXs_NvNtNtCsldCax6rooq1_18sqlrustgo_executor14local_executor5testss_35test_execute_with_unknown_plan_typeNtB4_11UnknownPlanNtNtCs4LE0xG3RBLs_17sqlrustgo_planner13physical_plan12PhysicalPlan6as_any
FNDA:0,_RNvXs_NvNtNtCsldCax6rooq1_18sqlrustgo_executor14local_executor5testss_35test_execute_with_unknown_plan_typeNtB4_11UnknownPlanNtNtCs4LE0xG3RBLs_17sqlrustgo_planner13physical_plan12PhysicalPlan6schema
FNDA:0,_RNvXs_NvNtNtCsldCax6rooq1_18sqlrustgo_executor14local_executor5testss_35test_execute_with_unknown_plan_typeNtB4_11UnknownPlanNtNtCs4LE0xG3RBLs_17sqlrustgo_planner13physical_plan12PhysicalPlan8children
FNDA:0,_RNvMNtCsldCax6rooq1_18sqlrustgo_executor14local_executorNtB2_13LocalExecutor13get_cache_key
FNDA:1,_RNvMNtCsldCax6rooq1_18sqlrustgo_executor14local_executorNtB2_13LocalExecutor14execute_filter
FNDA:0,_RNvMNtCsldCax6rooq1_18sqlrustgo_executor14local_executorNtB2_13LocalExecutor14extract_tables
FNDA:44,_RNvMNtCsldCax6rooq1_18sqlrustgo_executor14local_executorNtB2_13LocalExecutor14log_slow_query
FNDA:25,_RNvMNtCsldCax6rooq1_18sqlrustgo_executor14local_executorNtB2_13LocalExecutor16execute_seq_scan
FNDA:7,_RNvMNtCsldCax6rooq1_18sqlrustgo_executor14local_executorNtB2_13LocalExecutor17compute_aggregate
FNDA:6,_RNvMNtCsldCax6rooq1_18sqlrustgo_executor14local_executorNtB2_13LocalExecutor17execute_aggregate
FNDA:3,_RNvMNtCsldCax6rooq1_18sqlrustgo_executor14local_executorNtB2_13LocalExecutor17execute_hash_join
FNDA:0,_RNvMNtCsldCax6rooq1_18sqlrustgo_executor14local_executorNtB2_13LocalExecutor18execute_index_scan
FNDA:3,_RNvMNtCsldCax6rooq1_18sqlrustgo_executor14local_executorNtB2_13LocalExecutor18execute_projection
FNDA:44,_RNvMNtCsldCax6rooq1_18sqlrustgo_executor14local_executorNtB2_13LocalExecutor18execute_with_cache
FNDA:3,_RNvMNtCsldCax6rooq1_18sqlrustgo_executor14local_executorNtB2_13LocalExecutor23execute_sort_merge_join
FNDA:23,_RNvMNtCsldCax6rooq1_18sqlrustgo_executor14local_executorNtB2_13LocalExecutor3new
FNDA:44,_RNvMNtCsldCax6rooq1_18sqlrustgo_executor14local_executorNtB2_13LocalExecutor7execute
FNDA:1,_RNvMs_NtCsldCax6rooq1_18sqlrustgo_executor14local_executorNtB4_13LocalExecutor12execute_sort
FNDA:1,_RNvMs_NtCsldCax6rooq1_18sqlrustgo_executor14local_executorNtB4_13LocalExecutor13execute_limit
FNDA:2,_RNvNtCsldCax6rooq1_18sqlrustgo_executor14local_executor15hash_inner_join
FNDA:1,_RNvNtCsldCax6rooq1_18sqlrustgo_executor14local_executor17cartesian_product
FNDA:3,_RNvNtCsldCax6rooq1_18sqlrustgo_executor14local_executor21sort_merge_inner_join
FNDA:0,_RNvNtCsldCax6rooq1_18sqlrustgo_executor14local_executor30extract_column_value_for_index
FNDA:1,_RNvXs0_NtCsldCax6rooq1_18sqlrustgo_executor14local_executorNtB5_13LocalExecutorNtNtB7_8executor8Executor4name
FNDA:1,_RNvXs0_NtCsldCax6rooq1_18sqlrustgo_executor14local_executorNtB5_13LocalExecutorNtNtB7_8executor8Executor8is_ready
FNDA:0,_RNvMNtCs4qFySXYcYQq_18sqlrustgo_executor14local_executorNtB2_13LocalExecutor11clear_cache
FNDA:0,_RNvMNtCs4qFySXYcYQq_18sqlrustgo_executor14local_executorNtB2_13LocalExecutor13get_cache_key
FNDA:0,_RNvMNtCs4qFySXYcYQq_18sqlrustgo_executor14local_executorNtB2_13LocalExecutor14execute_filter
FNDA:0,_RNvMNtCs4qFySXYcYQq_18sqlrustgo_executor14local_executorNtB2_13LocalExecutor14extract_tables
FNDA:0,_RNvMNtCs4qFySXYcYQq_18sqlrustgo_executor14local_executorNtB2_13LocalExecutor14log_slow_query
FNDA:0,_RNvMNtCs4qFySXYcYQq_18sqlrustgo_executor14local_executorNtB2_13LocalExecutor16execute_seq_scan
FNDA:0,_RNvMNtCs4qFySXYcYQq_18sqlrustgo_executor14local_executorNtB2_13LocalExecutor16invalidate_table
FNDA:0,_RNvMNtCs4qFySXYcYQq_18sqlrustgo_executor14local_executorNtB2_13LocalExecutor17compute_aggregate
FNDA:0,_RNvMNtCs4qFySXYcYQq_18sqlrustgo_executor14local_executorNtB2_13LocalExecutor17execute_aggregate
FNDA:0,_RNvMNtCs4qFySXYcYQq_18sqlrustgo_executor14local_executorNtB2_13LocalExecutor17execute_hash_join
FNDA:0,_RNvMNtCs4qFySXYcYQq_18sqlrustgo_executor14local_executorNtB2_13LocalExecutor17with_cache_config
FNDA:0,_RNvMNtCs4qFySXYcYQq_18sqlrustgo_executor14local_executorNtB2_13LocalExecutor18execute_index_scan
FNDA:0,_RNvMNtCs4qFySXYcYQq_18sqlrustgo_executor14local_executorNtB2_13LocalExecutor18execute_projection
FNDA:0,_RNvMNtCs4qFySXYcYQq_18sqlrustgo_executor14local_executorNtB2_13LocalExecutor18execute_with_cache
FNDA:0,_RNvMNtCs4qFySXYcYQq_18sqlrustgo_executor14local_executorNtB2_13LocalExecutor19with_slow_query_log
FNDA:0,_RNvMNtCs4qFySXYcYQq_18sqlrustgo_executor14local_executorNtB2_13LocalExecutor23execute_sort_merge_join
FNDA:0,_RNvMNtCs4qFySXYcYQq_18sqlrustgo_executor14local_executorNtB2_13LocalExecutor27with_slow_query_log_enabled
FNDA:0,_RNvMNtCs4qFySXYcYQq_18sqlrustgo_executor14local_executorNtB2_13LocalExecutor3new
FNDA:0,_RNvMNtCs4qFySXYcYQq_18sqlrustgo_executor14local_executorNtB2_13LocalExecutor7execute
FNDA:0,_RNvMNtCs4qFySXYcYQq_18sqlrustgo_executor14local_executorNtB2_13LocalExecutor7storage
FNDA:0,_RNvMs_NtCs4qFySXYcYQq_18sqlrustgo_executor14local_executorNtB4_13LocalExecutor12execute_sort
FNDA:0,_RNvMs_NtCs4qFySXYcYQq_18sqlrustgo_executor14local_executorNtB4_13LocalExecutor13execute_limit
FNDA:0,_RNvNtCs4qFySXYcYQq_18sqlrustgo_executor14local_executor15hash_inner_join
FNDA:0,_RNvNtCs4qFySXYcYQq_18sqlrustgo_executor14local_executor17cartesian_product
FNDA:0,_RNvNtCs4qFySXYcYQq_18sqlrustgo_executor14local_executor21sort_merge_inner_join
FNDA:0,_RNvNtCs4qFySXYcYQq_18sqlrustgo_executor14local_executor30extract_column_value_for_index
FNDA:0,_RNvXs0_NtCs4qFySXYcYQq_18sqlrustgo_executor14local_executorNtB5_13LocalExecutorNtNtB7_8executor8Executor4name
FNDA:0,_RNvXs0_NtCs4qFySXYcYQq_18sqlrustgo_executor14local_executorNtB5_13LocalExecutorNtNtB7_8executor8Executor7execute
FNDA:0,_RNvXs0_NtCs4qFySXYcYQq_18sqlrustgo_executor14local_executorNtB5_13LocalExecutorNtNtB7_8executor8Executor8is_ready
FNDA:0,_RNCNCNvMNtCs4qFySXYcYQq_18sqlrustgo_executor14local_executorNtB6_13LocalExecutor17execute_hash_join00B8_
FNDA:0,_RNCNCNvMNtCs4qFySXYcYQq_18sqlrustgo_executor14local_executorNtB6_13LocalExecutor18execute_projections_00B8_
FNDA:0,_RNCNvMNtCs4qFySXYcYQq_18sqlrustgo_executor14local_executorNtB4_13LocalExecutor14execute_filter0B6_
FNDA:0,_RNCNvMNtCs4qFySXYcYQq_18sqlrustgo_executor14local_executorNtB4_13LocalExecutor17execute_aggregate0B6_
FNDA:0,_RNCNvMNtCs4qFySXYcYQq_18sqlrustgo_executor14local_executorNtB4_13LocalExecutor17execute_aggregates0_0B6_
FNDA:0,_RNCNvMNtCs4qFySXYcYQq_18sqlrustgo_executor14local_executorNtB4_13LocalExecutor17execute_aggregates_0B6_
FNDA:0,_RNCNvMNtCs4qFySXYcYQq_18sqlrustgo_executor14local_executorNtB4_13LocalExecutor17execute_hash_join0B6_
FNDA:0,_RNCNvMNtCs4qFySXYcYQq_18sqlrustgo_executor14local_executorNtB4_13LocalExecutor17execute_hash_joins_0B6_
FNDA:0,_RNCNvMNtCs4qFySXYcYQq_18sqlrustgo_executor14local_executorNtB4_13LocalExecutor18execute_index_scan0B6_
FNDA:0,_RNCNvMNtCs4qFySXYcYQq_18sqlrustgo_executor14local_executorNtB4_13LocalExecutor18execute_projection0B6_
FNDA:0,_RNCNvMNtCs4qFySXYcYQq_18sqlrustgo_executor14local_executorNtB4_13LocalExecutor18execute_projections_0B6_
FNDA:0,_RNCNvMNtCs4qFySXYcYQq_18sqlrustgo_executor14local_executorNtB4_13LocalExecutor18execute_with_cache0B6_
FNDA:0,_RNCNvMNtCs4qFySXYcYQq_18sqlrustgo_executor14local_executorNtB4_13LocalExecutor23execute_sort_merge_join0B6_
FNDA:0,_RNCNvMNtCs4qFySXYcYQq_18sqlrustgo_executor14local_executorNtB4_13LocalExecutor23execute_sort_merge_joins0_0B6_
FNDA:0,_RNCNvMNtCs4qFySXYcYQq_18sqlrustgo_executor14local_executorNtB4_13LocalExecutor23execute_sort_merge_joins_0B6_
FNDA:0,_RNCNvNtCs4qFySXYcYQq_18sqlrustgo_executor14local_executor15hash_inner_join0B5_
FNDA:0,_RNCNvNtCs4qFySXYcYQq_18sqlrustgo_executor14local_executor21sort_merge_inner_join0B5_
FNDA:0,_RNCNvNtCs4qFySXYcYQq_18sqlrustgo_executor14local_executor21sort_merge_inner_joins0_0B5_
FNDA:0,_RNCNvNtCs4qFySXYcYQq_18sqlrustgo_executor14local_executor21sort_merge_inner_joins_0B5_
FNF:85
FNH:63
DA:41,23
DA:42,23
DA:43,23
DA:44,23
DA:45,23
DA:46,23
DA:47,23
DA:48,23
DA:49,23
DA:50,23
DA:53,0
DA:54,0
DA:55,0
DA:56,0
DA:57,0
DA:58,0
DA:59,0
DA:60,0
DA:61,0
DA:62,0
DA:65,0
DA:66,0
DA:67,0
DA:68,0
DA:69,0
DA:70,0
DA:71,0
DA:74,0
DA:75,0
DA:76,0
DA:77,0
DA:78,0
DA:79,0
DA:80,0
DA:81,0
DA:82,0
DA:83,0
DA:86,0
DA:87,0
DA:88,0
DA:91,0
DA:92,0
DA:93,0
DA:96,0
DA:97,0
DA:98,0
DA:101,0
DA:102,0
DA:103,0
DA:104,0
DA:105,0
DA:106,0
DA:107,0
DA:108,0
DA:109,0
DA:110,0
DA:113,44
DA:114,44
DA:115,44
DA:118,44
DA:119,44
DA:120,44
DA:121,44
DA:122,44
DA:123,44
DA:125,44
DA:127,44
DA:128,0
DA:129,0
DA:131,0
DA:132,0
DA:134,0
DA:135,0
DA:136,0
DA:137,0
DA:138,0
DA:139,0
DA:140,0
DA:141,0
DA:142,0
DA:143,0
DA:144,0
DA:145,0
DA:146,0
DA:147,0
DA:148,0
DA:151,0
DA:153,0
DA:154,0
DA:155,0
DA:156,0
DA:157,0
DA:158,0
DA:159,0
DA:162,0
DA:163,0
DA:165,0
DA:166,44
DA:168,44
DA:169,44
DA:170,44
DA:171,19
DA:172,19
DA:173,16
DA:174,15
DA:175,9
DA:176,6
DA:177,3
DA:178,2
DA:179,1
DA:180,0
DA:181,44
DA:182,44
DA:185,44
DA:187,44
DA:188,44
DA:191,44
DA:192,44
DA:193,0
DA:194,44
DA:195,44
DA:197,0
DA:198,0
DA:199,0
DA:200,0
DA:201,0
DA:202,0
DA:203,0
DA:204,0
DA:205,0
DA:206,0
DA:209,25
DA:210,25
DA:211,25
DA:212,0
DA:213,25
DA:215,25
DA:218,25
DA:221,25
DA:222,25
DA:223,25
DA:226,25
DA:228,25
DA:229,25
DA:232,0
DA:233,0
DA:234,0
DA:235,0
DA:236,0
DA:238,0
DA:239,0
DA:240,0
DA:241,0
DA:243,0
DA:244,0
DA:245,0
DA:247,0
DA:250,0
DA:253,0
DA:254,0
DA:256,0
DA:257,0
DA:261,0
DA:262,0
DA:264,0
DA:266,0
DA:267,0
DA:271,0
DA:272,0
DA:274,0
DA:276,0
DA:277,0
DA:281,0
DA:282,0
DA:284,0
DA:286,0
DA:287,0
DA:291,0
DA:292,0
DA:294,0
DA:296,0
DA:297,0
DA:301,0
DA:302,0
DA:303,0
DA:305,0
DA:311,0
DA:312,0
DA:313,0
DA:314,0
DA:315,0
DA:318,0
DA:319,0
DA:322,0
DA:323,0
DA:324,0
DA:325,0
DA:326,0
DA:327,0
DA:328,0
DA:330,0
DA:331,0
DA:334,3
DA:335,3
DA:336,3
DA:337,0
DA:338,3
DA:340,3
DA:342,3
DA:344,3
DA:345,3
DA:346,3
DA:347,3
DA:348,3
DA:350,3
DA:351,1
DA:352,2
DA:354,2
DA:355,2
DA:357,2
DA:358,2
DA:359,2
DA:360,3
DA:361,3
DA:362,3
DA:363,4
DA:364,3
DA:365,3
DA:366,2
DA:368,2
DA:369,2
DA:372,2
DA:373,2
DA:374,2
DA:375,2
DA:376,2
DA:377,2
DA:378,2
DA:380,2
DA:381,2
DA:382,2
DA:383,2
DA:384,3
DA:387,1
DA:388,1
DA:389,1
DA:390,0
DA:391,1
DA:393,1
DA:396,1
DA:399,1
DA:401,1
DA:402,1
DA:403,0
DA:406,1
DA:409,1
DA:410,1
DA:411,1
DA:412,2
DA:413,2
DA:414,2
DA:415,2
DA:416,1
DA:418,1
DA:419,1
DA:422,1
DA:424,1
DA:425,1
DA:428,6
DA:429,6
DA:430,6
DA:431,0
DA:432,6
DA:434,6
DA:436,6
DA:438,6
DA:440,6
DA:441,6
DA:442,0
DA:445,6
DA:446,5
DA:448,5
DA:450,5
DA:451,5
DA:453,5
DA:455,5
DA:456,5
DA:457,5
DA:458,15
DA:459,15
DA:460,12
DA:461,12
DA:463,3
DA:465,15
DA:466,5
DA:468,5
DA:469,5
DA:470,0
DA:473,5
DA:474,5
DA:475,5
DA:478,5
DA:479,5
DA:480,5
DA:481,5
DA:482,5
DA:483,5
DA:484,5
DA:486,5
DA:487,0
DA:489,0
DA:491,1
DA:492,1
DA:494,3
DA:495,3
DA:496,3
DA:497,3
DA:498,3
DA:499,3
DA:500,3
DA:501,3
DA:502,3
DA:505,1
DA:506,2
DA:507,2
DA:508,2
DA:510,2
DA:511,2
DA:513,2
DA:515,2
DA:516,2
DA:517,3
DA:518,3
DA:519,3
DA:521,0
DA:523,3
DA:524,2
DA:526,2
DA:527,2
DA:528,0
DA:530,2
DA:533,1
DA:534,1
DA:537,1
DA:538,1
DA:539,1
DA:540,1
DA:541,1
DA:542,1
DA:543,1
DA:545,1
DA:547,6
DA:549,7
DA:550,7
DA:551,1
DA:553,3
DA:554,6
DA:555,6
DA:556,6
DA:557,6
DA:559,3
DA:562,1
DA:563,1
DA:564,3
DA:565,3
DA:566,3
DA:567,3
DA:568,3
DA:570,1
DA:571,1
DA:573,0
DA:577,1
DA:578,3
DA:579,3
DA:580,2
DA:581,2
DA:582,1
DA:583,1
DA:585,0
DA:587,1
DA:590,1
DA:591,3
DA:592,3
DA:593,2
DA:594,2
DA:595,1
DA:596,1
DA:598,0
DA:600,1
DA:603,7
DA:606,3
DA:607,3
DA:608,3
DA:609,0
DA:610,3
DA:612,3
DA:614,3
DA:615,3
DA:617,3
DA:619,3
DA:620,3
DA:621,0
DA:624,3
DA:625,2
DA:627,1
DA:628,1
DA:629,1
DA:632,1
DA:633,1
DA:634,1
DA:635,1
DA:636,1
DA:637,1
DA:638,1
DA:640,1
DA:644,2
DA:645,2
DA:647,2
DA:649,1
DA:650,1
DA:651,1
DA:652,1
DA:653,1
DA:654,1
DA:656,1
DA:657,1
DA:660,1
DA:661,1
DA:662,1
DA:663,1
DA:664,1
DA:665,1
DA:666,1
DA:668,1
DA:671,1
DA:672,1
DA:673,1
DA:674,1
DA:675,1
DA:676,1
DA:678,1
DA:679,1
DA:680,1
DA:681,2
DA:682,2
DA:683,0
DA:684,0
DA:685,0
DA:686,2
DA:687,2
DA:688,2
DA:689,2
DA:690,2
DA:691,2
DA:692,1
DA:693,1
DA:694,1
DA:696,1
DA:697,1
DA:700,1
DA:701,1
DA:702,1
DA:703,1
DA:704,1
DA:705,1
DA:706,1
DA:708,1
DA:711,0
DA:712,0
DA:715,0
DA:716,0
DA:717,0
DA:718,0
DA:719,0
DA:720,0
DA:721,0
DA:723,0
DA:726,3
DA:729,3
DA:732,3
DA:733,3
DA:734,0
DA:735,3
DA:737,3
DA:738,3
DA:740,3
DA:742,3
DA:743,3
DA:744,0
DA:747,3
DA:748,3
DA:750,0
DA:751,0
DA:752,0
DA:753,0
DA:757,3
DA:758,3
DA:760,3
DA:762,2
DA:763,2
DA:764,2
DA:765,2
DA:766,2
DA:767,2
DA:769,2
DA:772,1
DA:773,1
DA:774,1
DA:775,1
DA:776,1
DA:777,1
DA:779,1
DA:780,1
DA:781,1
DA:782,1
DA:783,1
DA:784,1
DA:785,1
DA:786,2
DA:787,2
DA:788,2
DA:789,2
DA:790,2
DA:791,2
DA:792,2
DA:793,2
DA:794,2
DA:795,1
DA:796,1
DA:797,1
DA:798,1
DA:800,0
DA:802,3
DA:806,0
DA:807,0
DA:808,0
DA:809,0
DA:810,0
DA:811,0
DA:812,0
DA:813,0
DA:815,0
DA:817,1
DA:818,1
DA:819,2
DA:820,4
DA:821,4
DA:822,4
DA:823,4
DA:824,4
DA:826,1
DA:827,1
DA:829,2
DA:830,2
DA:831,2
DA:832,2
DA:833,2
DA:834,2
DA:835,2
DA:836,2
DA:838,4
DA:839,6
DA:840,6
DA:841,6
DA:843,6
DA:844,6
DA:845,6
DA:846,6
DA:847,6
DA:848,6
DA:849,6
DA:852,6
DA:853,6
DA:854,6
DA:855,6
DA:856,6
DA:857,6
DA:858,6
DA:862,2
DA:863,2
DA:865,3
DA:866,3
DA:867,3
DA:868,3
DA:869,3
DA:870,3
DA:871,3
DA:872,3
DA:875,3
DA:876,3
DA:879,3
DA:880,2
DA:881,2
DA:882,2
DA:883,2
DA:884,0
DA:885,0
DA:887,2
DA:889,3
DA:890,2
DA:891,2
DA:892,2
DA:893,2
DA:894,0
DA:895,0
DA:897,2
DA:900,3
DA:901,3
DA:903,5
DA:904,2
DA:905,2
DA:907,2
DA:908,2
DA:910,2
DA:911,2
DA:912,0
DA:913,0
DA:916,2
DA:918,2
DA:919,2
DA:921,2
DA:922,2
DA:923,2
DA:924,2
DA:925,2
DA:926,2
DA:927,2
DA:930,2
DA:931,2
DA:932,2
DA:933,2
DA:934,2
DA:935,2
DA:936,2
DA:939,2
DA:940,2
DA:941,0
DA:942,0
DA:943,0
DA:944,0
DA:945,0
DA:948,3
DA:949,3
DA:953,1
DA:954,1
DA:955,1
DA:956,0
DA:957,1
DA:960,1
DA:963,1
DA:964,1
DA:967,1
DA:968,1
DA:969,1
DA:970,0
DA:971,1
DA:974,1
DA:977,1
DA:978,1
DA:982,0
DA:983,0
DA:984,0
DA:986,1
DA:987,1
DA:988,1
DA:990,1
DA:991,1
DA:992,1
DA:1005,1
DA:1006,1
DA:1007,1
DA:1008,1
DA:1010,1
DA:1013,1
DA:1014,1
DA:1015,1
DA:1017,1
DA:1018,1
DA:1021,1
DA:1022,1
DA:1023,1
DA:1024,1
DA:1025,1
DA:1026,1
DA:1027,1
DA:1028,1
DA:1029,1
DA:1031,1
DA:1032,1
DA:1039,0
DA:1040,0
DA:1041,0
DA:1042,0
DA:1043,0
DA:1044,0
DA:1045,1
DA:1046,1
DA:1047,1
DA:1048,1
DA:1049,1
DA:1050,1
DA:1051,0
DA:1052,0
DA:1053,0
DA:1056,1
DA:1057,1
DA:1058,1
DA:1059,1
DA:1060,1
DA:1061,1
DA:1062,1
DA:1065,1
DA:1066,1
DA:1067,1
DA:1068,1
DA:1069,1
DA:1072,1
DA:1075,1
DA:1076,1
DA:1077,1
DA:1078,1
DA:1079,1
DA:1080,1
DA:1081,1
DA:1084,1
DA:1086,1
DA:1088,1
DA:1089,1
DA:1090,1
DA:1092,1
DA:1093,1
DA:1094,1
DA:1097,1
DA:1098,1
DA:1099,1
DA:1101,1
DA:1103,1
DA:1104,1
DA:1105,1
DA:1106,1
DA:1109,1
DA:1112,1
DA:1113,1
DA:1114,1
DA:1115,1
DA:1116,1
DA:1118,1
DA:1120,1
DA:1122,1
DA:1123,1
DA:1124,1
DA:1126,1
DA:1127,1
DA:1128,1
DA:1131,1
DA:1132,1
DA:1133,1
DA:1134,1
DA:1135,1
DA:1138,1
DA:1140,1
DA:1141,1
DA:1142,1
DA:1143,1
DA:1145,1
DA:1148,1
DA:1151,1
DA:1152,1
DA:1153,1
DA:1154,1
DA:1155,1
DA:1156,1
DA:1157,1
DA:1158,1
DA:1161,1
DA:1163,1
DA:1165,1
DA:1166,1
DA:1167,1
DA:1169,1
DA:1170,1
DA:1171,1
DA:1174,1
DA:1175,1
DA:1176,1
DA:1177,1
DA:1178,1
DA:1179,1
DA:1180,1
DA:1181,1
DA:1182,1
DA:1183,1
DA:1184,1
DA:1187,1
DA:1189,1
DA:1190,1
DA:1191,1
DA:1194,1
DA:1197,1
DA:1198,1
DA:1199,1
DA:1200,1
DA:1201,1
DA:1202,1
DA:1203,1
DA:1204,1
DA:1207,1
DA:1209,1
DA:1211,1
DA:1212,1
DA:1213,1
DA:1215,1
DA:1216,1
DA:1217,1
DA:1220,1
DA:1221,1
DA:1222,1
DA:1223,1
DA:1224,1
DA:1225,1
DA:1226,1
DA:1227,1
DA:1228,1
DA:1229,1
DA:1230,1
DA:1233,1
DA:1235,1
DA:1236,1
DA:1237,1
DA:1240,1
DA:1243,1
DA:1244,1
DA:1245,1
DA:1246,1
DA:1247,1
DA:1248,1
DA:1249,1
DA:1250,1
DA:1253,1
DA:1255,1
DA:1257,1
DA:1258,1
DA:1259,1
DA:1261,1
DA:1262,1
DA:1263,1
DA:1266,1
DA:1267,1
DA:1268,1
DA:1269,1
DA:1270,1
DA:1271,1
DA:1272,1
DA:1273,1
DA:1274,1
DA:1275,1
DA:1276,1
DA:1279,1
DA:1281,1
DA:1282,1
DA:1283,1
DA:1286,1
DA:1289,1
DA:1290,1
DA:1291,1
DA:1292,1
DA:1293,1
DA:1294,1
DA:1295,1
DA:1296,1
DA:1299,1
DA:1301,1
DA:1303,1
DA:1304,1
DA:1305,1
DA:1307,1
DA:1308,1
DA:1309,1
DA:1312,1
DA:1313,1
DA:1314,1
DA:1315,1
DA:1316,1
DA:1317,1
DA:1318,1
DA:1319,1
DA:1320,1
DA:1321,1
DA:1322,1
DA:1325,1
DA:1327,1
DA:1328,1
DA:1331,1
DA:1334,1
DA:1335,1
DA:1336,1
DA:1337,1
DA:1338,1
DA:1339,1
DA:1340,1
DA:1343,1
DA:1344,1
DA:1345,1
DA:1346,1
DA:1347,1
DA:1348,1
DA:1349,1
DA:1350,1
DA:1353,1
DA:1355,1
DA:1357,1
DA:1358,1
DA:1359,1
DA:1361,1
DA:1362,1
DA:1363,1
DA:1364,1
DA:1366,1
DA:1367,1
DA:1368,1
DA:1369,1
DA:1370,1
DA:1371,1
DA:1374,1
DA:1375,1
DA:1377,1
DA:1378,1
DA:1379,1
DA:1380,1
DA:1383,1
DA:1384,1
DA:1385,1
DA:1386,1
DA:1387,1
DA:1388,1
DA:1391,1
DA:1393,1
DA:1394,1
DA:1397,1
DA:1400,1
DA:1401,1
DA:1402,1
DA:1403,1
DA:1404,1
DA:1405,1
DA:1406,1
DA:1407,1
DA:1408,1
DA:1409,1
DA:1412,1
DA:1414,1
DA:1416,1
DA:1417,1
DA:1418,1
DA:1420,1
DA:1421,1
DA:1422,1
DA:1424,1
DA:1425,1
DA:1426,1
DA:1429,1
DA:1430,1
DA:1432,1
DA:1433,1
DA:1434,1
DA:1435,1
DA:1436,1
DA:1437,1
DA:1440,1
DA:1442,1
DA:1443,1
DA:1446,1
DA:1449,1
DA:1450,1
DA:1452,1
DA:1453,1
DA:1454,1
DA:1458,1
DA:1461,1
DA:1462,1
DA:1463,1
DA:1464,1
DA:1465,1
DA:1467,1
DA:1469,1
DA:1470,1
DA:1471,1
DA:1474,1
DA:1477,1
DA:1478,1
DA:1480,1
DA:1483,1
DA:1486,1
DA:1488,1
DA:1489,1
DA:1490,1
DA:1493,1
DA:1495,1
DA:1496,1
DA:1497,1
DA:1498,1
DA:1501,1
DA:1509,1
DA:1510,1
DA:1511,1
DA:1512,1
DA:1513,1
DA:1516,0
DA:1517,0
DA:1518,0
DA:1519,0
DA:1520,0
DA:1521,0
DA:1522,1
DA:1523,1
DA:1524,1
DA:1525,0
DA:1526,0
DA:1527,0
DA:1528,0
DA:1529,0
DA:1530,0
DA:1533,1
DA:1534,1
DA:1535,1
DA:1536,1
DA:1537,1
DA:1540,1
DA:1541,1
DA:1542,1
DA:1543,1
DA:1544,1
DA:1545,1
DA:1547,1
DA:1549,1
DA:1551,1
DA:1552,1
DA:1553,1
DA:1556,1
DA:1557,1
DA:1558,1
DA:1559,1
DA:1560,1
DA:1561,1
DA:1562,1
DA:1566,1
DA:1567,1
DA:1568,1
DA:1571,1
DA:1572,1
DA:1573,1
DA:1574,1
DA:1575,1
DA:1576,1
DA:1577,1
DA:1578,1
DA:1581,1
DA:1583,1
DA:1585,1
DA:1586,1
DA:1587,1
DA:1590,1
DA:1591,1
DA:1592,1
DA:1593,1
DA:1594,1
DA:1595,1
DA:1596,1
DA:1600,1
DA:1602,1
DA:1603,1
DA:1608,1
DA:1609,1
DA:1610,1
DA:1612,1
DA:1613,1
DA:1616,1
DA:1617,1
DA:1618,1
DA:1619,1
DA:1620,1
DA:1621,1
DA:1622,1
DA:1623,1
DA:1624,1
DA:1627,1
DA:1629,1
DA:1631,1
DA:1632,1
DA:1633,1
DA:1635,1
DA:1636,1
DA:1637,1
DA:1640,1
DA:1641,1
DA:1642,1
DA:1643,1
DA:1644,1
DA:1645,1
DA:1646,1
DA:1647,1
DA:1648,1
DA:1649,1
DA:1650,1
DA:1653,1
DA:1655,1
DA:1656,1
DA:1657,1
DA:1660,1
DA:1661,1
DA:1662,1
DA:1663,1
DA:1664,1
DA:1665,1
DA:1666,1
DA:1667,1
DA:1668,1
DA:1671,1
DA:1673,1
DA:1675,1
DA:1676,1
DA:1677,1
DA:1679,1
DA:1680,1
DA:1681,1
DA:1684,1
DA:1685,1
DA:1686,1
DA:1687,1
DA:1688,1
DA:1689,1
DA:1690,1
DA:1691,1
DA:1692,1
DA:1693,1
DA:1694,1
DA:1697,1
DA:1699,1
DA:1700,1
DA:1701,1
DA:1704,1
DA:1708,1
DA:1709,1
DA:1710,1
DA:1711,1
DA:1712,1
DA:1713,1
DA:1714,1
DA:1717,1
DA:1719,1
DA:1720,1
DA:1721,1
DA:1722,1
DA:1723,1
DA:1725,1
DA:1727,1
DA:1729,1
DA:1730,1
DA:1731,1
DA:1733,1
DA:1734,1
DA:1735,1
DA:1737,1
DA:1738,1
DA:1739,1
DA:1740,1
DA:1741,1
DA:1744,1
DA:1745,1
DA:1747,1
DA:1748,1
DA:1749,1
DA:1750,1
DA:1751,1
DA:1753,1
DA:1754,1
DA:1755,1
DA:1756,1
DA:1757,1
DA:1758,1
DA:1761,1
DA:1763,1
DA:1764,1
DA:1767,1
DA:1770,1
DA:1771,1
DA:1772,1
DA:1773,1
DA:1774,1
DA:1775,1
DA:1776,1
DA:1779,1
DA:1780,1
DA:1781,1
DA:1782,1
DA:1783,1
DA:1784,1
DA:1785,1
DA:1786,1
DA:1789,1
DA:1791,1
DA:1793,1
DA:1794,1
DA:1795,1
DA:1797,1
DA:1798,1
DA:1799,1
DA:1800,1
DA:1802,1
DA:1803,1
DA:1804,1
DA:1805,1
DA:1806,1
DA:1807,1
DA:1810,1
DA:1811,1
DA:1813,1
DA:1814,1
DA:1815,1
DA:1816,1
DA:1817,1
DA:1819,1
DA:1820,1
DA:1821,1
DA:1822,1
DA:1823,1
DA:1824,1
DA:1825,1
DA:1826,1
DA:1829,1
DA:1831,1
DA:1832,1
DA:1835,1
DA:1838,1
DA:1839,1
DA:1840,1
DA:1841,1
DA:1842,1
DA:1843,1
DA:1844,1
DA:1847,1
DA:1849,1
DA:1850,1
DA:1851,1
DA:1852,1
DA:1853,1
DA:1855,1
DA:1857,1
DA:1859,1
DA:1860,1
DA:1861,1
DA:1863,1
DA:1864,1
DA:1865,1
DA:1867,1
DA:1868,1
DA:1869,1
DA:1870,1
DA:1871,1
DA:1874,1
DA:1875,1
DA:1877,1
DA:1878,1
DA:1879,1
DA:1880,1
DA:1881,1
DA:1883,1
DA:1884,1
DA:1885,1
DA:1886,1
DA:1887,1
DA:1888,1
DA:1889,1
DA:1890,1
DA:1893,1
DA:1895,1
DA:1896,1
DA:1899,1
DA:1902,1
DA:1903,1
DA:1905,1
DA:1906,1
DA:1907,1
DA:1909,1
DA:1910,1
DA:1911,1
DA:1913,1
DA:1914,1
DA:1915,1
DA:1918,1
DA:1919,1
DA:1921,1
DA:1922,1
DA:1923,1
DA:1924,1
DA:1925,1
DA:1927,1
DA:1928,1
DA:1929,1
DA:1930,1
DA:1931,1
DA:1932,1
DA:1933,1
DA:1934,1
DA:1937,1
DA:1938,1
DA:1939,1
DA:1940,1
BRF:0
BRH:0
LF:1327
LH:1095
end_of_record
SF:/home/openclaw/dev/yinglichina8848/sqlrustgo/crates/executor/src/operator_profile.rs
FN:792,_RNCNvNtNtCsldCax6rooq1_18sqlrustgo_executor16operator_profile5testss_25test_global_profile_timer0B7_
FN:811,_RNCNvNtNtCsldCax6rooq1_18sqlrustgo_executor16operator_profile5testss_32test_start_timer_creates_profile0B7_
FN:105,_RNvMNtCsldCax6rooq1_18sqlrustgo_executor16operator_profileNtB2_15OperatorProfile15format_avg_time
FN:57,_RNvMNtCsldCax6rooq1_18sqlrustgo_executor16operator_profileNtB2_15OperatorProfile16record_execution
FN:101,_RNvMNtCsldCax6rooq1_18sqlrustgo_executor16operator_profileNtB2_15OperatorProfile17format_total_time
FN:40,_RNvMNtCsldCax6rooq1_18sqlrustgo_executor16operator_profileNtB2_15OperatorProfile3new
FN:360,_RNvMs0_NtCsldCax6rooq1_18sqlrustgo_executor16operator_profileNtB5_13AtomicProfile11avg_time_ns
FN:331,_RNvMs0_NtCsldCax6rooq1_18sqlrustgo_executor16operator_profileNtB5_13AtomicProfile13total_time_ns
FN:335,_RNvMs0_NtCsldCax6rooq1_18sqlrustgo_executor16operator_profileNtB5_13AtomicProfile15execution_count
FN:281,_RNvMs0_NtCsldCax6rooq1_18sqlrustgo_executor16operator_profileNtB5_13AtomicProfile3new
FN:292,_RNvMs0_NtCsldCax6rooq1_18sqlrustgo_executor16operator_profileNtB5_13AtomicProfile6record
FN:386,_RNvMs2_NtCsldCax6rooq1_18sqlrustgo_executor16operator_profileNtB5_12ProfileTimer3new
FN:416,_RNvMs4_NtCsldCax6rooq1_18sqlrustgo_executor16operator_profileNtB5_18GlobalProfileTimer3new
FN:498,_RNvMs6_NtCsldCax6rooq1_18sqlrustgo_executor16operator_profileNtB5_8Profiler11start_timer
FN:510,_RNvMs6_NtCsldCax6rooq1_18sqlrustgo_executor16operator_profileNtB5_8Profiler12record_query
FN:561,_RNvMs6_NtCsldCax6rooq1_18sqlrustgo_executor16operator_profileNtB5_8Profiler15generate_report
FN:520,_RNvMs6_NtCsldCax6rooq1_18sqlrustgo_executor16operator_profileNtB5_8Profiler16get_all_profiles
FN:528,_RNvMs6_NtCsldCax6rooq1_18sqlrustgo_executor16operator_profileNtB5_8Profiler19get_sorted_profiles
FN:463,_RNvMs6_NtCsldCax6rooq1_18sqlrustgo_executor16operator_profileNtB5_8Profiler20get_operator_profile
FN:543,_RNvMs6_NtCsldCax6rooq1_18sqlrustgo_executor16operator_profileNtB5_8Profiler20latest_query_profile
FN:454,_RNvMs6_NtCsldCax6rooq1_18sqlrustgo_executor16operator_profileNtB5_8Profiler3new
FN:472,_RNvMs6_NtCsldCax6rooq1_18sqlrustgo_executor16operator_profileNtB5_8Profiler6record
FN:168,_RNvMs_NtCsldCax6rooq1_18sqlrustgo_executor16operator_profileNtB4_12QueryProfile12add_operator
FN:195,_RNvMs_NtCsldCax6rooq1_18sqlrustgo_executor16operator_profileNtB4_12QueryProfile15generate_report
FN:182,_RNvMs_NtCsldCax6rooq1_18sqlrustgo_executor16operator_profileNtB4_12QueryProfile16slowest_operator
FN:187,_RNvMs_NtCsldCax6rooq1_18sqlrustgo_executor16operator_profileNtB4_12QueryProfile17operators_by_time
FN:156,_RNvMs_NtCsldCax6rooq1_18sqlrustgo_executor16operator_profileNtB4_12QueryProfile3new
FN:172,_RNvMs_NtCsldCax6rooq1_18sqlrustgo_executor16operator_profileNtB4_12QueryProfile6finish
FN:124,_RNvNtCsldCax6rooq1_18sqlrustgo_executor16operator_profile15format_duration
FN:262,_RNvNtCsldCax6rooq1_18sqlrustgo_executor16operator_profile15truncate_string
FN:538,_RNCNvMs6_NtCsldCax6rooq1_18sqlrustgo_executor16operator_profileNtB7_8Profiler18get_query_profiles0B9_
FN:83,_RNvMNtCsldCax6rooq1_18sqlrustgo_executor16operator_profileNtB2_15OperatorProfile10add_metric
FN:113,_RNvMNtCsldCax6rooq1_18sqlrustgo_executor16operator_profileNtB2_15OperatorProfile15format_max_time
FN:109,_RNvMNtCsldCax6rooq1_18sqlrustgo_executor16operator_profileNtB2_15OperatorProfile15format_min_time
FN:88,_RNvMNtCsldCax6rooq1_18sqlrustgo_executor16operator_profileNtB2_15OperatorProfile5reset
FN:118,_RNvMNtCsldCax6rooq1_18sqlrustgo_executor16operator_profileNtB2_15OperatorProfile7to_json
FN:356,_RNvMs0_NtCsldCax6rooq1_18sqlrustgo_executor16operator_profileNtB5_13AtomicProfile11max_time_ns
FN:347,_RNvMs0_NtCsldCax6rooq1_18sqlrustgo_executor16operator_profileNtB5_13AtomicProfile11min_time_ns
FN:339,_RNvMs0_NtCsldCax6rooq1_18sqlrustgo_executor16operator_profileNtB5_13AtomicProfile14rows_processed
FN:343,_RNvMs0_NtCsldCax6rooq1_18sqlrustgo_executor16operator_profileNtB5_13AtomicProfile17batches_processed
FN:535,_RNvMs6_NtCsldCax6rooq1_18sqlrustgo_executor16operator_profileNtB5_8Profiler18get_query_profiles
FN:551,_RNvMs6_NtCsldCax6rooq1_18sqlrustgo_executor16operator_profileNtB5_8Profiler5clear
FN:623,_RNvMs6_NtCsldCax6rooq1_18sqlrustgo_executor16operator_profileNtB5_8Profiler7to_json
FN:176,_RNvMs_NtCsldCax6rooq1_18sqlrustgo_executor16operator_profileNtB4_12QueryProfile11mark_failed
FN:257,_RNvMs_NtCsldCax6rooq1_18sqlrustgo_executor16operator_profileNtB4_12QueryProfile7to_json
FN:371,_RNvXs1_NtCsldCax6rooq1_18sqlrustgo_executor16operator_profileNtB5_13AtomicProfileNtNtCs8nPosuWgJFh_4core7default7Default7default
FN:397,_RNvXs3_NtCsldCax6rooq1_18sqlrustgo_executor16operator_profileNtB5_12ProfileTimerNtNtNtCs8nPosuWgJFh_4core3ops4drop4Drop4drop
FN:433,_RNvXs5_NtCsldCax6rooq1_18sqlrustgo_executor16operator_profileNtB5_18GlobalProfileTimerNtNtNtCs8nPosuWgJFh_4core3ops4drop4Drop4drop
FN:722,_RNvNtNtCsldCax6rooq1_18sqlrustgo_executor16operator_profile5testss_13test_profiler
FN:765,_RNvNtNtCsldCax6rooq1_18sqlrustgo_executor16operator_profile5testss_18test_profile_timer
FN:674,_RNvNtNtCsldCax6rooq1_18sqlrustgo_executor16operator_profile5testss_18test_query_profile
FN:710,_RNvNtNtCsldCax6rooq1_18sqlrustgo_executor16operator_profile5testss_19test_atomic_profile
FN:737,_RNvNtNtCsldCax6rooq1_18sqlrustgo_executor16operator_profile5testss_19test_profiler_query
FN:753,_RNvNtNtCsldCax6rooq1_18sqlrustgo_executor16operator_profile5testss_20test_profiler_report
FN:778,_RNvNtNtCsldCax6rooq1_18sqlrustgo_executor16operator_profile5testss_25test_global_profile_timer
FN:695,_RNvNtNtCsldCax6rooq1_18sqlrustgo_executor16operator_profile5testss_25test_query_profile_report
FN:647,_RNvNtNtCsldCax6rooq1_18sqlrustgo_executor16operator_profile5testss_28test_operator_profile_record
FN:662,_RNvNtNtCsldCax6rooq1_18sqlrustgo_executor16operator_profile5testss_29test_operator_profile_min_max
FN:640,_RNvNtNtCsldCax6rooq1_18sqlrustgo_executor16operator_profile5testss_30test_operator_profile_creation
FN:799,_RNvNtNtCsldCax6rooq1_18sqlrustgo_executor16operator_profile5testss_32test_start_timer_creates_profile
FN:503,_RNCNvMs6_NtCsldCax6rooq1_18sqlrustgo_executor16operator_profileNtB7_8Profiler11start_timer0B9_
FN:570,_RNCNvMs6_NtCsldCax6rooq1_18sqlrustgo_executor16operator_profileNtB7_8Profiler15generate_report0B9_
FN:523,_RNCNvMs6_NtCsldCax6rooq1_18sqlrustgo_executor16operator_profileNtB7_8Profiler16get_all_profiles0B9_
FN:530,_RNCNvMs6_NtCsldCax6rooq1_18sqlrustgo_executor16operator_profileNtB7_8Profiler19get_sorted_profiles0B9_
FN:467,_RNCNvMs6_NtCsldCax6rooq1_18sqlrustgo_executor16operator_profileNtB7_8Profiler20get_operator_profile0B9_
FN:468,_RNCNvMs6_NtCsldCax6rooq1_18sqlrustgo_executor16operator_profileNtB7_8Profiler20get_operator_profiles_0B9_
FN:547,_RNCNvMs6_NtCsldCax6rooq1_18sqlrustgo_executor16operator_profileNtB7_8Profiler20latest_query_profile0B9_
FN:483,_RNCNvMs6_NtCsldCax6rooq1_18sqlrustgo_executor16operator_profileNtB7_8Profiler6record0B9_
FN:189,_RNCNvMs_NtCsldCax6rooq1_18sqlrustgo_executor16operator_profileNtB6_12QueryProfile17operators_by_time0B8_
FN:503,_RNCNvMs6_NtCs4qFySXYcYQq_18sqlrustgo_executor16operator_profileNtB7_8Profiler11start_timer0B9_
FN:570,_RNCNvMs6_NtCs4qFySXYcYQq_18sqlrustgo_executor16operator_profileNtB7_8Profiler15generate_report0B9_
FN:523,_RNCNvMs6_NtCs4qFySXYcYQq_18sqlrustgo_executor16operator_profileNtB7_8Profiler16get_all_profiles0B9_
FN:538,_RNCNvMs6_NtCs4qFySXYcYQq_18sqlrustgo_executor16operator_profileNtB7_8Profiler18get_query_profiles0B9_
FN:530,_RNCNvMs6_NtCs4qFySXYcYQq_18sqlrustgo_executor16operator_profileNtB7_8Profiler19get_sorted_profiles0B9_
FN:467,_RNCNvMs6_NtCs4qFySXYcYQq_18sqlrustgo_executor16operator_profileNtB7_8Profiler20get_operator_profile0B9_
FN:468,_RNCNvMs6_NtCs4qFySXYcYQq_18sqlrustgo_executor16operator_profileNtB7_8Profiler20get_operator_profiles_0B9_
FN:547,_RNCNvMs6_NtCs4qFySXYcYQq_18sqlrustgo_executor16operator_profileNtB7_8Profiler20latest_query_profile0B9_
FN:483,_RNCNvMs6_NtCs4qFySXYcYQq_18sqlrustgo_executor16operator_profileNtB7_8Profiler6record0B9_
FN:189,_RNCNvMs_NtCs4qFySXYcYQq_18sqlrustgo_executor16operator_profileNtB6_12QueryProfile17operators_by_time0B8_
FN:397,_RNvXs3_NtCs4qFySXYcYQq_18sqlrustgo_executor16operator_profileNtB5_12ProfileTimerNtNtNtCs8nPosuWgJFh_4core3ops4drop4Drop4drop
FN:433,_RNvXs5_NtCs4qFySXYcYQq_18sqlrustgo_executor16operator_profileNtB5_18GlobalProfileTimerNtNtNtCs8nPosuWgJFh_4core3ops4drop4Drop4drop
FN:83,_RNvMNtCs4qFySXYcYQq_18sqlrustgo_executor16operator_profileNtB2_15OperatorProfile10add_metric
FN:105,_RNvMNtCs4qFySXYcYQq_18sqlrustgo_executor16operator_profileNtB2_15OperatorProfile15format_avg_time
FN:113,_RNvMNtCs4qFySXYcYQq_18sqlrustgo_executor16operator_profileNtB2_15OperatorProfile15format_max_time
FN:109,_RNvMNtCs4qFySXYcYQq_18sqlrustgo_executor16operator_profileNtB2_15OperatorProfile15format_min_time
FN:57,_RNvMNtCs4qFySXYcYQq_18sqlrustgo_executor16operator_profileNtB2_15OperatorProfile16record_execution
FN:101,_RNvMNtCs4qFySXYcYQq_18sqlrustgo_executor16operator_profileNtB2_15OperatorProfile17format_total_time
FN:40,_RNvMNtCs4qFySXYcYQq_18sqlrustgo_executor16operator_profileNtB2_15OperatorProfile3new
FN:88,_RNvMNtCs4qFySXYcYQq_18sqlrustgo_executor16operator_profileNtB2_15OperatorProfile5reset
FN:118,_RNvMNtCs4qFySXYcYQq_18sqlrustgo_executor16operator_profileNtB2_15OperatorProfile7to_json
FN:360,_RNvMs0_NtCs4qFySXYcYQq_18sqlrustgo_executor16operator_profileNtB5_13AtomicProfile11avg_time_ns
FN:356,_RNvMs0_NtCs4qFySXYcYQq_18sqlrustgo_executor16operator_profileNtB5_13AtomicProfile11max_time_ns
FN:347,_RNvMs0_NtCs4qFySXYcYQq_18sqlrustgo_executor16operator_profileNtB5_13AtomicProfile11min_time_ns
FN:331,_RNvMs0_NtCs4qFySXYcYQq_18sqlrustgo_executor16operator_profileNtB5_13AtomicProfile13total_time_ns
FN:339,_RNvMs0_NtCs4qFySXYcYQq_18sqlrustgo_executor16operator_profileNtB5_13AtomicProfile14rows_processed
FN:335,_RNvMs0_NtCs4qFySXYcYQq_18sqlrustgo_executor16operator_profileNtB5_13AtomicProfile15execution_count
FN:343,_RNvMs0_NtCs4qFySXYcYQq_18sqlrustgo_executor16operator_profileNtB5_13AtomicProfile17batches_processed
FN:281,_RNvMs0_NtCs4qFySXYcYQq_18sqlrustgo_executor16operator_profileNtB5_13AtomicProfile3new
FN:292,_RNvMs0_NtCs4qFySXYcYQq_18sqlrustgo_executor16operator_profileNtB5_13AtomicProfile6record
FN:386,_RNvMs2_NtCs4qFySXYcYQq_18sqlrustgo_executor16operator_profileNtB5_12ProfileTimer3new
FN:416,_RNvMs4_NtCs4qFySXYcYQq_18sqlrustgo_executor16operator_profileNtB5_18GlobalProfileTimer3new
FN:498,_RNvMs6_NtCs4qFySXYcYQq_18sqlrustgo_executor16operator_profileNtB5_8Profiler11start_timer
FN:510,_RNvMs6_NtCs4qFySXYcYQq_18sqlrustgo_executor16operator_profileNtB5_8Profiler12record_query
FN:561,_RNvMs6_NtCs4qFySXYcYQq_18sqlrustgo_executor16operator_profileNtB5_8Profiler15generate_report
FN:520,_RNvMs6_NtCs4qFySXYcYQq_18sqlrustgo_executor16operator_profileNtB5_8Profiler16get_all_profiles
FN:535,_RNvMs6_NtCs4qFySXYcYQq_18sqlrustgo_executor16operator_profileNtB5_8Profiler18get_query_profiles
FN:528,_RNvMs6_NtCs4qFySXYcYQq_18sqlrustgo_executor16operator_profileNtB5_8Profiler19get_sorted_profiles
FN:463,_RNvMs6_NtCs4qFySXYcYQq_18sqlrustgo_executor16operator_profileNtB5_8Profiler20get_operator_profile
FN:543,_RNvMs6_NtCs4qFySXYcYQq_18sqlrustgo_executor16operator_profileNtB5_8Profiler20latest_query_profile
FN:454,_RNvMs6_NtCs4qFySXYcYQq_18sqlrustgo_executor16operator_profileNtB5_8Profiler3new
FN:551,_RNvMs6_NtCs4qFySXYcYQq_18sqlrustgo_executor16operator_profileNtB5_8Profiler5clear
FN:472,_RNvMs6_NtCs4qFySXYcYQq_18sqlrustgo_executor16operator_profileNtB5_8Profiler6record
FN:623,_RNvMs6_NtCs4qFySXYcYQq_18sqlrustgo_executor16operator_profileNtB5_8Profiler7to_json
FN:176,_RNvMs_NtCs4qFySXYcYQq_18sqlrustgo_executor16operator_profileNtB4_12QueryProfile11mark_failed
FN:168,_RNvMs_NtCs4qFySXYcYQq_18sqlrustgo_executor16operator_profileNtB4_12QueryProfile12add_operator
FN:195,_RNvMs_NtCs4qFySXYcYQq_18sqlrustgo_executor16operator_profileNtB4_12QueryProfile15generate_report
FN:182,_RNvMs_NtCs4qFySXYcYQq_18sqlrustgo_executor16operator_profileNtB4_12QueryProfile16slowest_operator
FN:187,_RNvMs_NtCs4qFySXYcYQq_18sqlrustgo_executor16operator_profileNtB4_12QueryProfile17operators_by_time
FN:156,_RNvMs_NtCs4qFySXYcYQq_18sqlrustgo_executor16operator_profileNtB4_12QueryProfile3new
FN:172,_RNvMs_NtCs4qFySXYcYQq_18sqlrustgo_executor16operator_profileNtB4_12QueryProfile6finish
FN:257,_RNvMs_NtCs4qFySXYcYQq_18sqlrustgo_executor16operator_profileNtB4_12QueryProfile7to_json
FN:124,_RNvNtCs4qFySXYcYQq_18sqlrustgo_executor16operator_profile15format_duration
FN:262,_RNvNtCs4qFySXYcYQq_18sqlrustgo_executor16operator_profile15truncate_string
FN:371,_RNvXs1_NtCs4qFySXYcYQq_18sqlrustgo_executor16operator_profileNtB5_13AtomicProfileNtNtCs8nPosuWgJFh_4core7default7Default7default
FNDA:1,_RNCNvNtNtCsldCax6rooq1_18sqlrustgo_executor16operator_profile5testss_25test_global_profile_timer0B7_
FNDA:1,_RNCNvNtNtCsldCax6rooq1_18sqlrustgo_executor16operator_profile5testss_32test_start_timer_creates_profile0B7_
FNDA:3,_RNvMNtCsldCax6rooq1_18sqlrustgo_executor16operator_profileNtB2_15OperatorProfile15format_avg_time
FNDA:59,_RNvMNtCsldCax6rooq1_18sqlrustgo_executor16operator_profileNtB2_15OperatorProfile16record_execution
FNDA:3,_RNvMNtCsldCax6rooq1_18sqlrustgo_executor16operator_profileNtB2_15OperatorProfile17format_total_time
FNDA:21,_RNvMNtCsldCax6rooq1_18sqlrustgo_executor16operator_profileNtB2_15OperatorProfile3new
FNDA:1,_RNvMs0_NtCsldCax6rooq1_18sqlrustgo_executor16operator_profileNtB5_13AtomicProfile11avg_time_ns
FNDA:2,_RNvMs0_NtCsldCax6rooq1_18sqlrustgo_executor16operator_profileNtB5_13AtomicProfile13total_time_ns
FNDA:2,_RNvMs0_NtCsldCax6rooq1_18sqlrustgo_executor16operator_profileNtB5_13AtomicProfile15execution_count
FNDA:1,_RNvMs0_NtCsldCax6rooq1_18sqlrustgo_executor16operator_profileNtB5_13AtomicProfile3new
FNDA:2,_RNvMs0_NtCsldCax6rooq1_18sqlrustgo_executor16operator_profileNtB5_13AtomicProfile6record
FNDA:1,_RNvMs2_NtCsldCax6rooq1_18sqlrustgo_executor16operator_profileNtB5_12ProfileTimer3new
FNDA:2,_RNvMs4_NtCsldCax6rooq1_18sqlrustgo_executor16operator_profileNtB5_18GlobalProfileTimer3new
FNDA:2,_RNvMs6_NtCsldCax6rooq1_18sqlrustgo_executor16operator_profileNtB5_8Profiler11start_timer
FNDA:1,_RNvMs6_NtCsldCax6rooq1_18sqlrustgo_executor16operator_profileNtB5_8Profiler12record_query
FNDA:1,_RNvMs6_NtCsldCax6rooq1_18sqlrustgo_executor16operator_profileNtB5_8Profiler15generate_report
FNDA:5,_RNvMs6_NtCsldCax6rooq1_18sqlrustgo_executor16operator_profileNtB5_8Profiler16get_all_profiles
FNDA:2,_RNvMs6_NtCsldCax6rooq1_18sqlrustgo_executor16operator_profileNtB5_8Profiler19get_sorted_profiles
FNDA:1,_RNvMs6_NtCsldCax6rooq1_18sqlrustgo_executor16operator_profileNtB5_8Profiler20get_operator_profile
FNDA:1,_RNvMs6_NtCsldCax6rooq1_18sqlrustgo_executor16operator_profileNtB5_8Profiler20latest_query_profile
FNDA:6,_RNvMs6_NtCsldCax6rooq1_18sqlrustgo_executor16operator_profileNtB5_8Profiler3new
FNDA:47,_RNvMs6_NtCsldCax6rooq1_18sqlrustgo_executor16operator_profileNtB5_8Profiler6record
FNDA:4,_RNvMs_NtCsldCax6rooq1_18sqlrustgo_executor16operator_profileNtB4_12QueryProfile12add_operator
FNDA:1,_RNvMs_NtCsldCax6rooq1_18sqlrustgo_executor16operator_profileNtB4_12QueryProfile15generate_report
FNDA:2,_RNvMs_NtCsldCax6rooq1_18sqlrustgo_executor16operator_profileNtB4_12QueryProfile16slowest_operator
FNDA:1,_RNvMs_NtCsldCax6rooq1_18sqlrustgo_executor16operator_profileNtB4_12QueryProfile17operators_by_time
FNDA:3,_RNvMs_NtCsldCax6rooq1_18sqlrustgo_executor16operator_profileNtB4_12QueryProfile3new
FNDA:3,_RNvMs_NtCsldCax6rooq1_18sqlrustgo_executor16operator_profileNtB4_12QueryProfile6finish
FNDA:8,_RNvNtCsldCax6rooq1_18sqlrustgo_executor16operator_profile15format_duration
FNDA:4,_RNvNtCsldCax6rooq1_18sqlrustgo_executor16operator_profile15truncate_string
FNDA:0,_RNCNvMs6_NtCsldCax6rooq1_18sqlrustgo_executor16operator_profileNtB7_8Profiler18get_query_profiles0B9_
FNDA:0,_RNvMNtCsldCax6rooq1_18sqlrustgo_executor16operator_profileNtB2_15OperatorProfile10add_metric
FNDA:0,_RNvMNtCsldCax6rooq1_18sqlrustgo_executor16operator_profileNtB2_15OperatorProfile15format_max_time
FNDA:0,_RNvMNtCsldCax6rooq1_18sqlrustgo_executor16operator_profileNtB2_15OperatorProfile15format_min_time
FNDA:0,_RNvMNtCsldCax6rooq1_18sqlrustgo_executor16operator_profileNtB2_15OperatorProfile5reset
FNDA:0,_RNvMNtCsldCax6rooq1_18sqlrustgo_executor16operator_profileNtB2_15OperatorProfile7to_json
FNDA:0,_RNvMs0_NtCsldCax6rooq1_18sqlrustgo_executor16operator_profileNtB5_13AtomicProfile11max_time_ns
FNDA:0,_RNvMs0_NtCsldCax6rooq1_18sqlrustgo_executor16operator_profileNtB5_13AtomicProfile11min_time_ns
FNDA:0,_RNvMs0_NtCsldCax6rooq1_18sqlrustgo_executor16operator_profileNtB5_13AtomicProfile14rows_processed
FNDA:0,_RNvMs0_NtCsldCax6rooq1_18sqlrustgo_executor16operator_profileNtB5_13AtomicProfile17batches_processed
FNDA:0,_RNvMs6_NtCsldCax6rooq1_18sqlrustgo_executor16operator_profileNtB5_8Profiler18get_query_profiles
FNDA:0,_RNvMs6_NtCsldCax6rooq1_18sqlrustgo_executor16operator_profileNtB5_8Profiler5clear
FNDA:0,_RNvMs6_NtCsldCax6rooq1_18sqlrustgo_executor16operator_profileNtB5_8Profiler7to_json
FNDA:0,_RNvMs_NtCsldCax6rooq1_18sqlrustgo_executor16operator_profileNtB4_12QueryProfile11mark_failed
FNDA:0,_RNvMs_NtCsldCax6rooq1_18sqlrustgo_executor16operator_profileNtB4_12QueryProfile7to_json
FNDA:0,_RNvXs1_NtCsldCax6rooq1_18sqlrustgo_executor16operator_profileNtB5_13AtomicProfileNtNtCs8nPosuWgJFh_4core7default7Default7default
FNDA:1,_RNvXs3_NtCsldCax6rooq1_18sqlrustgo_executor16operator_profileNtB5_12ProfileTimerNtNtNtCs8nPosuWgJFh_4core3ops4drop4Drop4drop
FNDA:2,_RNvXs5_NtCsldCax6rooq1_18sqlrustgo_executor16operator_profileNtB5_18GlobalProfileTimerNtNtNtCs8nPosuWgJFh_4core3ops4drop4Drop4drop
FNDA:1,_RNvNtNtCsldCax6rooq1_18sqlrustgo_executor16operator_profile5testss_13test_profiler
FNDA:1,_RNvNtNtCsldCax6rooq1_18sqlrustgo_executor16operator_profile5testss_18test_profile_timer
FNDA:1,_RNvNtNtCsldCax6rooq1_18sqlrustgo_executor16operator_profile5testss_18test_query_profile
FNDA:1,_RNvNtNtCsldCax6rooq1_18sqlrustgo_executor16operator_profile5testss_19test_atomic_profile
FNDA:1,_RNvNtNtCsldCax6rooq1_18sqlrustgo_executor16operator_profile5testss_19test_profiler_query
FNDA:1,_RNvNtNtCsldCax6rooq1_18sqlrustgo_executor16operator_profile5testss_20test_profiler_report
FNDA:1,_RNvNtNtCsldCax6rooq1_18sqlrustgo_executor16operator_profile5testss_25test_global_profile_timer
FNDA:1,_RNvNtNtCsldCax6rooq1_18sqlrustgo_executor16operator_profile5testss_25test_query_profile_report
FNDA:1,_RNvNtNtCsldCax6rooq1_18sqlrustgo_executor16operator_profile5testss_28test_operator_profile_record
FNDA:1,_RNvNtNtCsldCax6rooq1_18sqlrustgo_executor16operator_profile5testss_29test_operator_profile_min_max
FNDA:1,_RNvNtNtCsldCax6rooq1_18sqlrustgo_executor16operator_profile5testss_30test_operator_profile_creation
FNDA:1,_RNvNtNtCsldCax6rooq1_18sqlrustgo_executor16operator_profile5testss_32test_start_timer_creates_profile
FNDA:2,_RNCNvMs6_NtCsldCax6rooq1_18sqlrustgo_executor16operator_profileNtB7_8Profiler11start_timer0B9_
FNDA:1,_RNCNvMs6_NtCsldCax6rooq1_18sqlrustgo_executor16operator_profileNtB7_8Profiler15generate_report0B9_
FNDA:5,_RNCNvMs6_NtCsldCax6rooq1_18sqlrustgo_executor16operator_profileNtB7_8Profiler16get_all_profiles0B9_
FNDA:2,_RNCNvMs6_NtCsldCax6rooq1_18sqlrustgo_executor16operator_profileNtB7_8Profiler19get_sorted_profiles0B9_
FNDA:1,_RNCNvMs6_NtCsldCax6rooq1_18sqlrustgo_executor16operator_profileNtB7_8Profiler20get_operator_profile0B9_
FNDA:1,_RNCNvMs6_NtCsldCax6rooq1_18sqlrustgo_executor16operator_profileNtB7_8Profiler20get_operator_profiles_0B9_
FNDA:1,_RNCNvMs6_NtCsldCax6rooq1_18sqlrustgo_executor16operator_profileNtB7_8Profiler20latest_query_profile0B9_
FNDA:10,_RNCNvMs6_NtCsldCax6rooq1_18sqlrustgo_executor16operator_profileNtB7_8Profiler6record0B9_
FNDA:0,_RNCNvMs_NtCsldCax6rooq1_18sqlrustgo_executor16operator_profileNtB6_12QueryProfile17operators_by_time0B8_
FNDA:0,_RNCNvMs6_NtCs4qFySXYcYQq_18sqlrustgo_executor16operator_profileNtB7_8Profiler11start_timer0B9_
FNDA:0,_RNCNvMs6_NtCs4qFySXYcYQq_18sqlrustgo_executor16operator_profileNtB7_8Profiler15generate_report0B9_
FNDA:0,_RNCNvMs6_NtCs4qFySXYcYQq_18sqlrustgo_executor16operator_profileNtB7_8Profiler16get_all_profiles0B9_
FNDA:0,_RNCNvMs6_NtCs4qFySXYcYQq_18sqlrustgo_executor16operator_profileNtB7_8Profiler18get_query_profiles0B9_
FNDA:0,_RNCNvMs6_NtCs4qFySXYcYQq_18sqlrustgo_executor16operator_profileNtB7_8Profiler19get_sorted_profiles0B9_
FNDA:0,_RNCNvMs6_NtCs4qFySXYcYQq_18sqlrustgo_executor16operator_profileNtB7_8Profiler20get_operator_profile0B9_
FNDA:0,_RNCNvMs6_NtCs4qFySXYcYQq_18sqlrustgo_executor16operator_profileNtB7_8Profiler20get_operator_profiles_0B9_
FNDA:0,_RNCNvMs6_NtCs4qFySXYcYQq_18sqlrustgo_executor16operator_profileNtB7_8Profiler20latest_query_profile0B9_
FNDA:0,_RNCNvMs6_NtCs4qFySXYcYQq_18sqlrustgo_executor16operator_profileNtB7_8Profiler6record0B9_
FNDA:0,_RNCNvMs_NtCs4qFySXYcYQq_18sqlrustgo_executor16operator_profileNtB6_12QueryProfile17operators_by_time0B8_
FNDA:0,_RNvXs3_NtCs4qFySXYcYQq_18sqlrustgo_executor16operator_profileNtB5_12ProfileTimerNtNtNtCs8nPosuWgJFh_4core3ops4drop4Drop4drop
FNDA:0,_RNvXs5_NtCs4qFySXYcYQq_18sqlrustgo_executor16operator_profileNtB5_18GlobalProfileTimerNtNtNtCs8nPosuWgJFh_4core3ops4drop4Drop4drop
FNDA:0,_RNvMNtCs4qFySXYcYQq_18sqlrustgo_executor16operator_profileNtB2_15OperatorProfile10add_metric
FNDA:0,_RNvMNtCs4qFySXYcYQq_18sqlrustgo_executor16operator_profileNtB2_15OperatorProfile15format_avg_time
FNDA:0,_RNvMNtCs4qFySXYcYQq_18sqlrustgo_executor16operator_profileNtB2_15OperatorProfile15format_max_time
FNDA:0,_RNvMNtCs4qFySXYcYQq_18sqlrustgo_executor16operator_profileNtB2_15OperatorProfile15format_min_time
FNDA:0,_RNvMNtCs4qFySXYcYQq_18sqlrustgo_executor16operator_profileNtB2_15OperatorProfile16record_execution
FNDA:0,_RNvMNtCs4qFySXYcYQq_18sqlrustgo_executor16operator_profileNtB2_15OperatorProfile17format_total_time
FNDA:0,_RNvMNtCs4qFySXYcYQq_18sqlrustgo_executor16operator_profileNtB2_15OperatorProfile3new
FNDA:0,_RNvMNtCs4qFySXYcYQq_18sqlrustgo_executor16operator_profileNtB2_15OperatorProfile5reset
FNDA:0,_RNvMNtCs4qFySXYcYQq_18sqlrustgo_executor16operator_profileNtB2_15OperatorProfile7to_json
FNDA:0,_RNvMs0_NtCs4qFySXYcYQq_18sqlrustgo_executor16operator_profileNtB5_13AtomicProfile11avg_time_ns
FNDA:0,_RNvMs0_NtCs4qFySXYcYQq_18sqlrustgo_executor16operator_profileNtB5_13AtomicProfile11max_time_ns
FNDA:0,_RNvMs0_NtCs4qFySXYcYQq_18sqlrustgo_executor16operator_profileNtB5_13AtomicProfile11min_time_ns
FNDA:0,_RNvMs0_NtCs4qFySXYcYQq_18sqlrustgo_executor16operator_profileNtB5_13AtomicProfile13total_time_ns
FNDA:0,_RNvMs0_NtCs4qFySXYcYQq_18sqlrustgo_executor16operator_profileNtB5_13AtomicProfile14rows_processed
FNDA:0,_RNvMs0_NtCs4qFySXYcYQq_18sqlrustgo_executor16operator_profileNtB5_13AtomicProfile15execution_count
FNDA:0,_RNvMs0_NtCs4qFySXYcYQq_18sqlrustgo_executor16operator_profileNtB5_13AtomicProfile17batches_processed
FNDA:0,_RNvMs0_NtCs4qFySXYcYQq_18sqlrustgo_executor16operator_profileNtB5_13AtomicProfile3new
FNDA:0,_RNvMs0_NtCs4qFySXYcYQq_18sqlrustgo_executor16operator_profileNtB5_13AtomicProfile6record
FNDA:0,_RNvMs2_NtCs4qFySXYcYQq_18sqlrustgo_executor16operator_profileNtB5_12ProfileTimer3new
FNDA:0,_RNvMs4_NtCs4qFySXYcYQq_18sqlrustgo_executor16operator_profileNtB5_18GlobalProfileTimer3new
FNDA:0,_RNvMs6_NtCs4qFySXYcYQq_18sqlrustgo_executor16operator_profileNtB5_8Profiler11start_timer
FNDA:0,_RNvMs6_NtCs4qFySXYcYQq_18sqlrustgo_executor16operator_profileNtB5_8Profiler12record_query
FNDA:0,_RNvMs6_NtCs4qFySXYcYQq_18sqlrustgo_executor16operator_profileNtB5_8Profiler15generate_report
FNDA:0,_RNvMs6_NtCs4qFySXYcYQq_18sqlrustgo_executor16operator_profileNtB5_8Profiler16get_all_profiles
FNDA:0,_RNvMs6_NtCs4qFySXYcYQq_18sqlrustgo_executor16operator_profileNtB5_8Profiler18get_query_profiles
FNDA:0,_RNvMs6_NtCs4qFySXYcYQq_18sqlrustgo_executor16operator_profileNtB5_8Profiler19get_sorted_profiles
FNDA:0,_RNvMs6_NtCs4qFySXYcYQq_18sqlrustgo_executor16operator_profileNtB5_8Profiler20get_operator_profile
FNDA:0,_RNvMs6_NtCs4qFySXYcYQq_18sqlrustgo_executor16operator_profileNtB5_8Profiler20latest_query_profile
FNDA:0,_RNvMs6_NtCs4qFySXYcYQq_18sqlrustgo_executor16operator_profileNtB5_8Profiler3new
FNDA:0,_RNvMs6_NtCs4qFySXYcYQq_18sqlrustgo_executor16operator_profileNtB5_8Profiler5clear
FNDA:0,_RNvMs6_NtCs4qFySXYcYQq_18sqlrustgo_executor16operator_profileNtB5_8Profiler6record
FNDA:0,_RNvMs6_NtCs4qFySXYcYQq_18sqlrustgo_executor16operator_profileNtB5_8Profiler7to_json
FNDA:0,_RNvMs_NtCs4qFySXYcYQq_18sqlrustgo_executor16operator_profileNtB4_12QueryProfile11mark_failed
FNDA:0,_RNvMs_NtCs4qFySXYcYQq_18sqlrustgo_executor16operator_profileNtB4_12QueryProfile12add_operator
FNDA:0,_RNvMs_NtCs4qFySXYcYQq_18sqlrustgo_executor16operator_profileNtB4_12QueryProfile15generate_report
FNDA:0,_RNvMs_NtCs4qFySXYcYQq_18sqlrustgo_executor16operator_profileNtB4_12QueryProfile16slowest_operator
FNDA:0,_RNvMs_NtCs4qFySXYcYQq_18sqlrustgo_executor16operator_profileNtB4_12QueryProfile17operators_by_time
FNDA:0,_RNvMs_NtCs4qFySXYcYQq_18sqlrustgo_executor16operator_profileNtB4_12QueryProfile3new
FNDA:0,_RNvMs_NtCs4qFySXYcYQq_18sqlrustgo_executor16operator_profileNtB4_12QueryProfile6finish
FNDA:0,_RNvMs_NtCs4qFySXYcYQq_18sqlrustgo_executor16operator_profileNtB4_12QueryProfile7to_json
FNDA:0,_RNvNtCs4qFySXYcYQq_18sqlrustgo_executor16operator_profile15format_duration
FNDA:0,_RNvNtCs4qFySXYcYQq_18sqlrustgo_executor16operator_profile15truncate_string
FNDA:0,_RNvXs1_NtCs4qFySXYcYQq_18sqlrustgo_executor16operator_profileNtB5_13AtomicProfileNtNtCs8nPosuWgJFh_4core7default7Default7default
FNF:69
FNH:52
DA:40,21
DA:41,21
DA:42,21
DA:43,21
DA:44,21
DA:45,21
DA:46,21
DA:47,21
DA:48,21
DA:49,21
DA:50,21
DA:51,21
DA:52,21
DA:53,21
DA:54,21
DA:57,59
DA:58,59
DA:59,59
DA:61,59
DA:62,28
DA:63,31
DA:64,59
DA:65,27
DA:66,32
DA:68,59
DA:69,59
DA:70,59
DA:72,59
DA:73,59
DA:76,59
DA:77,59
DA:78,59
DA:79,59
DA:80,59
DA:83,0
DA:84,0
DA:85,0
DA:88,0
DA:89,0
DA:90,0
DA:91,0
DA:92,0
DA:93,0
DA:94,0
DA:95,0
DA:96,0
DA:97,0
DA:98,0
DA:101,3
DA:102,3
DA:103,3
DA:105,3
DA:106,3
DA:107,3
DA:109,0
DA:110,0
DA:111,0
DA:113,0
DA:114,0
DA:115,0
DA:118,0
DA:119,0
DA:120,0
DA:124,8
DA:125,8
DA:126,0
DA:127,8
DA:128,5
DA:129,3
DA:130,3
DA:132,0
DA:134,8
DA:156,3
DA:157,3
DA:158,3
DA:159,3
DA:160,3
DA:161,3
DA:162,3
DA:163,3
DA:164,3
DA:165,3
DA:166,3
DA:168,4
DA:169,4
DA:170,4
DA:172,3
DA:173,3
DA:174,3
DA:176,0
DA:177,0
DA:178,0
DA:179,0
DA:182,2
DA:183,2
DA:184,2
DA:187,1
DA:188,1
DA:189,1
DA:190,1
DA:191,1
DA:195,1
DA:196,1
DA:198,1
DA:199,1
DA:200,1
DA:201,1
DA:202,1
DA:203,1
DA:204,1
DA:205,1
DA:206,1
DA:207,1
DA:208,1
DA:209,1
DA:210,1
DA:211,1
DA:212,1
DA:213,1
DA:215,1
DA:217,1
DA:219,1
DA:220,1
DA:221,1
DA:223,1
DA:224,1
DA:226,1
DA:227,1
DA:230,1
DA:231,1
DA:232,1
DA:233,1
DA:234,1
DA:235,1
DA:236,1
DA:237,1
DA:238,1
DA:239,1
DA:240,1
DA:241,1
DA:242,1
DA:243,1
DA:246,1
DA:247,1
DA:248,1
DA:249,1
DA:250,1
DA:251,1
DA:252,1
DA:254,1
DA:255,1
DA:257,0
DA:258,0
DA:259,0
DA:262,4
DA:263,4
DA:264,4
DA:266,0
DA:268,4
DA:281,1
DA:282,1
DA:283,1
DA:284,1
DA:285,1
DA:286,1
DA:287,1
DA:288,1
DA:289,1
DA:290,1
DA:292,2
DA:293,2
DA:294,2
DA:295,2
DA:296,2
DA:297,2
DA:298,2
DA:302,2
DA:303,2
DA:304,1
DA:305,1
DA:306,1
DA:307,1
DA:308,1
DA:309,1
DA:311,1
DA:312,0
DA:317,2
DA:318,2
DA:319,0
DA:320,2
DA:321,2
DA:322,2
DA:323,2
DA:324,2
DA:326,2
DA:327,0
DA:329,2
DA:331,2
DA:332,2
DA:333,2
DA:335,2
DA:336,2
DA:337,2
DA:339,0
DA:340,0
DA:341,0
DA:343,0
DA:344,0
DA:345,0
DA:347,0
DA:348,0
DA:349,0
DA:350,0
DA:352,0
DA:354,0
DA:356,0
DA:357,0
DA:358,0
DA:360,1
DA:361,1
DA:362,1
DA:363,1
DA:365,0
DA:367,1
DA:371,0
DA:372,0
DA:373,0
DA:386,1
DA:387,1
DA:388,1
DA:389,1
DA:390,1
DA:391,1
DA:392,1
DA:393,1
DA:397,1
DA:398,1
DA:399,1
DA:400,1
DA:401,1
DA:416,2
DA:417,2
DA:418,2
DA:419,2
DA:420,2
DA:421,2
DA:422,2
DA:423,2
DA:424,2
DA:425,2
DA:426,2
DA:427,2
DA:428,2
DA:429,2
DA:433,2
DA:434,2
DA:435,2
DA:436,2
DA:437,2
DA:438,2
DA:439,0
DA:440,2
DA:454,6
DA:455,6
DA:456,6
DA:457,6
DA:458,6
DA:459,6
DA:460,6
DA:463,1
DA:464,1
DA:465,1
DA:466,1
DA:467,1
DA:468,1
DA:469,1
DA:472,47
DA:473,47
DA:474,47
DA:475,47
DA:476,47
DA:477,47
DA:478,47
DA:479,47
DA:480,47
DA:481,47
DA:482,47
DA:483,47
DA:484,47
DA:485,0
DA:486,47
DA:498,2
DA:500,2
DA:501,2
DA:502,2
DA:503,2
DA:504,0
DA:506,2
DA:507,2
DA:510,1
DA:511,1
DA:512,1
DA:513,1
DA:514,0
DA:515,0
DA:516,0
DA:517,1
DA:520,5
DA:521,5
DA:522,5
DA:523,5
DA:524,5
DA:525,5
DA:528,2
DA:529,2
DA:530,2
DA:531,2
DA:532,2
DA:535,0
DA:536,0
DA:537,0
DA:538,0
DA:539,0
DA:540,0
DA:543,1
DA:544,1
DA:545,1
DA:546,1
DA:547,1
DA:548,1
DA:551,0
DA:552,0
DA:553,0
DA:554,0
DA:555,0
DA:556,0
DA:557,0
DA:558,0
DA:561,1
DA:562,1
DA:564,1
DA:566,1
DA:567,1
DA:568,1
DA:570,1
DA:571,1
DA:572,1
DA:573,1
DA:574,1
DA:576,1
DA:577,1
DA:578,1
DA:579,1
DA:580,1
DA:582,1
DA:583,1
DA:584,1
DA:585,1
DA:586,1
DA:588,1
DA:589,1
DA:591,1
DA:592,1
DA:593,1
DA:594,1
DA:596,1
DA:597,1
DA:599,1
DA:600,1
DA:603,2
DA:604,2
DA:605,2
DA:606,2
DA:607,2
DA:608,2
DA:609,2
DA:610,2
DA:611,2
DA:612,2
DA:613,2
DA:614,2
DA:615,1
DA:616,1
DA:618,0
DA:620,1
DA:621,1
DA:623,0
DA:624,0
DA:625,0
DA:626,0
DA:640,1
DA:641,1
DA:642,1
DA:643,1
DA:644,1
DA:647,1
DA:648,1
DA:650,1
DA:651,1
DA:652,1
DA:653,1
DA:655,1
DA:656,1
DA:657,1
DA:658,1
DA:659,1
DA:662,1
DA:663,1
DA:665,1
DA:666,1
DA:667,1
DA:669,1
DA:670,1
DA:671,1
DA:674,1
DA:675,1
DA:677,1
DA:678,1
DA:680,1
DA:681,1
DA:683,1
DA:684,1
DA:685,1
DA:687,1
DA:688,1
DA:690,1
DA:691,1
DA:692,1
DA:695,1
DA:696,1
DA:698,1
DA:699,1
DA:701,1
DA:702,1
DA:704,1
DA:705,1
DA:706,1
DA:707,1
DA:710,1
DA:711,1
DA:713,1
DA:714,1
DA:716,1
DA:717,1
DA:718,1
DA:719,1
DA:722,1
DA:723,1
DA:725,1
DA:726,1
DA:727,1
DA:729,1
DA:730,1
DA:732,1
DA:733,1
DA:734,1
DA:737,1
DA:738,1
DA:740,1
DA:741,1
DA:742,1
DA:743,1
DA:744,1
DA:746,1
DA:748,1
DA:749,1
DA:750,1
DA:753,1
DA:754,1
DA:756,1
DA:757,1
DA:759,1
DA:760,1
DA:761,1
DA:762,1
DA:765,1
DA:766,1
DA:768,1
DA:769,1
DA:770,1
DA:771,1
DA:773,1
DA:774,1
DA:775,1
DA:778,1
DA:779,1
DA:782,1
DA:784,1
DA:785,1
DA:786,1
DA:787,1
DA:789,1
DA:790,1
DA:791,1
DA:792,1
DA:793,1
DA:794,1
DA:795,1
DA:796,1
DA:799,1
DA:800,1
DA:803,1
DA:804,1
DA:805,1
DA:806,1
DA:808,1
DA:809,1
DA:810,1
DA:811,1
DA:812,1
DA:813,1
DA:814,1
BRF:0
BRH:0
LF:524
LH:442
end_of_record
SF:/home/openclaw/dev/yinglichina8848/sqlrustgo/crates/executor/src/parallel_executor.rs
FN:85,_RNvMNtCsldCax6rooq1_18sqlrustgo_executor17parallel_executorNtB2_23ParallelVolcanoExecutor12with_storage
FN:100,_RNvMNtCsldCax6rooq1_18sqlrustgo_executor17parallel_executorNtB2_23ParallelVolcanoExecutor6degree
FN:1008,_RNvMNtNtCsldCax6rooq1_18sqlrustgo_executor17parallel_executor5testsNtB2_16MockPhysicalPlan10table_name
FN:1004,_RNvMNtNtCsldCax6rooq1_18sqlrustgo_executor17parallel_executor5testsNtB2_16MockPhysicalPlan4name
FN:1000,_RNvMNtNtCsldCax6rooq1_18sqlrustgo_executor17parallel_executor5testsNtB2_16MockPhysicalPlan6schema
FN:111,_RNvXs_NtCsldCax6rooq1_18sqlrustgo_executor17parallel_executorNtB4_23ParallelVolcanoExecutorNtNtCs8nPosuWgJFh_4core7default7Default7default
FN:75,_RNvMNtCsldCax6rooq1_18sqlrustgo_executor17parallel_executorNtB2_23ParallelVolcanoExecutor11with_config
FN:64,_RNvMNtCsldCax6rooq1_18sqlrustgo_executor17parallel_executorNtB2_23ParallelVolcanoExecutor14with_scheduler
FN:51,_RNvMNtCsldCax6rooq1_18sqlrustgo_executor17parallel_executorNtB2_23ParallelVolcanoExecutor26with_storage_and_scheduler
FN:35,_RNvMNtCsldCax6rooq1_18sqlrustgo_executor17parallel_executorNtB2_23ParallelVolcanoExecutor3new
FN:105,_RNvMNtCsldCax6rooq1_18sqlrustgo_executor17parallel_executorNtB2_23ParallelVolcanoExecutor7storage
FN:95,_RNvMNtCsldCax6rooq1_18sqlrustgo_executor17parallel_executorNtB2_23ParallelVolcanoExecutor9scheduler
FN:288,_RNvMs1_NtCsldCax6rooq1_18sqlrustgo_executor17parallel_executorNtB5_23ParallelVolcanoExecutor13execute_child
FN:446,_RNvMs1_NtCsldCax6rooq1_18sqlrustgo_executor17parallel_executorNtB5_23ParallelVolcanoExecutor16execute_fallback
FN:885,_RNvMs1_NtCsldCax6rooq1_18sqlrustgo_executor17parallel_executorNtB5_23ParallelVolcanoExecutor17cartesian_product
FN:305,_RNvMs1_NtCsldCax6rooq1_18sqlrustgo_executor17parallel_executorNtB5_23ParallelVolcanoExecutor19partition_hash_join
FN:524,_RNvMs1_NtCsldCax6rooq1_18sqlrustgo_executor17parallel_executorNtB5_23ParallelVolcanoExecutor20sequential_aggregate
FN:140,_RNvMs1_NtCsldCax6rooq1_18sqlrustgo_executor17parallel_executorNtB5_23ParallelVolcanoExecutor21execute_parallel_scan
FN:811,_RNvMs1_NtCsldCax6rooq1_18sqlrustgo_executor17parallel_executorNtB5_23ParallelVolcanoExecutor22execute_parallel_count
FN:421,_RNvMs1_NtCsldCax6rooq1_18sqlrustgo_executor17parallel_executorNtB5_23ParallelVolcanoExecutor23evaluate_join_condition
FN:453,_RNvMs1_NtCsldCax6rooq1_18sqlrustgo_executor17parallel_executorNtB5_23ParallelVolcanoExecutor23execute_parallel_filter
FN:751,_RNvMs1_NtCsldCax6rooq1_18sqlrustgo_executor17parallel_executorNtB5_23ParallelVolcanoExecutor24compute_aggregate_scalar
FN:898,_RNvMs1_NtCsldCax6rooq1_18sqlrustgo_executor17parallel_executorNtB5_23ParallelVolcanoExecutor24hash_inner_join_fallback
FN:671,_RNvMs1_NtCsldCax6rooq1_18sqlrustgo_executor17parallel_executorNtB5_23ParallelVolcanoExecutor24parallel_group_aggregate
FN:343,_RNvMs1_NtCsldCax6rooq1_18sqlrustgo_executor17parallel_executorNtB5_23ParallelVolcanoExecutor25partition_hash_inner_join
FN:465,_RNvMs1_NtCsldCax6rooq1_18sqlrustgo_executor17parallel_executorNtB5_23ParallelVolcanoExecutor26execute_parallel_aggregate
FN:217,_RNvMs1_NtCsldCax6rooq1_18sqlrustgo_executor17parallel_executorNtB5_23ParallelVolcanoExecutor26execute_parallel_hash_join
FN:393,_RNvMs1_NtCsldCax6rooq1_18sqlrustgo_executor17parallel_executorNtB5_23ParallelVolcanoExecutor26extend_with_left_unmatched
FN:459,_RNvMs1_NtCsldCax6rooq1_18sqlrustgo_executor17parallel_executorNtB5_23ParallelVolcanoExecutor27execute_parallel_projection
FN:590,_RNvMs1_NtCsldCax6rooq1_18sqlrustgo_executor17parallel_executorNtB5_23ParallelVolcanoExecutor27parallel_no_group_aggregate
FN:133,_RNvXs0_NtCsldCax6rooq1_18sqlrustgo_executor17parallel_executorNtB5_23ParallelVolcanoExecutorNtB5_16ParallelExecutor15parallel_degree
FN:117,_RNvXs0_NtCsldCax6rooq1_18sqlrustgo_executor17parallel_executorNtB5_23ParallelVolcanoExecutorNtB5_16ParallelExecutor16execute_parallel
FN:129,_RNvXs0_NtCsldCax6rooq1_18sqlrustgo_executor17parallel_executorNtB5_23ParallelVolcanoExecutorNtB5_16ParallelExecutor19set_parallel_degree
FN:709,_RNCNCNvMs1_NtCsldCax6rooq1_18sqlrustgo_executor17parallel_executorNtB9_23ParallelVolcanoExecutor24parallel_group_aggregate00Bb_
FN:359,_RNCNCNvMs1_NtCsldCax6rooq1_18sqlrustgo_executor17parallel_executorNtB9_23ParallelVolcanoExecutor25partition_hash_inner_join00Bb_
FN:651,_RNCNCNvMs1_NtCsldCax6rooq1_18sqlrustgo_executor17parallel_executorNtB9_23ParallelVolcanoExecutor27parallel_no_group_aggregates_00Bb_
FN:39,_RNCNvMNtCsldCax6rooq1_18sqlrustgo_executor17parallel_executorNtB4_23ParallelVolcanoExecutor3new0B6_
FN:540,_RNCNvMs1_NtCsldCax6rooq1_18sqlrustgo_executor17parallel_executorNtB7_23ParallelVolcanoExecutor20sequential_aggregate0B9_
FN:572,_RNCNvMs1_NtCsldCax6rooq1_18sqlrustgo_executor17parallel_executorNtB7_23ParallelVolcanoExecutor20sequential_aggregates0_0B9_
FN:559,_RNCNvMs1_NtCsldCax6rooq1_18sqlrustgo_executor17parallel_executorNtB7_23ParallelVolcanoExecutor20sequential_aggregates_0B9_
FN:193,_RNCNvMs1_NtCsldCax6rooq1_18sqlrustgo_executor17parallel_executorNtB7_23ParallelVolcanoExecutor21execute_parallel_scan0B9_
FN:865,_RNCNvMs1_NtCsldCax6rooq1_18sqlrustgo_executor17parallel_executorNtB7_23ParallelVolcanoExecutor22execute_parallel_count0B9_
FN:704,_RNCNvMs1_NtCsldCax6rooq1_18sqlrustgo_executor17parallel_executorNtB7_23ParallelVolcanoExecutor24parallel_group_aggregate0B9_
FN:733,_RNCNvMs1_NtCsldCax6rooq1_18sqlrustgo_executor17parallel_executorNtB7_23ParallelVolcanoExecutor24parallel_group_aggregates_0B9_
FN:355,_RNCNvMs1_NtCsldCax6rooq1_18sqlrustgo_executor17parallel_executorNtB7_23ParallelVolcanoExecutor25partition_hash_inner_join0B9_
FN:368,_RNCNvMs1_NtCsldCax6rooq1_18sqlrustgo_executor17parallel_executorNtB7_23ParallelVolcanoExecutor25partition_hash_inner_joins_0B9_
FN:228,_RNCNvMs1_NtCsldCax6rooq1_18sqlrustgo_executor17parallel_executorNtB7_23ParallelVolcanoExecutor26execute_parallel_hash_join0B9_
FN:229,_RNCNvMs1_NtCsldCax6rooq1_18sqlrustgo_executor17parallel_executorNtB7_23ParallelVolcanoExecutor26execute_parallel_hash_joins_0B9_
FN:403,_RNCNvMs1_NtCsldCax6rooq1_18sqlrustgo_executor17parallel_executorNtB7_23ParallelVolcanoExecutor26extend_with_left_unmatched0B9_
FN:411,_RNCNvMs1_NtCsldCax6rooq1_18sqlrustgo_executor17parallel_executorNtB7_23ParallelVolcanoExecutor26extend_with_left_unmatcheds_0B9_
FN:636,_RNCNvMs1_NtCsldCax6rooq1_18sqlrustgo_executor17parallel_executorNtB7_23ParallelVolcanoExecutor27parallel_no_group_aggregate0B9_
FN:646,_RNCNvMs1_NtCsldCax6rooq1_18sqlrustgo_executor17parallel_executorNtB7_23ParallelVolcanoExecutor27parallel_no_group_aggregates_0B9_
FN:951,_RNvNtNtCsldCax6rooq1_18sqlrustgo_executor17parallel_executor5testss_16test_with_config
FN:965,_RNvNtNtCsldCax6rooq1_18sqlrustgo_executor17parallel_executor5testss_19test_storage_access
FN:1466,_RNvNtNtCsldCax6rooq1_18sqlrustgo_executor17parallel_executor5testss_21test_empty_table_scan
FN:958,_RNvNtNtCsldCax6rooq1_18sqlrustgo_executor17parallel_executor5testss_21test_scheduler_access
FN:930,_RNvNtNtCsldCax6rooq1_18sqlrustgo_executor17parallel_executor5testss_24test_parallel_degree_set
FN:944,_RNvNtNtCsldCax6rooq1_18sqlrustgo_executor17parallel_executor5testss_26test_with_custom_scheduler
FN:1157,_RNvNtNtCsldCax6rooq1_18sqlrustgo_executor17parallel_executor5testss_27test_parallel_count_speedup
FN:1453,_RNvNtNtCsldCax6rooq1_18sqlrustgo_executor17parallel_executor5testss_27test_parallel_degree_bounds
FN:937,_RNvNtNtCsldCax6rooq1_18sqlrustgo_executor17parallel_executor5testss_28test_parallel_degree_minimum
FN:982,_RNvNtNtCsldCax6rooq1_18sqlrustgo_executor17parallel_executor5testss_29test_parallel_hash_join_empty
FN:971,_RNvNtNtCsldCax6rooq1_18sqlrustgo_executor17parallel_executor5testss_30test_parallel_scan_empty_table
FN:1561,_RNvNtNtCsldCax6rooq1_18sqlrustgo_executor17parallel_executor5testss_31test_parallel_aggregate_speedup
FN:924,_RNvNtNtCsldCax6rooq1_18sqlrustgo_executor17parallel_executor5testss_31test_parallel_executor_creation
FN:1650,_RNvNtNtCsldCax6rooq1_18sqlrustgo_executor17parallel_executor5testss_32test_parallel_aggregate_no_group
FN:1483,_RNvNtNtCsldCax6rooq1_18sqlrustgo_executor17parallel_executor5testss_34test_large_parallel_scan_stability
FN:1287,_RNvNtNtCsldCax6rooq1_18sqlrustgo_executor17parallel_executor5testss_35test_parallel_hash_join_correctness
FN:1044,_RNvNtNtCsldCax6rooq1_18sqlrustgo_executor17parallel_executor5testss_41test_parallel_scan_speedup_with_real_data
FN:1030,_RNvXs_NtNtCsldCax6rooq1_18sqlrustgo_executor17parallel_executor5testsNtB4_16MockPhysicalPlanNtNtCs4LE0xG3RBLs_17sqlrustgo_planner13physical_plan12PhysicalPlan10table_name
FN:1022,_RNvXs_NtNtCsldCax6rooq1_18sqlrustgo_executor17parallel_executor5testsNtB4_16MockPhysicalPlanNtNtCs4LE0xG3RBLs_17sqlrustgo_planner13physical_plan12PhysicalPlan4name
FN:1034,_RNvXs_NtNtCsldCax6rooq1_18sqlrustgo_executor17parallel_executor5testsNtB4_16MockPhysicalPlanNtNtCs4LE0xG3RBLs_17sqlrustgo_planner13physical_plan12PhysicalPlan6as_any
FN:1014,_RNvXs_NtNtCsldCax6rooq1_18sqlrustgo_executor17parallel_executor5testsNtB4_16MockPhysicalPlanNtNtCs4LE0xG3RBLs_17sqlrustgo_planner13physical_plan12PhysicalPlan6schema
FN:1026,_RNvXs_NtNtCsldCax6rooq1_18sqlrustgo_executor17parallel_executor5testsNtB4_16MockPhysicalPlanNtNtCs4LE0xG3RBLs_17sqlrustgo_planner13physical_plan12PhysicalPlan7execute
FN:1018,_RNvXs_NtNtCsldCax6rooq1_18sqlrustgo_executor17parallel_executor5testsNtB4_16MockPhysicalPlanNtNtCs4LE0xG3RBLs_17sqlrustgo_planner13physical_plan12PhysicalPlan8children
FN:709,_RNCNCNvMs1_NtCs4qFySXYcYQq_18sqlrustgo_executor17parallel_executorNtB9_23ParallelVolcanoExecutor24parallel_group_aggregate00Bb_
FN:359,_RNCNCNvMs1_NtCs4qFySXYcYQq_18sqlrustgo_executor17parallel_executorNtB9_23ParallelVolcanoExecutor25partition_hash_inner_join00Bb_
FN:651,_RNCNCNvMs1_NtCs4qFySXYcYQq_18sqlrustgo_executor17parallel_executorNtB9_23ParallelVolcanoExecutor27parallel_no_group_aggregates_00Bb_
FN:39,_RNCNvMNtCs4qFySXYcYQq_18sqlrustgo_executor17parallel_executorNtB4_23ParallelVolcanoExecutor3new0B6_
FN:540,_RNCNvMs1_NtCs4qFySXYcYQq_18sqlrustgo_executor17parallel_executorNtB7_23ParallelVolcanoExecutor20sequential_aggregate0B9_
FN:572,_RNCNvMs1_NtCs4qFySXYcYQq_18sqlrustgo_executor17parallel_executorNtB7_23ParallelVolcanoExecutor20sequential_aggregates0_0B9_
FN:559,_RNCNvMs1_NtCs4qFySXYcYQq_18sqlrustgo_executor17parallel_executorNtB7_23ParallelVolcanoExecutor20sequential_aggregates_0B9_
FN:193,_RNCNvMs1_NtCs4qFySXYcYQq_18sqlrustgo_executor17parallel_executorNtB7_23ParallelVolcanoExecutor21execute_parallel_scan0B9_
FN:865,_RNCNvMs1_NtCs4qFySXYcYQq_18sqlrustgo_executor17parallel_executorNtB7_23ParallelVolcanoExecutor22execute_parallel_count0B9_
FN:704,_RNCNvMs1_NtCs4qFySXYcYQq_18sqlrustgo_executor17parallel_executorNtB7_23ParallelVolcanoExecutor24parallel_group_aggregate0B9_
FN:733,_RNCNvMs1_NtCs4qFySXYcYQq_18sqlrustgo_executor17parallel_executorNtB7_23ParallelVolcanoExecutor24parallel_group_aggregates_0B9_
FN:355,_RNCNvMs1_NtCs4qFySXYcYQq_18sqlrustgo_executor17parallel_executorNtB7_23ParallelVolcanoExecutor25partition_hash_inner_join0B9_
FN:368,_RNCNvMs1_NtCs4qFySXYcYQq_18sqlrustgo_executor17parallel_executorNtB7_23ParallelVolcanoExecutor25partition_hash_inner_joins_0B9_
FN:228,_RNCNvMs1_NtCs4qFySXYcYQq_18sqlrustgo_executor17parallel_executorNtB7_23ParallelVolcanoExecutor26execute_parallel_hash_join0B9_
FN:229,_RNCNvMs1_NtCs4qFySXYcYQq_18sqlrustgo_executor17parallel_executorNtB7_23ParallelVolcanoExecutor26execute_parallel_hash_joins_0B9_
FN:403,_RNCNvMs1_NtCs4qFySXYcYQq_18sqlrustgo_executor17parallel_executorNtB7_23ParallelVolcanoExecutor26extend_with_left_unmatched0B9_
FN:411,_RNCNvMs1_NtCs4qFySXYcYQq_18sqlrustgo_executor17parallel_executorNtB7_23ParallelVolcanoExecutor26extend_with_left_unmatcheds_0B9_
FN:636,_RNCNvMs1_NtCs4qFySXYcYQq_18sqlrustgo_executor17parallel_executorNtB7_23ParallelVolcanoExecutor27parallel_no_group_aggregate0B9_
FN:646,_RNCNvMs1_NtCs4qFySXYcYQq_18sqlrustgo_executor17parallel_executorNtB7_23ParallelVolcanoExecutor27parallel_no_group_aggregates_0B9_
FN:75,_RNvMNtCs4qFySXYcYQq_18sqlrustgo_executor17parallel_executorNtB2_23ParallelVolcanoExecutor11with_config
FN:85,_RNvMNtCs4qFySXYcYQq_18sqlrustgo_executor17parallel_executorNtB2_23ParallelVolcanoExecutor12with_storage
FN:64,_RNvMNtCs4qFySXYcYQq_18sqlrustgo_executor17parallel_executorNtB2_23ParallelVolcanoExecutor14with_scheduler
FN:51,_RNvMNtCs4qFySXYcYQq_18sqlrustgo_executor17parallel_executorNtB2_23ParallelVolcanoExecutor26with_storage_and_scheduler
FN:35,_RNvMNtCs4qFySXYcYQq_18sqlrustgo_executor17parallel_executorNtB2_23ParallelVolcanoExecutor3new
FN:100,_RNvMNtCs4qFySXYcYQq_18sqlrustgo_executor17parallel_executorNtB2_23ParallelVolcanoExecutor6degree
FN:105,_RNvMNtCs4qFySXYcYQq_18sqlrustgo_executor17parallel_executorNtB2_23ParallelVolcanoExecutor7storage
FN:95,_RNvMNtCs4qFySXYcYQq_18sqlrustgo_executor17parallel_executorNtB2_23ParallelVolcanoExecutor9scheduler
FN:288,_RNvMs1_NtCs4qFySXYcYQq_18sqlrustgo_executor17parallel_executorNtB5_23ParallelVolcanoExecutor13execute_child
FN:446,_RNvMs1_NtCs4qFySXYcYQq_18sqlrustgo_executor17parallel_executorNtB5_23ParallelVolcanoExecutor16execute_fallback
FN:885,_RNvMs1_NtCs4qFySXYcYQq_18sqlrustgo_executor17parallel_executorNtB5_23ParallelVolcanoExecutor17cartesian_product
FN:305,_RNvMs1_NtCs4qFySXYcYQq_18sqlrustgo_executor17parallel_executorNtB5_23ParallelVolcanoExecutor19partition_hash_join
FN:524,_RNvMs1_NtCs4qFySXYcYQq_18sqlrustgo_executor17parallel_executorNtB5_23ParallelVolcanoExecutor20sequential_aggregate
FN:140,_RNvMs1_NtCs4qFySXYcYQq_18sqlrustgo_executor17parallel_executorNtB5_23ParallelVolcanoExecutor21execute_parallel_scan
FN:811,_RNvMs1_NtCs4qFySXYcYQq_18sqlrustgo_executor17parallel_executorNtB5_23ParallelVolcanoExecutor22execute_parallel_count
FN:421,_RNvMs1_NtCs4qFySXYcYQq_18sqlrustgo_executor17parallel_executorNtB5_23ParallelVolcanoExecutor23evaluate_join_condition
FN:453,_RNvMs1_NtCs4qFySXYcYQq_18sqlrustgo_executor17parallel_executorNtB5_23ParallelVolcanoExecutor23execute_parallel_filter
FN:751,_RNvMs1_NtCs4qFySXYcYQq_18sqlrustgo_executor17parallel_executorNtB5_23ParallelVolcanoExecutor24compute_aggregate_scalar
FN:898,_RNvMs1_NtCs4qFySXYcYQq_18sqlrustgo_executor17parallel_executorNtB5_23ParallelVolcanoExecutor24hash_inner_join_fallback
FN:671,_RNvMs1_NtCs4qFySXYcYQq_18sqlrustgo_executor17parallel_executorNtB5_23ParallelVolcanoExecutor24parallel_group_aggregate
FN:343,_RNvMs1_NtCs4qFySXYcYQq_18sqlrustgo_executor17parallel_executorNtB5_23ParallelVolcanoExecutor25partition_hash_inner_join
FN:465,_RNvMs1_NtCs4qFySXYcYQq_18sqlrustgo_executor17parallel_executorNtB5_23ParallelVolcanoExecutor26execute_parallel_aggregate
FN:217,_RNvMs1_NtCs4qFySXYcYQq_18sqlrustgo_executor17parallel_executorNtB5_23ParallelVolcanoExecutor26execute_parallel_hash_join
FN:393,_RNvMs1_NtCs4qFySXYcYQq_18sqlrustgo_executor17parallel_executorNtB5_23ParallelVolcanoExecutor26extend_with_left_unmatched
FN:459,_RNvMs1_NtCs4qFySXYcYQq_18sqlrustgo_executor17parallel_executorNtB5_23ParallelVolcanoExecutor27execute_parallel_projection
FN:590,_RNvMs1_NtCs4qFySXYcYQq_18sqlrustgo_executor17parallel_executorNtB5_23ParallelVolcanoExecutor27parallel_no_group_aggregate
FN:133,_RNvXs0_NtCs4qFySXYcYQq_18sqlrustgo_executor17parallel_executorNtB5_23ParallelVolcanoExecutorNtB5_16ParallelExecutor15parallel_degree
FN:117,_RNvXs0_NtCs4qFySXYcYQq_18sqlrustgo_executor17parallel_executorNtB5_23ParallelVolcanoExecutorNtB5_16ParallelExecutor16execute_parallel
FN:129,_RNvXs0_NtCs4qFySXYcYQq_18sqlrustgo_executor17parallel_executorNtB5_23ParallelVolcanoExecutorNtB5_16ParallelExecutor19set_parallel_degree
FN:111,_RNvXs_NtCs4qFySXYcYQq_18sqlrustgo_executor17parallel_executorNtB4_23ParallelVolcanoExecutorNtNtCs8nPosuWgJFh_4core7default7Default7default
FNDA:0,_RNvMNtCsldCax6rooq1_18sqlrustgo_executor17parallel_executorNtB2_23ParallelVolcanoExecutor12with_storage
FNDA:0,_RNvMNtCsldCax6rooq1_18sqlrustgo_executor17parallel_executorNtB2_23ParallelVolcanoExecutor6degree
FNDA:0,_RNvMNtNtCsldCax6rooq1_18sqlrustgo_executor17parallel_executor5testsNtB2_16MockPhysicalPlan10table_name
FNDA:0,_RNvMNtNtCsldCax6rooq1_18sqlrustgo_executor17parallel_executor5testsNtB2_16MockPhysicalPlan4name
FNDA:0,_RNvMNtNtCsldCax6rooq1_18sqlrustgo_executor17parallel_executor5testsNtB2_16MockPhysicalPlan6schema
FNDA:0,_RNvXs_NtCsldCax6rooq1_18sqlrustgo_executor17parallel_executorNtB4_23ParallelVolcanoExecutorNtNtCs8nPosuWgJFh_4core7default7Default7default
FNDA:1,_RNvMNtCsldCax6rooq1_18sqlrustgo_executor17parallel_executorNtB2_23ParallelVolcanoExecutor11with_config
FNDA:2,_RNvMNtCsldCax6rooq1_18sqlrustgo_executor17parallel_executorNtB2_23ParallelVolcanoExecutor14with_scheduler
FNDA:7,_RNvMNtCsldCax6rooq1_18sqlrustgo_executor17parallel_executorNtB2_23ParallelVolcanoExecutor26with_storage_and_scheduler
FNDA:7,_RNvMNtCsldCax6rooq1_18sqlrustgo_executor17parallel_executorNtB2_23ParallelVolcanoExecutor3new
FNDA:1,_RNvMNtCsldCax6rooq1_18sqlrustgo_executor17parallel_executorNtB2_23ParallelVolcanoExecutor7storage
FNDA:1,_RNvMNtCsldCax6rooq1_18sqlrustgo_executor17parallel_executorNtB2_23ParallelVolcanoExecutor9scheduler
FNDA:0,_RNvMs1_NtCsldCax6rooq1_18sqlrustgo_executor17parallel_executorNtB5_23ParallelVolcanoExecutor13execute_child
FNDA:0,_RNvMs1_NtCsldCax6rooq1_18sqlrustgo_executor17parallel_executorNtB5_23ParallelVolcanoExecutor16execute_fallback
FNDA:0,_RNvMs1_NtCsldCax6rooq1_18sqlrustgo_executor17parallel_executorNtB5_23ParallelVolcanoExecutor17cartesian_product
FNDA:0,_RNvMs1_NtCsldCax6rooq1_18sqlrustgo_executor17parallel_executorNtB5_23ParallelVolcanoExecutor19partition_hash_join
FNDA:0,_RNvMs1_NtCsldCax6rooq1_18sqlrustgo_executor17parallel_executorNtB5_23ParallelVolcanoExecutor20sequential_aggregate
FNDA:7,_RNvMs1_NtCsldCax6rooq1_18sqlrustgo_executor17parallel_executorNtB5_23ParallelVolcanoExecutor21execute_parallel_scan
FNDA:0,_RNvMs1_NtCsldCax6rooq1_18sqlrustgo_executor17parallel_executorNtB5_23ParallelVolcanoExecutor22execute_parallel_count
FNDA:0,_RNvMs1_NtCsldCax6rooq1_18sqlrustgo_executor17parallel_executorNtB5_23ParallelVolcanoExecutor23evaluate_join_condition
FNDA:0,_RNvMs1_NtCsldCax6rooq1_18sqlrustgo_executor17parallel_executorNtB5_23ParallelVolcanoExecutor23execute_parallel_filter
FNDA:0,_RNvMs1_NtCsldCax6rooq1_18sqlrustgo_executor17parallel_executorNtB5_23ParallelVolcanoExecutor24compute_aggregate_scalar
FNDA:0,_RNvMs1_NtCsldCax6rooq1_18sqlrustgo_executor17parallel_executorNtB5_23ParallelVolcanoExecutor24hash_inner_join_fallback
FNDA:0,_RNvMs1_NtCsldCax6rooq1_18sqlrustgo_executor17parallel_executorNtB5_23ParallelVolcanoExecutor24parallel_group_aggregate
FNDA:0,_RNvMs1_NtCsldCax6rooq1_18sqlrustgo_executor17parallel_executorNtB5_23ParallelVolcanoExecutor25partition_hash_inner_join
FNDA:0,_RNvMs1_NtCsldCax6rooq1_18sqlrustgo_executor17parallel_executorNtB5_23ParallelVolcanoExecutor26execute_parallel_aggregate
FNDA:1,_RNvMs1_NtCsldCax6rooq1_18sqlrustgo_executor17parallel_executorNtB5_23ParallelVolcanoExecutor26execute_parallel_hash_join
FNDA:0,_RNvMs1_NtCsldCax6rooq1_18sqlrustgo_executor17parallel_executorNtB5_23ParallelVolcanoExecutor26extend_with_left_unmatched
FNDA:0,_RNvMs1_NtCsldCax6rooq1_18sqlrustgo_executor17parallel_executorNtB5_23ParallelVolcanoExecutor27execute_parallel_projection
FNDA:0,_RNvMs1_NtCsldCax6rooq1_18sqlrustgo_executor17parallel_executorNtB5_23ParallelVolcanoExecutor27parallel_no_group_aggregate
FNDA:7,_RNvXs0_NtCsldCax6rooq1_18sqlrustgo_executor17parallel_executorNtB5_23ParallelVolcanoExecutorNtB5_16ParallelExecutor15parallel_degree
FNDA:8,_RNvXs0_NtCsldCax6rooq1_18sqlrustgo_executor17parallel_executorNtB5_23ParallelVolcanoExecutorNtB5_16ParallelExecutor16execute_parallel
FNDA:4,_RNvXs0_NtCsldCax6rooq1_18sqlrustgo_executor17parallel_executorNtB5_23ParallelVolcanoExecutorNtB5_16ParallelExecutor19set_parallel_degree
FNDA:0,_RNCNCNvMs1_NtCsldCax6rooq1_18sqlrustgo_executor17parallel_executorNtB9_23ParallelVolcanoExecutor24parallel_group_aggregate00Bb_
FNDA:0,_RNCNCNvMs1_NtCsldCax6rooq1_18sqlrustgo_executor17parallel_executorNtB9_23ParallelVolcanoExecutor25partition_hash_inner_join00Bb_
FNDA:0,_RNCNCNvMs1_NtCsldCax6rooq1_18sqlrustgo_executor17parallel_executorNtB9_23ParallelVolcanoExecutor27parallel_no_group_aggregates_00Bb_
FNDA:7,_RNCNvMNtCsldCax6rooq1_18sqlrustgo_executor17parallel_executorNtB4_23ParallelVolcanoExecutor3new0B6_
FNDA:0,_RNCNvMs1_NtCsldCax6rooq1_18sqlrustgo_executor17parallel_executorNtB7_23ParallelVolcanoExecutor20sequential_aggregate0B9_
FNDA:0,_RNCNvMs1_NtCsldCax6rooq1_18sqlrustgo_executor17parallel_executorNtB7_23ParallelVolcanoExecutor20sequential_aggregates0_0B9_
FNDA:0,_RNCNvMs1_NtCsldCax6rooq1_18sqlrustgo_executor17parallel_executorNtB7_23ParallelVolcanoExecutor20sequential_aggregates_0B9_
FNDA:6,_RNCNvMs1_NtCsldCax6rooq1_18sqlrustgo_executor17parallel_executorNtB7_23ParallelVolcanoExecutor21execute_parallel_scan0B9_
FNDA:0,_RNCNvMs1_NtCsldCax6rooq1_18sqlrustgo_executor17parallel_executorNtB7_23ParallelVolcanoExecutor22execute_parallel_count0B9_
FNDA:0,_RNCNvMs1_NtCsldCax6rooq1_18sqlrustgo_executor17parallel_executorNtB7_23ParallelVolcanoExecutor24parallel_group_aggregate0B9_
FNDA:0,_RNCNvMs1_NtCsldCax6rooq1_18sqlrustgo_executor17parallel_executorNtB7_23ParallelVolcanoExecutor24parallel_group_aggregates_0B9_
FNDA:0,_RNCNvMs1_NtCsldCax6rooq1_18sqlrustgo_executor17parallel_executorNtB7_23ParallelVolcanoExecutor25partition_hash_inner_join0B9_
FNDA:0,_RNCNvMs1_NtCsldCax6rooq1_18sqlrustgo_executor17parallel_executorNtB7_23ParallelVolcanoExecutor25partition_hash_inner_joins_0B9_
FNDA:0,_RNCNvMs1_NtCsldCax6rooq1_18sqlrustgo_executor17parallel_executorNtB7_23ParallelVolcanoExecutor26execute_parallel_hash_join0B9_
FNDA:0,_RNCNvMs1_NtCsldCax6rooq1_18sqlrustgo_executor17parallel_executorNtB7_23ParallelVolcanoExecutor26execute_parallel_hash_joins_0B9_
FNDA:0,_RNCNvMs1_NtCsldCax6rooq1_18sqlrustgo_executor17parallel_executorNtB7_23ParallelVolcanoExecutor26extend_with_left_unmatched0B9_
FNDA:0,_RNCNvMs1_NtCsldCax6rooq1_18sqlrustgo_executor17parallel_executorNtB7_23ParallelVolcanoExecutor26extend_with_left_unmatcheds_0B9_
FNDA:0,_RNCNvMs1_NtCsldCax6rooq1_18sqlrustgo_executor17parallel_executorNtB7_23ParallelVolcanoExecutor27parallel_no_group_aggregate0B9_
FNDA:0,_RNCNvMs1_NtCsldCax6rooq1_18sqlrustgo_executor17parallel_executorNtB7_23ParallelVolcanoExecutor27parallel_no_group_aggregates_0B9_
FNDA:1,_RNvNtNtCsldCax6rooq1_18sqlrustgo_executor17parallel_executor5testss_16test_with_config
FNDA:1,_RNvNtNtCsldCax6rooq1_18sqlrustgo_executor17parallel_executor5testss_19test_storage_access
FNDA:1,_RNvNtNtCsldCax6rooq1_18sqlrustgo_executor17parallel_executor5testss_21test_empty_table_scan
FNDA:1,_RNvNtNtCsldCax6rooq1_18sqlrustgo_executor17parallel_executor5testss_21test_scheduler_access
FNDA:1,_RNvNtNtCsldCax6rooq1_18sqlrustgo_executor17parallel_executor5testss_24test_parallel_degree_set
FNDA:1,_RNvNtNtCsldCax6rooq1_18sqlrustgo_executor17parallel_executor5testss_26test_with_custom_scheduler
FNDA:0,_RNvNtNtCsldCax6rooq1_18sqlrustgo_executor17parallel_executor5testss_27test_parallel_count_speedup
FNDA:1,_RNvNtNtCsldCax6rooq1_18sqlrustgo_executor17parallel_executor5testss_27test_parallel_degree_bounds
FNDA:1,_RNvNtNtCsldCax6rooq1_18sqlrustgo_executor17parallel_executor5testss_28test_parallel_degree_minimum
FNDA:1,_RNvNtNtCsldCax6rooq1_18sqlrustgo_executor17parallel_executor5testss_29test_parallel_hash_join_empty
FNDA:1,_RNvNtNtCsldCax6rooq1_18sqlrustgo_executor17parallel_executor5testss_30test_parallel_scan_empty_table
FNDA:0,_RNvNtNtCsldCax6rooq1_18sqlrustgo_executor17parallel_executor5testss_31test_parallel_aggregate_speedup
FNDA:1,_RNvNtNtCsldCax6rooq1_18sqlrustgo_executor17parallel_executor5testss_31test_parallel_executor_creation
FNDA:1,_RNvNtNtCsldCax6rooq1_18sqlrustgo_executor17parallel_executor5testss_32test_parallel_aggregate_no_group
FNDA:1,_RNvNtNtCsldCax6rooq1_18sqlrustgo_executor17parallel_executor5testss_34test_large_parallel_scan_stability
FNDA:1,_RNvNtNtCsldCax6rooq1_18sqlrustgo_executor17parallel_executor5testss_35test_parallel_hash_join_correctness
FNDA:1,_RNvNtNtCsldCax6rooq1_18sqlrustgo_executor17parallel_executor5testss_41test_parallel_scan_speedup_with_real_data
FNDA:7,_RNvXs_NtNtCsldCax6rooq1_18sqlrustgo_executor17parallel_executor5testsNtB4_16MockPhysicalPlanNtNtCs4LE0xG3RBLs_17sqlrustgo_planner13physical_plan12PhysicalPlan10table_name
FNDA:8,_RNvXs_NtNtCsldCax6rooq1_18sqlrustgo_executor17parallel_executor5testsNtB4_16MockPhysicalPlanNtNtCs4LE0xG3RBLs_17sqlrustgo_planner13physical_plan12PhysicalPlan4name
FNDA:0,_RNvXs_NtNtCsldCax6rooq1_18sqlrustgo_executor17parallel_executor5testsNtB4_16MockPhysicalPlanNtNtCs4LE0xG3RBLs_17sqlrustgo_planner13physical_plan12PhysicalPlan6as_any
FNDA:0,_RNvXs_NtNtCsldCax6rooq1_18sqlrustgo_executor17parallel_executor5testsNtB4_16MockPhysicalPlanNtNtCs4LE0xG3RBLs_17sqlrustgo_planner13physical_plan12PhysicalPlan6schema
FNDA:0,_RNvXs_NtNtCsldCax6rooq1_18sqlrustgo_executor17parallel_executor5testsNtB4_16MockPhysicalPlanNtNtCs4LE0xG3RBLs_17sqlrustgo_planner13physical_plan12PhysicalPlan7execute
FNDA:1,_RNvXs_NtNtCsldCax6rooq1_18sqlrustgo_executor17parallel_executor5testsNtB4_16MockPhysicalPlanNtNtCs4LE0xG3RBLs_17sqlrustgo_planner13physical_plan12PhysicalPlan8children
FNDA:0,_RNCNCNvMs1_NtCs4qFySXYcYQq_18sqlrustgo_executor17parallel_executorNtB9_23ParallelVolcanoExecutor24parallel_group_aggregate00Bb_
FNDA:0,_RNCNCNvMs1_NtCs4qFySXYcYQq_18sqlrustgo_executor17parallel_executorNtB9_23ParallelVolcanoExecutor25partition_hash_inner_join00Bb_
FNDA:0,_RNCNCNvMs1_NtCs4qFySXYcYQq_18sqlrustgo_executor17parallel_executorNtB9_23ParallelVolcanoExecutor27parallel_no_group_aggregates_00Bb_
FNDA:0,_RNCNvMNtCs4qFySXYcYQq_18sqlrustgo_executor17parallel_executorNtB4_23ParallelVolcanoExecutor3new0B6_
FNDA:0,_RNCNvMs1_NtCs4qFySXYcYQq_18sqlrustgo_executor17parallel_executorNtB7_23ParallelVolcanoExecutor20sequential_aggregate0B9_
FNDA:0,_RNCNvMs1_NtCs4qFySXYcYQq_18sqlrustgo_executor17parallel_executorNtB7_23ParallelVolcanoExecutor20sequential_aggregates0_0B9_
FNDA:0,_RNCNvMs1_NtCs4qFySXYcYQq_18sqlrustgo_executor17parallel_executorNtB7_23ParallelVolcanoExecutor20sequential_aggregates_0B9_
FNDA:0,_RNCNvMs1_NtCs4qFySXYcYQq_18sqlrustgo_executor17parallel_executorNtB7_23ParallelVolcanoExecutor21execute_parallel_scan0B9_
FNDA:0,_RNCNvMs1_NtCs4qFySXYcYQq_18sqlrustgo_executor17parallel_executorNtB7_23ParallelVolcanoExecutor22execute_parallel_count0B9_
FNDA:0,_RNCNvMs1_NtCs4qFySXYcYQq_18sqlrustgo_executor17parallel_executorNtB7_23ParallelVolcanoExecutor24parallel_group_aggregate0B9_
FNDA:0,_RNCNvMs1_NtCs4qFySXYcYQq_18sqlrustgo_executor17parallel_executorNtB7_23ParallelVolcanoExecutor24parallel_group_aggregates_0B9_
FNDA:0,_RNCNvMs1_NtCs4qFySXYcYQq_18sqlrustgo_executor17parallel_executorNtB7_23ParallelVolcanoExecutor25partition_hash_inner_join0B9_
FNDA:0,_RNCNvMs1_NtCs4qFySXYcYQq_18sqlrustgo_executor17parallel_executorNtB7_23ParallelVolcanoExecutor25partition_hash_inner_joins_0B9_
FNDA:0,_RNCNvMs1_NtCs4qFySXYcYQq_18sqlrustgo_executor17parallel_executorNtB7_23ParallelVolcanoExecutor26execute_parallel_hash_join0B9_
FNDA:0,_RNCNvMs1_NtCs4qFySXYcYQq_18sqlrustgo_executor17parallel_executorNtB7_23ParallelVolcanoExecutor26execute_parallel_hash_joins_0B9_
FNDA:0,_RNCNvMs1_NtCs4qFySXYcYQq_18sqlrustgo_executor17parallel_executorNtB7_23ParallelVolcanoExecutor26extend_with_left_unmatched0B9_
FNDA:0,_RNCNvMs1_NtCs4qFySXYcYQq_18sqlrustgo_executor17parallel_executorNtB7_23ParallelVolcanoExecutor26extend_with_left_unmatcheds_0B9_
FNDA:0,_RNCNvMs1_NtCs4qFySXYcYQq_18sqlrustgo_executor17parallel_executorNtB7_23ParallelVolcanoExecutor27parallel_no_group_aggregate0B9_
FNDA:0,_RNCNvMs1_NtCs4qFySXYcYQq_18sqlrustgo_executor17parallel_executorNtB7_23ParallelVolcanoExecutor27parallel_no_group_aggregates_0B9_
FNDA:0,_RNvMNtCs4qFySXYcYQq_18sqlrustgo_executor17parallel_executorNtB2_23ParallelVolcanoExecutor11with_config
FNDA:0,_RNvMNtCs4qFySXYcYQq_18sqlrustgo_executor17parallel_executorNtB2_23ParallelVolcanoExecutor12with_storage
FNDA:0,_RNvMNtCs4qFySXYcYQq_18sqlrustgo_executor17parallel_executorNtB2_23ParallelVolcanoExecutor14with_scheduler
FNDA:0,_RNvMNtCs4qFySXYcYQq_18sqlrustgo_executor17parallel_executorNtB2_23ParallelVolcanoExecutor26with_storage_and_scheduler
FNDA:0,_RNvMNtCs4qFySXYcYQq_18sqlrustgo_executor17parallel_executorNtB2_23ParallelVolcanoExecutor3new
FNDA:0,_RNvMNtCs4qFySXYcYQq_18sqlrustgo_executor17parallel_executorNtB2_23ParallelVolcanoExecutor6degree
FNDA:0,_RNvMNtCs4qFySXYcYQq_18sqlrustgo_executor17parallel_executorNtB2_23ParallelVolcanoExecutor7storage
FNDA:0,_RNvMNtCs4qFySXYcYQq_18sqlrustgo_executor17parallel_executorNtB2_23ParallelVolcanoExecutor9scheduler
FNDA:0,_RNvMs1_NtCs4qFySXYcYQq_18sqlrustgo_executor17parallel_executorNtB5_23ParallelVolcanoExecutor13execute_child
FNDA:0,_RNvMs1_NtCs4qFySXYcYQq_18sqlrustgo_executor17parallel_executorNtB5_23ParallelVolcanoExecutor16execute_fallback
FNDA:0,_RNvMs1_NtCs4qFySXYcYQq_18sqlrustgo_executor17parallel_executorNtB5_23ParallelVolcanoExecutor17cartesian_product
FNDA:0,_RNvMs1_NtCs4qFySXYcYQq_18sqlrustgo_executor17parallel_executorNtB5_23ParallelVolcanoExecutor19partition_hash_join
FNDA:0,_RNvMs1_NtCs4qFySXYcYQq_18sqlrustgo_executor17parallel_executorNtB5_23ParallelVolcanoExecutor20sequential_aggregate
FNDA:0,_RNvMs1_NtCs4qFySXYcYQq_18sqlrustgo_executor17parallel_executorNtB5_23ParallelVolcanoExecutor21execute_parallel_scan
FNDA:0,_RNvMs1_NtCs4qFySXYcYQq_18sqlrustgo_executor17parallel_executorNtB5_23ParallelVolcanoExecutor22execute_parallel_count
FNDA:0,_RNvMs1_NtCs4qFySXYcYQq_18sqlrustgo_executor17parallel_executorNtB5_23ParallelVolcanoExecutor23evaluate_join_condition
FNDA:0,_RNvMs1_NtCs4qFySXYcYQq_18sqlrustgo_executor17parallel_executorNtB5_23ParallelVolcanoExecutor23execute_parallel_filter
FNDA:0,_RNvMs1_NtCs4qFySXYcYQq_18sqlrustgo_executor17parallel_executorNtB5_23ParallelVolcanoExecutor24compute_aggregate_scalar
FNDA:0,_RNvMs1_NtCs4qFySXYcYQq_18sqlrustgo_executor17parallel_executorNtB5_23ParallelVolcanoExecutor24hash_inner_join_fallback
FNDA:0,_RNvMs1_NtCs4qFySXYcYQq_18sqlrustgo_executor17parallel_executorNtB5_23ParallelVolcanoExecutor24parallel_group_aggregate
FNDA:0,_RNvMs1_NtCs4qFySXYcYQq_18sqlrustgo_executor17parallel_executorNtB5_23ParallelVolcanoExecutor25partition_hash_inner_join
FNDA:0,_RNvMs1_NtCs4qFySXYcYQq_18sqlrustgo_executor17parallel_executorNtB5_23ParallelVolcanoExecutor26execute_parallel_aggregate
FNDA:0,_RNvMs1_NtCs4qFySXYcYQq_18sqlrustgo_executor17parallel_executorNtB5_23ParallelVolcanoExecutor26execute_parallel_hash_join
FNDA:0,_RNvMs1_NtCs4qFySXYcYQq_18sqlrustgo_executor17parallel_executorNtB5_23ParallelVolcanoExecutor26extend_with_left_unmatched
FNDA:0,_RNvMs1_NtCs4qFySXYcYQq_18sqlrustgo_executor17parallel_executorNtB5_23ParallelVolcanoExecutor27execute_parallel_projection
FNDA:0,_RNvMs1_NtCs4qFySXYcYQq_18sqlrustgo_executor17parallel_executorNtB5_23ParallelVolcanoExecutor27parallel_no_group_aggregate
FNDA:0,_RNvXs0_NtCs4qFySXYcYQq_18sqlrustgo_executor17parallel_executorNtB5_23ParallelVolcanoExecutorNtB5_16ParallelExecutor15parallel_degree
FNDA:0,_RNvXs0_NtCs4qFySXYcYQq_18sqlrustgo_executor17parallel_executorNtB5_23ParallelVolcanoExecutorNtB5_16ParallelExecutor16execute_parallel
FNDA:0,_RNvXs0_NtCs4qFySXYcYQq_18sqlrustgo_executor17parallel_executorNtB5_23ParallelVolcanoExecutorNtB5_16ParallelExecutor19set_parallel_degree
FNDA:0,_RNvXs_NtCs4qFySXYcYQq_18sqlrustgo_executor17parallel_executorNtB4_23ParallelVolcanoExecutorNtNtCs8nPosuWgJFh_4core7default7Default7default
FNF:75
FNH:31
DA:35,7
DA:36,7
DA:37,7
DA:38,7
DA:39,7
DA:40,7
DA:42,7
DA:43,7
DA:44,7
DA:45,7
DA:46,7
DA:47,7
DA:48,7
DA:51,7
DA:52,7
DA:53,7
DA:54,7
DA:55,7
DA:56,7
DA:57,7
DA:58,7
DA:59,7
DA:60,7
DA:61,7
DA:64,2
DA:65,2
DA:66,2
DA:67,2
DA:68,2
DA:69,2
DA:70,2
DA:71,2
DA:72,2
DA:75,1
DA:76,1
DA:77,1
DA:78,1
DA:79,1
DA:80,1
DA:81,1
DA:82,1
DA:85,0
DA:86,0
DA:87,0
DA:88,0
DA:89,0
DA:90,0
DA:91,0
DA:92,0
DA:95,1
DA:96,1
DA:97,1
DA:100,0
DA:101,0
DA:102,0
DA:105,1
DA:106,1
DA:107,1
DA:111,0
DA:112,0
DA:113,0
DA:117,8
DA:118,8
DA:119,8
DA:120,1
DA:121,0
DA:122,0
DA:123,0
DA:124,0
DA:125,0
DA:127,8
DA:129,4
DA:130,4
DA:131,4
DA:133,7
DA:134,7
DA:135,7
DA:140,7
DA:141,7
DA:142,7
DA:143,0
DA:144,7
DA:146,7
DA:147,7
DA:150,7
DA:152,7
DA:153,2
DA:154,5
DA:156,5
DA:160,5
DA:161,3
DA:162,3
DA:163,3
DA:164,3
DA:165,3
DA:166,3
DA:167,3
DA:168,3
DA:169,3
DA:170,2
DA:173,2
DA:174,2
DA:175,2
DA:176,2
DA:177,6
DA:178,6
DA:179,0
DA:181,6
DA:183,6
DA:184,6
DA:185,6
DA:186,6
DA:191,2
DA:192,2
DA:193,6
DA:194,2
DA:197,2
DA:198,6
DA:199,6
DA:200,6
DA:202,2
DA:203,2
DA:205,2
DA:206,2
DA:207,2
DA:208,2
DA:209,2
DA:210,2
DA:211,2
DA:213,2
DA:214,7
DA:217,1
DA:218,1
DA:219,1
DA:220,1
DA:221,0
DA:223,0
DA:224,0
DA:227,0
DA:228,0
DA:229,0
DA:232,0
DA:233,0
DA:235,0
DA:237,0
DA:238,0
DA:239,0
DA:242,0
DA:243,0
DA:246,0
DA:247,0
DA:249,0
DA:250,0
DA:251,0
DA:252,0
DA:253,0
DA:254,0
DA:255,0
DA:256,0
DA:257,0
DA:258,0
DA:259,0
DA:264,0
DA:265,0
DA:266,0
DA:267,0
DA:268,0
DA:269,0
DA:270,0
DA:273,0
DA:274,0
DA:276,0
DA:277,0
DA:278,0
DA:279,0
DA:280,0
DA:281,0
DA:282,0
DA:284,0
DA:285,1
DA:288,0
DA:291,0
DA:292,0
DA:293,0
DA:294,0
DA:295,0
DA:296,0
DA:297,0
DA:298,0
DA:300,0
DA:302,0
DA:305,0
DA:306,0
DA:307,0
DA:308,0
DA:309,0
DA:310,0
DA:311,0
DA:312,0
DA:313,0
DA:314,0
DA:315,0
DA:316,0
DA:317,0
DA:319,0
DA:321,0
DA:323,0
DA:326,0
DA:327,0
DA:328,0
DA:329,0
DA:330,0
DA:331,0
DA:333,0
DA:337,0
DA:340,0
DA:343,0
DA:344,0
DA:345,0
DA:346,0
DA:347,0
DA:348,0
DA:349,0
DA:350,0
DA:351,0
DA:354,0
DA:355,0
DA:356,0
DA:357,0
DA:358,0
DA:359,0
DA:360,0
DA:361,0
DA:362,0
DA:363,0
DA:366,0
DA:367,0
DA:368,0
DA:369,0
DA:370,0
DA:371,0
DA:372,0
DA:373,0
DA:374,0
DA:375,0
DA:376,0
DA:377,0
DA:378,0
DA:379,0
DA:380,0
DA:381,0
DA:382,0
DA:385,0
DA:386,0
DA:387,0
DA:389,0
DA:390,0
DA:393,0
DA:394,0
DA:395,0
DA:396,0
DA:397,0
DA:398,0
DA:401,0
DA:402,0
DA:403,0
DA:404,0
DA:405,0
DA:406,0
DA:407,0
DA:409,0
DA:410,0
DA:411,0
DA:413,0
DA:414,0
DA:417,0
DA:418,0
DA:421,0
DA:422,0
DA:423,0
DA:424,0
DA:425,0
DA:426,0
DA:427,0
DA:429,0
DA:430,0
DA:431,0
DA:432,0
DA:434,0
DA:435,0
DA:436,0
DA:437,0
DA:438,0
DA:441,0
DA:443,0
DA:446,0
DA:449,0
DA:450,0
DA:453,0
DA:455,0
DA:456,0
DA:459,0
DA:461,0
DA:462,0
DA:465,0
DA:466,0
DA:467,0
DA:470,0
DA:471,0
DA:472,0
DA:473,0
DA:477,0
DA:478,0
DA:479,0
DA:480,0
DA:482,0
DA:483,0
DA:484,0
DA:485,0
DA:488,0
DA:489,0
DA:490,0
DA:491,0
DA:492,0
DA:493,0
DA:494,0
DA:495,0
DA:496,0
DA:497,0
DA:498,0
DA:499,0
DA:500,0
DA:503,0
DA:505,0
DA:508,0
DA:511,0
DA:512,0
DA:513,0
DA:514,0
DA:515,0
DA:516,0
DA:517,0
DA:518,0
DA:520,0
DA:521,0
DA:524,0
DA:525,0
DA:526,0
DA:527,0
DA:528,0
DA:529,0
DA:530,0
DA:533,0
DA:535,0
DA:536,0
DA:537,0
DA:538,0
DA:539,0
DA:540,0
DA:541,0
DA:542,0
DA:544,0
DA:546,0
DA:547,0
DA:548,0
DA:549,0
DA:550,0
DA:552,0
DA:555,0
DA:556,0
DA:557,0
DA:558,0
DA:559,0
DA:560,0
DA:561,0
DA:564,0
DA:565,0
DA:566,0
DA:567,0
DA:568,0
DA:570,0
DA:571,0
DA:572,0
DA:573,0
DA:574,0
DA:576,0
DA:578,0
DA:579,0
DA:580,0
DA:581,0
DA:583,0
DA:585,0
DA:587,0
DA:590,0
DA:591,0
DA:592,0
DA:593,0
DA:594,0
DA:595,0
DA:599,0
DA:600,0
DA:601,0
DA:604,0
DA:605,0
DA:606,0
DA:607,0
DA:608,0
DA:610,0
DA:612,0
DA:613,0
DA:614,0
DA:615,0
DA:619,0
DA:620,0
DA:621,0
DA:625,0
DA:627,0
DA:628,0
DA:629,0
DA:630,0
DA:633,0
DA:635,0
DA:636,0
DA:637,0
DA:638,0
DA:639,0
DA:640,0
DA:641,0
DA:644,0
DA:645,0
DA:646,0
DA:647,0
DA:649,0
DA:650,0
DA:651,0
DA:652,0
DA:653,0
DA:655,0
DA:657,0
DA:658,0
DA:660,0
DA:662,0
DA:664,0
DA:665,0
DA:667,0
DA:668,0
DA:671,0
DA:672,0
DA:673,0
DA:674,0
DA:675,0
DA:676,0
DA:677,0
DA:678,0
DA:682,0
DA:683,0
DA:684,0
DA:687,0
DA:688,0
DA:689,0
DA:690,0
DA:691,0
DA:693,0
DA:695,0
DA:696,0
DA:697,0
DA:698,0
DA:702,0
DA:703,0
DA:704,0
DA:705,0
DA:706,0
DA:707,0
DA:708,0
DA:709,0
DA:710,0
DA:711,0
DA:713,0
DA:714,0
DA:715,0
DA:718,0
DA:719,0
DA:720,0
DA:721,0
DA:722,0
DA:726,0
DA:727,0
DA:728,0
DA:729,0
DA:730,0
DA:731,0
DA:732,0
DA:733,0
DA:734,0
DA:735,0
DA:737,0
DA:739,0
DA:740,0
DA:741,0
DA:742,0
DA:744,0
DA:747,0
DA:748,0
DA:751,0
DA:752,0
DA:753,0
DA:755,0
DA:756,0
DA:757,0
DA:758,0
DA:759,0
DA:761,0
DA:764,0
DA:765,0
DA:766,0
DA:767,0
DA:768,0
DA:769,0
DA:770,0
DA:772,0
DA:773,0
DA:775,0
DA:779,0
DA:780,0
DA:781,0
DA:782,0
DA:783,0
DA:784,0
DA:785,0
DA:786,0
DA:788,0
DA:790,0
DA:793,0
DA:794,0
DA:795,0
DA:796,0
DA:797,0
DA:798,0
DA:799,0
DA:800,0
DA:802,0
DA:804,0
DA:807,0
DA:811,0
DA:812,0
DA:813,0
DA:814,0
DA:815,0
DA:817,0
DA:818,0
DA:821,0
DA:823,0
DA:826,0
DA:827,0
DA:828,0
DA:829,0
DA:830,0
DA:831,0
DA:832,0
DA:833,0
DA:834,0
DA:835,0
DA:836,0
DA:837,0
DA:838,0
DA:839,0
DA:845,0
DA:848,0
DA:849,0
DA:850,0
DA:851,0
DA:852,0
DA:853,0
DA:854,0
DA:856,0
DA:858,0
DA:859,0
DA:860,0
DA:861,0
DA:865,0
DA:866,0
DA:867,0
DA:868,0
DA:870,0
DA:871,0
DA:873,0
DA:874,0
DA:875,0
DA:876,0
DA:877,0
DA:878,0
DA:879,0
DA:881,0
DA:882,0
DA:885,0
DA:886,0
DA:887,0
DA:888,0
DA:889,0
DA:890,0
DA:891,0
DA:892,0
DA:894,0
DA:895,0
DA:898,0
DA:899,0
DA:900,0
DA:901,0
DA:902,0
DA:903,0
DA:904,0
DA:905,0
DA:906,0
DA:907,0
DA:908,0
DA:909,0
DA:910,0
DA:911,0
DA:912,0
DA:915,0
DA:916,0
DA:924,1
DA:925,1
DA:926,1
DA:927,1
DA:930,1
DA:931,1
DA:932,1
DA:933,1
DA:934,1
DA:937,1
DA:938,1
DA:939,1
DA:940,1
DA:941,1
DA:944,1
DA:945,1
DA:946,1
DA:947,1
DA:948,1
DA:951,1
DA:952,1
DA:953,1
DA:954,1
DA:955,1
DA:958,1
DA:959,1
DA:960,1
DA:961,1
DA:962,1
DA:965,1
DA:966,1
DA:967,1
DA:968,1
DA:971,1
DA:972,1
DA:973,1
DA:974,1
DA:975,1
DA:976,1
DA:977,1
DA:978,1
DA:979,1
DA:982,1
DA:983,1
DA:984,1
DA:985,1
DA:986,1
DA:987,1
DA:988,1
DA:989,1
DA:990,1
DA:1000,0
DA:1001,0
DA:1002,0
DA:1004,0
DA:1005,0
DA:1006,0
DA:1008,0
DA:1009,0
DA:1010,0
DA:1014,0
DA:1015,0
DA:1016,0
DA:1018,1
DA:1019,1
DA:1020,1
DA:1022,8
DA:1023,8
DA:1024,8
DA:1026,0
DA:1027,0
DA:1028,0
DA:1030,7
DA:1031,7
DA:1032,7
DA:1034,0
DA:1035,0
DA:1036,0
DA:1044,1
DA:1047,1
DA:1048,1
DA:1051,1
DA:1052,1
DA:1053,1
DA:1054,1
DA:1055,1
DA:1056,1
DA:1057,1
DA:1058,1
DA:1059,1
DA:1060,1
DA:1061,1
DA:1062,1
DA:1063,1
DA:1064,1
DA:1065,1
DA:1066,1
DA:1067,1
DA:1068,1
DA:1069,1
DA:1070,1
DA:1071,1
DA:1072,1
DA:1073,1
DA:1074,1
DA:1075,1
DA:1076,1
DA:1077,1
DA:1078,1
DA:1081,1
DA:1082,1
DA:1083,100000
DA:1084,100000
DA:1085,100000
DA:1086,100000
DA:1089,100000
DA:1090,100
DA:1091,100
DA:1092,99900
DA:1094,1
DA:1095,0
DA:1096,1
DA:1099,1
DA:1102,1
DA:1103,1
DA:1104,1
DA:1108,1
DA:1109,1
DA:1111,3
DA:1112,3
DA:1113,3
DA:1114,3
DA:1116,3
DA:1117,3
DA:1118,3
DA:1119,3
DA:1120,3
DA:1121,3
DA:1122,3
DA:1124,3
DA:1125,3
DA:1126,3
DA:1128,3
DA:1129,3
DA:1135,1
DA:1136,1
DA:1138,1
DA:1139,1
DA:1143,1
DA:1144,1
DA:1148,1
DA:1149,1
DA:1153,1
DA:1157,0
DA:1161,0
DA:1162,0
DA:1165,0
DA:1166,0
DA:1167,0
DA:1168,0
DA:1169,0
DA:1170,0
DA:1171,0
DA:1172,0
DA:1173,0
DA:1174,0
DA:1175,0
DA:1176,0
DA:1177,0
DA:1178,0
DA:1179,0
DA:1180,0
DA:1181,0
DA:1182,0
DA:1183,0
DA:1184,0
DA:1185,0
DA:1186,0
DA:1187,0
DA:1188,0
DA:1189,0
DA:1190,0
DA:1191,0
DA:1192,0
DA:1195,0
DA:1196,0
DA:1197,0
DA:1198,0
DA:1199,0
DA:1200,0
DA:1202,0
DA:1203,0
DA:1204,0
DA:1205,0
DA:1207,0
DA:1208,0
DA:1209,0
DA:1211,0
DA:1213,0
DA:1214,0
DA:1215,0
DA:1219,0
DA:1220,0
DA:1223,0
DA:1224,0
DA:1225,0
DA:1226,0
DA:1227,0
DA:1228,0
DA:1229,0
DA:1230,0
DA:1231,0
DA:1232,0
DA:1235,0
DA:1236,0
DA:1237,0
DA:1238,0
DA:1240,0
DA:1241,0
DA:1242,0
DA:1243,0
DA:1244,0
DA:1245,0
DA:1246,0
DA:1248,0
DA:1249,0
DA:1251,0
DA:1252,0
DA:1254,0
DA:1255,0
DA:1260,0
DA:1261,0
DA:1263,0
DA:1264,0
DA:1274,0
DA:1275,0
DA:1279,0
DA:1280,0
DA:1284,0
DA:1287,1
DA:1290,1
DA:1293,1
DA:1294,1
DA:1295,1
DA:1296,1
DA:1297,1
DA:1298,1
DA:1299,1
DA:1300,1
DA:1301,1
DA:1302,1
DA:1303,1
DA:1304,1
DA:1305,1
DA:1306,1
DA:1307,1
DA:1308,1
DA:1309,1
DA:1310,1
DA:1311,1
DA:1312,1
DA:1313,1
DA:1314,1
DA:1315,1
DA:1316,1
DA:1317,1
DA:1318,1
DA:1319,1
DA:1320,1
DA:1321,1
DA:1322,1
DA:1323,1
DA:1324,1
DA:1325,1
DA:1326,1
DA:1327,1
DA:1328,1
DA:1329,1
DA:1330,1
DA:1332,1
DA:1333,1
DA:1334,1
DA:1335,1
DA:1336,1
DA:1337,1
DA:1338,1
DA:1339,1
DA:1341,1
DA:1342,1
DA:1343,1
DA:1344,1
DA:1346,1
DA:1347,1
DA:1348,1
DA:1349,1
DA:1351,1
DA:1352,1
DA:1353,1
DA:1354,1
DA:1358,1
DA:1361,1
DA:1362,1
DA:1363,1
DA:1364,1
DA:1365,1
DA:1366,1
DA:1367,1
DA:1368,1
DA:1369,1
DA:1370,1
DA:1371,1
DA:1372,1
DA:1373,1
DA:1374,1
DA:1375,1
DA:1376,1
DA:1377,1
DA:1378,1
DA:1379,1
DA:1380,1
DA:1381,1
DA:1382,1
DA:1383,1
DA:1384,1
DA:1385,1
DA:1386,1
DA:1387,1
DA:1388,1
DA:1390,1
DA:1391,1
DA:1392,1
DA:1393,1
DA:1394,1
DA:1395,1
DA:1396,1
DA:1399,1
DA:1402,1
DA:1405,1
DA:1406,1
DA:1407,1
DA:1410,1
DA:1411,1
DA:1412,1
DA:1413,1
DA:1414,1
DA:1415,1
DA:1419,1
DA:1420,1
DA:1421,1
DA:1422,1
DA:1423,1
DA:1427,1
DA:1428,1
DA:1429,1
DA:1430,1
DA:1431,1
DA:1433,1
DA:1434,1
DA:1435,1
DA:1436,1
DA:1437,1
DA:1441,1
DA:1442,1
DA:1443,1
DA:1446,1
DA:1447,1
DA:1448,1
DA:1449,1
DA:1450,1
DA:1453,1
DA:1454,1
DA:1457,1
DA:1458,1
DA:1461,1
DA:1462,1
DA:1463,1
DA:1466,1
DA:1467,1
DA:1468,1
DA:1469,1
DA:1471,1
DA:1472,1
DA:1473,1
DA:1474,1
DA:1475,1
DA:1476,1
DA:1478,1
DA:1479,1
DA:1480,1
DA:1483,1
DA:1486,1
DA:1487,1
DA:1490,1
DA:1491,1
DA:1492,1
DA:1493,1
DA:1494,1
DA:1495,1
DA:1496,1
DA:1497,1
DA:1498,1
DA:1499,1
DA:1500,1
DA:1501,1
DA:1502,1
DA:1503,1
DA:1504,1
DA:1505,1
DA:1506,1
DA:1507,1
DA:1508,1
DA:1509,1
DA:1510,1
DA:1511,1
DA:1512,1
DA:1513,1
DA:1514,1
DA:1515,1
DA:1516,1
DA:1517,1
DA:1520,1
DA:1521,1
DA:1522,50000
DA:1523,50000
DA:1524,50000
DA:1525,50000
DA:1527,50000
DA:1528,50
DA:1529,50
DA:1530,49950
DA:1532,1
DA:1533,0
DA:1534,1
DA:1537,1
DA:1539,1
DA:1540,1
DA:1541,1
DA:1545,1
DA:1546,1
DA:1547,1
DA:1549,1
DA:1550,1
DA:1551,1
DA:1552,1
DA:1553,1
DA:1555,1
DA:1556,1
DA:1557,1
DA:1561,0
DA:1568,0
DA:1569,0
DA:1572,0
DA:1573,0
DA:1574,0
DA:1575,0
DA:1576,0
DA:1577,0
DA:1578,0
DA:1579,0
DA:1580,0
DA:1581,0
DA:1582,0
DA:1583,0
DA:1584,0
DA:1585,0
DA:1586,0
DA:1587,0
DA:1588,0
DA:1589,0
DA:1590,0
DA:1591,0
DA:1592,0
DA:1593,0
DA:1594,0
DA:1595,0
DA:1596,0
DA:1597,0
DA:1598,0
DA:1599,0
DA:1602,0
DA:1603,0
DA:1604,0
DA:1605,0
DA:1606,0
DA:1607,0
DA:1608,0
DA:1610,0
DA:1611,0
DA:1612,0
DA:1613,0
DA:1615,0
DA:1616,0
DA:1617,0
DA:1620,0
DA:1622,0
DA:1623,0
DA:1624,0
DA:1628,0
DA:1629,0
DA:1630,0
DA:1632,0
DA:1633,0
DA:1634,0
DA:1635,0
DA:1636,0
DA:1638,0
DA:1639,0
DA:1641,0
DA:1646,0
DA:1647,0
DA:1650,1
DA:1656,1
DA:1657,1
DA:1660,1
DA:1661,1
DA:1662,1
DA:1663,1
DA:1664,1
DA:1665,1
DA:1666,1
DA:1667,1
DA:1668,1
DA:1669,1
DA:1670,1
DA:1671,1
DA:1672,1
DA:1673,1
DA:1674,1
DA:1675,1
DA:1678,1
DA:1679,1
DA:1680,10000
DA:1681,10000
DA:1682,10000
DA:1683,10
DA:1684,10
DA:1685,9990
DA:1687,1
DA:1688,0
DA:1689,1
DA:1691,1
DA:1693,1
DA:1694,1
DA:1695,1
DA:1699,1
DA:1700,1
DA:1701,1
DA:1703,1
DA:1704,1
DA:1705,1
DA:1706,1
DA:1707,1
DA:1709,1
DA:1710,1
DA:1711,1
BRF:0
BRH:0
LF:1193
LH:503
end_of_record
SF:/home/openclaw/dev/yinglichina8848/sqlrustgo/crates/executor/src/parallel_vector_executor.rs
FN:332,_RINvMs2_NtCsldCax6rooq1_18sqlrustgo_executor24parallel_vector_executorNtB6_22ParallelVectorExecutor33execute_parallel_scan_with_filterpEB8_
FN:341,_RNCINvMs2_NtCsldCax6rooq1_18sqlrustgo_executor24parallel_vector_executorNtB8_22ParallelVectorExecutor33execute_parallel_scan_with_filterpE0Ba_
FN:359,_RNCNCINvMs2_NtCsldCax6rooq1_18sqlrustgo_executor24parallel_vector_executorNtBa_22ParallelVectorExecutor33execute_parallel_scan_with_filterpE00Bc_
FN:365,_RNCNCINvMs2_NtCsldCax6rooq1_18sqlrustgo_executor24parallel_vector_executorNtBa_22ParallelVectorExecutor33execute_parallel_scan_with_filterpE0s0_0Bc_
FN:371,_RNCNCINvMs2_NtCsldCax6rooq1_18sqlrustgo_executor24parallel_vector_executorNtBa_22ParallelVectorExecutor33execute_parallel_scan_with_filterpE0s2_0Bc_
FN:377,_RNCNCINvMs2_NtCsldCax6rooq1_18sqlrustgo_executor24parallel_vector_executorNtBa_22ParallelVectorExecutor33execute_parallel_scan_with_filterpE0s4_0Bc_
FN:226,_RNvMs2_NtCsldCax6rooq1_18sqlrustgo_executor24parallel_vector_executorNtB5_22ParallelVectorExecutor14num_partitions
FN:102,_RNvMs_NtCsldCax6rooq1_18sqlrustgo_executor24parallel_vector_executorNtB4_14PartitionAgent10total_rows
FN:688,_RNCNvNtNtCsldCax6rooq1_18sqlrustgo_executor24parallel_vector_executor5testss_18test_parallel_scan0B7_
FN:698,_RNCNvNtNtCsldCax6rooq1_18sqlrustgo_executor24parallel_vector_executor5testss_18test_parallel_scans_0B7_
FN:723,_RNCNvNtNtCsldCax6rooq1_18sqlrustgo_executor24parallel_vector_executor5testss_26test_parallel_scan_agg_sum0B7_
FN:705,_RNCNvNtNtCsldCax6rooq1_18sqlrustgo_executor24parallel_vector_executor5testss_28test_parallel_scan_agg_count0B7_
FN:742,_RNCNvNtNtCsldCax6rooq1_18sqlrustgo_executor24parallel_vector_executor5testss_30test_parallel_scan_agg_min_max0B7_
FN:686,_RNvNtNtCsldCax6rooq1_18sqlrustgo_executor24parallel_vector_executor5testss_18test_parallel_scan
FN:640,_RNvNtNtCsldCax6rooq1_18sqlrustgo_executor24parallel_vector_executor5testss_24test_partition_info_even
FN:721,_RNvNtNtCsldCax6rooq1_18sqlrustgo_executor24parallel_vector_executor5testss_26test_parallel_scan_agg_sum
FN:703,_RNvNtNtCsldCax6rooq1_18sqlrustgo_executor24parallel_vector_executor5testss_28test_parallel_scan_agg_count
FN:740,_RNvNtNtCsldCax6rooq1_18sqlrustgo_executor24parallel_vector_executor5testss_30test_parallel_scan_agg_min_max
FN:649,_RNvNtNtCsldCax6rooq1_18sqlrustgo_executor24parallel_vector_executor5testss_34test_partition_info_with_remainder
FN:665,_RNvNtNtCsldCax6rooq1_18sqlrustgo_executor24parallel_vector_executor5testss_38test_parallel_vector_executor_creation
FN:305,_RNCNvMs2_NtCsldCax6rooq1_18sqlrustgo_executor24parallel_vector_executorNtB7_22ParallelVectorExecutor21execute_parallel_scan0B9_
FN:240,_RNCNvMs2_NtCsldCax6rooq1_18sqlrustgo_executor24parallel_vector_executorNtB7_22ParallelVectorExecutor25execute_parallel_scan_agg0B9_
FN:92,_RNCNvMs_NtCsldCax6rooq1_18sqlrustgo_executor24parallel_vector_executorNtB6_14PartitionAgent19get_partition_infos0B8_
FN:524,_RNCNvNtCsldCax6rooq1_18sqlrustgo_executor24parallel_vector_executor23merge_aggregate_results0B5_
FN:552,_RNCNvNtCsldCax6rooq1_18sqlrustgo_executor24parallel_vector_executor23merge_aggregate_resultss0_0B5_
FN:588,_RNCNvNtCsldCax6rooq1_18sqlrustgo_executor24parallel_vector_executor23merge_aggregate_resultss1_0B5_
FN:592,_RNCNvNtCsldCax6rooq1_18sqlrustgo_executor24parallel_vector_executor23merge_aggregate_resultss2_0B5_
FN:601,_RNCNvNtCsldCax6rooq1_18sqlrustgo_executor24parallel_vector_executor23merge_aggregate_resultss3_0B5_
FN:611,_RNCNvNtCsldCax6rooq1_18sqlrustgo_executor24parallel_vector_executor23merge_aggregate_resultss4_0B5_
FN:615,_RNCNvNtCsldCax6rooq1_18sqlrustgo_executor24parallel_vector_executor23merge_aggregate_resultss5_0B5_
FN:624,_RNCNvNtCsldCax6rooq1_18sqlrustgo_executor24parallel_vector_executor23merge_aggregate_resultss6_0B5_
FN:538,_RNCNvNtCsldCax6rooq1_18sqlrustgo_executor24parallel_vector_executor23merge_aggregate_resultss_0B5_
FN:164,_RNCNvXs1_NtCsldCax6rooq1_18sqlrustgo_executor24parallel_vector_executorNtB7_23PartitionStorageWrapperNtNtCs1u7In8Za3Xp_17sqlrustgo_storage6engine13VectorStorage15scan_vectorized0B9_
FN:28,_RNvMNtCsldCax6rooq1_18sqlrustgo_executor24parallel_vector_executorNtB2_13PartitionInfo3new
FN:141,_RNvMs0_NtCsldCax6rooq1_18sqlrustgo_executor24parallel_vector_executorNtB5_23PartitionStorageWrapper3new
FN:300,_RNvMs2_NtCsldCax6rooq1_18sqlrustgo_executor24parallel_vector_executorNtB5_22ParallelVectorExecutor21execute_parallel_scan
FN:231,_RNvMs2_NtCsldCax6rooq1_18sqlrustgo_executor24parallel_vector_executorNtB5_22ParallelVectorExecutor25execute_parallel_scan_agg
FN:212,_RNvMs2_NtCsldCax6rooq1_18sqlrustgo_executor24parallel_vector_executorNtB5_22ParallelVectorExecutor3new
FN:97,_RNvMs_NtCsldCax6rooq1_18sqlrustgo_executor24parallel_vector_executorNtB4_14PartitionAgent14num_partitions
FN:90,_RNvMs_NtCsldCax6rooq1_18sqlrustgo_executor24parallel_vector_executorNtB4_14PartitionAgent19get_partition_infos
FN:107,_RNvMs_NtCsldCax6rooq1_18sqlrustgo_executor24parallel_vector_executorNtB4_14PartitionAgent25create_partition_executor
FN:70,_RNvMs_NtCsldCax6rooq1_18sqlrustgo_executor24parallel_vector_executorNtB4_14PartitionAgent3new
FN:405,_RNvNtCsldCax6rooq1_18sqlrustgo_executor24parallel_vector_executor19merge_column_arrays
FN:505,_RNvNtCsldCax6rooq1_18sqlrustgo_executor24parallel_vector_executor23merge_aggregate_results
FN:452,_RNvNtCsldCax6rooq1_18sqlrustgo_executor24parallel_vector_executor26compute_partial_aggregates
FN:200,_RNvXs1_NtCsldCax6rooq1_18sqlrustgo_executor24parallel_vector_executorNtB5_23PartitionStorageWrapperNtNtCs1u7In8Za3Xp_17sqlrustgo_storage6engine13VectorStorage13get_row_count
FN:155,_RNvXs1_NtCsldCax6rooq1_18sqlrustgo_executor24parallel_vector_executorNtB5_23PartitionStorageWrapperNtNtCs1u7In8Za3Xp_17sqlrustgo_storage6engine13VectorStorage15scan_vectorized
FN:305,_RNCNvMs2_NtCs4qFySXYcYQq_18sqlrustgo_executor24parallel_vector_executorNtB7_22ParallelVectorExecutor21execute_parallel_scan0B9_
FN:240,_RNCNvMs2_NtCs4qFySXYcYQq_18sqlrustgo_executor24parallel_vector_executorNtB7_22ParallelVectorExecutor25execute_parallel_scan_agg0B9_
FN:92,_RNCNvMs_NtCs4qFySXYcYQq_18sqlrustgo_executor24parallel_vector_executorNtB6_14PartitionAgent19get_partition_infos0B8_
FN:524,_RNCNvNtCs4qFySXYcYQq_18sqlrustgo_executor24parallel_vector_executor23merge_aggregate_results0B5_
FN:552,_RNCNvNtCs4qFySXYcYQq_18sqlrustgo_executor24parallel_vector_executor23merge_aggregate_resultss0_0B5_
FN:588,_RNCNvNtCs4qFySXYcYQq_18sqlrustgo_executor24parallel_vector_executor23merge_aggregate_resultss1_0B5_
FN:592,_RNCNvNtCs4qFySXYcYQq_18sqlrustgo_executor24parallel_vector_executor23merge_aggregate_resultss2_0B5_
FN:601,_RNCNvNtCs4qFySXYcYQq_18sqlrustgo_executor24parallel_vector_executor23merge_aggregate_resultss3_0B5_
FN:611,_RNCNvNtCs4qFySXYcYQq_18sqlrustgo_executor24parallel_vector_executor23merge_aggregate_resultss4_0B5_
FN:615,_RNCNvNtCs4qFySXYcYQq_18sqlrustgo_executor24parallel_vector_executor23merge_aggregate_resultss5_0B5_
FN:624,_RNCNvNtCs4qFySXYcYQq_18sqlrustgo_executor24parallel_vector_executor23merge_aggregate_resultss6_0B5_
FN:538,_RNCNvNtCs4qFySXYcYQq_18sqlrustgo_executor24parallel_vector_executor23merge_aggregate_resultss_0B5_
FN:164,_RNCNvXs1_NtCs4qFySXYcYQq_18sqlrustgo_executor24parallel_vector_executorNtB7_23PartitionStorageWrapperNtNtCsl9zPO89iGuX_17sqlrustgo_storage6engine13VectorStorage15scan_vectorized0B9_
FN:28,_RNvMNtCs4qFySXYcYQq_18sqlrustgo_executor24parallel_vector_executorNtB2_13PartitionInfo3new
FN:141,_RNvMs0_NtCs4qFySXYcYQq_18sqlrustgo_executor24parallel_vector_executorNtB5_23PartitionStorageWrapper3new
FN:226,_RNvMs2_NtCs4qFySXYcYQq_18sqlrustgo_executor24parallel_vector_executorNtB5_22ParallelVectorExecutor14num_partitions
FN:300,_RNvMs2_NtCs4qFySXYcYQq_18sqlrustgo_executor24parallel_vector_executorNtB5_22ParallelVectorExecutor21execute_parallel_scan
FN:231,_RNvMs2_NtCs4qFySXYcYQq_18sqlrustgo_executor24parallel_vector_executorNtB5_22ParallelVectorExecutor25execute_parallel_scan_agg
FN:212,_RNvMs2_NtCs4qFySXYcYQq_18sqlrustgo_executor24parallel_vector_executorNtB5_22ParallelVectorExecutor3new
FN:102,_RNvMs_NtCs4qFySXYcYQq_18sqlrustgo_executor24parallel_vector_executorNtB4_14PartitionAgent10total_rows
FN:97,_RNvMs_NtCs4qFySXYcYQq_18sqlrustgo_executor24parallel_vector_executorNtB4_14PartitionAgent14num_partitions
FN:90,_RNvMs_NtCs4qFySXYcYQq_18sqlrustgo_executor24parallel_vector_executorNtB4_14PartitionAgent19get_partition_infos
FN:107,_RNvMs_NtCs4qFySXYcYQq_18sqlrustgo_executor24parallel_vector_executorNtB4_14PartitionAgent25create_partition_executor
FN:70,_RNvMs_NtCs4qFySXYcYQq_18sqlrustgo_executor24parallel_vector_executorNtB4_14PartitionAgent3new
FN:405,_RNvNtCs4qFySXYcYQq_18sqlrustgo_executor24parallel_vector_executor19merge_column_arrays
FN:505,_RNvNtCs4qFySXYcYQq_18sqlrustgo_executor24parallel_vector_executor23merge_aggregate_results
FN:452,_RNvNtCs4qFySXYcYQq_18sqlrustgo_executor24parallel_vector_executor26compute_partial_aggregates
FN:200,_RNvXs1_NtCs4qFySXYcYQq_18sqlrustgo_executor24parallel_vector_executorNtB5_23PartitionStorageWrapperNtNtCsl9zPO89iGuX_17sqlrustgo_storage6engine13VectorStorage13get_row_count
FN:155,_RNvXs1_NtCs4qFySXYcYQq_18sqlrustgo_executor24parallel_vector_executorNtB5_23PartitionStorageWrapperNtNtCsl9zPO89iGuX_17sqlrustgo_storage6engine13VectorStorage15scan_vectorized
FNDA:0,_RINvMs2_NtCsldCax6rooq1_18sqlrustgo_executor24parallel_vector_executorNtB6_22ParallelVectorExecutor33execute_parallel_scan_with_filterpEB8_
FNDA:0,_RNCINvMs2_NtCsldCax6rooq1_18sqlrustgo_executor24parallel_vector_executorNtB8_22ParallelVectorExecutor33execute_parallel_scan_with_filterpE0Ba_
FNDA:0,_RNCNCINvMs2_NtCsldCax6rooq1_18sqlrustgo_executor24parallel_vector_executorNtBa_22ParallelVectorExecutor33execute_parallel_scan_with_filterpE00Bc_
FNDA:0,_RNCNCINvMs2_NtCsldCax6rooq1_18sqlrustgo_executor24parallel_vector_executorNtBa_22ParallelVectorExecutor33execute_parallel_scan_with_filterpE0s0_0Bc_
FNDA:0,_RNCNCINvMs2_NtCsldCax6rooq1_18sqlrustgo_executor24parallel_vector_executorNtBa_22ParallelVectorExecutor33execute_parallel_scan_with_filterpE0s2_0Bc_
FNDA:0,_RNCNCINvMs2_NtCsldCax6rooq1_18sqlrustgo_executor24parallel_vector_executorNtBa_22ParallelVectorExecutor33execute_parallel_scan_with_filterpE0s4_0Bc_
FNDA:0,_RNvMs2_NtCsldCax6rooq1_18sqlrustgo_executor24parallel_vector_executorNtB5_22ParallelVectorExecutor14num_partitions
FNDA:0,_RNvMs_NtCsldCax6rooq1_18sqlrustgo_executor24parallel_vector_executorNtB4_14PartitionAgent10total_rows
FNDA:100,_RNCNvNtNtCsldCax6rooq1_18sqlrustgo_executor24parallel_vector_executor5testss_18test_parallel_scan0B7_
FNDA:4,_RNCNvNtNtCsldCax6rooq1_18sqlrustgo_executor24parallel_vector_executor5testss_18test_parallel_scans_0B7_
FNDA:100,_RNCNvNtNtCsldCax6rooq1_18sqlrustgo_executor24parallel_vector_executor5testss_26test_parallel_scan_agg_sum0B7_
FNDA:100,_RNCNvNtNtCsldCax6rooq1_18sqlrustgo_executor24parallel_vector_executor5testss_28test_parallel_scan_agg_count0B7_
FNDA:100,_RNCNvNtNtCsldCax6rooq1_18sqlrustgo_executor24parallel_vector_executor5testss_30test_parallel_scan_agg_min_max0B7_
FNDA:1,_RNvNtNtCsldCax6rooq1_18sqlrustgo_executor24parallel_vector_executor5testss_18test_parallel_scan
FNDA:1,_RNvNtNtCsldCax6rooq1_18sqlrustgo_executor24parallel_vector_executor5testss_24test_partition_info_even
FNDA:1,_RNvNtNtCsldCax6rooq1_18sqlrustgo_executor24parallel_vector_executor5testss_26test_parallel_scan_agg_sum
FNDA:1,_RNvNtNtCsldCax6rooq1_18sqlrustgo_executor24parallel_vector_executor5testss_28test_parallel_scan_agg_count
FNDA:1,_RNvNtNtCsldCax6rooq1_18sqlrustgo_executor24parallel_vector_executor5testss_30test_parallel_scan_agg_min_max
FNDA:1,_RNvNtNtCsldCax6rooq1_18sqlrustgo_executor24parallel_vector_executor5testss_34test_partition_info_with_remainder
FNDA:1,_RNvNtNtCsldCax6rooq1_18sqlrustgo_executor24parallel_vector_executor5testss_38test_parallel_vector_executor_creation
FNDA:4,_RNCNvMs2_NtCsldCax6rooq1_18sqlrustgo_executor24parallel_vector_executorNtB7_22ParallelVectorExecutor21execute_parallel_scan0B9_
FNDA:12,_RNCNvMs2_NtCsldCax6rooq1_18sqlrustgo_executor24parallel_vector_executorNtB7_22ParallelVectorExecutor25execute_parallel_scan_agg0B9_
FNDA:16,_RNCNvMs_NtCsldCax6rooq1_18sqlrustgo_executor24parallel_vector_executorNtB6_14PartitionAgent19get_partition_infos0B8_
FNDA:16,_RNCNvNtCsldCax6rooq1_18sqlrustgo_executor24parallel_vector_executor23merge_aggregate_results0B5_
FNDA:4,_RNCNvNtCsldCax6rooq1_18sqlrustgo_executor24parallel_vector_executor23merge_aggregate_resultss0_0B5_
FNDA:3,_RNCNvNtCsldCax6rooq1_18sqlrustgo_executor24parallel_vector_executor23merge_aggregate_resultss1_0B5_
FNDA:0,_RNCNvNtCsldCax6rooq1_18sqlrustgo_executor24parallel_vector_executor23merge_aggregate_resultss2_0B5_
FNDA:0,_RNCNvNtCsldCax6rooq1_18sqlrustgo_executor24parallel_vector_executor23merge_aggregate_resultss3_0B5_
FNDA:3,_RNCNvNtCsldCax6rooq1_18sqlrustgo_executor24parallel_vector_executor23merge_aggregate_resultss4_0B5_
FNDA:0,_RNCNvNtCsldCax6rooq1_18sqlrustgo_executor24parallel_vector_executor23merge_aggregate_resultss5_0B5_
FNDA:0,_RNCNvNtCsldCax6rooq1_18sqlrustgo_executor24parallel_vector_executor23merge_aggregate_resultss6_0B5_
FNDA:4,_RNCNvNtCsldCax6rooq1_18sqlrustgo_executor24parallel_vector_executor23merge_aggregate_resultss_0B5_
FNDA:32,_RNCNvXs1_NtCsldCax6rooq1_18sqlrustgo_executor24parallel_vector_executorNtB7_23PartitionStorageWrapperNtNtCs1u7In8Za3Xp_17sqlrustgo_storage6engine13VectorStorage15scan_vectorized0B9_
FNDA:36,_RNvMNtCsldCax6rooq1_18sqlrustgo_executor24parallel_vector_executorNtB2_13PartitionInfo3new
FNDA:16,_RNvMs0_NtCsldCax6rooq1_18sqlrustgo_executor24parallel_vector_executorNtB5_23PartitionStorageWrapper3new
FNDA:1,_RNvMs2_NtCsldCax6rooq1_18sqlrustgo_executor24parallel_vector_executorNtB5_22ParallelVectorExecutor21execute_parallel_scan
FNDA:3,_RNvMs2_NtCsldCax6rooq1_18sqlrustgo_executor24parallel_vector_executorNtB5_22ParallelVectorExecutor25execute_parallel_scan_agg
FNDA:5,_RNvMs2_NtCsldCax6rooq1_18sqlrustgo_executor24parallel_vector_executorNtB5_22ParallelVectorExecutor3new
FNDA:1,_RNvMs_NtCsldCax6rooq1_18sqlrustgo_executor24parallel_vector_executorNtB4_14PartitionAgent14num_partitions
FNDA:4,_RNvMs_NtCsldCax6rooq1_18sqlrustgo_executor24parallel_vector_executorNtB4_14PartitionAgent19get_partition_infos
FNDA:16,_RNvMs_NtCsldCax6rooq1_18sqlrustgo_executor24parallel_vector_executorNtB4_14PartitionAgent25create_partition_executor
FNDA:5,_RNvMs_NtCsldCax6rooq1_18sqlrustgo_executor24parallel_vector_executorNtB4_14PartitionAgent3new
FNDA:12,_RNvNtCsldCax6rooq1_18sqlrustgo_executor24parallel_vector_executor19merge_column_arrays
FNDA:3,_RNvNtCsldCax6rooq1_18sqlrustgo_executor24parallel_vector_executor23merge_aggregate_results
FNDA:12,_RNvNtCsldCax6rooq1_18sqlrustgo_executor24parallel_vector_executor26compute_partial_aggregates
FNDA:0,_RNvXs1_NtCsldCax6rooq1_18sqlrustgo_executor24parallel_vector_executorNtB5_23PartitionStorageWrapperNtNtCs1u7In8Za3Xp_17sqlrustgo_storage6engine13VectorStorage13get_row_count
FNDA:32,_RNvXs1_NtCsldCax6rooq1_18sqlrustgo_executor24parallel_vector_executorNtB5_23PartitionStorageWrapperNtNtCs1u7In8Za3Xp_17sqlrustgo_storage6engine13VectorStorage15scan_vectorized
FNDA:0,_RNCNvMs2_NtCs4qFySXYcYQq_18sqlrustgo_executor24parallel_vector_executorNtB7_22ParallelVectorExecutor21execute_parallel_scan0B9_
FNDA:0,_RNCNvMs2_NtCs4qFySXYcYQq_18sqlrustgo_executor24parallel_vector_executorNtB7_22ParallelVectorExecutor25execute_parallel_scan_agg0B9_
FNDA:0,_RNCNvMs_NtCs4qFySXYcYQq_18sqlrustgo_executor24parallel_vector_executorNtB6_14PartitionAgent19get_partition_infos0B8_
FNDA:0,_RNCNvNtCs4qFySXYcYQq_18sqlrustgo_executor24parallel_vector_executor23merge_aggregate_results0B5_
FNDA:0,_RNCNvNtCs4qFySXYcYQq_18sqlrustgo_executor24parallel_vector_executor23merge_aggregate_resultss0_0B5_
FNDA:0,_RNCNvNtCs4qFySXYcYQq_18sqlrustgo_executor24parallel_vector_executor23merge_aggregate_resultss1_0B5_
FNDA:0,_RNCNvNtCs4qFySXYcYQq_18sqlrustgo_executor24parallel_vector_executor23merge_aggregate_resultss2_0B5_
FNDA:0,_RNCNvNtCs4qFySXYcYQq_18sqlrustgo_executor24parallel_vector_executor23merge_aggregate_resultss3_0B5_
FNDA:0,_RNCNvNtCs4qFySXYcYQq_18sqlrustgo_executor24parallel_vector_executor23merge_aggregate_resultss4_0B5_
FNDA:0,_RNCNvNtCs4qFySXYcYQq_18sqlrustgo_executor24parallel_vector_executor23merge_aggregate_resultss5_0B5_
FNDA:0,_RNCNvNtCs4qFySXYcYQq_18sqlrustgo_executor24parallel_vector_executor23merge_aggregate_resultss6_0B5_
FNDA:0,_RNCNvNtCs4qFySXYcYQq_18sqlrustgo_executor24parallel_vector_executor23merge_aggregate_resultss_0B5_
FNDA:0,_RNCNvXs1_NtCs4qFySXYcYQq_18sqlrustgo_executor24parallel_vector_executorNtB7_23PartitionStorageWrapperNtNtCsl9zPO89iGuX_17sqlrustgo_storage6engine13VectorStorage15scan_vectorized0B9_
FNDA:0,_RNvMNtCs4qFySXYcYQq_18sqlrustgo_executor24parallel_vector_executorNtB2_13PartitionInfo3new
FNDA:0,_RNvMs0_NtCs4qFySXYcYQq_18sqlrustgo_executor24parallel_vector_executorNtB5_23PartitionStorageWrapper3new
FNDA:0,_RNvMs2_NtCs4qFySXYcYQq_18sqlrustgo_executor24parallel_vector_executorNtB5_22ParallelVectorExecutor14num_partitions
FNDA:0,_RNvMs2_NtCs4qFySXYcYQq_18sqlrustgo_executor24parallel_vector_executorNtB5_22ParallelVectorExecutor21execute_parallel_scan
FNDA:0,_RNvMs2_NtCs4qFySXYcYQq_18sqlrustgo_executor24parallel_vector_executorNtB5_22ParallelVectorExecutor25execute_parallel_scan_agg
FNDA:0,_RNvMs2_NtCs4qFySXYcYQq_18sqlrustgo_executor24parallel_vector_executorNtB5_22ParallelVectorExecutor3new
FNDA:0,_RNvMs_NtCs4qFySXYcYQq_18sqlrustgo_executor24parallel_vector_executorNtB4_14PartitionAgent10total_rows
FNDA:0,_RNvMs_NtCs4qFySXYcYQq_18sqlrustgo_executor24parallel_vector_executorNtB4_14PartitionAgent14num_partitions
FNDA:0,_RNvMs_NtCs4qFySXYcYQq_18sqlrustgo_executor24parallel_vector_executorNtB4_14PartitionAgent19get_partition_infos
FNDA:0,_RNvMs_NtCs4qFySXYcYQq_18sqlrustgo_executor24parallel_vector_executorNtB4_14PartitionAgent25create_partition_executor
FNDA:0,_RNvMs_NtCs4qFySXYcYQq_18sqlrustgo_executor24parallel_vector_executorNtB4_14PartitionAgent3new
FNDA:0,_RNvNtCs4qFySXYcYQq_18sqlrustgo_executor24parallel_vector_executor19merge_column_arrays
FNDA:0,_RNvNtCs4qFySXYcYQq_18sqlrustgo_executor24parallel_vector_executor23merge_aggregate_results
FNDA:0,_RNvNtCs4qFySXYcYQq_18sqlrustgo_executor24parallel_vector_executor26compute_partial_aggregates
FNDA:0,_RNvXs1_NtCs4qFySXYcYQq_18sqlrustgo_executor24parallel_vector_executorNtB5_23PartitionStorageWrapperNtNtCsl9zPO89iGuX_17sqlrustgo_storage6engine13VectorStorage13get_row_count
FNDA:0,_RNvXs1_NtCs4qFySXYcYQq_18sqlrustgo_executor24parallel_vector_executorNtB5_23PartitionStorageWrapperNtNtCsl9zPO89iGuX_17sqlrustgo_storage6engine13VectorStorage15scan_vectorized
FNF:47
FNH:34
DA:28,36
DA:29,36
DA:30,36
DA:33,36
DA:34,1
DA:35,1
DA:36,1
DA:38,35
DA:39,35
DA:40,35
DA:43,36
DA:44,36
DA:45,36
DA:46,36
DA:47,36
DA:48,36
DA:49,36
DA:70,5
DA:71,5
DA:72,5
DA:73,5
DA:74,5
DA:75,5
DA:76,5
DA:77,5
DA:79,5
DA:80,5
DA:81,5
DA:82,5
DA:83,5
DA:84,5
DA:85,5
DA:86,5
DA:87,5
DA:90,4
DA:91,4
DA:92,16
DA:93,4
DA:94,4
DA:97,1
DA:98,1
DA:99,1
DA:102,0
DA:103,0
DA:104,0
DA:107,16
DA:108,16
DA:109,16
DA:110,16
DA:111,16
DA:114,16
DA:116,16
DA:117,16
DA:118,16
DA:119,16
DA:120,16
DA:121,16
DA:122,16
DA:123,16
DA:124,16
DA:127,16
DA:128,16
DA:129,16
DA:141,16
DA:142,16
DA:143,16
DA:144,16
DA:145,16
DA:146,16
DA:147,16
DA:148,16
DA:149,16
DA:150,16
DA:151,16
DA:155,32
DA:156,32
DA:157,32
DA:158,32
DA:161,32
DA:162,32
DA:163,32
DA:164,32
DA:165,32
DA:166,32
DA:167,32
DA:168,32
DA:169,32
DA:170,32
DA:171,32
DA:172,0
DA:173,0
DA:174,0
DA:175,0
DA:176,0
DA:177,0
DA:178,0
DA:179,0
DA:180,0
DA:181,0
DA:182,0
DA:183,0
DA:184,0
DA:185,0
DA:186,0
DA:187,0
DA:188,0
DA:189,0
DA:190,0
DA:191,0
DA:192,0
DA:193,0
DA:194,32
DA:195,32
DA:197,32
DA:198,32
DA:200,0
DA:201,0
DA:202,0
DA:212,5
DA:213,5
DA:214,5
DA:215,5
DA:216,5
DA:217,5
DA:218,5
DA:219,5
DA:220,5
DA:222,5
DA:223,5
DA:226,0
DA:227,0
DA:228,0
DA:231,3
DA:232,3
DA:233,3
DA:234,3
DA:235,3
DA:238,3
DA:239,3
DA:240,12
DA:241,12
DA:242,12
DA:243,12
DA:245,12
DA:246,0
DA:250,12
DA:251,12
DA:253,24
DA:254,12
DA:255,12
DA:256,12
DA:259,12
DA:260,0
DA:261,12
DA:266,12
DA:268,12
DA:270,12
DA:271,12
DA:272,12
DA:273,12
DA:274,12
DA:278,12
DA:279,12
DA:283,12
DA:284,12
DA:285,12
DA:286,3
DA:289,3
DA:290,0
DA:291,3
DA:293,3
DA:294,3
DA:295,3
DA:296,3
DA:297,3
DA:300,1
DA:301,1
DA:303,1
DA:304,1
DA:305,4
DA:306,4
DA:307,4
DA:308,4
DA:310,4
DA:311,0
DA:314,4
DA:315,8
DA:316,4
DA:317,4
DA:319,4
DA:320,0
DA:322,4
DA:324,4
DA:325,1
DA:326,1
DA:328,1
DA:329,1
DA:332,0
DA:333,0
DA:334,0
DA:335,0
DA:336,0
DA:337,0
DA:339,0
DA:340,0
DA:341,0
DA:342,0
DA:343,0
DA:344,0
DA:346,0
DA:347,0
DA:350,0
DA:352,0
DA:354,0
DA:355,0
DA:356,0
DA:357,0
DA:358,0
DA:359,0
DA:360,0
DA:361,0
DA:362,0
DA:363,0
DA:364,0
DA:365,0
DA:366,0
DA:367,0
DA:368,0
DA:369,0
DA:370,0
DA:371,0
DA:372,0
DA:373,0
DA:374,0
DA:375,0
DA:376,0
DA:377,0
DA:378,0
DA:379,0
DA:380,0
DA:383,0
DA:385,0
DA:386,0
DA:387,0
DA:388,0
DA:391,0
DA:392,0
DA:394,0
DA:396,0
DA:397,0
DA:398,0
DA:400,0
DA:401,0
DA:405,12
DA:406,12
DA:407,0
DA:408,12
DA:410,12
DA:412,12
DA:413,12
DA:414,12
DA:415,12
DA:416,12
DA:418,12
DA:421,0
DA:422,0
DA:423,0
DA:424,0
DA:425,0
DA:427,0
DA:430,0
DA:431,0
DA:432,0
DA:433,0
DA:434,0
DA:436,0
DA:439,0
DA:440,0
DA:441,0
DA:442,0
DA:443,0
DA:445,0
DA:447,0
DA:449,12
DA:452,12
DA:453,12
DA:454,12
DA:455,12
DA:456,12
DA:458,16
DA:459,16
DA:460,16
DA:461,4
DA:462,4
DA:464,0
DA:465,0
DA:467,0
DA:468,4
DA:469,4
DA:471,0
DA:472,0
DA:474,0
DA:475,0
DA:476,0
DA:477,0
DA:479,0
DA:480,4
DA:481,4
DA:482,4
DA:483,0
DA:484,0
DA:485,0
DA:486,0
DA:487,4
DA:488,4
DA:489,4
DA:490,0
DA:491,0
DA:492,0
DA:493,0
DA:495,16
DA:496,0
DA:497,0
DA:498,0
DA:501,12
DA:502,12
DA:505,3
DA:506,3
DA:507,3
DA:508,3
DA:509,3
DA:510,0
DA:511,3
DA:513,3
DA:514,0
DA:515,3
DA:517,3
DA:518,3
DA:520,4
DA:522,4
DA:523,4
DA:524,16
DA:525,4
DA:527,4
DA:528,0
DA:529,0
DA:530,4
DA:533,4
DA:536,1
DA:537,1
DA:538,4
DA:539,4
DA:540,4
DA:542,0
DA:544,4
DA:545,1
DA:546,1
DA:550,1
DA:551,1
DA:552,4
DA:553,4
DA:554,4
DA:556,0
DA:558,4
DA:559,1
DA:560,1
DA:564,0
DA:565,0
DA:567,0
DA:568,0
DA:569,0
DA:570,0
DA:571,0
DA:574,0
DA:575,0
DA:577,0
DA:582,1
DA:583,1
DA:585,4
DA:586,4
DA:587,4
DA:588,4
DA:590,0
DA:591,0
DA:592,0
DA:593,0
DA:595,0
DA:599,1
DA:600,1
DA:601,1
DA:605,1
DA:606,1
DA:608,4
DA:609,4
DA:610,4
DA:611,4
DA:613,0
DA:614,0
DA:615,0
DA:616,0
DA:618,0
DA:622,1
DA:623,1
DA:624,1
DA:628,4
DA:631,3
DA:632,3
DA:640,1
DA:641,1
DA:642,1
DA:643,1
DA:644,1
DA:645,1
DA:646,1
DA:649,1
DA:651,1
DA:652,1
DA:653,1
DA:655,1
DA:656,1
DA:657,1
DA:659,1
DA:660,1
DA:661,1
DA:662,1
DA:665,1
DA:666,1
DA:667,1
DA:668,1
DA:669,1
DA:670,1
DA:671,1
DA:672,1
DA:673,1
DA:676,1
DA:678,1
DA:679,1
DA:680,1
DA:682,1
DA:683,1
DA:686,1
DA:687,1
DA:688,100
DA:689,1
DA:691,1
DA:692,1
DA:693,1
DA:695,1
DA:698,4
DA:699,1
DA:700,1
DA:703,1
DA:704,1
DA:705,100
DA:706,1
DA:708,1
DA:709,1
DA:710,1
DA:712,1
DA:713,1
DA:714,1
DA:716,1
DA:717,1
DA:718,1
DA:721,1
DA:722,1
DA:723,100
DA:724,1
DA:726,1
DA:727,1
DA:728,1
DA:730,1
DA:731,1
DA:732,1
DA:734,1
DA:736,1
DA:737,1
DA:740,1
DA:741,1
DA:742,100
DA:743,1
DA:745,1
DA:746,1
DA:747,1
DA:749,1
DA:750,1
DA:751,1
DA:753,1
DA:754,1
DA:755,1
DA:756,1
BRF:0
BRH:0
LF:514
LH:346
end_of_record
SF:/home/openclaw/dev/yinglichina8848/sqlrustgo/crates/executor/src/pipeline_trace.rs
FN:319,_RNCNCNvMs0_NtCsldCax6rooq1_18sqlrustgo_executor14pipeline_traceNtB9_14TraceCollector9get_trace00Bb_
FN:141,_RNCNvMNtCsldCax6rooq1_18sqlrustgo_executor14pipeline_traceNtB4_13OperatorTrace17total_duration_ns0B6_
FN:329,_RNCNvMs0_NtCsldCax6rooq1_18sqlrustgo_executor14pipeline_traceNtB7_14TraceCollector6latest0B9_
FN:319,_RNCNvMs0_NtCsldCax6rooq1_18sqlrustgo_executor14pipeline_traceNtB7_14TraceCollector9get_trace0B9_
FN:73,_RNvMNtCsldCax6rooq1_18sqlrustgo_executor14pipeline_traceNtB2_13OperatorTrace11record_rows
FN:55,_RNvMNtCsldCax6rooq1_18sqlrustgo_executor14pipeline_traceNtB2_13OperatorTrace11with_parent
FN:81,_RNvMNtCsldCax6rooq1_18sqlrustgo_executor14pipeline_traceNtB2_13OperatorTrace12add_metadata
FN:77,_RNvMNtCsldCax6rooq1_18sqlrustgo_executor14pipeline_traceNtB2_13OperatorTrace12record_batch
FN:140,_RNvMNtCsldCax6rooq1_18sqlrustgo_executor14pipeline_traceNtB2_13OperatorTrace17total_duration_ns
FN:322,_RNvMs0_NtCsldCax6rooq1_18sqlrustgo_executor14pipeline_traceNtB5_14TraceCollector5clear
FN:328,_RNvMs0_NtCsldCax6rooq1_18sqlrustgo_executor14pipeline_traceNtB5_14TraceCollector6latest
FN:315,_RNvMs0_NtCsldCax6rooq1_18sqlrustgo_executor14pipeline_traceNtB5_14TraceCollector9get_trace
FN:270,_RNvMs_NtCsldCax6rooq1_18sqlrustgo_executor14pipeline_traceNtB4_10QueryTrace15to_json_compact
FN:442,_RNvNtNtCsldCax6rooq1_18sqlrustgo_executor14pipeline_trace5testss_20test_format_duration
FN:401,_RNvNtNtCsldCax6rooq1_18sqlrustgo_executor14pipeline_trace5testss_20test_trace_collector
FN:435,_RNvNtNtCsldCax6rooq1_18sqlrustgo_executor14pipeline_trace5testss_21test_query_trace_json
FN:428,_RNvNtNtCsldCax6rooq1_18sqlrustgo_executor14pipeline_trace5testss_24test_operator_trace_json
FN:362,_RNvNtNtCsldCax6rooq1_18sqlrustgo_executor14pipeline_trace5testss_24test_operator_trace_tree
FN:378,_RNvNtNtCsldCax6rooq1_18sqlrustgo_executor14pipeline_trace5testss_25test_query_trace_creation
FN:350,_RNvNtNtCsldCax6rooq1_18sqlrustgo_executor14pipeline_trace5testss_26test_operator_trace_timing
FN:343,_RNvNtNtCsldCax6rooq1_18sqlrustgo_executor14pipeline_trace5testss_28test_operator_trace_creation
FN:384,_RNvNtNtCsldCax6rooq1_18sqlrustgo_executor14pipeline_trace5testss_29test_query_trace_pipeline_viz
FN:415,_RNvNtNtCsldCax6rooq1_18sqlrustgo_executor14pipeline_trace5testss_31test_trace_collector_max_traces
FN:312,_RNCNvMs0_NtCsldCax6rooq1_18sqlrustgo_executor14pipeline_traceNtB7_14TraceCollector10get_traces0B9_
FN:228,_RNCNvMs_NtCsldCax6rooq1_18sqlrustgo_executor14pipeline_traceNtB6_10QueryTrace15count_operators0B8_
FN:90,_RNvMNtCsldCax6rooq1_18sqlrustgo_executor14pipeline_traceNtB2_13OperatorTrace10build_tree
FN:86,_RNvMNtCsldCax6rooq1_18sqlrustgo_executor14pipeline_traceNtB2_13OperatorTrace14to_tree_string
FN:39,_RNvMNtCsldCax6rooq1_18sqlrustgo_executor14pipeline_traceNtB2_13OperatorTrace3new
FN:60,_RNvMNtCsldCax6rooq1_18sqlrustgo_executor14pipeline_traceNtB2_13OperatorTrace5start
FN:64,_RNvMNtCsldCax6rooq1_18sqlrustgo_executor14pipeline_traceNtB2_13OperatorTrace6finish
FN:146,_RNvMNtCsldCax6rooq1_18sqlrustgo_executor14pipeline_traceNtB2_13OperatorTrace7to_json
FN:69,_RNvMNtCsldCax6rooq1_18sqlrustgo_executor14pipeline_traceNtB2_13OperatorTrace9add_child
FN:311,_RNvMs0_NtCsldCax6rooq1_18sqlrustgo_executor14pipeline_traceNtB5_14TraceCollector10get_traces
FN:294,_RNvMs0_NtCsldCax6rooq1_18sqlrustgo_executor14pipeline_traceNtB5_14TraceCollector3new
FN:301,_RNvMs0_NtCsldCax6rooq1_18sqlrustgo_executor14pipeline_traceNtB5_14TraceCollector6record
FN:224,_RNvMs_NtCsldCax6rooq1_18sqlrustgo_executor14pipeline_traceNtB4_10QueryTrace15count_operators
FN:233,_RNvMs_NtCsldCax6rooq1_18sqlrustgo_executor14pipeline_traceNtB4_10QueryTrace18visualize_pipeline
FN:196,_RNvMs_NtCsldCax6rooq1_18sqlrustgo_executor14pipeline_traceNtB4_10QueryTrace3new
FN:213,_RNvMs_NtCsldCax6rooq1_18sqlrustgo_executor14pipeline_traceNtB4_10QueryTrace6finish
FN:265,_RNvMs_NtCsldCax6rooq1_18sqlrustgo_executor14pipeline_traceNtB4_10QueryTrace7to_json
FN:217,_RNvMs_NtCsldCax6rooq1_18sqlrustgo_executor14pipeline_traceNtB4_10QueryTrace8set_root
FN:152,_RNvNtCsldCax6rooq1_18sqlrustgo_executor14pipeline_trace11uuid_simple
FN:162,_RNvNtCsldCax6rooq1_18sqlrustgo_executor14pipeline_trace15format_duration
FN:276,_RNvNtCsldCax6rooq1_18sqlrustgo_executor14pipeline_trace15truncate_string
FN:319,_RNCNCNvMs0_NtCs4qFySXYcYQq_18sqlrustgo_executor14pipeline_traceNtB9_14TraceCollector9get_trace00Bb_
FN:141,_RNCNvMNtCs4qFySXYcYQq_18sqlrustgo_executor14pipeline_traceNtB4_13OperatorTrace17total_duration_ns0B6_
FN:312,_RNCNvMs0_NtCs4qFySXYcYQq_18sqlrustgo_executor14pipeline_traceNtB7_14TraceCollector10get_traces0B9_
FN:329,_RNCNvMs0_NtCs4qFySXYcYQq_18sqlrustgo_executor14pipeline_traceNtB7_14TraceCollector6latest0B9_
FN:319,_RNCNvMs0_NtCs4qFySXYcYQq_18sqlrustgo_executor14pipeline_traceNtB7_14TraceCollector9get_trace0B9_
FN:228,_RNCNvMs_NtCs4qFySXYcYQq_18sqlrustgo_executor14pipeline_traceNtB6_10QueryTrace15count_operators0B8_
FN:90,_RNvMNtCs4qFySXYcYQq_18sqlrustgo_executor14pipeline_traceNtB2_13OperatorTrace10build_tree
FN:73,_RNvMNtCs4qFySXYcYQq_18sqlrustgo_executor14pipeline_traceNtB2_13OperatorTrace11record_rows
FN:55,_RNvMNtCs4qFySXYcYQq_18sqlrustgo_executor14pipeline_traceNtB2_13OperatorTrace11with_parent
FN:81,_RNvMNtCs4qFySXYcYQq_18sqlrustgo_executor14pipeline_traceNtB2_13OperatorTrace12add_metadata
FN:77,_RNvMNtCs4qFySXYcYQq_18sqlrustgo_executor14pipeline_traceNtB2_13OperatorTrace12record_batch
FN:86,_RNvMNtCs4qFySXYcYQq_18sqlrustgo_executor14pipeline_traceNtB2_13OperatorTrace14to_tree_string
FN:140,_RNvMNtCs4qFySXYcYQq_18sqlrustgo_executor14pipeline_traceNtB2_13OperatorTrace17total_duration_ns
FN:39,_RNvMNtCs4qFySXYcYQq_18sqlrustgo_executor14pipeline_traceNtB2_13OperatorTrace3new
FN:60,_RNvMNtCs4qFySXYcYQq_18sqlrustgo_executor14pipeline_traceNtB2_13OperatorTrace5start
FN:64,_RNvMNtCs4qFySXYcYQq_18sqlrustgo_executor14pipeline_traceNtB2_13OperatorTrace6finish
FN:146,_RNvMNtCs4qFySXYcYQq_18sqlrustgo_executor14pipeline_traceNtB2_13OperatorTrace7to_json
FN:69,_RNvMNtCs4qFySXYcYQq_18sqlrustgo_executor14pipeline_traceNtB2_13OperatorTrace9add_child
FN:311,_RNvMs0_NtCs4qFySXYcYQq_18sqlrustgo_executor14pipeline_traceNtB5_14TraceCollector10get_traces
FN:294,_RNvMs0_NtCs4qFySXYcYQq_18sqlrustgo_executor14pipeline_traceNtB5_14TraceCollector3new
FN:322,_RNvMs0_NtCs4qFySXYcYQq_18sqlrustgo_executor14pipeline_traceNtB5_14TraceCollector5clear
FN:328,_RNvMs0_NtCs4qFySXYcYQq_18sqlrustgo_executor14pipeline_traceNtB5_14TraceCollector6latest
FN:301,_RNvMs0_NtCs4qFySXYcYQq_18sqlrustgo_executor14pipeline_traceNtB5_14TraceCollector6record
FN:315,_RNvMs0_NtCs4qFySXYcYQq_18sqlrustgo_executor14pipeline_traceNtB5_14TraceCollector9get_trace
FN:224,_RNvMs_NtCs4qFySXYcYQq_18sqlrustgo_executor14pipeline_traceNtB4_10QueryTrace15count_operators
FN:270,_RNvMs_NtCs4qFySXYcYQq_18sqlrustgo_executor14pipeline_traceNtB4_10QueryTrace15to_json_compact
FN:233,_RNvMs_NtCs4qFySXYcYQq_18sqlrustgo_executor14pipeline_traceNtB4_10QueryTrace18visualize_pipeline
FN:196,_RNvMs_NtCs4qFySXYcYQq_18sqlrustgo_executor14pipeline_traceNtB4_10QueryTrace3new
FN:213,_RNvMs_NtCs4qFySXYcYQq_18sqlrustgo_executor14pipeline_traceNtB4_10QueryTrace6finish
FN:265,_RNvMs_NtCs4qFySXYcYQq_18sqlrustgo_executor14pipeline_traceNtB4_10QueryTrace7to_json
FN:217,_RNvMs_NtCs4qFySXYcYQq_18sqlrustgo_executor14pipeline_traceNtB4_10QueryTrace8set_root
FN:152,_RNvNtCs4qFySXYcYQq_18sqlrustgo_executor14pipeline_trace11uuid_simple
FN:162,_RNvNtCs4qFySXYcYQq_18sqlrustgo_executor14pipeline_trace15format_duration
FN:276,_RNvNtCs4qFySXYcYQq_18sqlrustgo_executor14pipeline_trace15truncate_string
FNDA:0,_RNCNCNvMs0_NtCsldCax6rooq1_18sqlrustgo_executor14pipeline_traceNtB9_14TraceCollector9get_trace00Bb_
FNDA:0,_RNCNvMNtCsldCax6rooq1_18sqlrustgo_executor14pipeline_traceNtB4_13OperatorTrace17total_duration_ns0B6_
FNDA:0,_RNCNvMs0_NtCsldCax6rooq1_18sqlrustgo_executor14pipeline_traceNtB7_14TraceCollector6latest0B9_
FNDA:0,_RNCNvMs0_NtCsldCax6rooq1_18sqlrustgo_executor14pipeline_traceNtB7_14TraceCollector9get_trace0B9_
FNDA:0,_RNvMNtCsldCax6rooq1_18sqlrustgo_executor14pipeline_traceNtB2_13OperatorTrace11record_rows
FNDA:0,_RNvMNtCsldCax6rooq1_18sqlrustgo_executor14pipeline_traceNtB2_13OperatorTrace11with_parent
FNDA:0,_RNvMNtCsldCax6rooq1_18sqlrustgo_executor14pipeline_traceNtB2_13OperatorTrace12add_metadata
FNDA:0,_RNvMNtCsldCax6rooq1_18sqlrustgo_executor14pipeline_traceNtB2_13OperatorTrace12record_batch
FNDA:0,_RNvMNtCsldCax6rooq1_18sqlrustgo_executor14pipeline_traceNtB2_13OperatorTrace17total_duration_ns
FNDA:0,_RNvMs0_NtCsldCax6rooq1_18sqlrustgo_executor14pipeline_traceNtB5_14TraceCollector5clear
FNDA:0,_RNvMs0_NtCsldCax6rooq1_18sqlrustgo_executor14pipeline_traceNtB5_14TraceCollector6latest
FNDA:0,_RNvMs0_NtCsldCax6rooq1_18sqlrustgo_executor14pipeline_traceNtB5_14TraceCollector9get_trace
FNDA:0,_RNvMs_NtCsldCax6rooq1_18sqlrustgo_executor14pipeline_traceNtB4_10QueryTrace15to_json_compact
FNDA:1,_RNvNtNtCsldCax6rooq1_18sqlrustgo_executor14pipeline_trace5testss_20test_format_duration
FNDA:1,_RNvNtNtCsldCax6rooq1_18sqlrustgo_executor14pipeline_trace5testss_20test_trace_collector
FNDA:1,_RNvNtNtCsldCax6rooq1_18sqlrustgo_executor14pipeline_trace5testss_21test_query_trace_json
FNDA:1,_RNvNtNtCsldCax6rooq1_18sqlrustgo_executor14pipeline_trace5testss_24test_operator_trace_json
FNDA:1,_RNvNtNtCsldCax6rooq1_18sqlrustgo_executor14pipeline_trace5testss_24test_operator_trace_tree
FNDA:1,_RNvNtNtCsldCax6rooq1_18sqlrustgo_executor14pipeline_trace5testss_25test_query_trace_creation
FNDA:1,_RNvNtNtCsldCax6rooq1_18sqlrustgo_executor14pipeline_trace5testss_26test_operator_trace_timing
FNDA:1,_RNvNtNtCsldCax6rooq1_18sqlrustgo_executor14pipeline_trace5testss_28test_operator_trace_creation
FNDA:1,_RNvNtNtCsldCax6rooq1_18sqlrustgo_executor14pipeline_trace5testss_29test_query_trace_pipeline_viz
FNDA:1,_RNvNtNtCsldCax6rooq1_18sqlrustgo_executor14pipeline_trace5testss_31test_trace_collector_max_traces
FNDA:2,_RNCNvMs0_NtCsldCax6rooq1_18sqlrustgo_executor14pipeline_traceNtB7_14TraceCollector10get_traces0B9_
FNDA:1,_RNCNvMs_NtCsldCax6rooq1_18sqlrustgo_executor14pipeline_traceNtB6_10QueryTrace15count_operators0B8_
FNDA:5,_RNvMNtCsldCax6rooq1_18sqlrustgo_executor14pipeline_traceNtB2_13OperatorTrace10build_tree
FNDA:2,_RNvMNtCsldCax6rooq1_18sqlrustgo_executor14pipeline_traceNtB2_13OperatorTrace14to_tree_string
FNDA:18,_RNvMNtCsldCax6rooq1_18sqlrustgo_executor14pipeline_traceNtB2_13OperatorTrace3new
FNDA:1,_RNvMNtCsldCax6rooq1_18sqlrustgo_executor14pipeline_traceNtB2_13OperatorTrace5start
FNDA:1,_RNvMNtCsldCax6rooq1_18sqlrustgo_executor14pipeline_traceNtB2_13OperatorTrace6finish
FNDA:1,_RNvMNtCsldCax6rooq1_18sqlrustgo_executor14pipeline_traceNtB2_13OperatorTrace7to_json
FNDA:3,_RNvMNtCsldCax6rooq1_18sqlrustgo_executor14pipeline_traceNtB2_13OperatorTrace9add_child
FNDA:2,_RNvMs0_NtCsldCax6rooq1_18sqlrustgo_executor14pipeline_traceNtB5_14TraceCollector10get_traces
FNDA:2,_RNvMs0_NtCsldCax6rooq1_18sqlrustgo_executor14pipeline_traceNtB5_14TraceCollector3new
FNDA:7,_RNvMs0_NtCsldCax6rooq1_18sqlrustgo_executor14pipeline_traceNtB5_14TraceCollector6record
FNDA:2,_RNvMs_NtCsldCax6rooq1_18sqlrustgo_executor14pipeline_traceNtB4_10QueryTrace15count_operators
FNDA:1,_RNvMs_NtCsldCax6rooq1_18sqlrustgo_executor14pipeline_traceNtB4_10QueryTrace18visualize_pipeline
FNDA:10,_RNvMs_NtCsldCax6rooq1_18sqlrustgo_executor14pipeline_traceNtB4_10QueryTrace3new
FNDA:1,_RNvMs_NtCsldCax6rooq1_18sqlrustgo_executor14pipeline_traceNtB4_10QueryTrace6finish
FNDA:1,_RNvMs_NtCsldCax6rooq1_18sqlrustgo_executor14pipeline_traceNtB4_10QueryTrace7to_json
FNDA:1,_RNvMs_NtCsldCax6rooq1_18sqlrustgo_executor14pipeline_traceNtB4_10QueryTrace8set_root
FNDA:28,_RNvNtCsldCax6rooq1_18sqlrustgo_executor14pipeline_trace11uuid_simple
FNDA:10,_RNvNtCsldCax6rooq1_18sqlrustgo_executor14pipeline_trace15format_duration
FNDA:1,_RNvNtCsldCax6rooq1_18sqlrustgo_executor14pipeline_trace15truncate_string
FNDA:0,_RNCNCNvMs0_NtCs4qFySXYcYQq_18sqlrustgo_executor14pipeline_traceNtB9_14TraceCollector9get_trace00Bb_
FNDA:0,_RNCNvMNtCs4qFySXYcYQq_18sqlrustgo_executor14pipeline_traceNtB4_13OperatorTrace17total_duration_ns0B6_
FNDA:0,_RNCNvMs0_NtCs4qFySXYcYQq_18sqlrustgo_executor14pipeline_traceNtB7_14TraceCollector10get_traces0B9_
FNDA:0,_RNCNvMs0_NtCs4qFySXYcYQq_18sqlrustgo_executor14pipeline_traceNtB7_14TraceCollector6latest0B9_
FNDA:0,_RNCNvMs0_NtCs4qFySXYcYQq_18sqlrustgo_executor14pipeline_traceNtB7_14TraceCollector9get_trace0B9_
FNDA:0,_RNCNvMs_NtCs4qFySXYcYQq_18sqlrustgo_executor14pipeline_traceNtB6_10QueryTrace15count_operators0B8_
FNDA:0,_RNvMNtCs4qFySXYcYQq_18sqlrustgo_executor14pipeline_traceNtB2_13OperatorTrace10build_tree
FNDA:0,_RNvMNtCs4qFySXYcYQq_18sqlrustgo_executor14pipeline_traceNtB2_13OperatorTrace11record_rows
FNDA:0,_RNvMNtCs4qFySXYcYQq_18sqlrustgo_executor14pipeline_traceNtB2_13OperatorTrace11with_parent
FNDA:0,_RNvMNtCs4qFySXYcYQq_18sqlrustgo_executor14pipeline_traceNtB2_13OperatorTrace12add_metadata
FNDA:0,_RNvMNtCs4qFySXYcYQq_18sqlrustgo_executor14pipeline_traceNtB2_13OperatorTrace12record_batch
FNDA:0,_RNvMNtCs4qFySXYcYQq_18sqlrustgo_executor14pipeline_traceNtB2_13OperatorTrace14to_tree_string
FNDA:0,_RNvMNtCs4qFySXYcYQq_18sqlrustgo_executor14pipeline_traceNtB2_13OperatorTrace17total_duration_ns
FNDA:0,_RNvMNtCs4qFySXYcYQq_18sqlrustgo_executor14pipeline_traceNtB2_13OperatorTrace3new
FNDA:0,_RNvMNtCs4qFySXYcYQq_18sqlrustgo_executor14pipeline_traceNtB2_13OperatorTrace5start
FNDA:0,_RNvMNtCs4qFySXYcYQq_18sqlrustgo_executor14pipeline_traceNtB2_13OperatorTrace6finish
FNDA:0,_RNvMNtCs4qFySXYcYQq_18sqlrustgo_executor14pipeline_traceNtB2_13OperatorTrace7to_json
FNDA:0,_RNvMNtCs4qFySXYcYQq_18sqlrustgo_executor14pipeline_traceNtB2_13OperatorTrace9add_child
FNDA:0,_RNvMs0_NtCs4qFySXYcYQq_18sqlrustgo_executor14pipeline_traceNtB5_14TraceCollector10get_traces
FNDA:0,_RNvMs0_NtCs4qFySXYcYQq_18sqlrustgo_executor14pipeline_traceNtB5_14TraceCollector3new
FNDA:0,_RNvMs0_NtCs4qFySXYcYQq_18sqlrustgo_executor14pipeline_traceNtB5_14TraceCollector5clear
FNDA:0,_RNvMs0_NtCs4qFySXYcYQq_18sqlrustgo_executor14pipeline_traceNtB5_14TraceCollector6latest
FNDA:0,_RNvMs0_NtCs4qFySXYcYQq_18sqlrustgo_executor14pipeline_traceNtB5_14TraceCollector6record
FNDA:0,_RNvMs0_NtCs4qFySXYcYQq_18sqlrustgo_executor14pipeline_traceNtB5_14TraceCollector9get_trace
FNDA:0,_RNvMs_NtCs4qFySXYcYQq_18sqlrustgo_executor14pipeline_traceNtB4_10QueryTrace15count_operators
FNDA:0,_RNvMs_NtCs4qFySXYcYQq_18sqlrustgo_executor14pipeline_traceNtB4_10QueryTrace15to_json_compact
FNDA:0,_RNvMs_NtCs4qFySXYcYQq_18sqlrustgo_executor14pipeline_traceNtB4_10QueryTrace18visualize_pipeline
FNDA:0,_RNvMs_NtCs4qFySXYcYQq_18sqlrustgo_executor14pipeline_traceNtB4_10QueryTrace3new
FNDA:0,_RNvMs_NtCs4qFySXYcYQq_18sqlrustgo_executor14pipeline_traceNtB4_10QueryTrace6finish
FNDA:0,_RNvMs_NtCs4qFySXYcYQq_18sqlrustgo_executor14pipeline_traceNtB4_10QueryTrace7to_json
FNDA:0,_RNvMs_NtCs4qFySXYcYQq_18sqlrustgo_executor14pipeline_traceNtB4_10QueryTrace8set_root
FNDA:0,_RNvNtCs4qFySXYcYQq_18sqlrustgo_executor14pipeline_trace11uuid_simple
FNDA:0,_RNvNtCs4qFySXYcYQq_18sqlrustgo_executor14pipeline_trace15format_duration
FNDA:0,_RNvNtCs4qFySXYcYQq_18sqlrustgo_executor14pipeline_trace15truncate_string
FNF:44
FNH:31
DA:39,18
DA:40,18
DA:41,18
DA:42,18
DA:43,18
DA:44,18
DA:45,18
DA:46,18
DA:47,18
DA:48,18
DA:49,18
DA:50,18
DA:51,18
DA:52,18
DA:53,18
DA:55,0
DA:56,0
DA:57,0
DA:58,0
DA:60,1
DA:61,1
DA:62,1
DA:64,1
DA:65,1
DA:66,1
DA:67,1
DA:69,3
DA:70,3
DA:71,3
DA:73,0
DA:74,0
DA:75,0
DA:77,0
DA:78,0
DA:79,0
DA:81,0
DA:82,0
DA:83,0
DA:86,2
DA:87,2
DA:88,2
DA:90,5
DA:91,5
DA:94,5
DA:95,2
DA:97,3
DA:98,3
DA:102,5
DA:105,5
DA:108,5
DA:109,5
DA:110,5
DA:111,5
DA:114,5
DA:115,3
DA:118,3
DA:120,0
DA:121,0
DA:122,0
DA:123,0
DA:124,0
DA:125,0
DA:126,0
DA:127,0
DA:128,0
DA:129,0
DA:131,3
DA:133,3
DA:136,5
DA:137,5
DA:140,0
DA:141,0
DA:142,0
DA:143,0
DA:146,1
DA:147,1
DA:148,1
DA:152,28
DA:154,28
DA:155,28
DA:156,28
DA:157,28
DA:158,28
DA:159,28
DA:162,10
DA:163,10
DA:164,6
DA:165,4
DA:166,1
DA:167,3
DA:168,2
DA:170,1
DA:172,10
DA:196,10
DA:197,10
DA:198,10
DA:199,10
DA:201,10
DA:202,10
DA:203,10
DA:204,10
DA:205,10
DA:206,10
DA:207,10
DA:208,10
DA:209,10
DA:210,10
DA:211,10
DA:213,1
DA:214,1
DA:215,1
DA:217,1
DA:218,1
DA:219,1
DA:220,1
DA:221,1
DA:222,1
DA:224,2
DA:225,2
DA:226,2
DA:227,2
DA:228,2
DA:229,2
DA:230,2
DA:233,1
DA:234,1
DA:236,1
DA:237,1
DA:238,1
DA:239,1
DA:240,1
DA:241,1
DA:242,1
DA:243,1
DA:244,1
DA:245,1
DA:246,1
DA:247,1
DA:248,1
DA:249,1
DA:250,1
DA:251,1
DA:252,1
DA:253,1
DA:254,1
DA:255,1
DA:256,1
DA:258,1
DA:259,1
DA:261,1
DA:262,1
DA:265,1
DA:266,1
DA:267,1
DA:270,0
DA:271,0
DA:272,0
DA:276,1
DA:277,1
DA:278,1
DA:280,0
DA:282,1
DA:294,2
DA:295,2
DA:296,2
DA:297,2
DA:298,2
DA:299,2
DA:301,7
DA:302,7
DA:303,7
DA:305,10
DA:306,3
DA:307,3
DA:308,0
DA:309,7
DA:311,2
DA:312,2
DA:313,2
DA:315,0
DA:316,0
DA:317,0
DA:318,0
DA:319,0
DA:320,0
DA:322,0
DA:323,0
DA:324,0
DA:325,0
DA:326,0
DA:328,0
DA:329,0
DA:330,0
DA:343,1
DA:344,1
DA:345,1
DA:346,1
DA:347,1
DA:350,1
DA:351,1
DA:352,1
DA:354,1
DA:355,1
DA:356,1
DA:358,1
DA:359,1
DA:362,1
DA:363,1
DA:364,1
DA:365,1
DA:366,1
DA:367,1
DA:369,1
DA:370,1
DA:372,1
DA:373,1
DA:374,1
DA:375,1
DA:378,1
DA:379,1
DA:380,1
DA:381,1
DA:384,1
DA:385,1
DA:387,1
DA:388,1
DA:389,1
DA:390,1
DA:392,1
DA:393,1
DA:395,1
DA:396,1
DA:397,1
DA:398,1
DA:401,1
DA:402,1
DA:404,1
DA:405,1
DA:407,1
DA:408,1
DA:410,1
DA:411,1
DA:412,1
DA:415,1
DA:416,1
DA:418,5
DA:419,5
DA:420,5
DA:421,5
DA:423,1
DA:424,1
DA:425,1
DA:428,1
DA:429,1
DA:430,1
DA:431,1
DA:432,1
DA:435,1
DA:436,1
DA:437,1
DA:438,1
DA:439,1
DA:442,1
DA:443,1
DA:444,1
DA:445,1
DA:446,1
DA:447,1
BRF:0
BRH:0
LF:274
LH:224
end_of_record
SF:/home/openclaw/dev/yinglichina8848/sqlrustgo/crates/executor/src/query_cache.rs
FN:186,_RNvNtNtCsldCax6rooq1_18sqlrustgo_executor11query_cache5tests10make_entry
FN:179,_RNvNtNtCsldCax6rooq1_18sqlrustgo_executor11query_cache5tests8make_key
FN:206,_RNvNtNtCsldCax6rooq1_18sqlrustgo_executor11query_cache5testss_14test_cache_lru
FN:197,_RNvNtNtCsldCax6rooq1_18sqlrustgo_executor11query_cache5testss_16test_cache_basic
FN:85,_RNvMNtCsldCax6rooq1_18sqlrustgo_executor11query_cacheNtB2_10QueryCache16invalidate_table
FN:96,_RNvMNtCsldCax6rooq1_18sqlrustgo_executor11query_cacheNtB2_10QueryCache5clear
FN:103,_RNvMNtCsldCax6rooq1_18sqlrustgo_executor11query_cacheNtB2_10QueryCache5stats
FN:125,_RNCNvMNtCsldCax6rooq1_18sqlrustgo_executor11query_cacheNtB4_10QueryCache14find_lru_entrys_0B6_
FN:116,_RNvMNtCsldCax6rooq1_18sqlrustgo_executor11query_cacheNtB2_10QueryCache12should_evict
FN:121,_RNvMNtCsldCax6rooq1_18sqlrustgo_executor11query_cacheNtB2_10QueryCache14find_lru_entry
FN:111,_RNvMNtCsldCax6rooq1_18sqlrustgo_executor11query_cacheNtB2_10QueryCache17next_access_order
FN:25,_RNvMNtCsldCax6rooq1_18sqlrustgo_executor11query_cacheNtB2_10QueryCache3get
FN:15,_RNvMNtCsldCax6rooq1_18sqlrustgo_executor11query_cacheNtB2_10QueryCache3new
FN:47,_RNvMNtCsldCax6rooq1_18sqlrustgo_executor11query_cacheNtB2_10QueryCache3put
FN:128,_RNvMNtCsldCax6rooq1_18sqlrustgo_executor11query_cacheNtB2_10QueryCache6remove
FN:142,_RNvNtCsldCax6rooq1_18sqlrustgo_executor11query_cache12should_cache
FN:125,_RNCNvMNtCs4qFySXYcYQq_18sqlrustgo_executor11query_cacheNtB4_10QueryCache14find_lru_entrys_0B6_
FN:116,_RNvMNtCs4qFySXYcYQq_18sqlrustgo_executor11query_cacheNtB2_10QueryCache12should_evict
FN:121,_RNvMNtCs4qFySXYcYQq_18sqlrustgo_executor11query_cacheNtB2_10QueryCache14find_lru_entry
FN:85,_RNvMNtCs4qFySXYcYQq_18sqlrustgo_executor11query_cacheNtB2_10QueryCache16invalidate_table
FN:111,_RNvMNtCs4qFySXYcYQq_18sqlrustgo_executor11query_cacheNtB2_10QueryCache17next_access_order
FN:25,_RNvMNtCs4qFySXYcYQq_18sqlrustgo_executor11query_cacheNtB2_10QueryCache3get
FN:15,_RNvMNtCs4qFySXYcYQq_18sqlrustgo_executor11query_cacheNtB2_10QueryCache3new
FN:47,_RNvMNtCs4qFySXYcYQq_18sqlrustgo_executor11query_cacheNtB2_10QueryCache3put
FN:96,_RNvMNtCs4qFySXYcYQq_18sqlrustgo_executor11query_cacheNtB2_10QueryCache5clear
FN:103,_RNvMNtCs4qFySXYcYQq_18sqlrustgo_executor11query_cacheNtB2_10QueryCache5stats
FN:128,_RNvMNtCs4qFySXYcYQq_18sqlrustgo_executor11query_cacheNtB2_10QueryCache6remove
FN:142,_RNvNtCs4qFySXYcYQq_18sqlrustgo_executor11query_cache12should_cache
FNDA:4,_RNvNtNtCsldCax6rooq1_18sqlrustgo_executor11query_cache5tests10make_entry
FNDA:8,_RNvNtNtCsldCax6rooq1_18sqlrustgo_executor11query_cache5tests8make_key
FNDA:1,_RNvNtNtCsldCax6rooq1_18sqlrustgo_executor11query_cache5testss_14test_cache_lru
FNDA:1,_RNvNtNtCsldCax6rooq1_18sqlrustgo_executor11query_cache5testss_16test_cache_basic
FNDA:0,_RNvMNtCsldCax6rooq1_18sqlrustgo_executor11query_cacheNtB2_10QueryCache16invalidate_table
FNDA:0,_RNvMNtCsldCax6rooq1_18sqlrustgo_executor11query_cacheNtB2_10QueryCache5clear
FNDA:0,_RNvMNtCsldCax6rooq1_18sqlrustgo_executor11query_cacheNtB2_10QueryCache5stats
FNDA:1,_RNCNvMNtCsldCax6rooq1_18sqlrustgo_executor11query_cacheNtB4_10QueryCache14find_lru_entrys_0B6_
FNDA:5,_RNvMNtCsldCax6rooq1_18sqlrustgo_executor11query_cacheNtB2_10QueryCache12should_evict
FNDA:1,_RNvMNtCsldCax6rooq1_18sqlrustgo_executor11query_cacheNtB2_10QueryCache14find_lru_entry
FNDA:8,_RNvMNtCsldCax6rooq1_18sqlrustgo_executor11query_cacheNtB2_10QueryCache17next_access_order
FNDA:4,_RNvMNtCsldCax6rooq1_18sqlrustgo_executor11query_cacheNtB2_10QueryCache3get
FNDA:25,_RNvMNtCsldCax6rooq1_18sqlrustgo_executor11query_cacheNtB2_10QueryCache3new
FNDA:4,_RNvMNtCsldCax6rooq1_18sqlrustgo_executor11query_cacheNtB2_10QueryCache3put
FNDA:1,_RNvMNtCsldCax6rooq1_18sqlrustgo_executor11query_cacheNtB2_10QueryCache6remove
FNDA:0,_RNvNtCsldCax6rooq1_18sqlrustgo_executor11query_cache12should_cache
FNDA:0,_RNCNvMNtCs4qFySXYcYQq_18sqlrustgo_executor11query_cacheNtB4_10QueryCache14find_lru_entrys_0B6_
FNDA:0,_RNvMNtCs4qFySXYcYQq_18sqlrustgo_executor11query_cacheNtB2_10QueryCache12should_evict
FNDA:0,_RNvMNtCs4qFySXYcYQq_18sqlrustgo_executor11query_cacheNtB2_10QueryCache14find_lru_entry
FNDA:0,_RNvMNtCs4qFySXYcYQq_18sqlrustgo_executor11query_cacheNtB2_10QueryCache16invalidate_table
FNDA:0,_RNvMNtCs4qFySXYcYQq_18sqlrustgo_executor11query_cacheNtB2_10QueryCache17next_access_order
FNDA:0,_RNvMNtCs4qFySXYcYQq_18sqlrustgo_executor11query_cacheNtB2_10QueryCache3get
FNDA:0,_RNvMNtCs4qFySXYcYQq_18sqlrustgo_executor11query_cacheNtB2_10QueryCache3new
FNDA:0,_RNvMNtCs4qFySXYcYQq_18sqlrustgo_executor11query_cacheNtB2_10QueryCache3put
FNDA:0,_RNvMNtCs4qFySXYcYQq_18sqlrustgo_executor11query_cacheNtB2_10QueryCache5clear
FNDA:0,_RNvMNtCs4qFySXYcYQq_18sqlrustgo_executor11query_cacheNtB2_10QueryCache5stats
FNDA:0,_RNvMNtCs4qFySXYcYQq_18sqlrustgo_executor11query_cacheNtB2_10QueryCache6remove
FNDA:0,_RNvNtCs4qFySXYcYQq_18sqlrustgo_executor11query_cache12should_cache
FNF:16
FNH:12
DA:15,25
DA:16,25
DA:17,25
DA:18,25
DA:19,25
DA:20,25
DA:21,25
DA:22,25
DA:23,25
DA:25,4
DA:26,4
DA:27,0
DA:28,4
DA:30,4
DA:31,4
DA:33,4
DA:34,4
DA:35,4
DA:36,0
DA:37,0
DA:38,0
DA:39,4
DA:40,4
DA:41,4
DA:44,4
DA:45,4
DA:47,4
DA:48,4
DA:49,0
DA:50,4
DA:52,4
DA:54,4
DA:55,0
DA:56,0
DA:57,0
DA:58,0
DA:59,0
DA:60,0
DA:61,0
DA:63,4
DA:65,5
DA:66,1
DA:67,1
DA:68,1
DA:69,0
DA:73,4
DA:74,4
DA:75,4
DA:77,4
DA:78,0
DA:79,0
DA:80,0
DA:81,0
DA:82,0
DA:83,4
DA:85,0
DA:86,0
DA:87,0
DA:88,0
DA:89,0
DA:90,0
DA:91,0
DA:93,0
DA:94,0
DA:96,0
DA:97,0
DA:98,0
DA:99,0
DA:100,0
DA:101,0
DA:103,0
DA:104,0
DA:105,0
DA:106,0
DA:107,0
DA:108,0
DA:109,0
DA:111,8
DA:112,8
DA:113,8
DA:114,8
DA:116,5
DA:117,5
DA:118,4
DA:119,5
DA:121,1
DA:122,1
DA:123,1
DA:124,1
DA:125,1
DA:126,1
DA:128,1
DA:129,1
DA:130,1
DA:131,1
DA:133,1
DA:134,0
DA:135,0
DA:136,1
DA:142,0
DA:143,0
DA:144,0
DA:145,0
DA:147,0
DA:148,0
DA:149,0
DA:151,0
DA:152,0
DA:153,0
DA:154,0
DA:155,0
DA:156,0
DA:157,0
DA:158,0
DA:161,0
DA:162,0
DA:179,8
DA:180,8
DA:181,8
DA:182,8
DA:183,8
DA:184,8
DA:186,4
DA:187,4
DA:188,4
DA:189,4
DA:190,4
DA:191,4
DA:192,4
DA:193,4
DA:194,4
DA:197,1
DA:198,1
DA:199,1
DA:201,1
DA:202,1
DA:203,1
DA:206,1
DA:207,1
DA:208,1
DA:209,1
DA:210,1
DA:211,1
DA:213,1
DA:214,1
DA:216,1
DA:218,1
DA:220,1
DA:221,1
DA:222,1
BRF:0
BRH:0
LF:151
LH:92
end_of_record
SF:/home/openclaw/dev/yinglichina8848/sqlrustgo/crates/executor/src/query_cache_config.rs
FN:40,_RNvMs_NtCsldCax6rooq1_18sqlrustgo_executor18query_cache_configNtB4_10CacheEntry10is_expired
FN:44,_RNvMs_NtCsldCax6rooq1_18sqlrustgo_executor18query_cache_configNtB4_10CacheEntry13estimate_size
FN:13,_RNvXNtCsldCax6rooq1_18sqlrustgo_executor18query_cache_configNtB2_16QueryCacheConfigNtNtCs8nPosuWgJFh_4core7default7Default7default
FN:40,_RNvMs_NtCs4qFySXYcYQq_18sqlrustgo_executor18query_cache_configNtB4_10CacheEntry10is_expired
FN:44,_RNvMs_NtCs4qFySXYcYQq_18sqlrustgo_executor18query_cache_configNtB4_10CacheEntry13estimate_size
FN:13,_RNvXNtCs4qFySXYcYQq_18sqlrustgo_executor18query_cache_configNtB2_16QueryCacheConfigNtNtCs8nPosuWgJFh_4core7default7Default7default
FNDA:4,_RNvMs_NtCsldCax6rooq1_18sqlrustgo_executor18query_cache_configNtB4_10CacheEntry10is_expired
FNDA:4,_RNvMs_NtCsldCax6rooq1_18sqlrustgo_executor18query_cache_configNtB4_10CacheEntry13estimate_size
FNDA:49,_RNvXNtCsldCax6rooq1_18sqlrustgo_executor18query_cache_configNtB2_16QueryCacheConfigNtNtCs8nPosuWgJFh_4core7default7Default7default
FNDA:0,_RNvMs_NtCs4qFySXYcYQq_18sqlrustgo_executor18query_cache_configNtB4_10CacheEntry10is_expired
FNDA:0,_RNvMs_NtCs4qFySXYcYQq_18sqlrustgo_executor18query_cache_configNtB4_10CacheEntry13estimate_size
FNDA:0,_RNvXNtCs4qFySXYcYQq_18sqlrustgo_executor18query_cache_configNtB2_16QueryCacheConfigNtNtCs8nPosuWgJFh_4core7default7Default7default
FNF:3
FNH:3
DA:13,49
DA:14,49
DA:15,49
DA:16,49
DA:17,49
DA:18,49
DA:19,49
DA:20,49
DA:21,49
DA:40,4
DA:41,4
DA:42,4
DA:44,4
DA:45,4
DA:46,4
DA:47,4
DA:48,4
DA:49,4
DA:51,4
DA:52,4
BRF:0
BRH:0
LF:20
LH:20
end_of_record
SF:/home/openclaw/dev/yinglichina8848/sqlrustgo/crates/executor/src/query_cache_metrics.rs
FN:114,_RNvNtNtCsldCax6rooq1_18sqlrustgo_executor19query_cache_metrics5testss_28test_query_cache_metrics_new
FN:210,_RNvNtNtCsldCax6rooq1_18sqlrustgo_executor19query_cache_metrics5testss_30test_query_cache_metrics_reset
FN:148,_RNvNtNtCsldCax6rooq1_18sqlrustgo_executor19query_cache_metrics5testss_33test_query_cache_metrics_hit_rate
FN:226,_RNvNtNtCsldCax6rooq1_18sqlrustgo_executor19query_cache_metrics5testss_34test_query_cache_metrics_send_sync
FN:178,_RNvNtNtCsldCax6rooq1_18sqlrustgo_executor19query_cache_metrics5testss_35test_query_cache_metrics_get_metric
FN:120,_RNvNtNtCsldCax6rooq1_18sqlrustgo_executor19query_cache_metrics5testss_35test_query_cache_metrics_record_hit
FN:127,_RNvNtNtCsldCax6rooq1_18sqlrustgo_executor19query_cache_metrics5testss_36test_query_cache_metrics_record_miss
FN:134,_RNvNtNtCsldCax6rooq1_18sqlrustgo_executor19query_cache_metrics5testss_40test_query_cache_metrics_record_eviction
FN:199,_RNvNtNtCsldCax6rooq1_18sqlrustgo_executor19query_cache_metrics5testss_41test_query_cache_metrics_get_metric_names
FN:164,_RNvNtNtCsldCax6rooq1_18sqlrustgo_executor19query_cache_metrics5testss_41test_query_cache_metrics_record_cache_hit
FN:171,_RNvNtNtCsldCax6rooq1_18sqlrustgo_executor19query_cache_metrics5testss_42test_query_cache_metrics_record_cache_miss
FN:158,_RNvNtNtCsldCax6rooq1_18sqlrustgo_executor19query_cache_metrics5testss_44test_query_cache_metrics_hit_rate_zero_total
FN:141,_RNvNtNtCsldCax6rooq1_18sqlrustgo_executor19query_cache_metrics5testss_44test_query_cache_metrics_record_invalidation
FN:22,_RNvMNtCsldCax6rooq1_18sqlrustgo_executor19query_cache_metricsNtB2_17QueryCacheMetrics10record_hit
FN:26,_RNvMNtCsldCax6rooq1_18sqlrustgo_executor19query_cache_metricsNtB2_17QueryCacheMetrics11record_miss
FN:30,_RNvMNtCsldCax6rooq1_18sqlrustgo_executor19query_cache_metricsNtB2_17QueryCacheMetrics15record_eviction
FN:34,_RNvMNtCsldCax6rooq1_18sqlrustgo_executor19query_cache_metricsNtB2_17QueryCacheMetrics19record_invalidation
FN:13,_RNvMNtCsldCax6rooq1_18sqlrustgo_executor19query_cache_metricsNtB2_17QueryCacheMetrics3new
FN:39,_RNvMNtCsldCax6rooq1_18sqlrustgo_executor19query_cache_metricsNtB2_17QueryCacheMetrics8hit_rate
FN:76,_RNvXs0_NtCsldCax6rooq1_18sqlrustgo_executor19query_cache_metricsNtB5_17QueryCacheMetricsNtNtCs388HCo0GcAO_16sqlrustgo_common7metrics7Metrics10get_metric
FN:91,_RNvXs0_NtCsldCax6rooq1_18sqlrustgo_executor19query_cache_metricsNtB5_17QueryCacheMetricsNtNtCs388HCo0GcAO_16sqlrustgo_common7metrics7Metrics16get_metric_names
FN:58,_RNvXs0_NtCsldCax6rooq1_18sqlrustgo_executor19query_cache_metricsNtB5_17QueryCacheMetricsNtNtCs388HCo0GcAO_16sqlrustgo_common7metrics7Metrics16record_cache_hit
FN:62,_RNvXs0_NtCsldCax6rooq1_18sqlrustgo_executor19query_cache_metricsNtB5_17QueryCacheMetricsNtNtCs388HCo0GcAO_16sqlrustgo_common7metrics7Metrics17record_cache_miss
FN:101,_RNvXs0_NtCsldCax6rooq1_18sqlrustgo_executor19query_cache_metricsNtB5_17QueryCacheMetricsNtNtCs388HCo0GcAO_16sqlrustgo_common7metrics7Metrics5reset
FN:52,_RNvXs_NtCsldCax6rooq1_18sqlrustgo_executor19query_cache_metricsNtB4_17QueryCacheMetricsNtNtCs8nPosuWgJFh_4core7default7Default7default
FN:68,_RNvXs0_NtCsldCax6rooq1_18sqlrustgo_executor19query_cache_metricsNtB5_17QueryCacheMetricsNtNtCs388HCo0GcAO_16sqlrustgo_common7metrics7Metrics12record_error
FN:66,_RNvXs0_NtCsldCax6rooq1_18sqlrustgo_executor19query_cache_metricsNtB5_17QueryCacheMetricsNtNtCs388HCo0GcAO_16sqlrustgo_common7metrics7Metrics12record_query
FN:72,_RNvXs0_NtCsldCax6rooq1_18sqlrustgo_executor19query_cache_metricsNtB5_17QueryCacheMetricsNtNtCs388HCo0GcAO_16sqlrustgo_common7metrics7Metrics17record_bytes_read
FN:74,_RNvXs0_NtCsldCax6rooq1_18sqlrustgo_executor19query_cache_metricsNtB5_17QueryCacheMetricsNtNtCs388HCo0GcAO_16sqlrustgo_common7metrics7Metrics20record_bytes_written
FN:70,_RNvXs0_NtCsldCax6rooq1_18sqlrustgo_executor19query_cache_metricsNtB5_17QueryCacheMetricsNtNtCs388HCo0GcAO_16sqlrustgo_common7metrics7Metrics22record_error_with_type
FN:227,_RINvNvNtNtCsldCax6rooq1_18sqlrustgo_executor19query_cache_metrics5testss_34test_query_cache_metrics_send_sync16__check_send_syncNtB6_17QueryCacheMetricsEB8_
FNDA:1,_RNvNtNtCsldCax6rooq1_18sqlrustgo_executor19query_cache_metrics5testss_28test_query_cache_metrics_new
FNDA:1,_RNvNtNtCsldCax6rooq1_18sqlrustgo_executor19query_cache_metrics5testss_30test_query_cache_metrics_reset
FNDA:1,_RNvNtNtCsldCax6rooq1_18sqlrustgo_executor19query_cache_metrics5testss_33test_query_cache_metrics_hit_rate
FNDA:1,_RNvNtNtCsldCax6rooq1_18sqlrustgo_executor19query_cache_metrics5testss_34test_query_cache_metrics_send_sync
FNDA:1,_RNvNtNtCsldCax6rooq1_18sqlrustgo_executor19query_cache_metrics5testss_35test_query_cache_metrics_get_metric
FNDA:1,_RNvNtNtCsldCax6rooq1_18sqlrustgo_executor19query_cache_metrics5testss_35test_query_cache_metrics_record_hit
FNDA:1,_RNvNtNtCsldCax6rooq1_18sqlrustgo_executor19query_cache_metrics5testss_36test_query_cache_metrics_record_miss
FNDA:1,_RNvNtNtCsldCax6rooq1_18sqlrustgo_executor19query_cache_metrics5testss_40test_query_cache_metrics_record_eviction
FNDA:1,_RNvNtNtCsldCax6rooq1_18sqlrustgo_executor19query_cache_metrics5testss_41test_query_cache_metrics_get_metric_names
FNDA:1,_RNvNtNtCsldCax6rooq1_18sqlrustgo_executor19query_cache_metrics5testss_41test_query_cache_metrics_record_cache_hit
FNDA:1,_RNvNtNtCsldCax6rooq1_18sqlrustgo_executor19query_cache_metrics5testss_42test_query_cache_metrics_record_cache_miss
FNDA:1,_RNvNtNtCsldCax6rooq1_18sqlrustgo_executor19query_cache_metrics5testss_44test_query_cache_metrics_hit_rate_zero_total
FNDA:1,_RNvNtNtCsldCax6rooq1_18sqlrustgo_executor19query_cache_metrics5testss_44test_query_cache_metrics_record_invalidation
FNDA:7,_RNvMNtCsldCax6rooq1_18sqlrustgo_executor19query_cache_metricsNtB2_17QueryCacheMetrics10record_hit
FNDA:5,_RNvMNtCsldCax6rooq1_18sqlrustgo_executor19query_cache_metricsNtB2_17QueryCacheMetrics11record_miss
FNDA:2,_RNvMNtCsldCax6rooq1_18sqlrustgo_executor19query_cache_metricsNtB2_17QueryCacheMetrics15record_eviction
FNDA:2,_RNvMNtCsldCax6rooq1_18sqlrustgo_executor19query_cache_metricsNtB2_17QueryCacheMetrics19record_invalidation
FNDA:13,_RNvMNtCsldCax6rooq1_18sqlrustgo_executor19query_cache_metricsNtB2_17QueryCacheMetrics3new
FNDA:4,_RNvMNtCsldCax6rooq1_18sqlrustgo_executor19query_cache_metricsNtB2_17QueryCacheMetrics8hit_rate
FNDA:4,_RNvXs0_NtCsldCax6rooq1_18sqlrustgo_executor19query_cache_metricsNtB5_17QueryCacheMetricsNtNtCs388HCo0GcAO_16sqlrustgo_common7metrics7Metrics10get_metric
FNDA:1,_RNvXs0_NtCsldCax6rooq1_18sqlrustgo_executor19query_cache_metricsNtB5_17QueryCacheMetricsNtNtCs388HCo0GcAO_16sqlrustgo_common7metrics7Metrics16get_metric_names
FNDA:1,_RNvXs0_NtCsldCax6rooq1_18sqlrustgo_executor19query_cache_metricsNtB5_17QueryCacheMetricsNtNtCs388HCo0GcAO_16sqlrustgo_common7metrics7Metrics16record_cache_hit
FNDA:1,_RNvXs0_NtCsldCax6rooq1_18sqlrustgo_executor19query_cache_metricsNtB5_17QueryCacheMetricsNtNtCs388HCo0GcAO_16sqlrustgo_common7metrics7Metrics17record_cache_miss
FNDA:1,_RNvXs0_NtCsldCax6rooq1_18sqlrustgo_executor19query_cache_metricsNtB5_17QueryCacheMetricsNtNtCs388HCo0GcAO_16sqlrustgo_common7metrics7Metrics5reset
FNDA:1,_RNvXs_NtCsldCax6rooq1_18sqlrustgo_executor19query_cache_metricsNtB4_17QueryCacheMetricsNtNtCs8nPosuWgJFh_4core7default7Default7default
FNDA:0,_RNvXs0_NtCsldCax6rooq1_18sqlrustgo_executor19query_cache_metricsNtB5_17QueryCacheMetricsNtNtCs388HCo0GcAO_16sqlrustgo_common7metrics7Metrics12record_error
FNDA:0,_RNvXs0_NtCsldCax6rooq1_18sqlrustgo_executor19query_cache_metricsNtB5_17QueryCacheMetricsNtNtCs388HCo0GcAO_16sqlrustgo_common7metrics7Metrics12record_query
FNDA:0,_RNvXs0_NtCsldCax6rooq1_18sqlrustgo_executor19query_cache_metricsNtB5_17QueryCacheMetricsNtNtCs388HCo0GcAO_16sqlrustgo_common7metrics7Metrics17record_bytes_read
FNDA:0,_RNvXs0_NtCsldCax6rooq1_18sqlrustgo_executor19query_cache_metricsNtB5_17QueryCacheMetricsNtNtCs388HCo0GcAO_16sqlrustgo_common7metrics7Metrics20record_bytes_written
FNDA:0,_RNvXs0_NtCsldCax6rooq1_18sqlrustgo_executor19query_cache_metricsNtB5_17QueryCacheMetricsNtNtCs388HCo0GcAO_16sqlrustgo_common7metrics7Metrics22record_error_with_type
FNDA:1,_RINvNvNtNtCsldCax6rooq1_18sqlrustgo_executor19query_cache_metrics5testss_34test_query_cache_metrics_send_sync16__check_send_syncNtB6_17QueryCacheMetricsEB8_
FNF:31
FNH:26
DA:13,13
DA:14,13
DA:15,13
DA:16,13
DA:17,13
DA:18,13
DA:19,13
DA:20,13
DA:22,7
DA:23,7
DA:24,7
DA:26,5
DA:27,5
DA:28,5
DA:30,2
DA:31,2
DA:32,2
DA:34,2
DA:35,2
DA:36,2
DA:37,2
DA:39,4
DA:40,4
DA:41,4
DA:42,4
DA:43,4
DA:44,2
DA:46,2
DA:48,4
DA:52,1
DA:53,1
DA:54,1
DA:58,1
DA:59,1
DA:60,1
DA:62,1
DA:63,1
DA:64,1
DA:66,0
DA:68,0
DA:70,0
DA:72,0
DA:74,0
DA:76,4
DA:77,4
DA:78,4
DA:79,3
DA:80,2
DA:81,0
DA:83,2
DA:84,0
DA:85,0
DA:86,2
DA:87,1
DA:89,4
DA:91,1
DA:92,1
DA:93,1
DA:94,1
DA:95,1
DA:96,1
DA:97,1
DA:99,1
DA:101,1
DA:102,1
DA:103,1
DA:104,1
DA:105,1
DA:106,1
DA:114,1
DA:115,1
DA:116,1
DA:117,1
DA:120,1
DA:121,1
DA:122,1
DA:123,1
DA:124,1
DA:127,1
DA:128,1
DA:129,1
DA:130,1
DA:131,1
DA:134,1
DA:135,1
DA:136,1
DA:137,1
DA:138,1
DA:141,1
DA:142,1
DA:143,1
DA:144,1
DA:145,1
DA:148,1
DA:149,1
DA:150,1
DA:151,1
DA:152,1
DA:153,1
DA:154,1
DA:155,1
DA:158,1
DA:159,1
DA:160,1
DA:161,1
DA:164,1
DA:165,1
DA:166,1
DA:167,1
DA:168,1
DA:171,1
DA:172,1
DA:173,1
DA:174,1
DA:175,1
DA:178,1
DA:179,1
DA:180,1
DA:181,1
DA:183,1
DA:184,1
DA:187,1
DA:188,1
DA:191,1
DA:192,1
DA:195,1
DA:196,1
DA:199,1
DA:200,1
DA:201,1
DA:202,1
DA:203,1
DA:204,1
DA:205,1
DA:206,1
DA:207,1
DA:210,1
DA:211,1
DA:212,1
DA:213,1
DA:214,1
DA:215,1
DA:217,1
DA:219,1
DA:220,1
DA:221,1
DA:222,1
DA:223,1
DA:226,1
DA:227,1
DA:228,1
DA:229,1
BRF:0
BRH:0
LF:152
LH:144
end_of_record
SF:/home/openclaw/dev/yinglichina8848/sqlrustgo/crates/executor/src/reusable_vec.rs
FN:253,_RNvMs3_NtCsldCax6rooq1_18sqlrustgo_executor12reusable_vecNtB5_26ThreadLocalExecutorVecPool3new
FN:289,_RNvMs3_NtCsldCax6rooq1_18sqlrustgo_executor12reusable_vecNtB5_26ThreadLocalExecutorVecPool5resetB7_
FN:278,_RNvMs3_NtCsldCax6rooq1_18sqlrustgo_executor12reusable_vecNtB5_26ThreadLocalExecutorVecPool9clear_allB7_
FN:363,_RNvNtCsldCax6rooq1_18sqlrustgo_executor12reusable_vec23clear_thread_local_pool
FN:373,_RNvNtCsldCax6rooq1_18sqlrustgo_executor12reusable_vec23reset_thread_local_pool
FN:301,_RNvMs3_NtCsldCax6rooq1_18sqlrustgo_executor12reusable_vecNtB5_26ThreadLocalExecutorVecPool11return_rowsB7_
FN:307,_RNvMs3_NtCsldCax6rooq1_18sqlrustgo_executor12reusable_vecNtB5_26ThreadLocalExecutorVecPool12take_indicesB7_
FN:313,_RNvMs3_NtCsldCax6rooq1_18sqlrustgo_executor12reusable_vecNtB5_26ThreadLocalExecutorVecPool14return_indicesB7_
FN:265,_RNvMs3_NtCsldCax6rooq1_18sqlrustgo_executor12reusable_vecNtB5_26ThreadLocalExecutorVecPool17with_row_capacity
FN:295,_RNvMs3_NtCsldCax6rooq1_18sqlrustgo_executor12reusable_vecNtB5_26ThreadLocalExecutorVecPool9take_rowsB7_
FN:218,_RNvXININtCsldCax6rooq1_18sqlrustgo_executor12reusable_vecs2_0pEINtB5_11ReusableVecpENtNtCs8nPosuWgJFh_4core3fmt5Debug3fmtB7_
FN:195,_RNvXININtCsldCax6rooq1_18sqlrustgo_executor12reusable_vecs_0pEINtB5_11ReusableVecpENtNtCs8nPosuWgJFh_4core7default7Default7defaultB7_
FN:319,_RNvXs4_NtCsldCax6rooq1_18sqlrustgo_executor12reusable_vecNtB5_26ThreadLocalExecutorVecPoolNtNtCs8nPosuWgJFh_4core7default7Default7default
FN:108,_RINvMNtCsldCax6rooq1_18sqlrustgo_executor12reusable_vecINtB3_11ReusableVeclE6extendINtNtCsj0gLuUEfogP_5alloc3vec3VeclEEB5_
FN:347,_RINvNtCsldCax6rooq1_18sqlrustgo_executor12reusable_vec22with_thread_local_poolNCNvNtB2_5testss_19test_pool_clear_all0uEB4_
FN:347,_RINvNtCsldCax6rooq1_18sqlrustgo_executor12reusable_vec22with_thread_local_poolNCNvNtB2_5testss_22test_thread_local_pool0uEB4_
FN:347,_RINvNtCsldCax6rooq1_18sqlrustgo_executor12reusable_vec22with_thread_local_poolNCNvNtB2_5testss_22test_thread_local_pools_0uEB4_
FN:347,_RINvNtCsldCax6rooq1_18sqlrustgo_executor12reusable_vec22with_thread_local_poolNCNvNtB2_5testss_41test_thread_local_pool_preserves_capacity0uEB4_
FN:347,_RINvNtCsldCax6rooq1_18sqlrustgo_executor12reusable_vec22with_thread_local_poolNCNvNtB2_5testss_42test_thread_local_pool_multiple_operations0uEB4_
FN:351,_RNCINvNtCsldCax6rooq1_18sqlrustgo_executor12reusable_vec22with_thread_local_poolNCNvNtB4_5testss_19test_pool_clear_all0uE0B6_
FN:351,_RNCINvNtCsldCax6rooq1_18sqlrustgo_executor12reusable_vec22with_thread_local_poolNCNvNtB4_5testss_22test_thread_local_pool0uE0B6_
FN:351,_RNCINvNtCsldCax6rooq1_18sqlrustgo_executor12reusable_vec22with_thread_local_poolNCNvNtB4_5testss_22test_thread_local_pools_0uE0B6_
FN:351,_RNCINvNtCsldCax6rooq1_18sqlrustgo_executor12reusable_vec22with_thread_local_poolNCNvNtB4_5testss_41test_thread_local_pool_preserves_capacity0uE0B6_
FN:351,_RNCINvNtCsldCax6rooq1_18sqlrustgo_executor12reusable_vec22with_thread_local_poolNCNvNtB4_5testss_42test_thread_local_pool_multiple_operations0uE0B6_
FN:364,_RNCNvNtCsldCax6rooq1_18sqlrustgo_executor12reusable_vec23clear_thread_local_pool0B5_
FN:70,_RNvMNtCsldCax6rooq1_18sqlrustgo_executor12reusable_vecINtB2_11ReusableVecINtNtCsj0gLuUEfogP_5alloc3vec3VecNtNtCs3IabHiFbGA9_15sqlrustgo_types5value5ValueEE13with_capacityB4_
FN:84,_RNvMNtCsldCax6rooq1_18sqlrustgo_executor12reusable_vecINtB2_11ReusableVecINtNtCsj0gLuUEfogP_5alloc3vec3VecNtNtCs3IabHiFbGA9_15sqlrustgo_types5value5ValueEE3lenB4_
FN:102,_RNvMNtCsldCax6rooq1_18sqlrustgo_executor12reusable_vecINtB2_11ReusableVecINtNtCsj0gLuUEfogP_5alloc3vec3VecNtNtCs3IabHiFbGA9_15sqlrustgo_types5value5ValueEE4pushB4_
FN:78,_RNvMNtCsldCax6rooq1_18sqlrustgo_executor12reusable_vecINtB2_11ReusableVecINtNtCsj0gLuUEfogP_5alloc3vec3VecNtNtCs3IabHiFbGA9_15sqlrustgo_types5value5ValueEE5clearB4_
FN:96,_RNvMNtCsldCax6rooq1_18sqlrustgo_executor12reusable_vecINtB2_11ReusableVecINtNtCsj0gLuUEfogP_5alloc3vec3VecNtNtCs3IabHiFbGA9_15sqlrustgo_types5value5ValueEE8capacityB4_
FN:90,_RNvMNtCsldCax6rooq1_18sqlrustgo_executor12reusable_vecINtB2_11ReusableVecINtNtCsj0gLuUEfogP_5alloc3vec3VecNtNtCs3IabHiFbGA9_15sqlrustgo_types5value5ValueEE8is_emptyB4_
FN:70,_RNvMNtCsldCax6rooq1_18sqlrustgo_executor12reusable_vecINtB2_11ReusableVecNtNtCs3IabHiFbGA9_15sqlrustgo_types5value5ValueE13with_capacityB4_
FN:84,_RNvMNtCsldCax6rooq1_18sqlrustgo_executor12reusable_vecINtB2_11ReusableVecNtNtCs3IabHiFbGA9_15sqlrustgo_types5value5ValueE3lenB4_
FN:65,_RNvMNtCsldCax6rooq1_18sqlrustgo_executor12reusable_vecINtB2_11ReusableVecNtNtCs3IabHiFbGA9_15sqlrustgo_types5value5ValueE3newB4_
FN:102,_RNvMNtCsldCax6rooq1_18sqlrustgo_executor12reusable_vecINtB2_11ReusableVecNtNtCs3IabHiFbGA9_15sqlrustgo_types5value5ValueE4pushB4_
FN:78,_RNvMNtCsldCax6rooq1_18sqlrustgo_executor12reusable_vecINtB2_11ReusableVecNtNtCs3IabHiFbGA9_15sqlrustgo_types5value5ValueE5clearB4_
FN:70,_RNvMNtCsldCax6rooq1_18sqlrustgo_executor12reusable_vecINtB2_11ReusableVecbE13with_capacityB4_
FN:78,_RNvMNtCsldCax6rooq1_18sqlrustgo_executor12reusable_vecINtB2_11ReusableVecbE5clearB4_
FN:162,_RNvMNtCsldCax6rooq1_18sqlrustgo_executor12reusable_vecINtB2_11ReusableVeclE12as_mut_sliceB4_
FN:70,_RNvMNtCsldCax6rooq1_18sqlrustgo_executor12reusable_vecINtB2_11ReusableVeclE13with_capacityB4_
FN:114,_RNvMNtCsldCax6rooq1_18sqlrustgo_executor12reusable_vecINtB2_11ReusableVeclE3getB4_
FN:84,_RNvMNtCsldCax6rooq1_18sqlrustgo_executor12reusable_vecINtB2_11ReusableVeclE3lenB4_
FN:65,_RNvMNtCsldCax6rooq1_18sqlrustgo_executor12reusable_vecINtB2_11ReusableVeclE3newB4_
FN:126,_RNvMNtCsldCax6rooq1_18sqlrustgo_executor12reusable_vecINtB2_11ReusableVeclE4iterB4_
FN:102,_RNvMNtCsldCax6rooq1_18sqlrustgo_executor12reusable_vecINtB2_11ReusableVeclE4pushB4_
FN:150,_RNvMNtCsldCax6rooq1_18sqlrustgo_executor12reusable_vecINtB2_11ReusableVeclE4takeB4_
FN:78,_RNvMNtCsldCax6rooq1_18sqlrustgo_executor12reusable_vecINtB2_11ReusableVeclE5clearB4_
FN:138,_RNvMNtCsldCax6rooq1_18sqlrustgo_executor12reusable_vecINtB2_11ReusableVeclE5drainB4_
FN:144,_RNvMNtCsldCax6rooq1_18sqlrustgo_executor12reusable_vecINtB2_11ReusableVeclE5resetB4_
FN:168,_RNvMNtCsldCax6rooq1_18sqlrustgo_executor12reusable_vecINtB2_11ReusableVeclE6appendB4_
FN:180,_RNvMNtCsldCax6rooq1_18sqlrustgo_executor12reusable_vecINtB2_11ReusableVeclE6resizeB4_
FN:120,_RNvMNtCsldCax6rooq1_18sqlrustgo_executor12reusable_vecINtB2_11ReusableVeclE7get_mutB4_
FN:174,_RNvMNtCsldCax6rooq1_18sqlrustgo_executor12reusable_vecINtB2_11ReusableVeclE7reserveB4_
FN:156,_RNvMNtCsldCax6rooq1_18sqlrustgo_executor12reusable_vecINtB2_11ReusableVeclE8as_sliceB4_
FN:96,_RNvMNtCsldCax6rooq1_18sqlrustgo_executor12reusable_vecINtB2_11ReusableVeclE8capacityB4_
FN:90,_RNvMNtCsldCax6rooq1_18sqlrustgo_executor12reusable_vecINtB2_11ReusableVeclE8is_emptyB4_
FN:132,_RNvMNtCsldCax6rooq1_18sqlrustgo_executor12reusable_vecINtB2_11ReusableVeclE8iter_mutB4_
FN:189,_RNvMNtCsldCax6rooq1_18sqlrustgo_executor12reusable_vecINtB2_11ReusableVeclE8truncateB4_
FN:70,_RNvMNtCsldCax6rooq1_18sqlrustgo_executor12reusable_vecINtB2_11ReusableVecmE13with_capacityB4_
FN:84,_RNvMNtCsldCax6rooq1_18sqlrustgo_executor12reusable_vecINtB2_11ReusableVecmE3lenB4_
FN:102,_RNvMNtCsldCax6rooq1_18sqlrustgo_executor12reusable_vecINtB2_11ReusableVecmE4pushB4_
FN:78,_RNvMNtCsldCax6rooq1_18sqlrustgo_executor12reusable_vecINtB2_11ReusableVecmE5clearB4_
FN:90,_RNvMNtCsldCax6rooq1_18sqlrustgo_executor12reusable_vecINtB2_11ReusableVecmE8is_emptyB4_
FN:203,_RNvXs0_NtCsldCax6rooq1_18sqlrustgo_executor12reusable_vecINtB5_11ReusableVeclENtNtNtCs8nPosuWgJFh_4core3ops5deref5Deref5derefB7_
FN:209,_RNvXs1_NtCsldCax6rooq1_18sqlrustgo_executor12reusable_vecINtB5_11ReusableVeclENtNtNtCs8nPosuWgJFh_4core3ops5deref8DerefMut9deref_mutB7_
FN:439,_RNCNvNtNtCsldCax6rooq1_18sqlrustgo_executor12reusable_vec5testss_19test_pool_clear_all0B7_
FN:426,_RNCNvNtNtCsldCax6rooq1_18sqlrustgo_executor12reusable_vec5testss_22test_thread_local_pool0B7_
FN:432,_RNCNvNtNtCsldCax6rooq1_18sqlrustgo_executor12reusable_vec5testss_22test_thread_local_pools_0B7_
FN:740,_RNCNvNtNtCsldCax6rooq1_18sqlrustgo_executor12reusable_vec5testss_24test_reusable_vec_retain0B7_
FN:770,_RNCNvNtNtCsldCax6rooq1_18sqlrustgo_executor12reusable_vec5testss_41test_thread_local_pool_preserves_capacity0B7_
FN:757,_RNCNvNtNtCsldCax6rooq1_18sqlrustgo_executor12reusable_vec5testss_42test_thread_local_pool_multiple_operations0B7_
FN:438,_RNvNtNtCsldCax6rooq1_18sqlrustgo_executor12reusable_vec5testss_19test_pool_clear_all
FN:457,_RNvNtNtCsldCax6rooq1_18sqlrustgo_executor12reusable_vec5testss_21test_reusable_vec_get
FN:606,_RNvNtNtCsldCax6rooq1_18sqlrustgo_executor12reusable_vec5testss_21test_reusable_vec_pop
FN:481,_RNvNtNtCsldCax6rooq1_18sqlrustgo_executor12reusable_vec5testss_22test_reusable_vec_iter
FN:623,_RNvNtNtCsldCax6rooq1_18sqlrustgo_executor12reusable_vec5testss_22test_reusable_vec_last
FN:673,_RNvNtNtCsldCax6rooq1_18sqlrustgo_executor12reusable_vec5testss_22test_reusable_vec_sort
FN:415,_RNvNtNtCsldCax6rooq1_18sqlrustgo_executor12reusable_vec5testss_22test_reusable_vec_take
FN:425,_RNvNtNtCsldCax6rooq1_18sqlrustgo_executor12reusable_vec5testss_22test_thread_local_pool
FN:383,_RNvNtNtCsldCax6rooq1_18sqlrustgo_executor12reusable_vec5testss_23test_reusable_vec_basic
FN:393,_RNvNtNtCsldCax6rooq1_18sqlrustgo_executor12reusable_vec5testss_23test_reusable_vec_clear
FN:685,_RNvNtNtCsldCax6rooq1_18sqlrustgo_executor12reusable_vec5testss_23test_reusable_vec_dedup
FN:514,_RNvNtNtCsldCax6rooq1_18sqlrustgo_executor12reusable_vec5testss_23test_reusable_vec_drain
FN:632,_RNvNtNtCsldCax6rooq1_18sqlrustgo_executor12reusable_vec5testss_23test_reusable_vec_first
FN:526,_RNvNtNtCsldCax6rooq1_18sqlrustgo_executor12reusable_vec5testss_23test_reusable_vec_reset
FN:405,_RNvNtNtCsldCax6rooq1_18sqlrustgo_executor12reusable_vec5testss_23test_reusable_vec_reuse
FN:556,_RNvNtNtCsldCax6rooq1_18sqlrustgo_executor12reusable_vec5testss_24test_reusable_vec_append
FN:505,_RNvNtNtCsldCax6rooq1_18sqlrustgo_executor12reusable_vec5testss_24test_reusable_vec_extend
FN:712,_RNvNtNtCsldCax6rooq1_18sqlrustgo_executor12reusable_vec5testss_24test_reusable_vec_insert
FN:722,_RNvNtNtCsldCax6rooq1_18sqlrustgo_executor12reusable_vec5testss_24test_reusable_vec_remove
FN:576,_RNvNtNtCsldCax6rooq1_18sqlrustgo_executor12reusable_vec5testss_24test_reusable_vec_resize
FN:734,_RNvNtNtCsldCax6rooq1_18sqlrustgo_executor12reusable_vec5testss_24test_reusable_vec_retain
FN:470,_RNvNtNtCsldCax6rooq1_18sqlrustgo_executor12reusable_vec5testss_25test_reusable_vec_get_mut
FN:567,_RNvNtNtCsldCax6rooq1_18sqlrustgo_executor12reusable_vec5testss_25test_reusable_vec_reserve
FN:662,_RNvNtNtCsldCax6rooq1_18sqlrustgo_executor12reusable_vec5testss_25test_reusable_vec_reverse
FN:537,_RNvNtNtCsldCax6rooq1_18sqlrustgo_executor12reusable_vec5testss_26test_reusable_vec_as_slice
FN:641,_RNvNtNtCsldCax6rooq1_18sqlrustgo_executor12reusable_vec5testss_26test_reusable_vec_contains
FN:491,_RNvNtNtCsldCax6rooq1_18sqlrustgo_executor12reusable_vec5testss_26test_reusable_vec_iter_mut
FN:586,_RNvNtNtCsldCax6rooq1_18sqlrustgo_executor12reusable_vec5testss_26test_reusable_vec_truncate
FN:616,_RNvNtNtCsldCax6rooq1_18sqlrustgo_executor12reusable_vec5testss_27test_reusable_vec_pop_empty
FN:747,_RNvNtNtCsldCax6rooq1_18sqlrustgo_executor12reusable_vec5testss_28test_reusable_vec_value_type
FN:699,_RNvNtNtCsldCax6rooq1_18sqlrustgo_executor12reusable_vec5testss_29test_reusable_vec_swap_remove
FN:546,_RNvNtNtCsldCax6rooq1_18sqlrustgo_executor12reusable_vec5testss_30test_reusable_vec_as_mut_slice
FN:651,_RNvNtNtCsldCax6rooq1_18sqlrustgo_executor12reusable_vec5testss_31test_reusable_vec_binary_search
FN:449,_RNvNtNtCsldCax6rooq1_18sqlrustgo_executor12reusable_vec5testss_31test_reusable_vec_with_capacity
FN:598,_RNvNtNtCsldCax6rooq1_18sqlrustgo_executor12reusable_vec5testss_33test_reusable_vec_truncate_larger
FN:768,_RNvNtNtCsldCax6rooq1_18sqlrustgo_executor12reusable_vec5testss_41test_thread_local_pool_preserves_capacity
FN:755,_RNvNtNtCsldCax6rooq1_18sqlrustgo_executor12reusable_vec5testss_42test_thread_local_pool_multiple_operations
FN:364,_RNCNvNtCs4qFySXYcYQq_18sqlrustgo_executor12reusable_vec23clear_thread_local_pool0B5_
FN:70,_RNvMNtCs4qFySXYcYQq_18sqlrustgo_executor12reusable_vecINtB2_11ReusableVecINtNtCsj0gLuUEfogP_5alloc3vec3VecNtNtCsl9KCBifXFMJ_15sqlrustgo_types5value5ValueEE13with_capacityB4_
FN:78,_RNvMNtCs4qFySXYcYQq_18sqlrustgo_executor12reusable_vecINtB2_11ReusableVecINtNtCsj0gLuUEfogP_5alloc3vec3VecNtNtCsl9KCBifXFMJ_15sqlrustgo_types5value5ValueEE5clearB4_
FN:70,_RNvMNtCs4qFySXYcYQq_18sqlrustgo_executor12reusable_vecINtB2_11ReusableVecNtNtCsl9KCBifXFMJ_15sqlrustgo_types5value5ValueE13with_capacityB4_
FN:78,_RNvMNtCs4qFySXYcYQq_18sqlrustgo_executor12reusable_vecINtB2_11ReusableVecNtNtCsl9KCBifXFMJ_15sqlrustgo_types5value5ValueE5clearB4_
FN:70,_RNvMNtCs4qFySXYcYQq_18sqlrustgo_executor12reusable_vecINtB2_11ReusableVecbE13with_capacityB4_
FN:78,_RNvMNtCs4qFySXYcYQq_18sqlrustgo_executor12reusable_vecINtB2_11ReusableVecbE5clearB4_
FN:70,_RNvMNtCs4qFySXYcYQq_18sqlrustgo_executor12reusable_vecINtB2_11ReusableVecmE13with_capacityB4_
FN:78,_RNvMNtCs4qFySXYcYQq_18sqlrustgo_executor12reusable_vecINtB2_11ReusableVecmE5clearB4_
FN:265,_RNvMs3_NtCs4qFySXYcYQq_18sqlrustgo_executor12reusable_vecNtB5_26ThreadLocalExecutorVecPool17with_row_capacity
FN:253,_RNvMs3_NtCs4qFySXYcYQq_18sqlrustgo_executor12reusable_vecNtB5_26ThreadLocalExecutorVecPool3new
FN:289,_RNvMs3_NtCs4qFySXYcYQq_18sqlrustgo_executor12reusable_vecNtB5_26ThreadLocalExecutorVecPool5resetB7_
FN:278,_RNvMs3_NtCs4qFySXYcYQq_18sqlrustgo_executor12reusable_vecNtB5_26ThreadLocalExecutorVecPool9clear_allB7_
FN:363,_RNvNtCs4qFySXYcYQq_18sqlrustgo_executor12reusable_vec23clear_thread_local_pool
FN:373,_RNvNtCs4qFySXYcYQq_18sqlrustgo_executor12reusable_vec23reset_thread_local_pool
FN:319,_RNvXs4_NtCs4qFySXYcYQq_18sqlrustgo_executor12reusable_vecNtB5_26ThreadLocalExecutorVecPoolNtNtCs8nPosuWgJFh_4core7default7Default7default
FNDA:4,_RNvMs3_NtCsldCax6rooq1_18sqlrustgo_executor12reusable_vecNtB5_26ThreadLocalExecutorVecPool3new
FNDA:1,_RNvMs3_NtCsldCax6rooq1_18sqlrustgo_executor12reusable_vecNtB5_26ThreadLocalExecutorVecPool5resetB7_
FNDA:3,_RNvMs3_NtCsldCax6rooq1_18sqlrustgo_executor12reusable_vecNtB5_26ThreadLocalExecutorVecPool9clear_allB7_
FNDA:3,_RNvNtCsldCax6rooq1_18sqlrustgo_executor12reusable_vec23clear_thread_local_pool
FNDA:1,_RNvNtCsldCax6rooq1_18sqlrustgo_executor12reusable_vec23reset_thread_local_pool
FNDA:0,_RNvMs3_NtCsldCax6rooq1_18sqlrustgo_executor12reusable_vecNtB5_26ThreadLocalExecutorVecPool11return_rowsB7_
FNDA:0,_RNvMs3_NtCsldCax6rooq1_18sqlrustgo_executor12reusable_vecNtB5_26ThreadLocalExecutorVecPool12take_indicesB7_
FNDA:0,_RNvMs3_NtCsldCax6rooq1_18sqlrustgo_executor12reusable_vecNtB5_26ThreadLocalExecutorVecPool14return_indicesB7_
FNDA:0,_RNvMs3_NtCsldCax6rooq1_18sqlrustgo_executor12reusable_vecNtB5_26ThreadLocalExecutorVecPool17with_row_capacity
FNDA:0,_RNvMs3_NtCsldCax6rooq1_18sqlrustgo_executor12reusable_vecNtB5_26ThreadLocalExecutorVecPool9take_rowsB7_
FNDA:0,_RNvXININtCsldCax6rooq1_18sqlrustgo_executor12reusable_vecs2_0pEINtB5_11ReusableVecpENtNtCs8nPosuWgJFh_4core3fmt5Debug3fmtB7_
FNDA:0,_RNvXININtCsldCax6rooq1_18sqlrustgo_executor12reusable_vecs_0pEINtB5_11ReusableVecpENtNtCs8nPosuWgJFh_4core7default7Default7defaultB7_
FNDA:0,_RNvXs4_NtCsldCax6rooq1_18sqlrustgo_executor12reusable_vecNtB5_26ThreadLocalExecutorVecPoolNtNtCs8nPosuWgJFh_4core7default7Default7default
FNDA:1,_RINvMNtCsldCax6rooq1_18sqlrustgo_executor12reusable_vecINtB3_11ReusableVeclE6extendINtNtCsj0gLuUEfogP_5alloc3vec3VeclEEB5_
FNDA:1,_RINvNtCsldCax6rooq1_18sqlrustgo_executor12reusable_vec22with_thread_local_poolNCNvNtB2_5testss_19test_pool_clear_all0uEB4_
FNDA:1,_RINvNtCsldCax6rooq1_18sqlrustgo_executor12reusable_vec22with_thread_local_poolNCNvNtB2_5testss_22test_thread_local_pool0uEB4_
FNDA:1,_RINvNtCsldCax6rooq1_18sqlrustgo_executor12reusable_vec22with_thread_local_poolNCNvNtB2_5testss_22test_thread_local_pools_0uEB4_
FNDA:1,_RINvNtCsldCax6rooq1_18sqlrustgo_executor12reusable_vec22with_thread_local_poolNCNvNtB2_5testss_41test_thread_local_pool_preserves_capacity0uEB4_
FNDA:1,_RINvNtCsldCax6rooq1_18sqlrustgo_executor12reusable_vec22with_thread_local_poolNCNvNtB2_5testss_42test_thread_local_pool_multiple_operations0uEB4_
FNDA:1,_RNCINvNtCsldCax6rooq1_18sqlrustgo_executor12reusable_vec22with_thread_local_poolNCNvNtB4_5testss_19test_pool_clear_all0uE0B6_
FNDA:1,_RNCINvNtCsldCax6rooq1_18sqlrustgo_executor12reusable_vec22with_thread_local_poolNCNvNtB4_5testss_22test_thread_local_pool0uE0B6_
FNDA:1,_RNCINvNtCsldCax6rooq1_18sqlrustgo_executor12reusable_vec22with_thread_local_poolNCNvNtB4_5testss_22test_thread_local_pools_0uE0B6_
FNDA:1,_RNCINvNtCsldCax6rooq1_18sqlrustgo_executor12reusable_vec22with_thread_local_poolNCNvNtB4_5testss_41test_thread_local_pool_preserves_capacity0uE0B6_
FNDA:1,_RNCINvNtCsldCax6rooq1_18sqlrustgo_executor12reusable_vec22with_thread_local_poolNCNvNtB4_5testss_42test_thread_local_pool_multiple_operations0uE0B6_
FNDA:3,_RNCNvNtCsldCax6rooq1_18sqlrustgo_executor12reusable_vec23clear_thread_local_pool0B5_
FNDA:8,_RNvMNtCsldCax6rooq1_18sqlrustgo_executor12reusable_vecINtB2_11ReusableVecINtNtCsj0gLuUEfogP_5alloc3vec3VecNtNtCs3IabHiFbGA9_15sqlrustgo_types5value5ValueEE13with_capacityB4_
FNDA:2,_RNvMNtCsldCax6rooq1_18sqlrustgo_executor12reusable_vecINtB2_11ReusableVecINtNtCsj0gLuUEfogP_5alloc3vec3VecNtNtCs3IabHiFbGA9_15sqlrustgo_types5value5ValueEE3lenB4_
FNDA:5,_RNvMNtCsldCax6rooq1_18sqlrustgo_executor12reusable_vecINtB2_11ReusableVecINtNtCsj0gLuUEfogP_5alloc3vec3VecNtNtCs3IabHiFbGA9_15sqlrustgo_types5value5ValueEE4pushB4_
FNDA:6,_RNvMNtCsldCax6rooq1_18sqlrustgo_executor12reusable_vecINtB2_11ReusableVecINtNtCsj0gLuUEfogP_5alloc3vec3VecNtNtCs3IabHiFbGA9_15sqlrustgo_types5value5ValueEE5clearB4_
FNDA:2,_RNvMNtCsldCax6rooq1_18sqlrustgo_executor12reusable_vecINtB2_11ReusableVecINtNtCsj0gLuUEfogP_5alloc3vec3VecNtNtCs3IabHiFbGA9_15sqlrustgo_types5value5ValueEE8capacityB4_
FNDA:2,_RNvMNtCsldCax6rooq1_18sqlrustgo_executor12reusable_vecINtB2_11ReusableVecINtNtCsj0gLuUEfogP_5alloc3vec3VecNtNtCs3IabHiFbGA9_15sqlrustgo_types5value5ValueEE8is_emptyB4_
FNDA:8,_RNvMNtCsldCax6rooq1_18sqlrustgo_executor12reusable_vecINtB2_11ReusableVecNtNtCs3IabHiFbGA9_15sqlrustgo_types5value5ValueE13with_capacityB4_
FNDA:1,_RNvMNtCsldCax6rooq1_18sqlrustgo_executor12reusable_vecINtB2_11ReusableVecNtNtCs3IabHiFbGA9_15sqlrustgo_types5value5ValueE3lenB4_
FNDA:1,_RNvMNtCsldCax6rooq1_18sqlrustgo_executor12reusable_vecINtB2_11ReusableVecNtNtCs3IabHiFbGA9_15sqlrustgo_types5value5ValueE3newB4_
FNDA:2,_RNvMNtCsldCax6rooq1_18sqlrustgo_executor12reusable_vecINtB2_11ReusableVecNtNtCs3IabHiFbGA9_15sqlrustgo_types5value5ValueE4pushB4_
FNDA:6,_RNvMNtCsldCax6rooq1_18sqlrustgo_executor12reusable_vecINtB2_11ReusableVecNtNtCs3IabHiFbGA9_15sqlrustgo_types5value5ValueE5clearB4_
FNDA:4,_RNvMNtCsldCax6rooq1_18sqlrustgo_executor12reusable_vecINtB2_11ReusableVecbE13with_capacityB4_
FNDA:3,_RNvMNtCsldCax6rooq1_18sqlrustgo_executor12reusable_vecINtB2_11ReusableVecbE5clearB4_
FNDA:1,_RNvMNtCsldCax6rooq1_18sqlrustgo_executor12reusable_vecINtB2_11ReusableVeclE12as_mut_sliceB4_
FNDA:6,_RNvMNtCsldCax6rooq1_18sqlrustgo_executor12reusable_vecINtB2_11ReusableVeclE13with_capacityB4_
FNDA:29,_RNvMNtCsldCax6rooq1_18sqlrustgo_executor12reusable_vecINtB2_11ReusableVeclE3getB4_
FNDA:15,_RNvMNtCsldCax6rooq1_18sqlrustgo_executor12reusable_vecINtB2_11ReusableVeclE3lenB4_
FNDA:26,_RNvMNtCsldCax6rooq1_18sqlrustgo_executor12reusable_vecINtB2_11ReusableVeclE3newB4_
FNDA:1,_RNvMNtCsldCax6rooq1_18sqlrustgo_executor12reusable_vecINtB2_11ReusableVeclE4iterB4_
FNDA:72,_RNvMNtCsldCax6rooq1_18sqlrustgo_executor12reusable_vecINtB2_11ReusableVeclE4pushB4_
FNDA:1,_RNvMNtCsldCax6rooq1_18sqlrustgo_executor12reusable_vecINtB2_11ReusableVeclE4takeB4_
FNDA:2,_RNvMNtCsldCax6rooq1_18sqlrustgo_executor12reusable_vecINtB2_11ReusableVeclE5clearB4_
FNDA:1,_RNvMNtCsldCax6rooq1_18sqlrustgo_executor12reusable_vecINtB2_11ReusableVeclE5drainB4_
FNDA:1,_RNvMNtCsldCax6rooq1_18sqlrustgo_executor12reusable_vecINtB2_11ReusableVeclE5resetB4_
FNDA:1,_RNvMNtCsldCax6rooq1_18sqlrustgo_executor12reusable_vecINtB2_11ReusableVeclE6appendB4_
FNDA:1,_RNvMNtCsldCax6rooq1_18sqlrustgo_executor12reusable_vecINtB2_11ReusableVeclE6resizeB4_
FNDA:1,_RNvMNtCsldCax6rooq1_18sqlrustgo_executor12reusable_vecINtB2_11ReusableVeclE7get_mutB4_
FNDA:1,_RNvMNtCsldCax6rooq1_18sqlrustgo_executor12reusable_vecINtB2_11ReusableVeclE7reserveB4_
FNDA:1,_RNvMNtCsldCax6rooq1_18sqlrustgo_executor12reusable_vecINtB2_11ReusableVeclE8as_sliceB4_
FNDA:11,_RNvMNtCsldCax6rooq1_18sqlrustgo_executor12reusable_vecINtB2_11ReusableVeclE8capacityB4_
FNDA:5,_RNvMNtCsldCax6rooq1_18sqlrustgo_executor12reusable_vecINtB2_11ReusableVeclE8is_emptyB4_
FNDA:1,_RNvMNtCsldCax6rooq1_18sqlrustgo_executor12reusable_vecINtB2_11ReusableVeclE8iter_mutB4_
FNDA:2,_RNvMNtCsldCax6rooq1_18sqlrustgo_executor12reusable_vecINtB2_11ReusableVeclE8truncateB4_
FNDA:4,_RNvMNtCsldCax6rooq1_18sqlrustgo_executor12reusable_vecINtB2_11ReusableVecmE13with_capacityB4_
FNDA:1,_RNvMNtCsldCax6rooq1_18sqlrustgo_executor12reusable_vecINtB2_11ReusableVecmE3lenB4_
FNDA:3,_RNvMNtCsldCax6rooq1_18sqlrustgo_executor12reusable_vecINtB2_11ReusableVecmE4pushB4_
FNDA:3,_RNvMNtCsldCax6rooq1_18sqlrustgo_executor12reusable_vecINtB2_11ReusableVecmE5clearB4_
FNDA:1,_RNvMNtCsldCax6rooq1_18sqlrustgo_executor12reusable_vecINtB2_11ReusableVecmE8is_emptyB4_
FNDA:8,_RNvXs0_NtCsldCax6rooq1_18sqlrustgo_executor12reusable_vecINtB5_11ReusableVeclENtNtNtCs8nPosuWgJFh_4core3ops5deref5Deref5derefB7_
FNDA:9,_RNvXs1_NtCsldCax6rooq1_18sqlrustgo_executor12reusable_vecINtB5_11ReusableVeclENtNtNtCs8nPosuWgJFh_4core3ops5deref8DerefMut9deref_mutB7_
FNDA:1,_RNCNvNtNtCsldCax6rooq1_18sqlrustgo_executor12reusable_vec5testss_19test_pool_clear_all0B7_
FNDA:1,_RNCNvNtNtCsldCax6rooq1_18sqlrustgo_executor12reusable_vec5testss_22test_thread_local_pool0B7_
FNDA:1,_RNCNvNtNtCsldCax6rooq1_18sqlrustgo_executor12reusable_vec5testss_22test_thread_local_pools_0B7_
FNDA:4,_RNCNvNtNtCsldCax6rooq1_18sqlrustgo_executor12reusable_vec5testss_24test_reusable_vec_retain0B7_
FNDA:1,_RNCNvNtNtCsldCax6rooq1_18sqlrustgo_executor12reusable_vec5testss_41test_thread_local_pool_preserves_capacity0B7_
FNDA:1,_RNCNvNtNtCsldCax6rooq1_18sqlrustgo_executor12reusable_vec5testss_42test_thread_local_pool_multiple_operations0B7_
FNDA:1,_RNvNtNtCsldCax6rooq1_18sqlrustgo_executor12reusable_vec5testss_19test_pool_clear_all
FNDA:1,_RNvNtNtCsldCax6rooq1_18sqlrustgo_executor12reusable_vec5testss_21test_reusable_vec_get
FNDA:1,_RNvNtNtCsldCax6rooq1_18sqlrustgo_executor12reusable_vec5testss_21test_reusable_vec_pop
FNDA:1,_RNvNtNtCsldCax6rooq1_18sqlrustgo_executor12reusable_vec5testss_22test_reusable_vec_iter
FNDA:1,_RNvNtNtCsldCax6rooq1_18sqlrustgo_executor12reusable_vec5testss_22test_reusable_vec_last
FNDA:1,_RNvNtNtCsldCax6rooq1_18sqlrustgo_executor12reusable_vec5testss_22test_reusable_vec_sort
FNDA:1,_RNvNtNtCsldCax6rooq1_18sqlrustgo_executor12reusable_vec5testss_22test_reusable_vec_take
FNDA:1,_RNvNtNtCsldCax6rooq1_18sqlrustgo_executor12reusable_vec5testss_22test_thread_local_pool
FNDA:1,_RNvNtNtCsldCax6rooq1_18sqlrustgo_executor12reusable_vec5testss_23test_reusable_vec_basic
FNDA:1,_RNvNtNtCsldCax6rooq1_18sqlrustgo_executor12reusable_vec5testss_23test_reusable_vec_clear
FNDA:1,_RNvNtNtCsldCax6rooq1_18sqlrustgo_executor12reusable_vec5testss_23test_reusable_vec_dedup
FNDA:1,_RNvNtNtCsldCax6rooq1_18sqlrustgo_executor12reusable_vec5testss_23test_reusable_vec_drain
FNDA:1,_RNvNtNtCsldCax6rooq1_18sqlrustgo_executor12reusable_vec5testss_23test_reusable_vec_first
FNDA:1,_RNvNtNtCsldCax6rooq1_18sqlrustgo_executor12reusable_vec5testss_23test_reusable_vec_reset
FNDA:1,_RNvNtNtCsldCax6rooq1_18sqlrustgo_executor12reusable_vec5testss_23test_reusable_vec_reuse
FNDA:1,_RNvNtNtCsldCax6rooq1_18sqlrustgo_executor12reusable_vec5testss_24test_reusable_vec_append
FNDA:1,_RNvNtNtCsldCax6rooq1_18sqlrustgo_executor12reusable_vec5testss_24test_reusable_vec_extend
FNDA:1,_RNvNtNtCsldCax6rooq1_18sqlrustgo_executor12reusable_vec5testss_24test_reusable_vec_insert
FNDA:1,_RNvNtNtCsldCax6rooq1_18sqlrustgo_executor12reusable_vec5testss_24test_reusable_vec_remove
FNDA:1,_RNvNtNtCsldCax6rooq1_18sqlrustgo_executor12reusable_vec5testss_24test_reusable_vec_resize
FNDA:1,_RNvNtNtCsldCax6rooq1_18sqlrustgo_executor12reusable_vec5testss_24test_reusable_vec_retain
FNDA:1,_RNvNtNtCsldCax6rooq1_18sqlrustgo_executor12reusable_vec5testss_25test_reusable_vec_get_mut
FNDA:1,_RNvNtNtCsldCax6rooq1_18sqlrustgo_executor12reusable_vec5testss_25test_reusable_vec_reserve
FNDA:1,_RNvNtNtCsldCax6rooq1_18sqlrustgo_executor12reusable_vec5testss_25test_reusable_vec_reverse
FNDA:1,_RNvNtNtCsldCax6rooq1_18sqlrustgo_executor12reusable_vec5testss_26test_reusable_vec_as_slice
FNDA:1,_RNvNtNtCsldCax6rooq1_18sqlrustgo_executor12reusable_vec5testss_26test_reusable_vec_contains
FNDA:1,_RNvNtNtCsldCax6rooq1_18sqlrustgo_executor12reusable_vec5testss_26test_reusable_vec_iter_mut
FNDA:1,_RNvNtNtCsldCax6rooq1_18sqlrustgo_executor12reusable_vec5testss_26test_reusable_vec_truncate
FNDA:1,_RNvNtNtCsldCax6rooq1_18sqlrustgo_executor12reusable_vec5testss_27test_reusable_vec_pop_empty
FNDA:1,_RNvNtNtCsldCax6rooq1_18sqlrustgo_executor12reusable_vec5testss_28test_reusable_vec_value_type
FNDA:1,_RNvNtNtCsldCax6rooq1_18sqlrustgo_executor12reusable_vec5testss_29test_reusable_vec_swap_remove
FNDA:1,_RNvNtNtCsldCax6rooq1_18sqlrustgo_executor12reusable_vec5testss_30test_reusable_vec_as_mut_slice
FNDA:1,_RNvNtNtCsldCax6rooq1_18sqlrustgo_executor12reusable_vec5testss_31test_reusable_vec_binary_search
FNDA:1,_RNvNtNtCsldCax6rooq1_18sqlrustgo_executor12reusable_vec5testss_31test_reusable_vec_with_capacity
FNDA:1,_RNvNtNtCsldCax6rooq1_18sqlrustgo_executor12reusable_vec5testss_33test_reusable_vec_truncate_larger
FNDA:1,_RNvNtNtCsldCax6rooq1_18sqlrustgo_executor12reusable_vec5testss_41test_thread_local_pool_preserves_capacity
FNDA:1,_RNvNtNtCsldCax6rooq1_18sqlrustgo_executor12reusable_vec5testss_42test_thread_local_pool_multiple_operations
FNDA:0,_RNCNvNtCs4qFySXYcYQq_18sqlrustgo_executor12reusable_vec23clear_thread_local_pool0B5_
FNDA:0,_RNvMNtCs4qFySXYcYQq_18sqlrustgo_executor12reusable_vecINtB2_11ReusableVecINtNtCsj0gLuUEfogP_5alloc3vec3VecNtNtCsl9KCBifXFMJ_15sqlrustgo_types5value5ValueEE13with_capacityB4_
FNDA:0,_RNvMNtCs4qFySXYcYQq_18sqlrustgo_executor12reusable_vecINtB2_11ReusableVecINtNtCsj0gLuUEfogP_5alloc3vec3VecNtNtCsl9KCBifXFMJ_15sqlrustgo_types5value5ValueEE5clearB4_
FNDA:0,_RNvMNtCs4qFySXYcYQq_18sqlrustgo_executor12reusable_vecINtB2_11ReusableVecNtNtCsl9KCBifXFMJ_15sqlrustgo_types5value5ValueE13with_capacityB4_
FNDA:0,_RNvMNtCs4qFySXYcYQq_18sqlrustgo_executor12reusable_vecINtB2_11ReusableVecNtNtCsl9KCBifXFMJ_15sqlrustgo_types5value5ValueE5clearB4_
FNDA:0,_RNvMNtCs4qFySXYcYQq_18sqlrustgo_executor12reusable_vecINtB2_11ReusableVecbE13with_capacityB4_
FNDA:0,_RNvMNtCs4qFySXYcYQq_18sqlrustgo_executor12reusable_vecINtB2_11ReusableVecbE5clearB4_
FNDA:0,_RNvMNtCs4qFySXYcYQq_18sqlrustgo_executor12reusable_vecINtB2_11ReusableVecmE13with_capacityB4_
FNDA:0,_RNvMNtCs4qFySXYcYQq_18sqlrustgo_executor12reusable_vecINtB2_11ReusableVecmE5clearB4_
FNDA:0,_RNvMs3_NtCs4qFySXYcYQq_18sqlrustgo_executor12reusable_vecNtB5_26ThreadLocalExecutorVecPool17with_row_capacity
FNDA:0,_RNvMs3_NtCs4qFySXYcYQq_18sqlrustgo_executor12reusable_vecNtB5_26ThreadLocalExecutorVecPool3new
FNDA:0,_RNvMs3_NtCs4qFySXYcYQq_18sqlrustgo_executor12reusable_vecNtB5_26ThreadLocalExecutorVecPool5resetB7_
FNDA:0,_RNvMs3_NtCs4qFySXYcYQq_18sqlrustgo_executor12reusable_vecNtB5_26ThreadLocalExecutorVecPool9clear_allB7_
FNDA:0,_RNvNtCs4qFySXYcYQq_18sqlrustgo_executor12reusable_vec23clear_thread_local_pool
FNDA:0,_RNvNtCs4qFySXYcYQq_18sqlrustgo_executor12reusable_vec23reset_thread_local_pool
FNDA:0,_RNvXs4_NtCs4qFySXYcYQq_18sqlrustgo_executor12reusable_vecNtB5_26ThreadLocalExecutorVecPoolNtNtCs8nPosuWgJFh_4core7default7Default7default
FNF:82
FNH:74
DA:65,27
DA:66,27
DA:67,27
DA:70,30
DA:71,30
DA:72,30
DA:73,30
DA:74,30
DA:78,20
DA:79,20
DA:80,20
DA:84,19
DA:85,19
DA:86,19
DA:90,8
DA:91,8
DA:92,8
DA:96,13
DA:97,13
DA:98,13
DA:102,82
DA:103,82
DA:104,82
DA:108,1
DA:109,1
DA:110,1
DA:114,29
DA:115,29
DA:116,29
DA:120,1
DA:121,1
DA:122,1
DA:126,1
DA:127,1
DA:128,1
DA:132,1
DA:133,1
DA:134,1
DA:138,1
DA:139,1
DA:140,1
DA:144,1
DA:145,1
DA:146,1
DA:150,1
DA:151,1
DA:152,1
DA:156,1
DA:157,1
DA:158,1
DA:162,1
DA:163,1
DA:164,1
DA:168,1
DA:169,1
DA:170,1
DA:174,1
DA:175,1
DA:176,1
DA:180,1
DA:181,1
DA:182,1
DA:184,1
DA:185,1
DA:189,2
DA:190,2
DA:191,2
DA:195,0
DA:196,0
DA:197,0
DA:203,8
DA:204,8
DA:205,8
DA:209,9
DA:210,9
DA:211,9
DA:218,0
DA:219,0
DA:220,0
DA:221,0
DA:222,0
DA:223,0
DA:253,4
DA:254,4
DA:255,4
DA:256,4
DA:257,4
DA:258,4
DA:259,4
DA:260,4
DA:261,4
DA:262,4
DA:265,0
DA:266,0
DA:267,0
DA:268,0
DA:269,0
DA:270,0
DA:271,0
DA:272,0
DA:273,0
DA:274,0
DA:278,3
DA:279,3
DA:280,3
DA:281,3
DA:282,3
DA:283,3
DA:284,3
DA:285,3
DA:289,1
DA:290,1
DA:291,1
DA:295,0
DA:296,0
DA:297,0
DA:301,0
DA:302,0
DA:303,0
DA:307,0
DA:308,0
DA:309,0
DA:313,0
DA:314,0
DA:315,0
DA:319,0
DA:320,0
DA:321,0
DA:347,5
DA:348,5
DA:349,5
DA:351,5
DA:352,5
DA:353,5
DA:354,4
DA:355,4
DA:358,5
DA:359,5
DA:360,5
DA:363,3
DA:364,3
DA:365,3
DA:366,3
DA:367,1
DA:368,2
DA:369,3
DA:370,3
DA:373,1
DA:374,1
DA:375,1
DA:383,1
DA:384,1
DA:385,1
DA:386,1
DA:387,1
DA:388,1
DA:389,1
DA:390,1
DA:393,1
DA:394,1
DA:395,1
DA:396,1
DA:397,1
DA:398,1
DA:399,1
DA:400,1
DA:401,1
DA:402,1
DA:405,1
DA:406,1
DA:407,1
DA:408,1
DA:409,1
DA:410,1
DA:411,1
DA:412,1
DA:415,1
DA:416,1
DA:417,1
DA:418,1
DA:419,1
DA:420,1
DA:421,1
DA:422,1
DA:425,1
DA:426,1
DA:427,1
DA:428,1
DA:429,1
DA:431,1
DA:432,1
DA:433,1
DA:434,1
DA:435,1
DA:438,1
DA:439,1
DA:440,1
DA:441,1
DA:442,1
DA:443,1
DA:444,1
DA:445,1
DA:446,1
DA:449,1
DA:450,1
DA:451,1
DA:452,1
DA:453,1
DA:454,1
DA:457,1
DA:458,1
DA:459,1
DA:460,1
DA:461,1
DA:462,1
DA:463,1
DA:464,1
DA:465,1
DA:466,1
DA:467,1
DA:470,1
DA:471,1
DA:472,1
DA:473,1
DA:474,1
DA:475,1
DA:476,1
DA:477,1
DA:478,1
DA:481,1
DA:482,1
DA:483,1
DA:484,1
DA:485,1
DA:486,1
DA:487,1
DA:488,1
DA:491,1
DA:492,1
DA:493,1
DA:494,1
DA:495,1
DA:496,3
DA:497,3
DA:498,3
DA:499,1
DA:500,1
DA:501,1
DA:502,1
DA:505,1
DA:506,1
DA:507,1
DA:508,1
DA:509,1
DA:510,1
DA:511,1
DA:514,1
DA:515,1
DA:516,1
DA:517,1
DA:518,1
DA:519,1
DA:520,1
DA:521,1
DA:522,1
DA:523,1
DA:526,1
DA:527,1
DA:528,1
DA:529,1
DA:530,1
DA:531,1
DA:532,1
DA:533,1
DA:534,1
DA:537,1
DA:538,1
DA:539,1
DA:540,1
DA:541,1
DA:542,1
DA:543,1
DA:546,1
DA:547,1
DA:548,1
DA:549,1
DA:550,1
DA:551,1
DA:552,1
DA:553,1
DA:556,1
DA:557,1
DA:558,1
DA:559,1
DA:560,1
DA:561,1
DA:562,1
DA:563,1
DA:564,1
DA:567,1
DA:568,1
DA:569,1
DA:570,1
DA:571,1
DA:572,1
DA:573,1
DA:576,1
DA:577,1
DA:578,1
DA:579,1
DA:580,1
DA:581,1
DA:582,1
DA:583,1
DA:586,1
DA:587,1
DA:588,1
DA:589,1
DA:590,1
DA:591,1
DA:592,1
DA:593,1
DA:594,1
DA:595,1
DA:598,1
DA:599,1
DA:600,1
DA:601,1
DA:602,1
DA:603,1
DA:606,1
DA:607,1
DA:608,1
DA:609,1
DA:610,1
DA:611,1
DA:612,1
DA:613,1
DA:616,1
DA:617,1
DA:618,1
DA:619,1
DA:620,1
DA:623,1
DA:624,1
DA:625,1
DA:626,1
DA:627,1
DA:628,1
DA:629,1
DA:632,1
DA:633,1
DA:634,1
DA:635,1
DA:636,1
DA:637,1
DA:638,1
DA:641,1
DA:642,1
DA:643,1
DA:644,1
DA:645,1
DA:646,1
DA:647,1
DA:648,1
DA:651,1
DA:652,1
DA:653,1
DA:654,1
DA:655,1
DA:656,1
DA:657,1
DA:658,1
DA:659,1
DA:662,1
DA:663,1
DA:664,1
DA:665,1
DA:666,1
DA:667,1
DA:668,1
DA:669,1
DA:670,1
DA:673,1
DA:674,1
DA:675,1
DA:676,1
DA:677,1
DA:678,1
DA:679,1
DA:680,1
DA:681,1
DA:682,1
DA:685,1
DA:686,1
DA:687,1
DA:688,1
DA:689,1
DA:690,1
DA:691,1
DA:692,1
DA:693,1
DA:694,1
DA:695,1
DA:696,1
DA:699,1
DA:700,1
DA:701,1
DA:702,1
DA:703,1
DA:704,1
DA:705,1
DA:706,1
DA:707,1
DA:708,1
DA:709,1
DA:712,1
DA:713,1
DA:714,1
DA:715,1
DA:716,1
DA:717,1
DA:718,1
DA:719,1
DA:722,1
DA:723,1
DA:724,1
DA:725,1
DA:726,1
DA:727,1
DA:728,1
DA:729,1
DA:730,1
DA:731,1
DA:734,1
DA:735,1
DA:736,1
DA:737,1
DA:738,1
DA:739,1
DA:740,4
DA:741,1
DA:742,1
DA:743,1
DA:744,1
DA:747,1
DA:748,1
DA:749,1
DA:750,1
DA:751,1
DA:752,1
DA:755,1
DA:756,1
DA:757,1
DA:758,1
DA:759,1
DA:760,1
DA:761,1
DA:762,1
DA:763,1
DA:764,1
DA:765,1
DA:768,1
DA:769,1
DA:770,1
DA:771,1
DA:772,1
DA:773,1
DA:774,1
DA:775,1
DA:776,1
BRF:0
BRH:0
LF:479
LH:445
end_of_record
SF:/home/openclaw/dev/yinglichina8848/sqlrustgo/crates/executor/src/scan.rs
FN:21,_RNvXNtCsldCax6rooq1_18sqlrustgo_executor4scanNtB2_9ScanStatsNtNtCs8nPosuWgJFh_4core7default7Default7default
FNDA:0,_RNvXNtCsldCax6rooq1_18sqlrustgo_executor4scanNtB2_9ScanStatsNtNtCs8nPosuWgJFh_4core7default7Default7default
FNF:1
FNH:0
DA:21,0
DA:22,0
DA:23,0
DA:24,0
DA:25,0
DA:26,0
DA:27,0
BRF:0
BRH:0
LF:7
LH:0
end_of_record
SF:/home/openclaw/dev/yinglichina8848/sqlrustgo/crates/executor/src/session_config.rs
FN:107,_RNvNtNtCsldCax6rooq1_18sqlrustgo_executor14session_config5testss_25test_explicit_normal_mode
FN:76,_RNvNtNtCsldCax6rooq1_18sqlrustgo_executor14session_config5testss_27test_teaching_mode_from_env
FN:64,_RNvNtNtCsldCax6rooq1_18sqlrustgo_executor14session_config5testss_28test_benchmark_mode_from_env
FN:98,_RNvNtNtCsldCax6rooq1_18sqlrustgo_executor14session_config5testss_28test_explicit_benchmark_mode
FN:55,_RNvNtNtCsldCax6rooq1_18sqlrustgo_executor14session_config5testss_31test_default_not_benchmark_mode
FN:89,_RNvNtNtCsldCax6rooq1_18sqlrustgo_executor14session_config5testss_35test_teaching_mode_with_constructor
FN:40,_RNvMs_NtCsldCax6rooq1_18sqlrustgo_executor14session_configNtB4_13SessionConfig18with_teaching_mode
FN:31,_RNvMs_NtCsldCax6rooq1_18sqlrustgo_executor14session_configNtB4_13SessionConfig3new
FN:12,_RNvXNtCsldCax6rooq1_18sqlrustgo_executor14session_configNtB2_13SessionConfigNtNtCs8nPosuWgJFh_4core7default7Default7default
FN:14,_RNCNvXNtCsldCax6rooq1_18sqlrustgo_executor14session_configNtB4_13SessionConfigNtNtCs8nPosuWgJFh_4core7default7Default7default0B6_
FN:18,_RNCNvXNtCsldCax6rooq1_18sqlrustgo_executor14session_configNtB4_13SessionConfigNtNtCs8nPosuWgJFh_4core7default7Default7defaults_0B6_
FN:14,_RNCNvXNtCs4qFySXYcYQq_18sqlrustgo_executor14session_configNtB4_13SessionConfigNtNtCs8nPosuWgJFh_4core7default7Default7default0B6_
FN:18,_RNCNvXNtCs4qFySXYcYQq_18sqlrustgo_executor14session_configNtB4_13SessionConfigNtNtCs8nPosuWgJFh_4core7default7Default7defaults_0B6_
FNDA:1,_RNvNtNtCsldCax6rooq1_18sqlrustgo_executor14session_config5testss_25test_explicit_normal_mode
FNDA:1,_RNvNtNtCsldCax6rooq1_18sqlrustgo_executor14session_config5testss_27test_teaching_mode_from_env
FNDA:1,_RNvNtNtCsldCax6rooq1_18sqlrustgo_executor14session_config5testss_28test_benchmark_mode_from_env
FNDA:1,_RNvNtNtCsldCax6rooq1_18sqlrustgo_executor14session_config5testss_28test_explicit_benchmark_mode
FNDA:1,_RNvNtNtCsldCax6rooq1_18sqlrustgo_executor14session_config5testss_31test_default_not_benchmark_mode
FNDA:1,_RNvNtNtCsldCax6rooq1_18sqlrustgo_executor14session_config5testss_35test_teaching_mode_with_constructor
FNDA:1,_RNvMs_NtCsldCax6rooq1_18sqlrustgo_executor14session_configNtB4_13SessionConfig18with_teaching_mode
FNDA:2,_RNvMs_NtCsldCax6rooq1_18sqlrustgo_executor14session_configNtB4_13SessionConfig3new
FNDA:4,_RNvXNtCsldCax6rooq1_18sqlrustgo_executor14session_configNtB2_13SessionConfigNtNtCs8nPosuWgJFh_4core7default7Default7default
FNDA:1,_RNCNvXNtCsldCax6rooq1_18sqlrustgo_executor14session_configNtB4_13SessionConfigNtNtCs8nPosuWgJFh_4core7default7Default7default0B6_
FNDA:1,_RNCNvXNtCsldCax6rooq1_18sqlrustgo_executor14session_configNtB4_13SessionConfigNtNtCs8nPosuWgJFh_4core7default7Default7defaults_0B6_
FNDA:0,_RNCNvXNtCs4qFySXYcYQq_18sqlrustgo_executor14session_configNtB4_13SessionConfigNtNtCs8nPosuWgJFh_4core7default7Default7default0B6_
FNDA:0,_RNCNvXNtCs4qFySXYcYQq_18sqlrustgo_executor14session_configNtB4_13SessionConfigNtNtCs8nPosuWgJFh_4core7default7Default7defaults_0B6_
FNF:11
FNH:11
DA:12,4
DA:13,4
DA:14,4
DA:15,4
DA:17,4
DA:18,4
DA:19,4
DA:22,4
DA:23,4
DA:24,4
DA:25,4
DA:27,4
DA:31,2
DA:32,2
DA:33,2
DA:34,2
DA:35,2
DA:36,2
DA:37,2
DA:38,2
DA:40,1
DA:41,1
DA:42,1
DA:43,1
DA:44,1
DA:45,1
DA:46,1
DA:47,1
DA:55,1
DA:56,1
DA:57,1
DA:58,1
DA:60,1
DA:61,1
DA:64,1
DA:65,1
DA:66,1
DA:67,1
DA:68,1
DA:69,1
DA:70,1
DA:71,1
DA:72,1
DA:73,1
DA:76,1
DA:77,1
DA:78,1
DA:79,1
DA:80,1
DA:81,1
DA:82,1
DA:83,1
DA:84,1
DA:85,1
DA:86,1
DA:89,1
DA:90,1
DA:91,1
DA:92,1
DA:93,1
DA:94,1
DA:95,1
DA:98,1
DA:99,1
DA:100,1
DA:101,1
DA:102,1
DA:103,1
DA:104,1
DA:107,1
DA:108,1
DA:109,1
DA:110,1
DA:111,1
DA:112,1
DA:113,1
BRF:0
BRH:0
LF:78
LH:78
end_of_record
SF:/home/openclaw/dev/yinglichina8848/sqlrustgo/crates/executor/src/sql_log.rs
FN:294,_RNvNtNtCsldCax6rooq1_18sqlrustgo_executor7sql_log5testss_14test_log_clear
FN:432,_RNvNtNtCsldCax6rooq1_18sqlrustgo_executor7sql_log5testss_16test_error_count
FN:319,_RNvNtNtCsldCax6rooq1_18sqlrustgo_executor7sql_log5testss_17test_log_recovery
FN:414,_RNvNtNtCsldCax6rooq1_18sqlrustgo_executor7sql_log5testss_17test_log_rotation
FN:268,_RNvNtNtCsldCax6rooq1_18sqlrustgo_executor7sql_log5testss_18test_execution_log
FN:302,_RNvNtNtCsldCax6rooq1_18sqlrustgo_executor7sql_log5testss_20test_log_persistence
FN:342,_RNvNtNtCsldCax6rooq1_18sqlrustgo_executor7sql_log5testss_23test_log_backup_restore
FN:259,_RNvNtNtCsldCax6rooq1_18sqlrustgo_executor7sql_log5testss_23test_log_level_from_str
FN:281,_RNvNtNtCsldCax6rooq1_18sqlrustgo_executor7sql_log5testss_24test_log_level_filtering
FN:363,_RNvNtNtCsldCax6rooq1_18sqlrustgo_executor7sql_log5testss_28test_log_corruption_recovery
FN:386,_RNvNtNtCsldCax6rooq1_18sqlrustgo_executor7sql_log5testss_29test_power_failure_simulation
FN:444,_RNvNtNtCsldCax6rooq1_18sqlrustgo_executor7sql_log5testss_32test_sql_log_entry_serialization
FN:428,_RNCNvNtNtCsldCax6rooq1_18sqlrustgo_executor7sql_log5testss_17test_log_rotation0B7_
FN:132,_RNvMs0_NtCsldCax6rooq1_18sqlrustgo_executor7sql_logNtB5_12ExecutionLog12get_log_file
FN:124,_RNvMs0_NtCsldCax6rooq1_18sqlrustgo_executor7sql_logNtB5_12ExecutionLog9get_level
FN:177,_RNvMs0_NtCsldCax6rooq1_18sqlrustgo_executor7sql_logNtB5_12ExecutionLog9log_error
FN:248,_RNvNtCsldCax6rooq1_18sqlrustgo_executor7sql_log20global_execution_log
FN:241,_RNvXs1_NtCsldCax6rooq1_18sqlrustgo_executor7sql_logNtB5_12ExecutionLogNtNtCs8nPosuWgJFh_4core7default7Default7default
FN:37,_RNvMNtCsldCax6rooq1_18sqlrustgo_executor7sql_logNtB2_8LogLevel6to_str
FN:27,_RNvMNtCsldCax6rooq1_18sqlrustgo_executor7sql_logNtB2_8LogLevel8from_str
FN:153,_RNvMs0_NtCsldCax6rooq1_18sqlrustgo_executor7sql_logNtB5_12ExecutionLog11get_entries
FN:128,_RNvMs0_NtCsldCax6rooq1_18sqlrustgo_executor7sql_logNtB5_12ExecutionLog12set_log_file
FN:226,_RNvMs0_NtCsldCax6rooq1_18sqlrustgo_executor7sql_logNtB5_12ExecutionLog15get_entry_count
FN:230,_RNvMs0_NtCsldCax6rooq1_18sqlrustgo_executor7sql_logNtB5_12ExecutionLog15get_error_count
FN:188,_RNvMs0_NtCsldCax6rooq1_18sqlrustgo_executor7sql_logNtB5_12ExecutionLog15persist_to_file
FN:198,_RNvMs0_NtCsldCax6rooq1_18sqlrustgo_executor7sql_logNtB5_12ExecutionLog17recover_from_file
FN:136,_RNvMs0_NtCsldCax6rooq1_18sqlrustgo_executor7sql_logNtB5_12ExecutionLog3log
FN:111,_RNvMs0_NtCsldCax6rooq1_18sqlrustgo_executor7sql_logNtB5_12ExecutionLog3new
FN:157,_RNvMs0_NtCsldCax6rooq1_18sqlrustgo_executor7sql_logNtB5_12ExecutionLog5clear
FN:217,_RNvMs0_NtCsldCax6rooq1_18sqlrustgo_executor7sql_logNtB5_12ExecutionLog6backup
FN:161,_RNvMs0_NtCsldCax6rooq1_18sqlrustgo_executor7sql_logNtB5_12ExecutionLog7log_sql
FN:221,_RNvMs0_NtCsldCax6rooq1_18sqlrustgo_executor7sql_logNtB5_12ExecutionLog7restore
FN:120,_RNvMs0_NtCsldCax6rooq1_18sqlrustgo_executor7sql_logNtB5_12ExecutionLog9set_level
FN:72,_RNvMs_NtCsldCax6rooq1_18sqlrustgo_executor7sql_logNtB4_11SqlLogEntry8from_str
FN:59,_RNvMs_NtCsldCax6rooq1_18sqlrustgo_executor7sql_logNtB4_11SqlLogEntry9to_string
FN:235,_RNCNvMs0_NtCsldCax6rooq1_18sqlrustgo_executor7sql_logNtB7_12ExecutionLog15get_error_count0B9_
FN:246,_RNCNvNtCsldCax6rooq1_18sqlrustgo_executor7sql_log10GLOBAL_LOG0B5_
FN:235,_RNCNvMs0_NtCs4qFySXYcYQq_18sqlrustgo_executor7sql_logNtB7_12ExecutionLog15get_error_count0B9_
FN:246,_RNCNvNtCs4qFySXYcYQq_18sqlrustgo_executor7sql_log10GLOBAL_LOG0B5_
FN:37,_RNvMNtCs4qFySXYcYQq_18sqlrustgo_executor7sql_logNtB2_8LogLevel6to_str
FN:27,_RNvMNtCs4qFySXYcYQq_18sqlrustgo_executor7sql_logNtB2_8LogLevel8from_str
FN:153,_RNvMs0_NtCs4qFySXYcYQq_18sqlrustgo_executor7sql_logNtB5_12ExecutionLog11get_entries
FN:132,_RNvMs0_NtCs4qFySXYcYQq_18sqlrustgo_executor7sql_logNtB5_12ExecutionLog12get_log_file
FN:128,_RNvMs0_NtCs4qFySXYcYQq_18sqlrustgo_executor7sql_logNtB5_12ExecutionLog12set_log_file
FN:226,_RNvMs0_NtCs4qFySXYcYQq_18sqlrustgo_executor7sql_logNtB5_12ExecutionLog15get_entry_count
FN:230,_RNvMs0_NtCs4qFySXYcYQq_18sqlrustgo_executor7sql_logNtB5_12ExecutionLog15get_error_count
FN:188,_RNvMs0_NtCs4qFySXYcYQq_18sqlrustgo_executor7sql_logNtB5_12ExecutionLog15persist_to_file
FN:198,_RNvMs0_NtCs4qFySXYcYQq_18sqlrustgo_executor7sql_logNtB5_12ExecutionLog17recover_from_file
FN:136,_RNvMs0_NtCs4qFySXYcYQq_18sqlrustgo_executor7sql_logNtB5_12ExecutionLog3log
FN:111,_RNvMs0_NtCs4qFySXYcYQq_18sqlrustgo_executor7sql_logNtB5_12ExecutionLog3new
FN:157,_RNvMs0_NtCs4qFySXYcYQq_18sqlrustgo_executor7sql_logNtB5_12ExecutionLog5clear
FN:217,_RNvMs0_NtCs4qFySXYcYQq_18sqlrustgo_executor7sql_logNtB5_12ExecutionLog6backup
FN:161,_RNvMs0_NtCs4qFySXYcYQq_18sqlrustgo_executor7sql_logNtB5_12ExecutionLog7log_sql
FN:221,_RNvMs0_NtCs4qFySXYcYQq_18sqlrustgo_executor7sql_logNtB5_12ExecutionLog7restore
FN:124,_RNvMs0_NtCs4qFySXYcYQq_18sqlrustgo_executor7sql_logNtB5_12ExecutionLog9get_level
FN:177,_RNvMs0_NtCs4qFySXYcYQq_18sqlrustgo_executor7sql_logNtB5_12ExecutionLog9log_error
FN:120,_RNvMs0_NtCs4qFySXYcYQq_18sqlrustgo_executor7sql_logNtB5_12ExecutionLog9set_level
FN:72,_RNvMs_NtCs4qFySXYcYQq_18sqlrustgo_executor7sql_logNtB4_11SqlLogEntry8from_str
FN:59,_RNvMs_NtCs4qFySXYcYQq_18sqlrustgo_executor7sql_logNtB4_11SqlLogEntry9to_string
FN:248,_RNvNtCs4qFySXYcYQq_18sqlrustgo_executor7sql_log20global_execution_log
FN:241,_RNvXs1_NtCs4qFySXYcYQq_18sqlrustgo_executor7sql_logNtB5_12ExecutionLogNtNtCs8nPosuWgJFh_4core7default7Default7default
FNDA:1,_RNvNtNtCsldCax6rooq1_18sqlrustgo_executor7sql_log5testss_14test_log_clear
FNDA:1,_RNvNtNtCsldCax6rooq1_18sqlrustgo_executor7sql_log5testss_16test_error_count
FNDA:1,_RNvNtNtCsldCax6rooq1_18sqlrustgo_executor7sql_log5testss_17test_log_recovery
FNDA:1,_RNvNtNtCsldCax6rooq1_18sqlrustgo_executor7sql_log5testss_17test_log_rotation
FNDA:1,_RNvNtNtCsldCax6rooq1_18sqlrustgo_executor7sql_log5testss_18test_execution_log
FNDA:1,_RNvNtNtCsldCax6rooq1_18sqlrustgo_executor7sql_log5testss_20test_log_persistence
FNDA:1,_RNvNtNtCsldCax6rooq1_18sqlrustgo_executor7sql_log5testss_23test_log_backup_restore
FNDA:1,_RNvNtNtCsldCax6rooq1_18sqlrustgo_executor7sql_log5testss_23test_log_level_from_str
FNDA:1,_RNvNtNtCsldCax6rooq1_18sqlrustgo_executor7sql_log5testss_24test_log_level_filtering
FNDA:1,_RNvNtNtCsldCax6rooq1_18sqlrustgo_executor7sql_log5testss_28test_log_corruption_recovery
FNDA:1,_RNvNtNtCsldCax6rooq1_18sqlrustgo_executor7sql_log5testss_29test_power_failure_simulation
FNDA:1,_RNvNtNtCsldCax6rooq1_18sqlrustgo_executor7sql_log5testss_32test_sql_log_entry_serialization
FNDA:3,_RNCNvNtNtCsldCax6rooq1_18sqlrustgo_executor7sql_log5testss_17test_log_rotation0B7_
FNDA:0,_RNvMs0_NtCsldCax6rooq1_18sqlrustgo_executor7sql_logNtB5_12ExecutionLog12get_log_file
FNDA:0,_RNvMs0_NtCsldCax6rooq1_18sqlrustgo_executor7sql_logNtB5_12ExecutionLog9get_level
FNDA:0,_RNvMs0_NtCsldCax6rooq1_18sqlrustgo_executor7sql_logNtB5_12ExecutionLog9log_error
FNDA:0,_RNvNtCsldCax6rooq1_18sqlrustgo_executor7sql_log20global_execution_log
FNDA:0,_RNvXs1_NtCsldCax6rooq1_18sqlrustgo_executor7sql_logNtB5_12ExecutionLogNtNtCs8nPosuWgJFh_4core7default7Default7default
FNDA:7,_RNvMNtCsldCax6rooq1_18sqlrustgo_executor7sql_logNtB2_8LogLevel6to_str
FNDA:5,_RNvMNtCsldCax6rooq1_18sqlrustgo_executor7sql_logNtB2_8LogLevel8from_str
FNDA:8,_RNvMs0_NtCsldCax6rooq1_18sqlrustgo_executor7sql_logNtB5_12ExecutionLog11get_entries
FNDA:1,_RNvMs0_NtCsldCax6rooq1_18sqlrustgo_executor7sql_logNtB5_12ExecutionLog12set_log_file
FNDA:2,_RNvMs0_NtCsldCax6rooq1_18sqlrustgo_executor7sql_logNtB5_12ExecutionLog15get_entry_count
FNDA:1,_RNvMs0_NtCsldCax6rooq1_18sqlrustgo_executor7sql_logNtB5_12ExecutionLog15get_error_count
FNDA:2,_RNvMs0_NtCsldCax6rooq1_18sqlrustgo_executor7sql_logNtB5_12ExecutionLog15persist_to_file
FNDA:4,_RNvMs0_NtCsldCax6rooq1_18sqlrustgo_executor7sql_logNtB5_12ExecutionLog17recover_from_file
FNDA:19,_RNvMs0_NtCsldCax6rooq1_18sqlrustgo_executor7sql_logNtB5_12ExecutionLog3log
FNDA:12,_RNvMs0_NtCsldCax6rooq1_18sqlrustgo_executor7sql_logNtB5_12ExecutionLog3new
FNDA:2,_RNvMs0_NtCsldCax6rooq1_18sqlrustgo_executor7sql_logNtB5_12ExecutionLog5clear
FNDA:1,_RNvMs0_NtCsldCax6rooq1_18sqlrustgo_executor7sql_logNtB5_12ExecutionLog6backup
FNDA:19,_RNvMs0_NtCsldCax6rooq1_18sqlrustgo_executor7sql_logNtB5_12ExecutionLog7log_sql
FNDA:1,_RNvMs0_NtCsldCax6rooq1_18sqlrustgo_executor7sql_logNtB5_12ExecutionLog7restore
FNDA:1,_RNvMs0_NtCsldCax6rooq1_18sqlrustgo_executor7sql_logNtB5_12ExecutionLog9set_level
FNDA:9,_RNvMs_NtCsldCax6rooq1_18sqlrustgo_executor7sql_logNtB4_11SqlLogEntry8from_str
FNDA:7,_RNvMs_NtCsldCax6rooq1_18sqlrustgo_executor7sql_logNtB4_11SqlLogEntry9to_string
FNDA:4,_RNCNvMs0_NtCsldCax6rooq1_18sqlrustgo_executor7sql_logNtB7_12ExecutionLog15get_error_count0B9_
FNDA:0,_RNCNvNtCsldCax6rooq1_18sqlrustgo_executor7sql_log10GLOBAL_LOG0B5_
FNDA:0,_RNCNvMs0_NtCs4qFySXYcYQq_18sqlrustgo_executor7sql_logNtB7_12ExecutionLog15get_error_count0B9_
FNDA:0,_RNCNvNtCs4qFySXYcYQq_18sqlrustgo_executor7sql_log10GLOBAL_LOG0B5_
FNDA:0,_RNvMNtCs4qFySXYcYQq_18sqlrustgo_executor7sql_logNtB2_8LogLevel6to_str
FNDA:0,_RNvMNtCs4qFySXYcYQq_18sqlrustgo_executor7sql_logNtB2_8LogLevel8from_str
FNDA:0,_RNvMs0_NtCs4qFySXYcYQq_18sqlrustgo_executor7sql_logNtB5_12ExecutionLog11get_entries
FNDA:0,_RNvMs0_NtCs4qFySXYcYQq_18sqlrustgo_executor7sql_logNtB5_12ExecutionLog12get_log_file
FNDA:0,_RNvMs0_NtCs4qFySXYcYQq_18sqlrustgo_executor7sql_logNtB5_12ExecutionLog12set_log_file
FNDA:0,_RNvMs0_NtCs4qFySXYcYQq_18sqlrustgo_executor7sql_logNtB5_12ExecutionLog15get_entry_count
FNDA:0,_RNvMs0_NtCs4qFySXYcYQq_18sqlrustgo_executor7sql_logNtB5_12ExecutionLog15get_error_count
FNDA:0,_RNvMs0_NtCs4qFySXYcYQq_18sqlrustgo_executor7sql_logNtB5_12ExecutionLog15persist_to_file
FNDA:0,_RNvMs0_NtCs4qFySXYcYQq_18sqlrustgo_executor7sql_logNtB5_12ExecutionLog17recover_from_file
FNDA:0,_RNvMs0_NtCs4qFySXYcYQq_18sqlrustgo_executor7sql_logNtB5_12ExecutionLog3log
FNDA:0,_RNvMs0_NtCs4qFySXYcYQq_18sqlrustgo_executor7sql_logNtB5_12ExecutionLog3new
FNDA:0,_RNvMs0_NtCs4qFySXYcYQq_18sqlrustgo_executor7sql_logNtB5_12ExecutionLog5clear
FNDA:0,_RNvMs0_NtCs4qFySXYcYQq_18sqlrustgo_executor7sql_logNtB5_12ExecutionLog6backup
FNDA:0,_RNvMs0_NtCs4qFySXYcYQq_18sqlrustgo_executor7sql_logNtB5_12ExecutionLog7log_sql
FNDA:0,_RNvMs0_NtCs4qFySXYcYQq_18sqlrustgo_executor7sql_logNtB5_12ExecutionLog7restore
FNDA:0,_RNvMs0_NtCs4qFySXYcYQq_18sqlrustgo_executor7sql_logNtB5_12ExecutionLog9get_level
FNDA:0,_RNvMs0_NtCs4qFySXYcYQq_18sqlrustgo_executor7sql_logNtB5_12ExecutionLog9log_error
FNDA:0,_RNvMs0_NtCs4qFySXYcYQq_18sqlrustgo_executor7sql_logNtB5_12ExecutionLog9set_level
FNDA:0,_RNvMs_NtCs4qFySXYcYQq_18sqlrustgo_executor7sql_logNtB4_11SqlLogEntry8from_str
FNDA:0,_RNvMs_NtCs4qFySXYcYQq_18sqlrustgo_executor7sql_logNtB4_11SqlLogEntry9to_string
FNDA:0,_RNvNtCs4qFySXYcYQq_18sqlrustgo_executor7sql_log20global_execution_log
FNDA:0,_RNvXs1_NtCs4qFySXYcYQq_18sqlrustgo_executor7sql_logNtB5_12ExecutionLogNtNtCs8nPosuWgJFh_4core7default7Default7default
FNF:37
FNH:31
DA:27,5
DA:28,5
DA:29,5
DA:30,4
DA:31,3
DA:32,1
DA:33,0
DA:35,5
DA:37,7
DA:38,7
DA:39,0
DA:40,6
DA:41,0
DA:42,1
DA:44,7
DA:59,7
DA:60,7
DA:62,7
DA:65,7
DA:66,7
DA:67,7
DA:69,7
DA:72,9
DA:73,9
DA:74,9
DA:75,1
DA:76,8
DA:78,8
DA:79,8
DA:80,8
DA:81,3
DA:82,3
DA:83,0
DA:86,8
DA:89,8
DA:90,8
DA:91,8
DA:92,8
DA:93,8
DA:94,2
DA:96,6
DA:98,8
DA:100,9
DA:111,12
DA:112,12
DA:113,12
DA:114,12
DA:115,12
DA:116,12
DA:117,12
DA:118,12
DA:120,1
DA:121,1
DA:122,1
DA:124,0
DA:125,0
DA:126,0
DA:128,1
DA:129,1
DA:130,1
DA:132,0
DA:133,0
DA:134,0
DA:136,19
DA:137,19
DA:138,19
DA:139,18
DA:140,2
DA:141,2
DA:142,2
DA:143,16
DA:145,18
DA:146,18
DA:147,1
DA:148,17
DA:149,18
DA:150,1
DA:151,19
DA:153,8
DA:154,8
DA:155,8
DA:157,2
DA:158,2
DA:159,2
DA:161,19
DA:162,19
DA:163,14
DA:165,5
DA:167,19
DA:168,19
DA:169,19
DA:170,19
DA:171,19
DA:172,19
DA:173,19
DA:174,19
DA:175,19
DA:177,0
DA:178,0
DA:179,0
DA:180,0
DA:181,0
DA:182,0
DA:183,0
DA:184,0
DA:185,0
DA:186,0
DA:188,2
DA:189,2
DA:190,2
DA:191,4
DA:192,4
DA:194,2
DA:195,2
DA:196,2
DA:198,4
DA:199,4
DA:200,4
DA:201,4
DA:203,8
DA:204,8
DA:205,7
DA:206,7
DA:207,0
DA:208,7
DA:209,7
DA:210,7
DA:211,1
DA:214,4
DA:215,4
DA:217,1
DA:218,1
DA:219,1
DA:221,1
DA:222,1
DA:223,1
DA:224,1
DA:226,2
DA:227,2
DA:228,2
DA:230,1
DA:231,1
DA:232,1
DA:233,1
DA:234,1
DA:235,4
DA:236,1
DA:237,1
DA:241,0
DA:242,0
DA:243,0
DA:246,0
DA:248,0
DA:249,0
DA:250,0
DA:259,1
DA:260,1
DA:261,1
DA:262,1
DA:263,1
DA:264,1
DA:265,1
DA:268,1
DA:269,1
DA:271,1
DA:272,1
DA:274,1
DA:275,1
DA:276,1
DA:277,1
DA:278,1
DA:281,1
DA:282,1
DA:283,1
DA:285,1
DA:286,1
DA:288,1
DA:289,1
DA:290,1
DA:291,1
DA:294,1
DA:295,1
DA:296,1
DA:297,1
DA:298,1
DA:299,1
DA:302,1
DA:303,1
DA:304,1
DA:305,1
DA:307,1
DA:308,1
DA:309,1
DA:311,1
DA:312,1
DA:313,1
DA:315,1
DA:316,1
DA:319,1
DA:320,1
DA:322,1
DA:323,1
DA:324,1
DA:325,1
DA:326,1
DA:327,1
DA:329,1
DA:330,1
DA:332,1
DA:333,1
DA:334,1
DA:335,1
DA:336,1
DA:338,1
DA:339,1
DA:342,1
DA:343,1
DA:344,1
DA:345,1
DA:347,1
DA:348,1
DA:349,1
DA:351,1
DA:352,1
DA:353,1
DA:355,1
DA:356,1
DA:357,1
DA:359,1
DA:360,1
DA:363,1
DA:364,1
DA:366,1
DA:367,1
DA:368,1
DA:369,1
DA:370,1
DA:371,1
DA:372,1
DA:374,1
DA:375,1
DA:377,1
DA:378,1
DA:379,1
DA:380,1
DA:382,1
DA:383,1
DA:386,1
DA:387,1
DA:389,1
DA:391,1
DA:392,1
DA:393,1
DA:395,1
DA:396,1
DA:397,1
DA:398,1
DA:399,1
DA:401,1
DA:402,1
DA:403,1
DA:405,1
DA:406,1
DA:407,1
DA:409,1
DA:410,1
DA:411,1
DA:414,1
DA:415,1
DA:417,1
DA:418,1
DA:419,1
DA:421,1
DA:423,1
DA:425,1
DA:427,1
DA:428,3
DA:429,1
DA:432,1
DA:433,1
DA:435,1
DA:436,1
DA:437,1
DA:438,1
DA:440,1
DA:441,1
DA:444,1
DA:445,1
DA:446,1
DA:447,1
DA:448,1
DA:449,1
DA:450,1
DA:451,1
DA:452,1
DA:454,1
DA:455,1
DA:457,1
DA:458,1
DA:459,1
DA:460,1
BRF:0
BRH:0
LF:303
LH:275
end_of_record
SF:/home/openclaw/dev/yinglichina8848/sqlrustgo/crates/executor/src/sql_normalizer.rs
FN:107,_RNvNtNtCsldCax6rooq1_18sqlrustgo_executor14sql_normalizer5testss_17test_from_literal
FN:114,_RNvNtNtCsldCax6rooq1_18sqlrustgo_executor14sql_normalizer5testss_20test_normalize_float
FN:91,_RNvNtNtCsldCax6rooq1_18sqlrustgo_executor14sql_normalizer5testss_21test_normalize_simple
FN:99,_RNvNtNtCsldCax6rooq1_18sqlrustgo_executor14sql_normalizer5testss_21test_normalize_string
FN:140,_RNvNtNtCsldCax6rooq1_18sqlrustgo_executor14sql_normalizer5testss_23test_from_literal_float
FN:146,_RNvNtNtCsldCax6rooq1_18sqlrustgo_executor14sql_normalizer5testss_24test_from_literal_string
FN:122,_RNvNtNtCsldCax6rooq1_18sqlrustgo_executor14sql_normalizer5testss_31test_normalize_multiple_numbers
FN:130,_RNvNtNtCsldCax6rooq1_18sqlrustgo_executor14sql_normalizer5testss_33test_normalize_preserve_structure
FN:38,_RNvMNtCsldCax6rooq1_18sqlrustgo_executor14sql_normalizerNtB2_13SqlNormalizer11hash_params
FN:44,_RNvMNtCsldCax6rooq1_18sqlrustgo_executor14sql_normalizerNtB2_13SqlNormalizer12from_literal
FN:8,_RNvMNtCsldCax6rooq1_18sqlrustgo_executor14sql_normalizerNtB2_13SqlNormalizer9normalize
FN:38,_RNvMNtCs4qFySXYcYQq_18sqlrustgo_executor14sql_normalizerNtB2_13SqlNormalizer11hash_params
FN:44,_RNvMNtCs4qFySXYcYQq_18sqlrustgo_executor14sql_normalizerNtB2_13SqlNormalizer12from_literal
FN:8,_RNvMNtCs4qFySXYcYQq_18sqlrustgo_executor14sql_normalizerNtB2_13SqlNormalizer9normalize
FNDA:1,_RNvNtNtCsldCax6rooq1_18sqlrustgo_executor14sql_normalizer5testss_17test_from_literal
FNDA:1,_RNvNtNtCsldCax6rooq1_18sqlrustgo_executor14sql_normalizer5testss_20test_normalize_float
FNDA:1,_RNvNtNtCsldCax6rooq1_18sqlrustgo_executor14sql_normalizer5testss_21test_normalize_simple
FNDA:1,_RNvNtNtCsldCax6rooq1_18sqlrustgo_executor14sql_normalizer5testss_21test_normalize_string
FNDA:1,_RNvNtNtCsldCax6rooq1_18sqlrustgo_executor14sql_normalizer5testss_23test_from_literal_float
FNDA:1,_RNvNtNtCsldCax6rooq1_18sqlrustgo_executor14sql_normalizer5testss_24test_from_literal_string
FNDA:1,_RNvNtNtCsldCax6rooq1_18sqlrustgo_executor14sql_normalizer5testss_31test_normalize_multiple_numbers
FNDA:1,_RNvNtNtCsldCax6rooq1_18sqlrustgo_executor14sql_normalizer5testss_33test_normalize_preserve_structure
FNDA:0,_RNvMNtCsldCax6rooq1_18sqlrustgo_executor14sql_normalizerNtB2_13SqlNormalizer11hash_params
FNDA:3,_RNvMNtCsldCax6rooq1_18sqlrustgo_executor14sql_normalizerNtB2_13SqlNormalizer12from_literal
FNDA:5,_RNvMNtCsldCax6rooq1_18sqlrustgo_executor14sql_normalizerNtB2_13SqlNormalizer9normalize
FNDA:0,_RNvMNtCs4qFySXYcYQq_18sqlrustgo_executor14sql_normalizerNtB2_13SqlNormalizer11hash_params
FNDA:0,_RNvMNtCs4qFySXYcYQq_18sqlrustgo_executor14sql_normalizerNtB2_13SqlNormalizer12from_literal
FNDA:0,_RNvMNtCs4qFySXYcYQq_18sqlrustgo_executor14sql_normalizerNtB2_13SqlNormalizer9normalize
FNF:11
FNH:10
DA:8,5
DA:9,5
DA:10,5
DA:11,5
DA:13,189
DA:14,184
DA:15,2
DA:16,1
DA:17,1
DA:18,2
DA:19,182
DA:20,5
DA:21,177
DA:22,5
DA:23,9
DA:24,6
DA:25,4
DA:26,4
DA:27,2
DA:30,172
DA:31,172
DA:32,172
DA:35,5
DA:36,5
DA:38,0
DA:39,0
DA:40,0
DA:41,0
DA:42,0
DA:44,3
DA:45,3
DA:46,3
DA:47,3
DA:48,3
DA:50,98
DA:51,98
DA:52,2
DA:53,1
DA:54,1
DA:55,1
DA:56,2
DA:57,96
DA:58,10
DA:59,10
DA:60,86
DA:61,0
DA:62,0
DA:63,0
DA:64,0
DA:65,0
DA:66,0
DA:67,0
DA:68,86
DA:69,86
DA:73,3
DA:74,2
DA:75,1
DA:76,1
DA:77,1
DA:78,1
DA:79,2
DA:80,1
DA:82,3
DA:83,3
DA:91,1
DA:92,1
DA:93,1
DA:96,1
DA:99,1
DA:100,1
DA:101,1
DA:104,1
DA:107,1
DA:108,1
DA:109,1
DA:110,1
DA:111,1
DA:114,1
DA:115,1
DA:116,1
DA:119,1
DA:122,1
DA:123,1
DA:124,1
DA:127,1
DA:130,1
DA:131,1
DA:132,1
DA:133,1
DA:134,1
DA:135,1
DA:136,1
DA:137,1
DA:140,1
DA:141,1
DA:142,1
DA:143,1
DA:146,1
DA:147,1
DA:149,1
DA:150,1
BRF:0
BRH:0
LF:101
LH:89
end_of_record
SF:/home/openclaw/dev/yinglichina8848/sqlrustgo/crates/executor/src/stored_proc.rs
FN:277,_RNCNvMs0_NtCsldCax6rooq1_18sqlrustgo_executor11stored_procNtB7_16ProcedureContext9has_label0B9_
FN:163,_RNvMs0_NtCsldCax6rooq1_18sqlrustgo_executor11stored_procNtB5_16ProcedureContext10has_cursor
FN:182,_RNvMs0_NtCsldCax6rooq1_18sqlrustgo_executor11stored_procNtB5_16ProcedureContext11pop_handler
FN:246,_RNvMs0_NtCsldCax6rooq1_18sqlrustgo_executor11stored_procNtB5_16ProcedureContext13get_exception
FN:286,_RNvMs0_NtCsldCax6rooq1_18sqlrustgo_executor11stored_procNtB5_16ProcedureContext13get_local_var
FN:281,_RNvMs0_NtCsldCax6rooq1_18sqlrustgo_executor11stored_procNtB5_16ProcedureContext13set_local_var
FN:333,_RNvMs0_NtCsldCax6rooq1_18sqlrustgo_executor11stored_procNtB5_16ProcedureContext16get_session_vars
FN:226,_RNvMs0_NtCsldCax6rooq1_18sqlrustgo_executor11stored_procNtB5_16ProcedureContext21is_handling_exception
FN:383,_RNvMs0_NtCsldCax6rooq1_18sqlrustgo_executor11stored_procNtB5_16ProcedureContext9get_label
FN:276,_RNvMs0_NtCsldCax6rooq1_18sqlrustgo_executor11stored_procNtB5_16ProcedureContext9has_label
FN:378,_RNvMs0_NtCsldCax6rooq1_18sqlrustgo_executor11stored_procNtB5_16ProcedureContext9set_label
FN:397,_RNvMs1_NtCsldCax6rooq1_18sqlrustgo_executor11stored_procNtB5_18StoredProcExecutor3new
FN:21,_RNvXNtCsldCax6rooq1_18sqlrustgo_executor11stored_procNtB2_15StoredProcErrorNtNtCs8nPosuWgJFh_4core3fmt7Display3fmt
FN:125,_RNCNvMs0_NtCsldCax6rooq1_18sqlrustgo_executor11stored_procNtB7_16ProcedureContext12fetch_cursor0B9_
FN:305,_RNCNvMs0_NtCsldCax6rooq1_18sqlrustgo_executor11stored_procNtB7_16ProcedureContext7get_var0B9_
FN:836,_RNCNvMs1_NtCsldCax6rooq1_18sqlrustgo_executor11stored_procNtB7_18StoredProcExecutor11execute_sql0B9_
FN:419,_RNCNvMs1_NtCsldCax6rooq1_18sqlrustgo_executor11stored_procNtB7_18StoredProcExecutor12execute_call0B9_
FN:522,_RNCNvMs1_NtCsldCax6rooq1_18sqlrustgo_executor11stored_procNtB7_18StoredProcExecutor17execute_statement0B9_
FN:548,_RNCNvMs1_NtCsldCax6rooq1_18sqlrustgo_executor11stored_procNtB7_18StoredProcExecutor17execute_statements0_0B9_
FN:638,_RNCNvMs1_NtCsldCax6rooq1_18sqlrustgo_executor11stored_procNtB7_18StoredProcExecutor17execute_statements1_0B9_
FN:646,_RNCNvMs1_NtCsldCax6rooq1_18sqlrustgo_executor11stored_procNtB7_18StoredProcExecutor17execute_statements2_0B9_
FN:660,_RNCNvMs1_NtCsldCax6rooq1_18sqlrustgo_executor11stored_procNtB7_18StoredProcExecutor17execute_statements3_0B9_
FN:668,_RNCNvMs1_NtCsldCax6rooq1_18sqlrustgo_executor11stored_procNtB7_18StoredProcExecutor17execute_statements4_0B9_
FN:723,_RNCNvMs1_NtCsldCax6rooq1_18sqlrustgo_executor11stored_procNtB7_18StoredProcExecutor17execute_statements5_0B9_
FN:796,_RNCNvMs1_NtCsldCax6rooq1_18sqlrustgo_executor11stored_procNtB7_18StoredProcExecutor17execute_statements6_0B9_
FN:802,_RNCNvMs1_NtCsldCax6rooq1_18sqlrustgo_executor11stored_procNtB7_18StoredProcExecutor17execute_statements7_0B9_
FN:1302,_RNCNvMs1_NtCsldCax6rooq1_18sqlrustgo_executor11stored_procNtB7_18StoredProcExecutor23expand_variables_in_sql0B9_
FN:1303,_RNCNvMs1_NtCsldCax6rooq1_18sqlrustgo_executor11stored_procNtB7_18StoredProcExecutor23expand_variables_in_sqls_0B9_
FN:875,_RNCNvMs1_NtCsldCax6rooq1_18sqlrustgo_executor11stored_procNtB7_18StoredProcExecutor25execute_statement_storage0B9_
FN:909,_RNCNvMs1_NtCsldCax6rooq1_18sqlrustgo_executor11stored_procNtB7_18StoredProcExecutor25execute_statement_storages0_0B9_
FN:927,_RNCNvMs1_NtCsldCax6rooq1_18sqlrustgo_executor11stored_procNtB7_18StoredProcExecutor25execute_statement_storages1_0B9_
FN:939,_RNCNvMs1_NtCsldCax6rooq1_18sqlrustgo_executor11stored_procNtB7_18StoredProcExecutor25execute_statement_storages2_0B9_
FN:964,_RNCNvMs1_NtCsldCax6rooq1_18sqlrustgo_executor11stored_procNtB7_18StoredProcExecutor25execute_statement_storages3_0B9_
FN:973,_RNCNvMs1_NtCsldCax6rooq1_18sqlrustgo_executor11stored_procNtB7_18StoredProcExecutor25execute_statement_storages4_0B9_
FN:988,_RNCNvMs1_NtCsldCax6rooq1_18sqlrustgo_executor11stored_procNtB7_18StoredProcExecutor25execute_statement_storages5_0B9_
FN:880,_RNCNvMs1_NtCsldCax6rooq1_18sqlrustgo_executor11stored_procNtB7_18StoredProcExecutor25execute_statement_storages_0B9_
FN:1484,_RNvNtNtCsldCax6rooq1_18sqlrustgo_executor11stored_proc5testss_23test_evaluate_condition
FN:1466,_RNvNtNtCsldCax6rooq1_18sqlrustgo_executor11stored_proc5testss_28test_procedure_context_leave
FN:1476,_RNvNtNtCsldCax6rooq1_18sqlrustgo_executor11stored_proc5testss_29test_procedure_context_return
FN:1446,_RNvNtNtCsldCax6rooq1_18sqlrustgo_executor11stored_proc5testss_34test_procedure_context_set_get_var
FN:1453,_RNvNtNtCsldCax6rooq1_18sqlrustgo_executor11stored_proc5testss_35test_procedure_context_session_vars
FN:1427,_RNvNtNtCsldCax6rooq1_18sqlrustgo_executor11stored_proc5testss_35test_stored_proc_executor_not_found
FN:1437,_RNvNtNtCsldCax6rooq1_18sqlrustgo_executor11stored_proc5testss_36test_stored_proc_executor_list_empty
FN:257,_RNvMs0_NtCsldCax6rooq1_18sqlrustgo_executor11stored_procNtB5_16ProcedureContext10exit_label
FN:269,_RNvMs0_NtCsldCax6rooq1_18sqlrustgo_executor11stored_procNtB5_16ProcedureContext10exit_scope
FN:343,_RNvMs0_NtCsldCax6rooq1_18sqlrustgo_executor11stored_procNtB5_16ProcedureContext10get_return
FN:338,_RNvMs0_NtCsldCax6rooq1_18sqlrustgo_executor11stored_procNtB5_16ProcedureContext10set_return
FN:251,_RNvMs0_NtCsldCax6rooq1_18sqlrustgo_executor11stored_procNtB5_16ProcedureContext11enter_label
FN:263,_RNvMs0_NtCsldCax6rooq1_18sqlrustgo_executor11stored_procNtB5_16ProcedureContext11enter_scope
FN:109,_RNvMs0_NtCsldCax6rooq1_18sqlrustgo_executor11stored_procNtB5_16ProcedureContext11open_cursor
FN:358,_RNvMs0_NtCsldCax6rooq1_18sqlrustgo_executor11stored_procNtB5_16ProcedureContext11reset_leave
FN:363,_RNvMs0_NtCsldCax6rooq1_18sqlrustgo_executor11stored_procNtB5_16ProcedureContext11set_iterate
FN:153,_RNvMs0_NtCsldCax6rooq1_18sqlrustgo_executor11stored_procNtB5_16ProcedureContext12close_cursor
FN:120,_RNvMs0_NtCsldCax6rooq1_18sqlrustgo_executor11stored_procNtB5_16ProcedureContext12fetch_cursor
FN:176,_RNvMs0_NtCsldCax6rooq1_18sqlrustgo_executor11stored_procNtB5_16ProcedureContext12push_handler
FN:353,_RNvMs0_NtCsldCax6rooq1_18sqlrustgo_executor11stored_procNtB5_16ProcedureContext12should_leave
FN:373,_RNvMs0_NtCsldCax6rooq1_18sqlrustgo_executor11stored_procNtB5_16ProcedureContext13reset_iterate
FN:231,_RNvMs0_NtCsldCax6rooq1_18sqlrustgo_executor11stored_procNtB5_16ProcedureContext13set_exception
FN:95,_RNvMs0_NtCsldCax6rooq1_18sqlrustgo_executor11stored_procNtB5_16ProcedureContext14declare_cursor
FN:368,_RNvMs0_NtCsldCax6rooq1_18sqlrustgo_executor11stored_procNtB5_16ProcedureContext14should_iterate
FN:241,_RNvMs0_NtCsldCax6rooq1_18sqlrustgo_executor11stored_procNtB5_16ProcedureContext15clear_exception
FN:296,_RNvMs0_NtCsldCax6rooq1_18sqlrustgo_executor11stored_procNtB5_16ProcedureContext15get_session_var
FN:291,_RNvMs0_NtCsldCax6rooq1_18sqlrustgo_executor11stored_procNtB5_16ProcedureContext15set_session_var
FN:328,_RNvMs0_NtCsldCax6rooq1_18sqlrustgo_executor11stored_procNtB5_16ProcedureContext16clear_local_vars
FN:168,_RNvMs0_NtCsldCax6rooq1_18sqlrustgo_executor11stored_procNtB5_16ProcedureContext18set_cursor_records
FN:187,_RNvMs0_NtCsldCax6rooq1_18sqlrustgo_executor11stored_procNtB5_16ProcedureContext21find_matching_handler
FN:221,_RNvMs0_NtCsldCax6rooq1_18sqlrustgo_executor11stored_procNtB5_16ProcedureContext22set_exception_handling
FN:77,_RNvMs0_NtCsldCax6rooq1_18sqlrustgo_executor11stored_procNtB5_16ProcedureContext3new
FN:301,_RNvMs0_NtCsldCax6rooq1_18sqlrustgo_executor11stored_procNtB5_16ProcedureContext7get_var
FN:318,_RNvMs0_NtCsldCax6rooq1_18sqlrustgo_executor11stored_procNtB5_16ProcedureContext7has_var
FN:309,_RNvMs0_NtCsldCax6rooq1_18sqlrustgo_executor11stored_procNtB5_16ProcedureContext7set_var
FN:348,_RNvMs0_NtCsldCax6rooq1_18sqlrustgo_executor11stored_procNtB5_16ProcedureContext9set_leave
FN:826,_RNvMs1_NtCsldCax6rooq1_18sqlrustgo_executor11stored_procNtB5_18StoredProcExecutor11execute_sql
FN:1367,_RNvMs1_NtCsldCax6rooq1_18sqlrustgo_executor11stored_procNtB5_18StoredProcExecutor11partial_cmp
FN:452,_RNvMs1_NtCsldCax6rooq1_18sqlrustgo_executor11stored_procNtB5_18StoredProcExecutor12execute_body
FN:414,_RNvMs1_NtCsldCax6rooq1_18sqlrustgo_executor11stored_procNtB5_18StoredProcExecutor12execute_call
FN:405,_RNvMs1_NtCsldCax6rooq1_18sqlrustgo_executor11stored_procNtB5_18StoredProcExecutor12new_for_test
FN:1381,_RNvMs1_NtCsldCax6rooq1_18sqlrustgo_executor11stored_procNtB5_18StoredProcExecutor13arithmetic_op
FN:1411,_RNvMs1_NtCsldCax6rooq1_18sqlrustgo_executor11stored_procNtB5_18StoredProcExecutor13has_procedure
FN:1348,_RNvMs1_NtCsldCax6rooq1_18sqlrustgo_executor11stored_procNtB5_18StoredProcExecutor14compare_values
FN:1273,_RNvMs1_NtCsldCax6rooq1_18sqlrustgo_executor11stored_procNtB5_18StoredProcExecutor15expand_variable
FN:1416,_RNvMs1_NtCsldCax6rooq1_18sqlrustgo_executor11stored_procNtB5_18StoredProcExecutor15list_procedures
FN:1315,_RNvMs1_NtCsldCax6rooq1_18sqlrustgo_executor11stored_procNtB5_18StoredProcExecutor17evaluate_constant
FN:1108,_RNvMs1_NtCsldCax6rooq1_18sqlrustgo_executor11stored_procNtB5_18StoredProcExecutor17evaluate_function
FN:508,_RNvMs1_NtCsldCax6rooq1_18sqlrustgo_executor11stored_procNtB5_18StoredProcExecutor17execute_statement
FN:1041,_RNvMs1_NtCsldCax6rooq1_18sqlrustgo_executor11stored_procNtB5_18StoredProcExecutor18evaluate_binary_op
FN:1212,_RNvMs1_NtCsldCax6rooq1_18sqlrustgo_executor11stored_procNtB5_18StoredProcExecutor18evaluate_condition
FN:1234,_RNvMs1_NtCsldCax6rooq1_18sqlrustgo_executor11stored_procNtB5_18StoredProcExecutor19evaluate_expression
FN:998,_RNvMs1_NtCsldCax6rooq1_18sqlrustgo_executor11stored_procNtB5_18StoredProcExecutor19expression_to_value
FN:1287,_RNvMs1_NtCsldCax6rooq1_18sqlrustgo_executor11stored_procNtB5_18StoredProcExecutor23expand_variables_in_sql
FN:864,_RNvMs1_NtCsldCax6rooq1_18sqlrustgo_executor11stored_procNtB5_18StoredProcExecutor25execute_statement_storage
FN:125,_RNCNvMs0_NtCs4qFySXYcYQq_18sqlrustgo_executor11stored_procNtB7_16ProcedureContext12fetch_cursor0B9_
FN:305,_RNCNvMs0_NtCs4qFySXYcYQq_18sqlrustgo_executor11stored_procNtB7_16ProcedureContext7get_var0B9_
FN:277,_RNCNvMs0_NtCs4qFySXYcYQq_18sqlrustgo_executor11stored_procNtB7_16ProcedureContext9has_label0B9_
FN:836,_RNCNvMs1_NtCs4qFySXYcYQq_18sqlrustgo_executor11stored_procNtB7_18StoredProcExecutor11execute_sql0B9_
FN:419,_RNCNvMs1_NtCs4qFySXYcYQq_18sqlrustgo_executor11stored_procNtB7_18StoredProcExecutor12execute_call0B9_
FN:522,_RNCNvMs1_NtCs4qFySXYcYQq_18sqlrustgo_executor11stored_procNtB7_18StoredProcExecutor17execute_statement0B9_
FN:548,_RNCNvMs1_NtCs4qFySXYcYQq_18sqlrustgo_executor11stored_procNtB7_18StoredProcExecutor17execute_statements0_0B9_
FN:638,_RNCNvMs1_NtCs4qFySXYcYQq_18sqlrustgo_executor11stored_procNtB7_18StoredProcExecutor17execute_statements1_0B9_
FN:646,_RNCNvMs1_NtCs4qFySXYcYQq_18sqlrustgo_executor11stored_procNtB7_18StoredProcExecutor17execute_statements2_0B9_
FN:660,_RNCNvMs1_NtCs4qFySXYcYQq_18sqlrustgo_executor11stored_procNtB7_18StoredProcExecutor17execute_statements3_0B9_
FN:668,_RNCNvMs1_NtCs4qFySXYcYQq_18sqlrustgo_executor11stored_procNtB7_18StoredProcExecutor17execute_statements4_0B9_
FN:723,_RNCNvMs1_NtCs4qFySXYcYQq_18sqlrustgo_executor11stored_procNtB7_18StoredProcExecutor17execute_statements5_0B9_
FN:796,_RNCNvMs1_NtCs4qFySXYcYQq_18sqlrustgo_executor11stored_procNtB7_18StoredProcExecutor17execute_statements6_0B9_
FN:802,_RNCNvMs1_NtCs4qFySXYcYQq_18sqlrustgo_executor11stored_procNtB7_18StoredProcExecutor17execute_statements7_0B9_
FN:1302,_RNCNvMs1_NtCs4qFySXYcYQq_18sqlrustgo_executor11stored_procNtB7_18StoredProcExecutor23expand_variables_in_sql0B9_
FN:1303,_RNCNvMs1_NtCs4qFySXYcYQq_18sqlrustgo_executor11stored_procNtB7_18StoredProcExecutor23expand_variables_in_sqls_0B9_
FN:875,_RNCNvMs1_NtCs4qFySXYcYQq_18sqlrustgo_executor11stored_procNtB7_18StoredProcExecutor25execute_statement_storage0B9_
FN:909,_RNCNvMs1_NtCs4qFySXYcYQq_18sqlrustgo_executor11stored_procNtB7_18StoredProcExecutor25execute_statement_storages0_0B9_
FN:927,_RNCNvMs1_NtCs4qFySXYcYQq_18sqlrustgo_executor11stored_procNtB7_18StoredProcExecutor25execute_statement_storages1_0B9_
FN:939,_RNCNvMs1_NtCs4qFySXYcYQq_18sqlrustgo_executor11stored_procNtB7_18StoredProcExecutor25execute_statement_storages2_0B9_
FN:964,_RNCNvMs1_NtCs4qFySXYcYQq_18sqlrustgo_executor11stored_procNtB7_18StoredProcExecutor25execute_statement_storages3_0B9_
FN:973,_RNCNvMs1_NtCs4qFySXYcYQq_18sqlrustgo_executor11stored_procNtB7_18StoredProcExecutor25execute_statement_storages4_0B9_
FN:988,_RNCNvMs1_NtCs4qFySXYcYQq_18sqlrustgo_executor11stored_procNtB7_18StoredProcExecutor25execute_statement_storages5_0B9_
FN:880,_RNCNvMs1_NtCs4qFySXYcYQq_18sqlrustgo_executor11stored_procNtB7_18StoredProcExecutor25execute_statement_storages_0B9_
FN:257,_RNvMs0_NtCs4qFySXYcYQq_18sqlrustgo_executor11stored_procNtB5_16ProcedureContext10exit_label
FN:269,_RNvMs0_NtCs4qFySXYcYQq_18sqlrustgo_executor11stored_procNtB5_16ProcedureContext10exit_scope
FN:343,_RNvMs0_NtCs4qFySXYcYQq_18sqlrustgo_executor11stored_procNtB5_16ProcedureContext10get_return
FN:163,_RNvMs0_NtCs4qFySXYcYQq_18sqlrustgo_executor11stored_procNtB5_16ProcedureContext10has_cursor
FN:338,_RNvMs0_NtCs4qFySXYcYQq_18sqlrustgo_executor11stored_procNtB5_16ProcedureContext10set_return
FN:251,_RNvMs0_NtCs4qFySXYcYQq_18sqlrustgo_executor11stored_procNtB5_16ProcedureContext11enter_label
FN:263,_RNvMs0_NtCs4qFySXYcYQq_18sqlrustgo_executor11stored_procNtB5_16ProcedureContext11enter_scope
FN:109,_RNvMs0_NtCs4qFySXYcYQq_18sqlrustgo_executor11stored_procNtB5_16ProcedureContext11open_cursor
FN:182,_RNvMs0_NtCs4qFySXYcYQq_18sqlrustgo_executor11stored_procNtB5_16ProcedureContext11pop_handler
FN:358,_RNvMs0_NtCs4qFySXYcYQq_18sqlrustgo_executor11stored_procNtB5_16ProcedureContext11reset_leave
FN:363,_RNvMs0_NtCs4qFySXYcYQq_18sqlrustgo_executor11stored_procNtB5_16ProcedureContext11set_iterate
FN:153,_RNvMs0_NtCs4qFySXYcYQq_18sqlrustgo_executor11stored_procNtB5_16ProcedureContext12close_cursor
FN:120,_RNvMs0_NtCs4qFySXYcYQq_18sqlrustgo_executor11stored_procNtB5_16ProcedureContext12fetch_cursor
FN:176,_RNvMs0_NtCs4qFySXYcYQq_18sqlrustgo_executor11stored_procNtB5_16ProcedureContext12push_handler
FN:353,_RNvMs0_NtCs4qFySXYcYQq_18sqlrustgo_executor11stored_procNtB5_16ProcedureContext12should_leave
FN:246,_RNvMs0_NtCs4qFySXYcYQq_18sqlrustgo_executor11stored_procNtB5_16ProcedureContext13get_exception
FN:286,_RNvMs0_NtCs4qFySXYcYQq_18sqlrustgo_executor11stored_procNtB5_16ProcedureContext13get_local_var
FN:373,_RNvMs0_NtCs4qFySXYcYQq_18sqlrustgo_executor11stored_procNtB5_16ProcedureContext13reset_iterate
FN:231,_RNvMs0_NtCs4qFySXYcYQq_18sqlrustgo_executor11stored_procNtB5_16ProcedureContext13set_exception
FN:281,_RNvMs0_NtCs4qFySXYcYQq_18sqlrustgo_executor11stored_procNtB5_16ProcedureContext13set_local_var
FN:95,_RNvMs0_NtCs4qFySXYcYQq_18sqlrustgo_executor11stored_procNtB5_16ProcedureContext14declare_cursor
FN:368,_RNvMs0_NtCs4qFySXYcYQq_18sqlrustgo_executor11stored_procNtB5_16ProcedureContext14should_iterate
FN:241,_RNvMs0_NtCs4qFySXYcYQq_18sqlrustgo_executor11stored_procNtB5_16ProcedureContext15clear_exception
FN:296,_RNvMs0_NtCs4qFySXYcYQq_18sqlrustgo_executor11stored_procNtB5_16ProcedureContext15get_session_var
FN:291,_RNvMs0_NtCs4qFySXYcYQq_18sqlrustgo_executor11stored_procNtB5_16ProcedureContext15set_session_var
FN:328,_RNvMs0_NtCs4qFySXYcYQq_18sqlrustgo_executor11stored_procNtB5_16ProcedureContext16clear_local_vars
FN:333,_RNvMs0_NtCs4qFySXYcYQq_18sqlrustgo_executor11stored_procNtB5_16ProcedureContext16get_session_vars
FN:168,_RNvMs0_NtCs4qFySXYcYQq_18sqlrustgo_executor11stored_procNtB5_16ProcedureContext18set_cursor_records
FN:187,_RNvMs0_NtCs4qFySXYcYQq_18sqlrustgo_executor11stored_procNtB5_16ProcedureContext21find_matching_handler
FN:226,_RNvMs0_NtCs4qFySXYcYQq_18sqlrustgo_executor11stored_procNtB5_16ProcedureContext21is_handling_exception
FN:221,_RNvMs0_NtCs4qFySXYcYQq_18sqlrustgo_executor11stored_procNtB5_16ProcedureContext22set_exception_handling
FN:77,_RNvMs0_NtCs4qFySXYcYQq_18sqlrustgo_executor11stored_procNtB5_16ProcedureContext3new
FN:301,_RNvMs0_NtCs4qFySXYcYQq_18sqlrustgo_executor11stored_procNtB5_16ProcedureContext7get_var
FN:318,_RNvMs0_NtCs4qFySXYcYQq_18sqlrustgo_executor11stored_procNtB5_16ProcedureContext7has_var
FN:309,_RNvMs0_NtCs4qFySXYcYQq_18sqlrustgo_executor11stored_procNtB5_16ProcedureContext7set_var
FN:383,_RNvMs0_NtCs4qFySXYcYQq_18sqlrustgo_executor11stored_procNtB5_16ProcedureContext9get_label
FN:276,_RNvMs0_NtCs4qFySXYcYQq_18sqlrustgo_executor11stored_procNtB5_16ProcedureContext9has_label
FN:378,_RNvMs0_NtCs4qFySXYcYQq_18sqlrustgo_executor11stored_procNtB5_16ProcedureContext9set_label
FN:348,_RNvMs0_NtCs4qFySXYcYQq_18sqlrustgo_executor11stored_procNtB5_16ProcedureContext9set_leave
FN:826,_RNvMs1_NtCs4qFySXYcYQq_18sqlrustgo_executor11stored_procNtB5_18StoredProcExecutor11execute_sql
FN:1367,_RNvMs1_NtCs4qFySXYcYQq_18sqlrustgo_executor11stored_procNtB5_18StoredProcExecutor11partial_cmp
FN:452,_RNvMs1_NtCs4qFySXYcYQq_18sqlrustgo_executor11stored_procNtB5_18StoredProcExecutor12execute_body
FN:414,_RNvMs1_NtCs4qFySXYcYQq_18sqlrustgo_executor11stored_procNtB5_18StoredProcExecutor12execute_call
FN:1381,_RNvMs1_NtCs4qFySXYcYQq_18sqlrustgo_executor11stored_procNtB5_18StoredProcExecutor13arithmetic_op
FN:1411,_RNvMs1_NtCs4qFySXYcYQq_18sqlrustgo_executor11stored_procNtB5_18StoredProcExecutor13has_procedure
FN:1348,_RNvMs1_NtCs4qFySXYcYQq_18sqlrustgo_executor11stored_procNtB5_18StoredProcExecutor14compare_values
FN:1273,_RNvMs1_NtCs4qFySXYcYQq_18sqlrustgo_executor11stored_procNtB5_18StoredProcExecutor15expand_variable
FN:1416,_RNvMs1_NtCs4qFySXYcYQq_18sqlrustgo_executor11stored_procNtB5_18StoredProcExecutor15list_procedures
FN:1315,_RNvMs1_NtCs4qFySXYcYQq_18sqlrustgo_executor11stored_procNtB5_18StoredProcExecutor17evaluate_constant
FN:1108,_RNvMs1_NtCs4qFySXYcYQq_18sqlrustgo_executor11stored_procNtB5_18StoredProcExecutor17evaluate_function
FN:508,_RNvMs1_NtCs4qFySXYcYQq_18sqlrustgo_executor11stored_procNtB5_18StoredProcExecutor17execute_statement
FN:1041,_RNvMs1_NtCs4qFySXYcYQq_18sqlrustgo_executor11stored_procNtB5_18StoredProcExecutor18evaluate_binary_op
FN:1212,_RNvMs1_NtCs4qFySXYcYQq_18sqlrustgo_executor11stored_procNtB5_18StoredProcExecutor18evaluate_condition
FN:1234,_RNvMs1_NtCs4qFySXYcYQq_18sqlrustgo_executor11stored_procNtB5_18StoredProcExecutor19evaluate_expression
FN:998,_RNvMs1_NtCs4qFySXYcYQq_18sqlrustgo_executor11stored_procNtB5_18StoredProcExecutor19expression_to_value
FN:1287,_RNvMs1_NtCs4qFySXYcYQq_18sqlrustgo_executor11stored_procNtB5_18StoredProcExecutor23expand_variables_in_sql
FN:864,_RNvMs1_NtCs4qFySXYcYQq_18sqlrustgo_executor11stored_procNtB5_18StoredProcExecutor25execute_statement_storage
FN:397,_RNvMs1_NtCs4qFySXYcYQq_18sqlrustgo_executor11stored_procNtB5_18StoredProcExecutor3new
FN:21,_RNvXNtCs4qFySXYcYQq_18sqlrustgo_executor11stored_procNtB2_15StoredProcErrorNtNtCs8nPosuWgJFh_4core3fmt7Display3fmt
FNDA:0,_RNCNvMs0_NtCsldCax6rooq1_18sqlrustgo_executor11stored_procNtB7_16ProcedureContext9has_label0B9_
FNDA:0,_RNvMs0_NtCsldCax6rooq1_18sqlrustgo_executor11stored_procNtB5_16ProcedureContext10has_cursor
FNDA:0,_RNvMs0_NtCsldCax6rooq1_18sqlrustgo_executor11stored_procNtB5_16ProcedureContext11pop_handler
FNDA:0,_RNvMs0_NtCsldCax6rooq1_18sqlrustgo_executor11stored_procNtB5_16ProcedureContext13get_exception
FNDA:0,_RNvMs0_NtCsldCax6rooq1_18sqlrustgo_executor11stored_procNtB5_16ProcedureContext13get_local_var
FNDA:0,_RNvMs0_NtCsldCax6rooq1_18sqlrustgo_executor11stored_procNtB5_16ProcedureContext13set_local_var
FNDA:0,_RNvMs0_NtCsldCax6rooq1_18sqlrustgo_executor11stored_procNtB5_16ProcedureContext16get_session_vars
FNDA:0,_RNvMs0_NtCsldCax6rooq1_18sqlrustgo_executor11stored_procNtB5_16ProcedureContext21is_handling_exception
FNDA:0,_RNvMs0_NtCsldCax6rooq1_18sqlrustgo_executor11stored_procNtB5_16ProcedureContext9get_label
FNDA:0,_RNvMs0_NtCsldCax6rooq1_18sqlrustgo_executor11stored_procNtB5_16ProcedureContext9has_label
FNDA:0,_RNvMs0_NtCsldCax6rooq1_18sqlrustgo_executor11stored_procNtB5_16ProcedureContext9set_label
FNDA:0,_RNvMs1_NtCsldCax6rooq1_18sqlrustgo_executor11stored_procNtB5_18StoredProcExecutor3new
FNDA:0,_RNvXNtCsldCax6rooq1_18sqlrustgo_executor11stored_procNtB2_15StoredProcErrorNtNtCs8nPosuWgJFh_4core3fmt7Display3fmt
FNDA:0,_RNCNvMs0_NtCsldCax6rooq1_18sqlrustgo_executor11stored_procNtB7_16ProcedureContext12fetch_cursor0B9_
FNDA:3,_RNCNvMs0_NtCsldCax6rooq1_18sqlrustgo_executor11stored_procNtB7_16ProcedureContext7get_var0B9_
FNDA:0,_RNCNvMs1_NtCsldCax6rooq1_18sqlrustgo_executor11stored_procNtB7_18StoredProcExecutor11execute_sql0B9_
FNDA:1,_RNCNvMs1_NtCsldCax6rooq1_18sqlrustgo_executor11stored_procNtB7_18StoredProcExecutor12execute_call0B9_
FNDA:0,_RNCNvMs1_NtCsldCax6rooq1_18sqlrustgo_executor11stored_procNtB7_18StoredProcExecutor17execute_statement0B9_
FNDA:0,_RNCNvMs1_NtCsldCax6rooq1_18sqlrustgo_executor11stored_procNtB7_18StoredProcExecutor17execute_statements0_0B9_
FNDA:0,_RNCNvMs1_NtCsldCax6rooq1_18sqlrustgo_executor11stored_procNtB7_18StoredProcExecutor17execute_statements1_0B9_
FNDA:0,_RNCNvMs1_NtCsldCax6rooq1_18sqlrustgo_executor11stored_procNtB7_18StoredProcExecutor17execute_statements2_0B9_
FNDA:0,_RNCNvMs1_NtCsldCax6rooq1_18sqlrustgo_executor11stored_procNtB7_18StoredProcExecutor17execute_statements3_0B9_
FNDA:0,_RNCNvMs1_NtCsldCax6rooq1_18sqlrustgo_executor11stored_procNtB7_18StoredProcExecutor17execute_statements4_0B9_
FNDA:0,_RNCNvMs1_NtCsldCax6rooq1_18sqlrustgo_executor11stored_procNtB7_18StoredProcExecutor17execute_statements5_0B9_
FNDA:0,_RNCNvMs1_NtCsldCax6rooq1_18sqlrustgo_executor11stored_procNtB7_18StoredProcExecutor17execute_statements6_0B9_
FNDA:0,_RNCNvMs1_NtCsldCax6rooq1_18sqlrustgo_executor11stored_procNtB7_18StoredProcExecutor17execute_statements7_0B9_
FNDA:0,_RNCNvMs1_NtCsldCax6rooq1_18sqlrustgo_executor11stored_procNtB7_18StoredProcExecutor23expand_variables_in_sql0B9_
FNDA:0,_RNCNvMs1_NtCsldCax6rooq1_18sqlrustgo_executor11stored_procNtB7_18StoredProcExecutor23expand_variables_in_sqls_0B9_
FNDA:0,_RNCNvMs1_NtCsldCax6rooq1_18sqlrustgo_executor11stored_procNtB7_18StoredProcExecutor25execute_statement_storage0B9_
FNDA:0,_RNCNvMs1_NtCsldCax6rooq1_18sqlrustgo_executor11stored_procNtB7_18StoredProcExecutor25execute_statement_storages0_0B9_
FNDA:0,_RNCNvMs1_NtCsldCax6rooq1_18sqlrustgo_executor11stored_procNtB7_18StoredProcExecutor25execute_statement_storages1_0B9_
FNDA:0,_RNCNvMs1_NtCsldCax6rooq1_18sqlrustgo_executor11stored_procNtB7_18StoredProcExecutor25execute_statement_storages2_0B9_
FNDA:0,_RNCNvMs1_NtCsldCax6rooq1_18sqlrustgo_executor11stored_procNtB7_18StoredProcExecutor25execute_statement_storages3_0B9_
FNDA:0,_RNCNvMs1_NtCsldCax6rooq1_18sqlrustgo_executor11stored_procNtB7_18StoredProcExecutor25execute_statement_storages4_0B9_
FNDA:0,_RNCNvMs1_NtCsldCax6rooq1_18sqlrustgo_executor11stored_procNtB7_18StoredProcExecutor25execute_statement_storages5_0B9_
FNDA:0,_RNCNvMs1_NtCsldCax6rooq1_18sqlrustgo_executor11stored_procNtB7_18StoredProcExecutor25execute_statement_storages_0B9_
FNDA:1,_RNvNtNtCsldCax6rooq1_18sqlrustgo_executor11stored_proc5testss_23test_evaluate_condition
FNDA:1,_RNvNtNtCsldCax6rooq1_18sqlrustgo_executor11stored_proc5testss_28test_procedure_context_leave
FNDA:1,_RNvNtNtCsldCax6rooq1_18sqlrustgo_executor11stored_proc5testss_29test_procedure_context_return
FNDA:1,_RNvNtNtCsldCax6rooq1_18sqlrustgo_executor11stored_proc5testss_34test_procedure_context_set_get_var
FNDA:1,_RNvNtNtCsldCax6rooq1_18sqlrustgo_executor11stored_proc5testss_35test_procedure_context_session_vars
FNDA:1,_RNvNtNtCsldCax6rooq1_18sqlrustgo_executor11stored_proc5testss_35test_stored_proc_executor_not_found
FNDA:1,_RNvNtNtCsldCax6rooq1_18sqlrustgo_executor11stored_proc5testss_36test_stored_proc_executor_list_empty
FNDA:0,_RNvMs0_NtCsldCax6rooq1_18sqlrustgo_executor11stored_procNtB5_16ProcedureContext10exit_label
FNDA:0,_RNvMs0_NtCsldCax6rooq1_18sqlrustgo_executor11stored_procNtB5_16ProcedureContext10exit_scope
FNDA:2,_RNvMs0_NtCsldCax6rooq1_18sqlrustgo_executor11stored_procNtB5_16ProcedureContext10get_return
FNDA:1,_RNvMs0_NtCsldCax6rooq1_18sqlrustgo_executor11stored_procNtB5_16ProcedureContext10set_return
FNDA:0,_RNvMs0_NtCsldCax6rooq1_18sqlrustgo_executor11stored_procNtB5_16ProcedureContext11enter_label
FNDA:0,_RNvMs0_NtCsldCax6rooq1_18sqlrustgo_executor11stored_procNtB5_16ProcedureContext11enter_scope
FNDA:0,_RNvMs0_NtCsldCax6rooq1_18sqlrustgo_executor11stored_procNtB5_16ProcedureContext11open_cursor
FNDA:1,_RNvMs0_NtCsldCax6rooq1_18sqlrustgo_executor11stored_procNtB5_16ProcedureContext11reset_leave
FNDA:0,_RNvMs0_NtCsldCax6rooq1_18sqlrustgo_executor11stored_procNtB5_16ProcedureContext11set_iterate
FNDA:0,_RNvMs0_NtCsldCax6rooq1_18sqlrustgo_executor11stored_procNtB5_16ProcedureContext12close_cursor
FNDA:0,_RNvMs0_NtCsldCax6rooq1_18sqlrustgo_executor11stored_procNtB5_16ProcedureContext12fetch_cursor
FNDA:0,_RNvMs0_NtCsldCax6rooq1_18sqlrustgo_executor11stored_procNtB5_16ProcedureContext12push_handler
FNDA:3,_RNvMs0_NtCsldCax6rooq1_18sqlrustgo_executor11stored_procNtB5_16ProcedureContext12should_leave
FNDA:0,_RNvMs0_NtCsldCax6rooq1_18sqlrustgo_executor11stored_procNtB5_16ProcedureContext13reset_iterate
FNDA:0,_RNvMs0_NtCsldCax6rooq1_18sqlrustgo_executor11stored_procNtB5_16ProcedureContext13set_exception
FNDA:0,_RNvMs0_NtCsldCax6rooq1_18sqlrustgo_executor11stored_procNtB5_16ProcedureContext14declare_cursor
FNDA:0,_RNvMs0_NtCsldCax6rooq1_18sqlrustgo_executor11stored_procNtB5_16ProcedureContext14should_iterate
FNDA:0,_RNvMs0_NtCsldCax6rooq1_18sqlrustgo_executor11stored_procNtB5_16ProcedureContext15clear_exception
FNDA:0,_RNvMs0_NtCsldCax6rooq1_18sqlrustgo_executor11stored_procNtB5_16ProcedureContext15get_session_var
FNDA:0,_RNvMs0_NtCsldCax6rooq1_18sqlrustgo_executor11stored_procNtB5_16ProcedureContext15set_session_var
FNDA:1,_RNvMs0_NtCsldCax6rooq1_18sqlrustgo_executor11stored_procNtB5_16ProcedureContext16clear_local_vars
FNDA:0,_RNvMs0_NtCsldCax6rooq1_18sqlrustgo_executor11stored_procNtB5_16ProcedureContext18set_cursor_records
FNDA:0,_RNvMs0_NtCsldCax6rooq1_18sqlrustgo_executor11stored_procNtB5_16ProcedureContext21find_matching_handler
FNDA:0,_RNvMs0_NtCsldCax6rooq1_18sqlrustgo_executor11stored_procNtB5_16ProcedureContext22set_exception_handling
FNDA:5,_RNvMs0_NtCsldCax6rooq1_18sqlrustgo_executor11stored_procNtB5_16ProcedureContext3new
FNDA:4,_RNvMs0_NtCsldCax6rooq1_18sqlrustgo_executor11stored_procNtB5_16ProcedureContext7get_var
FNDA:0,_RNvMs0_NtCsldCax6rooq1_18sqlrustgo_executor11stored_procNtB5_16ProcedureContext7has_var
FNDA:3,_RNvMs0_NtCsldCax6rooq1_18sqlrustgo_executor11stored_procNtB5_16ProcedureContext7set_var
FNDA:1,_RNvMs0_NtCsldCax6rooq1_18sqlrustgo_executor11stored_procNtB5_16ProcedureContext9set_leave
FNDA:0,_RNvMs1_NtCsldCax6rooq1_18sqlrustgo_executor11stored_procNtB5_18StoredProcExecutor11execute_sql
FNDA:0,_RNvMs1_NtCsldCax6rooq1_18sqlrustgo_executor11stored_procNtB5_18StoredProcExecutor11partial_cmp
FNDA:0,_RNvMs1_NtCsldCax6rooq1_18sqlrustgo_executor11stored_procNtB5_18StoredProcExecutor12execute_body
FNDA:1,_RNvMs1_NtCsldCax6rooq1_18sqlrustgo_executor11stored_procNtB5_18StoredProcExecutor12execute_call
FNDA:3,_RNvMs1_NtCsldCax6rooq1_18sqlrustgo_executor11stored_procNtB5_18StoredProcExecutor12new_for_test
FNDA:0,_RNvMs1_NtCsldCax6rooq1_18sqlrustgo_executor11stored_procNtB5_18StoredProcExecutor13arithmetic_op
FNDA:1,_RNvMs1_NtCsldCax6rooq1_18sqlrustgo_executor11stored_procNtB5_18StoredProcExecutor13has_procedure
FNDA:0,_RNvMs1_NtCsldCax6rooq1_18sqlrustgo_executor11stored_procNtB5_18StoredProcExecutor14compare_values
FNDA:0,_RNvMs1_NtCsldCax6rooq1_18sqlrustgo_executor11stored_procNtB5_18StoredProcExecutor15expand_variable
FNDA:1,_RNvMs1_NtCsldCax6rooq1_18sqlrustgo_executor11stored_procNtB5_18StoredProcExecutor15list_procedures
FNDA:0,_RNvMs1_NtCsldCax6rooq1_18sqlrustgo_executor11stored_procNtB5_18StoredProcExecutor17evaluate_constant
FNDA:0,_RNvMs1_NtCsldCax6rooq1_18sqlrustgo_executor11stored_procNtB5_18StoredProcExecutor17evaluate_function
FNDA:0,_RNvMs1_NtCsldCax6rooq1_18sqlrustgo_executor11stored_procNtB5_18StoredProcExecutor17execute_statement
FNDA:0,_RNvMs1_NtCsldCax6rooq1_18sqlrustgo_executor11stored_procNtB5_18StoredProcExecutor18evaluate_binary_op
FNDA:0,_RNvMs1_NtCsldCax6rooq1_18sqlrustgo_executor11stored_procNtB5_18StoredProcExecutor18evaluate_condition
FNDA:0,_RNvMs1_NtCsldCax6rooq1_18sqlrustgo_executor11stored_procNtB5_18StoredProcExecutor19evaluate_expression
FNDA:0,_RNvMs1_NtCsldCax6rooq1_18sqlrustgo_executor11stored_procNtB5_18StoredProcExecutor19expression_to_value
FNDA:0,_RNvMs1_NtCsldCax6rooq1_18sqlrustgo_executor11stored_procNtB5_18StoredProcExecutor23expand_variables_in_sql
FNDA:0,_RNvMs1_NtCsldCax6rooq1_18sqlrustgo_executor11stored_procNtB5_18StoredProcExecutor25execute_statement_storage
FNDA:0,_RNCNvMs0_NtCs4qFySXYcYQq_18sqlrustgo_executor11stored_procNtB7_16ProcedureContext12fetch_cursor0B9_
FNDA:0,_RNCNvMs0_NtCs4qFySXYcYQq_18sqlrustgo_executor11stored_procNtB7_16ProcedureContext7get_var0B9_
FNDA:0,_RNCNvMs0_NtCs4qFySXYcYQq_18sqlrustgo_executor11stored_procNtB7_16ProcedureContext9has_label0B9_
FNDA:0,_RNCNvMs1_NtCs4qFySXYcYQq_18sqlrustgo_executor11stored_procNtB7_18StoredProcExecutor11execute_sql0B9_
FNDA:0,_RNCNvMs1_NtCs4qFySXYcYQq_18sqlrustgo_executor11stored_procNtB7_18StoredProcExecutor12execute_call0B9_
FNDA:0,_RNCNvMs1_NtCs4qFySXYcYQq_18sqlrustgo_executor11stored_procNtB7_18StoredProcExecutor17execute_statement0B9_
FNDA:0,_RNCNvMs1_NtCs4qFySXYcYQq_18sqlrustgo_executor11stored_procNtB7_18StoredProcExecutor17execute_statements0_0B9_
FNDA:0,_RNCNvMs1_NtCs4qFySXYcYQq_18sqlrustgo_executor11stored_procNtB7_18StoredProcExecutor17execute_statements1_0B9_
FNDA:0,_RNCNvMs1_NtCs4qFySXYcYQq_18sqlrustgo_executor11stored_procNtB7_18StoredProcExecutor17execute_statements2_0B9_
FNDA:0,_RNCNvMs1_NtCs4qFySXYcYQq_18sqlrustgo_executor11stored_procNtB7_18StoredProcExecutor17execute_statements3_0B9_
FNDA:0,_RNCNvMs1_NtCs4qFySXYcYQq_18sqlrustgo_executor11stored_procNtB7_18StoredProcExecutor17execute_statements4_0B9_
FNDA:0,_RNCNvMs1_NtCs4qFySXYcYQq_18sqlrustgo_executor11stored_procNtB7_18StoredProcExecutor17execute_statements5_0B9_
FNDA:0,_RNCNvMs1_NtCs4qFySXYcYQq_18sqlrustgo_executor11stored_procNtB7_18StoredProcExecutor17execute_statements6_0B9_
FNDA:0,_RNCNvMs1_NtCs4qFySXYcYQq_18sqlrustgo_executor11stored_procNtB7_18StoredProcExecutor17execute_statements7_0B9_
FNDA:0,_RNCNvMs1_NtCs4qFySXYcYQq_18sqlrustgo_executor11stored_procNtB7_18StoredProcExecutor23expand_variables_in_sql0B9_
FNDA:0,_RNCNvMs1_NtCs4qFySXYcYQq_18sqlrustgo_executor11stored_procNtB7_18StoredProcExecutor23expand_variables_in_sqls_0B9_
FNDA:0,_RNCNvMs1_NtCs4qFySXYcYQq_18sqlrustgo_executor11stored_procNtB7_18StoredProcExecutor25execute_statement_storage0B9_
FNDA:0,_RNCNvMs1_NtCs4qFySXYcYQq_18sqlrustgo_executor11stored_procNtB7_18StoredProcExecutor25execute_statement_storages0_0B9_
FNDA:0,_RNCNvMs1_NtCs4qFySXYcYQq_18sqlrustgo_executor11stored_procNtB7_18StoredProcExecutor25execute_statement_storages1_0B9_
FNDA:0,_RNCNvMs1_NtCs4qFySXYcYQq_18sqlrustgo_executor11stored_procNtB7_18StoredProcExecutor25execute_statement_storages2_0B9_
FNDA:0,_RNCNvMs1_NtCs4qFySXYcYQq_18sqlrustgo_executor11stored_procNtB7_18StoredProcExecutor25execute_statement_storages3_0B9_
FNDA:0,_RNCNvMs1_NtCs4qFySXYcYQq_18sqlrustgo_executor11stored_procNtB7_18StoredProcExecutor25execute_statement_storages4_0B9_
FNDA:0,_RNCNvMs1_NtCs4qFySXYcYQq_18sqlrustgo_executor11stored_procNtB7_18StoredProcExecutor25execute_statement_storages5_0B9_
FNDA:0,_RNCNvMs1_NtCs4qFySXYcYQq_18sqlrustgo_executor11stored_procNtB7_18StoredProcExecutor25execute_statement_storages_0B9_
FNDA:0,_RNvMs0_NtCs4qFySXYcYQq_18sqlrustgo_executor11stored_procNtB5_16ProcedureContext10exit_label
FNDA:0,_RNvMs0_NtCs4qFySXYcYQq_18sqlrustgo_executor11stored_procNtB5_16ProcedureContext10exit_scope
FNDA:0,_RNvMs0_NtCs4qFySXYcYQq_18sqlrustgo_executor11stored_procNtB5_16ProcedureContext10get_return
FNDA:0,_RNvMs0_NtCs4qFySXYcYQq_18sqlrustgo_executor11stored_procNtB5_16ProcedureContext10has_cursor
FNDA:0,_RNvMs0_NtCs4qFySXYcYQq_18sqlrustgo_executor11stored_procNtB5_16ProcedureContext10set_return
FNDA:0,_RNvMs0_NtCs4qFySXYcYQq_18sqlrustgo_executor11stored_procNtB5_16ProcedureContext11enter_label
FNDA:0,_RNvMs0_NtCs4qFySXYcYQq_18sqlrustgo_executor11stored_procNtB5_16ProcedureContext11enter_scope
FNDA:0,_RNvMs0_NtCs4qFySXYcYQq_18sqlrustgo_executor11stored_procNtB5_16ProcedureContext11open_cursor
FNDA:0,_RNvMs0_NtCs4qFySXYcYQq_18sqlrustgo_executor11stored_procNtB5_16ProcedureContext11pop_handler
FNDA:0,_RNvMs0_NtCs4qFySXYcYQq_18sqlrustgo_executor11stored_procNtB5_16ProcedureContext11reset_leave
FNDA:0,_RNvMs0_NtCs4qFySXYcYQq_18sqlrustgo_executor11stored_procNtB5_16ProcedureContext11set_iterate
FNDA:0,_RNvMs0_NtCs4qFySXYcYQq_18sqlrustgo_executor11stored_procNtB5_16ProcedureContext12close_cursor
FNDA:0,_RNvMs0_NtCs4qFySXYcYQq_18sqlrustgo_executor11stored_procNtB5_16ProcedureContext12fetch_cursor
FNDA:0,_RNvMs0_NtCs4qFySXYcYQq_18sqlrustgo_executor11stored_procNtB5_16ProcedureContext12push_handler
FNDA:0,_RNvMs0_NtCs4qFySXYcYQq_18sqlrustgo_executor11stored_procNtB5_16ProcedureContext12should_leave
FNDA:0,_RNvMs0_NtCs4qFySXYcYQq_18sqlrustgo_executor11stored_procNtB5_16ProcedureContext13get_exception
FNDA:0,_RNvMs0_NtCs4qFySXYcYQq_18sqlrustgo_executor11stored_procNtB5_16ProcedureContext13get_local_var
FNDA:0,_RNvMs0_NtCs4qFySXYcYQq_18sqlrustgo_executor11stored_procNtB5_16ProcedureContext13reset_iterate
FNDA:0,_RNvMs0_NtCs4qFySXYcYQq_18sqlrustgo_executor11stored_procNtB5_16ProcedureContext13set_exception
FNDA:0,_RNvMs0_NtCs4qFySXYcYQq_18sqlrustgo_executor11stored_procNtB5_16ProcedureContext13set_local_var
FNDA:0,_RNvMs0_NtCs4qFySXYcYQq_18sqlrustgo_executor11stored_procNtB5_16ProcedureContext14declare_cursor
FNDA:0,_RNvMs0_NtCs4qFySXYcYQq_18sqlrustgo_executor11stored_procNtB5_16ProcedureContext14should_iterate
FNDA:0,_RNvMs0_NtCs4qFySXYcYQq_18sqlrustgo_executor11stored_procNtB5_16ProcedureContext15clear_exception
FNDA:0,_RNvMs0_NtCs4qFySXYcYQq_18sqlrustgo_executor11stored_procNtB5_16ProcedureContext15get_session_var
FNDA:0,_RNvMs0_NtCs4qFySXYcYQq_18sqlrustgo_executor11stored_procNtB5_16ProcedureContext15set_session_var
FNDA:0,_RNvMs0_NtCs4qFySXYcYQq_18sqlrustgo_executor11stored_procNtB5_16ProcedureContext16clear_local_vars
FNDA:0,_RNvMs0_NtCs4qFySXYcYQq_18sqlrustgo_executor11stored_procNtB5_16ProcedureContext16get_session_vars
FNDA:0,_RNvMs0_NtCs4qFySXYcYQq_18sqlrustgo_executor11stored_procNtB5_16ProcedureContext18set_cursor_records
FNDA:0,_RNvMs0_NtCs4qFySXYcYQq_18sqlrustgo_executor11stored_procNtB5_16ProcedureContext21find_matching_handler
FNDA:0,_RNvMs0_NtCs4qFySXYcYQq_18sqlrustgo_executor11stored_procNtB5_16ProcedureContext21is_handling_exception
FNDA:0,_RNvMs0_NtCs4qFySXYcYQq_18sqlrustgo_executor11stored_procNtB5_16ProcedureContext22set_exception_handling
FNDA:0,_RNvMs0_NtCs4qFySXYcYQq_18sqlrustgo_executor11stored_procNtB5_16ProcedureContext3new
FNDA:0,_RNvMs0_NtCs4qFySXYcYQq_18sqlrustgo_executor11stored_procNtB5_16ProcedureContext7get_var
FNDA:0,_RNvMs0_NtCs4qFySXYcYQq_18sqlrustgo_executor11stored_procNtB5_16ProcedureContext7has_var
FNDA:0,_RNvMs0_NtCs4qFySXYcYQq_18sqlrustgo_executor11stored_procNtB5_16ProcedureContext7set_var
FNDA:0,_RNvMs0_NtCs4qFySXYcYQq_18sqlrustgo_executor11stored_procNtB5_16ProcedureContext9get_label
FNDA:0,_RNvMs0_NtCs4qFySXYcYQq_18sqlrustgo_executor11stored_procNtB5_16ProcedureContext9has_label
FNDA:0,_RNvMs0_NtCs4qFySXYcYQq_18sqlrustgo_executor11stored_procNtB5_16ProcedureContext9set_label
FNDA:0,_RNvMs0_NtCs4qFySXYcYQq_18sqlrustgo_executor11stored_procNtB5_16ProcedureContext9set_leave
FNDA:0,_RNvMs1_NtCs4qFySXYcYQq_18sqlrustgo_executor11stored_procNtB5_18StoredProcExecutor11execute_sql
FNDA:0,_RNvMs1_NtCs4qFySXYcYQq_18sqlrustgo_executor11stored_procNtB5_18StoredProcExecutor11partial_cmp
FNDA:0,_RNvMs1_NtCs4qFySXYcYQq_18sqlrustgo_executor11stored_procNtB5_18StoredProcExecutor12execute_body
FNDA:0,_RNvMs1_NtCs4qFySXYcYQq_18sqlrustgo_executor11stored_procNtB5_18StoredProcExecutor12execute_call
FNDA:0,_RNvMs1_NtCs4qFySXYcYQq_18sqlrustgo_executor11stored_procNtB5_18StoredProcExecutor13arithmetic_op
FNDA:0,_RNvMs1_NtCs4qFySXYcYQq_18sqlrustgo_executor11stored_procNtB5_18StoredProcExecutor13has_procedure
FNDA:0,_RNvMs1_NtCs4qFySXYcYQq_18sqlrustgo_executor11stored_procNtB5_18StoredProcExecutor14compare_values
FNDA:0,_RNvMs1_NtCs4qFySXYcYQq_18sqlrustgo_executor11stored_procNtB5_18StoredProcExecutor15expand_variable
FNDA:0,_RNvMs1_NtCs4qFySXYcYQq_18sqlrustgo_executor11stored_procNtB5_18StoredProcExecutor15list_procedures
FNDA:0,_RNvMs1_NtCs4qFySXYcYQq_18sqlrustgo_executor11stored_procNtB5_18StoredProcExecutor17evaluate_constant
FNDA:0,_RNvMs1_NtCs4qFySXYcYQq_18sqlrustgo_executor11stored_procNtB5_18StoredProcExecutor17evaluate_function
FNDA:0,_RNvMs1_NtCs4qFySXYcYQq_18sqlrustgo_executor11stored_procNtB5_18StoredProcExecutor17execute_statement
FNDA:0,_RNvMs1_NtCs4qFySXYcYQq_18sqlrustgo_executor11stored_procNtB5_18StoredProcExecutor18evaluate_binary_op
FNDA:0,_RNvMs1_NtCs4qFySXYcYQq_18sqlrustgo_executor11stored_procNtB5_18StoredProcExecutor18evaluate_condition
FNDA:0,_RNvMs1_NtCs4qFySXYcYQq_18sqlrustgo_executor11stored_procNtB5_18StoredProcExecutor19evaluate_expression
FNDA:0,_RNvMs1_NtCs4qFySXYcYQq_18sqlrustgo_executor11stored_procNtB5_18StoredProcExecutor19expression_to_value
FNDA:0,_RNvMs1_NtCs4qFySXYcYQq_18sqlrustgo_executor11stored_procNtB5_18StoredProcExecutor23expand_variables_in_sql
FNDA:0,_RNvMs1_NtCs4qFySXYcYQq_18sqlrustgo_executor11stored_procNtB5_18StoredProcExecutor25execute_statement_storage
FNDA:0,_RNvMs1_NtCs4qFySXYcYQq_18sqlrustgo_executor11stored_procNtB5_18StoredProcExecutor3new
FNDA:0,_RNvXNtCs4qFySXYcYQq_18sqlrustgo_executor11stored_procNtB2_15StoredProcErrorNtNtCs8nPosuWgJFh_4core3fmt7Display3fmt
FNF:91
FNH:22
DA:21,0
DA:22,0
DA:23,0
DA:77,5
DA:78,5
DA:79,5
DA:80,5
DA:81,5
DA:82,5
DA:83,5
DA:84,5
DA:85,5
DA:86,5
DA:87,5
DA:88,5
DA:89,5
DA:90,5
DA:91,5
DA:92,5
DA:95,0
DA:96,0
DA:97,0
DA:98,0
DA:99,0
DA:100,0
DA:101,0
DA:102,0
DA:103,0
DA:104,0
DA:106,0
DA:109,0
DA:110,0
DA:111,0
DA:112,0
DA:113,0
DA:115,0
DA:117,0
DA:120,0
DA:121,0
DA:122,0
DA:123,0
DA:124,0
DA:125,0
DA:127,0
DA:128,0
DA:129,0
DA:131,0
DA:132,0
DA:133,0
DA:134,0
DA:136,0
DA:140,0
DA:141,0
DA:142,0
DA:143,0
DA:144,0
DA:145,0
DA:146,0
DA:148,0
DA:149,0
DA:150,0
DA:153,0
DA:154,0
DA:155,0
DA:156,0
DA:158,0
DA:160,0
DA:163,0
DA:164,0
DA:165,0
DA:168,0
DA:169,0
DA:170,0
DA:171,0
DA:172,0
DA:173,0
DA:176,0
DA:177,0
DA:178,0
DA:179,0
DA:182,0
DA:183,0
DA:184,0
DA:187,0
DA:188,0
DA:189,0
DA:191,0
DA:192,0
DA:193,0
DA:196,0
DA:197,0
DA:198,0
DA:201,0
DA:202,0
DA:203,0
DA:205,0
DA:206,0
DA:207,0
DA:208,0
DA:210,0
DA:211,0
DA:212,0
DA:213,0
DA:217,0
DA:218,0
DA:221,0
DA:222,0
DA:223,0
DA:226,0
DA:227,0
DA:228,0
DA:231,0
DA:232,0
DA:233,0
DA:234,0
DA:235,0
DA:236,0
DA:237,0
DA:238,0
DA:241,0
DA:242,0
DA:243,0
DA:246,0
DA:247,0
DA:248,0
DA:251,0
DA:252,0
DA:253,0
DA:254,0
DA:257,0
DA:258,0
DA:259,0
DA:260,0
DA:263,0
DA:264,0
DA:265,0
DA:266,0
DA:269,0
DA:270,0
DA:271,0
DA:272,0
DA:273,0
DA:276,0
DA:277,0
DA:278,0
DA:281,0
DA:282,0
DA:283,0
DA:286,0
DA:287,0
DA:288,0
DA:291,0
DA:292,0
DA:293,0
DA:296,0
DA:297,0
DA:298,0
DA:301,4
DA:302,4
DA:303,4
DA:304,4
DA:305,4
DA:306,4
DA:309,3
DA:310,3
DA:311,1
DA:312,2
DA:313,2
DA:314,2
DA:315,3
DA:318,0
DA:319,0
DA:320,0
DA:322,0
DA:324,0
DA:325,0
DA:328,1
DA:329,1
DA:330,1
DA:333,0
DA:334,0
DA:335,0
DA:338,1
DA:339,1
DA:340,1
DA:343,2
DA:344,2
DA:345,2
DA:348,1
DA:349,1
DA:350,1
DA:353,3
DA:354,3
DA:355,3
DA:358,1
DA:359,1
DA:360,1
DA:363,0
DA:364,0
DA:365,0
DA:368,0
DA:369,0
DA:370,0
DA:373,0
DA:374,0
DA:375,0
DA:378,0
DA:379,0
DA:380,0
DA:383,0
DA:384,0
DA:385,0
DA:397,0
DA:398,0
DA:399,0
DA:400,0
DA:401,0
DA:402,0
DA:405,3
DA:407,3
DA:408,3
DA:409,3
DA:410,3
DA:411,3
DA:414,1
DA:416,1
DA:417,1
DA:418,1
DA:419,1
DA:422,0
DA:425,0
DA:426,0
DA:427,0
DA:428,0
DA:432,0
DA:435,0
DA:436,0
DA:437,0
DA:439,0
DA:440,0
DA:441,0
DA:442,0
DA:443,0
DA:444,0
DA:445,0
DA:446,0
DA:447,0
DA:449,1
DA:452,0
DA:453,0
DA:454,0
DA:455,0
DA:456,0
DA:457,0
DA:458,0
DA:459,0
DA:460,0
DA:461,0
DA:462,0
DA:463,0
DA:464,0
DA:465,0
DA:466,0
DA:467,0
DA:468,0
DA:470,0
DA:472,0
DA:474,0
DA:475,0
DA:476,0
DA:477,0
DA:478,0
DA:479,0
DA:480,0
DA:481,0
DA:482,0
DA:483,0
DA:484,0
DA:485,0
DA:486,0
DA:488,0
DA:490,0
DA:491,0
DA:492,0
DA:493,0
DA:494,0
DA:495,0
DA:497,0
DA:498,0
DA:499,0
DA:500,0
DA:501,0
DA:502,0
DA:504,0
DA:505,0
DA:508,0
DA:509,0
DA:510,0
DA:511,0
DA:512,0
DA:513,0
DA:515,0
DA:516,0
DA:520,0
DA:521,0
DA:522,0
DA:523,0
DA:524,0
DA:525,0
DA:527,0
DA:529,0
DA:530,0
DA:531,0
DA:533,0
DA:535,0
DA:536,0
DA:537,0
DA:538,0
DA:541,0
DA:542,0
DA:543,0
DA:544,0
DA:546,0
DA:547,0
DA:548,0
DA:549,0
DA:551,0
DA:552,0
DA:554,0
DA:556,0
DA:558,0
DA:559,0
DA:560,0
DA:561,0
DA:562,0
DA:563,0
DA:564,0
DA:565,0
DA:568,0
DA:571,0
DA:572,0
DA:573,0
DA:574,0
DA:577,0
DA:578,0
DA:581,0
DA:582,0
DA:583,0
DA:584,0
DA:585,0
DA:586,0
DA:587,0
DA:589,0
DA:590,0
DA:591,0
DA:593,0
DA:595,0
DA:597,0
DA:598,0
DA:599,0
DA:601,0
DA:602,0
DA:603,0
DA:604,0
DA:605,0
DA:607,0
DA:608,0
DA:610,0
DA:613,0
DA:614,0
DA:615,0
DA:616,0
DA:617,0
DA:618,0
DA:619,0
DA:620,0
DA:622,0
DA:625,0
DA:626,0
DA:627,0
DA:629,0
DA:630,0
DA:632,0
DA:635,0
DA:636,0
DA:637,0
DA:638,0
DA:639,0
DA:640,0
DA:641,0
DA:642,0
DA:645,0
DA:646,0
DA:647,0
DA:648,0
DA:649,0
DA:650,0
DA:652,0
DA:655,0
DA:656,0
DA:658,0
DA:659,0
DA:660,0
DA:661,0
DA:662,0
DA:663,0
DA:664,0
DA:667,0
DA:668,0
DA:669,0
DA:670,0
DA:671,0
DA:672,0
DA:674,0
DA:676,0
DA:678,0
DA:679,0
DA:680,0
DA:681,0
DA:682,0
DA:683,0
DA:684,0
DA:686,0
DA:687,0
DA:689,0
DA:690,0
DA:691,0
DA:692,0
DA:694,0
DA:695,0
DA:696,0
DA:698,0
DA:702,0
DA:703,0
DA:707,0
DA:708,0
DA:710,0
DA:712,0
DA:713,0
DA:714,0
DA:717,0
DA:718,0
DA:719,0
DA:721,0
DA:722,0
DA:723,0
DA:724,0
DA:726,0
DA:728,0
DA:729,0
DA:730,0
DA:731,0
DA:732,0
DA:733,0
DA:734,0
DA:735,0
DA:736,0
DA:737,0
DA:739,0
DA:742,0
DA:743,0
DA:744,0
DA:745,0
DA:747,0
DA:748,0
DA:749,0
DA:750,0
DA:752,0
DA:754,0
DA:755,0
DA:756,0
DA:759,0
DA:762,0
DA:765,0
DA:767,0
DA:768,0
DA:769,0
DA:771,0
DA:774,0
DA:775,0
DA:778,0
DA:779,0
DA:781,0
DA:783,0
DA:784,0
DA:786,0
DA:788,0
DA:789,0
DA:791,0
DA:794,0
DA:795,0
DA:796,0
DA:798,0
DA:799,0
DA:800,0
DA:801,0
DA:802,0
DA:803,0
DA:804,0
DA:805,0
DA:806,0
DA:808,0
DA:810,0
DA:811,0
DA:812,0
DA:813,0
DA:814,0
DA:815,0
DA:817,0
DA:819,0
DA:820,0
DA:823,0
DA:826,0
DA:827,0
DA:828,0
DA:830,0
DA:831,0
DA:832,0
DA:833,0
DA:835,0
DA:836,0
DA:838,0
DA:841,0
DA:842,0
DA:843,0
DA:844,0
DA:845,0
DA:846,0
DA:847,0
DA:848,0
DA:849,0
DA:850,0
DA:851,0
DA:852,0
DA:853,0
DA:854,0
DA:855,0
DA:856,0
DA:857,0
DA:858,0
DA:860,0
DA:861,0
DA:864,0
DA:865,0
DA:866,0
DA:867,0
DA:868,0
DA:869,0
DA:870,0
DA:871,0
DA:872,0
DA:873,0
DA:874,0
DA:875,0
DA:877,0
DA:878,0
DA:879,0
DA:880,0
DA:881,0
DA:882,0
DA:883,0
DA:885,0
DA:887,0
DA:888,0
DA:890,0
DA:893,0
DA:894,0
DA:895,0
DA:897,0
DA:898,0
DA:900,0
DA:901,0
DA:902,0
DA:904,0
DA:905,0
DA:906,0
DA:908,0
DA:909,0
DA:911,0
DA:912,0
DA:914,0
DA:915,0
DA:916,0
DA:917,0
DA:918,0
DA:921,0
DA:922,0
DA:923,0
DA:924,0
DA:925,0
DA:926,0
DA:927,0
DA:928,0
DA:929,0
DA:930,0
DA:931,0
DA:932,0
DA:933,0
DA:937,0
DA:938,0
DA:939,0
DA:942,0
DA:943,0
DA:944,0
DA:946,0
DA:948,0
DA:949,0
DA:950,0
DA:952,0
DA:953,0
DA:954,0
DA:956,0
DA:957,0
DA:959,0
DA:960,0
DA:961,0
DA:962,0
DA:963,0
DA:964,0
DA:965,0
DA:966,0
DA:967,0
DA:968,0
DA:971,0
DA:972,0
DA:973,0
DA:975,0
DA:976,0
DA:978,0
DA:979,0
DA:980,0
DA:982,0
DA:983,0
DA:984,0
DA:986,0
DA:987,0
DA:988,0
DA:990,0
DA:991,0
DA:993,0
DA:995,0
DA:998,0
DA:999,0
DA:1000,0
DA:1001,0
DA:1002,0
DA:1003,0
DA:1004,0
DA:1005,0
DA:1006,0
DA:1007,0
DA:1008,0
DA:1009,0
DA:1010,0
DA:1011,0
DA:1012,0
DA:1013,0
DA:1015,0
DA:1018,0
DA:1019,0
DA:1020,0
DA:1022,0
DA:1025,0
DA:1026,0
DA:1028,0
DA:1029,0
DA:1030,0
DA:1031,0
DA:1033,0
DA:1034,0
DA:1036,0
DA:1038,0
DA:1041,0
DA:1042,0
DA:1043,0
DA:1044,0
DA:1045,0
DA:1046,0
DA:1047,0
DA:1048,0
DA:1049,0
DA:1050,0
DA:1051,0
DA:1053,0
DA:1056,0
DA:1057,0
DA:1058,0
DA:1059,0
DA:1060,0
DA:1061,0
DA:1062,0
DA:1064,0
DA:1067,0
DA:1068,0
DA:1069,0
DA:1070,0
DA:1071,0
DA:1072,0
DA:1073,0
DA:1075,0
DA:1078,0
DA:1079,0
DA:1080,0
DA:1081,0
DA:1082,0
DA:1083,0
DA:1084,0
DA:1086,0
DA:1089,0
DA:1090,0
DA:1091,0
DA:1093,0
DA:1096,0
DA:1097,0
DA:1098,0
DA:1100,0
DA:1103,0
DA:1105,0
DA:1108,0
DA:1109,0
DA:1110,0
DA:1111,0
DA:1112,0
DA:1113,0
DA:1114,0
DA:1115,0
DA:1116,0
DA:1117,0
DA:1118,0
DA:1119,0
DA:1120,0
DA:1121,0
DA:1123,0
DA:1125,0
DA:1126,0
DA:1127,0
DA:1128,0
DA:1129,0
DA:1130,0
DA:1131,0
DA:1132,0
DA:1134,0
DA:1137,0
DA:1140,0
DA:1141,0
DA:1142,0
DA:1143,0
DA:1144,0
DA:1145,0
DA:1146,0
DA:1147,0
DA:1149,0
DA:1152,0
DA:1153,0
DA:1154,0
DA:1155,0
DA:1156,0
DA:1157,0
DA:1158,0
DA:1159,0
DA:1161,0
DA:1163,0
DA:1164,0
DA:1165,0
DA:1166,0
DA:1167,0
DA:1168,0
DA:1169,0
DA:1171,0
DA:1174,0
DA:1175,0
DA:1176,0
DA:1177,0
DA:1178,0
DA:1179,0
DA:1180,0
DA:1182,0
DA:1185,0
DA:1186,0
DA:1187,0
DA:1188,0
DA:1189,0
DA:1190,0
DA:1191,0
DA:1193,0
DA:1196,0
DA:1197,0
DA:1198,0
DA:1199,0
DA:1200,0
DA:1201,0
DA:1202,0
DA:1204,0
DA:1207,0
DA:1209,0
DA:1212,0
DA:1214,0
DA:1217,0
DA:1218,0
DA:1219,0
DA:1220,0
DA:1222,0
DA:1223,0
DA:1225,0
DA:1226,0
DA:1230,0
DA:1231,0
DA:1234,0
DA:1235,0
DA:1238,0
DA:1239,0
DA:1240,0
DA:1243,0
DA:1244,0
DA:1245,0
DA:1246,0
DA:1247,0
DA:1248,0
DA:1251,0
DA:1252,0
DA:1253,0
DA:1254,0
DA:1255,0
DA:1258,0
DA:1259,0
DA:1260,0
DA:1261,0
DA:1262,0
DA:1263,0
DA:1264,0
DA:1265,0
DA:1269,0
DA:1270,0
DA:1273,0
DA:1274,0
DA:1277,0
DA:1278,0
DA:1279,0
DA:1280,0
DA:1283,0
DA:1285,0
DA:1287,0
DA:1288,0
DA:1289,0
DA:1290,0
DA:1292,0
DA:1293,0
DA:1294,0
DA:1295,0
DA:1296,0
DA:1297,0
DA:1298,0
DA:1299,0
DA:1300,0
DA:1301,0
DA:1302,0
DA:1303,0
DA:1304,0
DA:1305,0
DA:1306,0
DA:1307,0
DA:1308,0
DA:1311,0
DA:1312,0
DA:1315,0
DA:1316,0
DA:1319,0
DA:1320,0
DA:1321,0
DA:1324,0
DA:1325,0
DA:1326,0
DA:1327,0
DA:1328,0
DA:1329,0
DA:1332,0
DA:1333,0
DA:1334,0
DA:1337,0
DA:1338,0
DA:1339,0
DA:1340,0
DA:1341,0
DA:1342,0
DA:1344,0
DA:1345,0
DA:1348,0
DA:1349,0
DA:1350,0
DA:1351,0
DA:1352,0
DA:1353,0
DA:1354,0
DA:1357,0
DA:1358,0
DA:1359,0
DA:1362,0
DA:1364,0
DA:1367,0
DA:1370,0
DA:1371,0
DA:1372,0
DA:1373,0
DA:1374,0
DA:1375,0
DA:1376,0
DA:1378,0
DA:1381,0
DA:1382,0
DA:1383,0
DA:1384,0
DA:1385,0
DA:1386,0
DA:1387,0
DA:1388,0
DA:1390,0
DA:1393,0
DA:1394,0
DA:1395,0
DA:1396,0
DA:1397,0
DA:1398,0
DA:1400,0
DA:1403,0
DA:1404,0
DA:1405,0
DA:1406,0
DA:1408,0
DA:1411,1
DA:1412,1
DA:1413,1
DA:1416,1
DA:1417,1
DA:1418,1
DA:1427,1
DA:1428,1
DA:1429,1
DA:1431,1
DA:1432,1
DA:1433,1
DA:1434,1
DA:1437,1
DA:1438,1
DA:1439,1
DA:1441,1
DA:1442,1
DA:1443,1
DA:1446,1
DA:1447,1
DA:1448,1
DA:1449,1
DA:1450,1
DA:1453,1
DA:1454,1
DA:1456,1
DA:1458,1
DA:1459,1
DA:1461,1
DA:1462,1
DA:1463,1
DA:1466,1
DA:1467,1
DA:1468,1
DA:1469,1
DA:1470,1
DA:1471,1
DA:1472,1
DA:1473,1
DA:1476,1
DA:1477,1
DA:1478,1
DA:1479,1
DA:1480,1
DA:1481,1
DA:1484,1
DA:1485,1
DA:1486,1
DA:1487,1
DA:1488,1
DA:1492,1
BRF:0
BRH:0
LF:1004
LH:113
end_of_record
SF:/home/openclaw/dev/yinglichina8848/sqlrustgo/crates/executor/src/task_scheduler.rs
FN:129,_RNvNtNtCsldCax6rooq1_18sqlrustgo_executor14task_scheduler5testss_20test_task_submission
FN:143,_RNvNtNtCsldCax6rooq1_18sqlrustgo_executor14task_scheduler5testss_21test_batch_submission
FN:169,_RNvNtNtCsldCax6rooq1_18sqlrustgo_executor14task_scheduler5testss_23test_parallel_execution
FN:123,_RNvNtNtCsldCax6rooq1_18sqlrustgo_executor14task_scheduler5testss_28test_task_scheduler_creation
FN:163,_RNvNtNtCsldCax6rooq1_18sqlrustgo_executor14task_scheduler5testss_29test_create_default_scheduler
FN:150,_RNCNCNvNtNtCsldCax6rooq1_18sqlrustgo_executor14task_scheduler5testss_21test_batch_submission00B9_
FN:134,_RNCNvNtNtCsldCax6rooq1_18sqlrustgo_executor14task_scheduler5testss_20test_task_submission0B7_
FN:148,_RNCNvNtNtCsldCax6rooq1_18sqlrustgo_executor14task_scheduler5testss_21test_batch_submission0B7_
FN:179,_RNCNvNtNtCsldCax6rooq1_18sqlrustgo_executor14task_scheduler5testss_23test_parallel_execution0B7_
FN:54,_RNvMNtCsldCax6rooq1_18sqlrustgo_executor14task_schedulerNtB2_18RayonTaskScheduler11with_config
FN:101,_RNvXs_NtCsldCax6rooq1_18sqlrustgo_executor14task_schedulerNtB4_18RayonTaskSchedulerNtB4_13TaskScheduler15set_parallelism
FN:81,_RINvXs_NtCsldCax6rooq1_18sqlrustgo_executor14task_schedulerNtB5_18RayonTaskSchedulerNtB5_13TaskScheduler12submit_batchINtNtCsj0gLuUEfogP_5alloc3vec3VecINtNtB1X_5boxed3BoxDINtNtNtCs8nPosuWgJFh_4core3ops8function6FnOnceuEp6OutputuNtNtB2Q_6marker4SendEL_EEEB7_
FN:69,_RINvXs_NtCsldCax6rooq1_18sqlrustgo_executor14task_schedulerNtB5_18RayonTaskSchedulerNtB5_13TaskScheduler6submitNCNvNtB5_5testss_20test_task_submission0EB7_
