SF:/home/openclaw/dev/yinglichina8848/sqlrustgo/crates/parser/src/error.rs
FN:106,_RNvNtNtCsa812O6vgh8t_16sqlrustgo_parser5error5testss_17test_syntax_error
FN:94,_RNvNtNtCsa812O6vgh8t_16sqlrustgo_parser5error5testss_21test_unexpected_token
FN:112,_RNvNtNtCsa812O6vgh8t_16sqlrustgo_parser5error5testss_22test_invalid_statement
FN:118,_RNvNtNtCsa812O6vgh8t_16sqlrustgo_parser5error5testss_24test_unsupported_feature
FN:100,_RNvNtNtCsa812O6vgh8t_16sqlrustgo_parser5error5testss_28test_unexpected_end_of_input
FN:64,_RNvMNtCsa812O6vgh8t_16sqlrustgo_parser5errorNtB2_10ParseError23unexpected_end_of_input
FN:71,_RINvMNtCsa812O6vgh8t_16sqlrustgo_parser5errorNtB3_10ParseError12syntax_errorReEB5_
FN:45,_RINvMNtCsa812O6vgh8t_16sqlrustgo_parser5errorNtB3_10ParseError16unexpected_tokenReEB5_
FN:76,_RINvMNtCsa812O6vgh8t_16sqlrustgo_parser5errorNtB3_10ParseError17invalid_statementReEB5_
FN:81,_RINvMNtCsa812O6vgh8t_16sqlrustgo_parser5errorNtB3_10ParseError19unsupported_featureReEB5_
FN:53,_RINvMNtCsa812O6vgh8t_16sqlrustgo_parser5errorNtB3_10ParseError25unexpected_token_expectedppEB5_
FNDA:1,_RNvNtNtCsa812O6vgh8t_16sqlrustgo_parser5error5testss_17test_syntax_error
FNDA:1,_RNvNtNtCsa812O6vgh8t_16sqlrustgo_parser5error5testss_21test_unexpected_token
FNDA:1,_RNvNtNtCsa812O6vgh8t_16sqlrustgo_parser5error5testss_22test_invalid_statement
FNDA:1,_RNvNtNtCsa812O6vgh8t_16sqlrustgo_parser5error5testss_24test_unsupported_feature
FNDA:1,_RNvNtNtCsa812O6vgh8t_16sqlrustgo_parser5error5testss_28test_unexpected_end_of_input
FNDA:1,_RNvMNtCsa812O6vgh8t_16sqlrustgo_parser5errorNtB2_10ParseError23unexpected_end_of_input
FNDA:1,_RINvMNtCsa812O6vgh8t_16sqlrustgo_parser5errorNtB3_10ParseError12syntax_errorReEB5_
FNDA:1,_RINvMNtCsa812O6vgh8t_16sqlrustgo_parser5errorNtB3_10ParseError16unexpected_tokenReEB5_
FNDA:1,_RINvMNtCsa812O6vgh8t_16sqlrustgo_parser5errorNtB3_10ParseError17invalid_statementReEB5_
FNDA:1,_RINvMNtCsa812O6vgh8t_16sqlrustgo_parser5errorNtB3_10ParseError19unsupported_featureReEB5_
FNDA:0,_RINvMNtCsa812O6vgh8t_16sqlrustgo_parser5errorNtB3_10ParseError25unexpected_token_expectedppEB5_
FNF:11
FNH:10
DA:45,1
DA:46,1
DA:47,1
DA:48,1
DA:49,1
DA:50,1
DA:53,0
DA:54,0
DA:55,0
DA:56,0
DA:57,0
DA:58,0
DA:59,0
DA:60,0
DA:61,0
DA:64,1
DA:65,1
DA:66,1
DA:67,1
DA:68,1
DA:71,1
DA:72,1
DA:73,1
DA:76,1
DA:77,1
DA:78,1
DA:81,1
DA:82,1
DA:83,1
DA:94,1
DA:95,1
DA:96,1
DA:97,1
DA:100,1
DA:101,1
DA:102,1
DA:103,1
DA:106,1
DA:107,1
DA:108,1
DA:109,1
DA:112,1
DA:113,1
DA:114,1
DA:115,1
DA:118,1
DA:119,1
DA:120,1
DA:121,1
BRF:0
BRH:0
LF:49
LH:40
end_of_record
SF:/home/openclaw/dev/yinglichina8848/sqlrustgo/crates/parser/src/expression.rs
FN:54,_RNvMNtCsa812O6vgh8t_16sqlrustgo_parser10expressionNtB2_16ExpressionParser16parse_expression
FN:58,_RNvMNtCsa812O6vgh8t_16sqlrustgo_parser10expressionNtB2_16ExpressionParser19parse_or_expression
FN:70,_RNvMNtCsa812O6vgh8t_16sqlrustgo_parser10expressionNtB2_16ExpressionParser20parse_and_expression
FN:172,_RNvMNtCsa812O6vgh8t_16sqlrustgo_parser10expressionNtB2_16ExpressionParser24parse_primary_expression
FN:151,_RNvMNtCsa812O6vgh8t_16sqlrustgo_parser10expressionNtB2_16ExpressionParser27parse_arithmetic_expression
FN:82,_RNvMNtCsa812O6vgh8t_16sqlrustgo_parser10expressionNtB2_16ExpressionParser27parse_comparison_expression
FN:39,_RNvMNtCsa812O6vgh8t_16sqlrustgo_parser10expressionNtB2_16ExpressionParser3new
FN:50,_RNvMNtCsa812O6vgh8t_16sqlrustgo_parser10expressionNtB2_16ExpressionParser4next
FN:276,_RNvMNtCsa812O6vgh8t_16sqlrustgo_parser10expressionNtB2_16ExpressionParser6expect
FN:46,_RNvMNtCsa812O6vgh8t_16sqlrustgo_parser10expressionNtB2_16ExpressionParser7current
FN:313,_RNvNtNtCsa812O6vgh8t_16sqlrustgo_parser10expression5testss_20test_parse_binary_op
FN:301,_RNvNtNtCsa812O6vgh8t_16sqlrustgo_parser10expression5testss_21test_parse_identifier
FN:293,_RNvNtNtCsa812O6vgh8t_16sqlrustgo_parser10expression5testss_28test_parse_simple_expression
FNDA:3,_RNvMNtCsa812O6vgh8t_16sqlrustgo_parser10expressionNtB2_16ExpressionParser16parse_expression
FNDA:3,_RNvMNtCsa812O6vgh8t_16sqlrustgo_parser10expressionNtB2_16ExpressionParser19parse_or_expression
FNDA:3,_RNvMNtCsa812O6vgh8t_16sqlrustgo_parser10expressionNtB2_16ExpressionParser20parse_and_expression
FNDA:5,_RNvMNtCsa812O6vgh8t_16sqlrustgo_parser10expressionNtB2_16ExpressionParser24parse_primary_expression
FNDA:5,_RNvMNtCsa812O6vgh8t_16sqlrustgo_parser10expressionNtB2_16ExpressionParser27parse_arithmetic_expression
FNDA:3,_RNvMNtCsa812O6vgh8t_16sqlrustgo_parser10expressionNtB2_16ExpressionParser27parse_comparison_expression
FNDA:3,_RNvMNtCsa812O6vgh8t_16sqlrustgo_parser10expressionNtB2_16ExpressionParser3new
FNDA:7,_RNvMNtCsa812O6vgh8t_16sqlrustgo_parser10expressionNtB2_16ExpressionParser4next
FNDA:0,_RNvMNtCsa812O6vgh8t_16sqlrustgo_parser10expressionNtB2_16ExpressionParser6expect
FNDA:31,_RNvMNtCsa812O6vgh8t_16sqlrustgo_parser10expressionNtB2_16ExpressionParser7current
FNDA:1,_RNvNtNtCsa812O6vgh8t_16sqlrustgo_parser10expression5testss_20test_parse_binary_op
FNDA:1,_RNvNtNtCsa812O6vgh8t_16sqlrustgo_parser10expression5testss_21test_parse_identifier
FNDA:1,_RNvNtNtCsa812O6vgh8t_16sqlrustgo_parser10expression5testss_28test_parse_simple_expression
FNF:13
FNH:12
DA:39,3
DA:40,3
DA:41,3
DA:42,3
DA:43,3
DA:44,3
DA:46,31
DA:47,31
DA:48,31
DA:50,7
DA:51,7
DA:52,7
DA:54,3
DA:55,3
DA:56,3
DA:58,3
DA:59,3
DA:61,3
DA:62,0
DA:63,0
DA:64,0
DA:67,3
DA:68,3
DA:70,3
DA:71,3
DA:73,3
DA:74,0
DA:75,0
DA:76,0
DA:79,3
DA:80,3
DA:82,3
DA:83,3
DA:85,3
DA:86,0
DA:87,0
DA:88,0
DA:89,0
DA:90,0
DA:91,0
DA:93,3
DA:94,0
DA:95,0
DA:96,0
DA:97,0
DA:98,0
DA:99,0
DA:100,0
DA:101,0
DA:102,0
DA:103,3
DA:104,3
DA:105,0
DA:106,0
DA:107,0
DA:109,0
DA:110,0
DA:111,0
DA:112,0
DA:113,0
DA:115,0
DA:116,0
DA:119,0
DA:123,0
DA:124,0
DA:125,0
DA:126,0
DA:127,3
DA:128,3
DA:129,0
DA:130,0
DA:131,0
DA:132,0
DA:133,0
DA:134,0
DA:135,0
DA:136,3
DA:137,3
DA:141,0
DA:142,0
DA:144,0
DA:145,0
DA:146,0
DA:147,0
DA:148,0
DA:149,3
DA:151,5
DA:152,5
DA:154,5
DA:155,2
DA:156,0
DA:157,0
DA:158,0
DA:159,3
DA:162,2
DA:163,2
DA:165,2
DA:166,2
DA:167,2
DA:168,2
DA:169,2
DA:170,5
DA:172,5
DA:173,5
DA:175,5
DA:176,3
DA:177,3
DA:178,0
DA:179,3
DA:180,3
DA:182,3
DA:183,0
DA:184,0
DA:185,0
DA:186,0
DA:187,0
DA:188,0
DA:190,0
DA:192,3
DA:194,3
DA:196,2
DA:197,2
DA:198,2
DA:199,2
DA:201,0
DA:202,0
DA:203,0
DA:204,0
DA:206,0
DA:207,0
DA:208,0
DA:209,0
DA:211,0
DA:212,0
DA:213,0
DA:214,0
DA:217,0
DA:218,0
DA:219,0
DA:220,0
DA:221,0
DA:223,0
DA:227,0
DA:228,0
DA:229,0
DA:230,0
DA:234,0
DA:235,0
DA:236,0
DA:237,0
DA:238,0
DA:239,0
DA:240,0
DA:242,0
DA:243,0
DA:245,0
DA:246,0
DA:247,0
DA:248,0
DA:249,0
DA:250,0
DA:255,0
DA:256,0
DA:259,0
DA:260,0
DA:261,0
DA:265,0
DA:266,0
DA:269,0
DA:270,0
DA:272,0
DA:274,5
DA:276,0
DA:277,0
DA:278,0
DA:279,0
DA:280,0
DA:282,0
DA:284,0
DA:293,1
DA:294,1
DA:295,1
DA:296,1
DA:297,1
DA:298,1
DA:301,1
DA:302,1
DA:303,1
DA:304,1
DA:305,1
DA:306,1
DA:307,1
DA:308,0
DA:310,1
DA:313,1
DA:314,1
DA:315,1
DA:316,1
DA:317,1
DA:318,1
BRF:0
BRH:0
LF:200
LH:84
end_of_record
SF:/home/openclaw/dev/yinglichina8848/sqlrustgo/crates/parser/src/lexer.rs
FN:145,_RNvMNtCsfPVfeOGg4hx_16sqlrustgo_parser5lexerNtB2_5Lexer10next_token
FN:102,_RNvMNtCsfPVfeOGg4hx_16sqlrustgo_parser5lexerNtB2_5Lexer11read_number
FN:121,_RNvMNtCsfPVfeOGg4hx_16sqlrustgo_parser5lexerNtB2_5Lexer11read_string
FN:89,_RNvMNtCsfPVfeOGg4hx_16sqlrustgo_parser5lexerNtB2_5Lexer15read_identifier
FN:54,_RNvMNtCsfPVfeOGg4hx_16sqlrustgo_parser5lexerNtB2_5Lexer15skip_whitespace
FN:26,_RNvMNtCsfPVfeOGg4hx_16sqlrustgo_parser5lexerNtB2_5Lexer3new
FN:36,_RNvMNtCsfPVfeOGg4hx_16sqlrustgo_parser5lexerNtB2_5Lexer6is_eof
FN:31,_RNvMNtCsfPVfeOGg4hx_16sqlrustgo_parser5lexerNtB2_5Lexer8position
FN:443,_RNvMNtCsfPVfeOGg4hx_16sqlrustgo_parser5lexerNtB2_5Lexer8tokenize
FN:41,_RNvMNtCsfPVfeOGg4hx_16sqlrustgo_parser5lexerNtB2_5Lexer9peek_char
FN:457,_RNvNtCsfPVfeOGg4hx_16sqlrustgo_parser5lexer8tokenize
FN:766,_RNvNtNtCsa812O6vgh8t_16sqlrustgo_parser5lexer5testss_13test_lexer_on
FN:724,_RNvNtNtCsa812O6vgh8t_16sqlrustgo_parser5lexer5testss_13test_lexer_or
FN:718,_RNvNtNtCsa812O6vgh8t_16sqlrustgo_parser5lexer5testss_14test_lexer_and
FN:652,_RNvNtNtCsa812O6vgh8t_16sqlrustgo_parser5lexer5testss_14test_lexer_dot
FN:778,_RNvNtNtCsa812O6vgh8t_16sqlrustgo_parser5lexer5testss_14test_lexer_key
FN:676,_RNvNtNtCsa812O6vgh8t_16sqlrustgo_parser5lexer5testss_14test_lexer_not
FN:748,_RNvNtNtCsa812O6vgh8t_16sqlrustgo_parser5lexer5testss_14test_lexer_set
FN:482,_RNvNtNtCsa812O6vgh8t_16sqlrustgo_parser5lexer5testss_14test_operators
FN:856,_RNvNtNtCsa812O6vgh8t_16sqlrustgo_parser5lexer5testss_15test_lexer_blob
FN:736,_RNvNtNtCsa812O6vgh8t_16sqlrustgo_parser5lexer5testss_15test_lexer_into
FN:670,_RNvNtNtCsa812O6vgh8t_16sqlrustgo_parser5lexer5testss_15test_lexer_less
FN:628,_RNvNtNtCsa812O6vgh8t_16sqlrustgo_parser5lexer5testss_15test_lexer_plus
FN:622,_RNvNtNtCsa812O6vgh8t_16sqlrustgo_parser5lexer5testss_15test_lexer_star
FN:754,_RNvNtNtCsa812O6vgh8t_16sqlrustgo_parser5lexer5testss_16test_lexer_alter
FN:784,_RNvNtNtCsa812O6vgh8t_16sqlrustgo_parser5lexer5testss_16test_lexer_begin
FN:658,_RNvNtNtCsa812O6vgh8t_16sqlrustgo_parser5lexer5testss_16test_lexer_colon
FN:610,_RNvNtNtCsa812O6vgh8t_16sqlrustgo_parser5lexer5testss_16test_lexer_comma
FN:802,_RNvNtNtCsa812O6vgh8t_16sqlrustgo_parser5lexer5testss_16test_lexer_grant
FN:760,_RNvNtNtCsa812O6vgh8t_16sqlrustgo_parser5lexer5testss_16test_lexer_index
FN:634,_RNvNtNtCsa812O6vgh8t_16sqlrustgo_parser5lexer5testss_16test_lexer_minus
FN:640,_RNvNtNtCsa812O6vgh8t_16sqlrustgo_parser5lexer5testss_16test_lexer_slash
FN:497,_RNvNtNtCsa812O6vgh8t_16sqlrustgo_parser5lexer5testss_17test_all_keywords
FN:790,_RNvNtNtCsa812O6vgh8t_16sqlrustgo_parser5lexer5testss_17test_lexer_commit
FN:553,_RNvNtNtCsa812O6vgh8t_16sqlrustgo_parser5lexer5testss_17test_lexer_is_eof
FN:603,_RNvNtNtCsa812O6vgh8t_16sqlrustgo_parser5lexer5testss_17test_lexer_parens
FN:808,_RNvNtNtCsa812O6vgh8t_16sqlrustgo_parser5lexer5testss_17test_lexer_revoke
FN:742,_RNvNtNtCsa812O6vgh8t_16sqlrustgo_parser5lexer5testss_17test_lexer_values
FN:814,_RNvNtNtCsa812O6vgh8t_16sqlrustgo_parser5lexer5testss_18test_lexer_analyze
FN:664,_RNvNtNtCsa812O6vgh8t_16sqlrustgo_parser5lexer5testss_18test_lexer_greater
FN:646,_RNvNtNtCsa812O6vgh8t_16sqlrustgo_parser5lexer5testss_18test_lexer_percent
FN:772,_RNvNtNtCsa812O6vgh8t_16sqlrustgo_parser5lexer5testss_18test_lexer_primary
FN:467,_RNvNtNtCsa812O6vgh8t_16sqlrustgo_parser5lexer5testss_18test_simple_select
FN:532,_RNvNtNtCsa812O6vgh8t_16sqlrustgo_parser5lexer5testss_19test_lexer_position
FN:796,_RNvNtNtCsa812O6vgh8t_16sqlrustgo_parser5lexer5testss_19test_lexer_rollback
FN:958,_RNvNtNtCsa812O6vgh8t_16sqlrustgo_parser5lexer5testss_20test_lexer_eof_token
FN:546,_RNvNtNtCsa812O6vgh8t_16sqlrustgo_parser5lexer5testss_20test_lexer_next_char
FN:682,_RNvNtNtCsa812O6vgh8t_16sqlrustgo_parser5lexer5testss_20test_lexer_not_equal
FN:516,_RNvNtNtCsa812O6vgh8t_16sqlrustgo_parser5lexer5testss_20test_lexer_operators
FN:540,_RNvNtNtCsa812O6vgh8t_16sqlrustgo_parser5lexer5testss_20test_lexer_peek_char
FN:616,_RNvNtNtCsa812O6vgh8t_16sqlrustgo_parser5lexer5testss_20test_lexer_semicolon
FN:938,_RNvNtNtCsa812O6vgh8t_16sqlrustgo_parser5lexer5testss_21test_lexer_drop_table
FN:688,_RNvNtNtCsa812O6vgh8t_16sqlrustgo_parser5lexer5testss_21test_lexer_less_equal
FN:828,_RNvNtNtCsa812O6vgh8t_16sqlrustgo_parser5lexer5testss_21test_lexer_text_types
FN:886,_RNvNtNtCsa812O6vgh8t_16sqlrustgo_parser5lexer5testss_22test_lexer_complex_sql
FN:838,_RNvNtNtCsa812O6vgh8t_16sqlrustgo_parser5lexer5testss_22test_lexer_float_types
FN:730,_RNvNtNtCsa812O6vgh8t_16sqlrustgo_parser5lexer5testss_22test_lexer_not_keyword
FN:880,_RNvNtNtCsa812O6vgh8t_16sqlrustgo_parser5lexer5testss_22test_lexer_number_only
FN:589,_RNvNtNtCsa812O6vgh8t_16sqlrustgo_parser5lexer5testss_22test_lexer_read_string
FN:706,_RNvNtNtCsa812O6vgh8t_16sqlrustgo_parser5lexer5testss_23test_lexer_boolean_true
FN:930,_RNvNtNtCsa812O6vgh8t_16sqlrustgo_parser5lexer5testss_23test_lexer_create_table
FN:982,_RNvNtNtCsa812O6vgh8t_16sqlrustgo_parser5lexer5testss_23test_lexer_date_keyword
FN:1008,_RNvNtNtCsa812O6vgh8t_16sqlrustgo_parser5lexer5testss_23test_lexer_date_literal
FN:874,_RNvNtNtCsa812O6vgh8t_16sqlrustgo_parser5lexer5testss_23test_lexer_empty_string
FN:964,_RNvNtNtCsa812O6vgh8t_16sqlrustgo_parser5lexer5testss_23test_lexer_unknown_char
FN:712,_RNvNtNtCsa812O6vgh8t_16sqlrustgo_parser5lexer5testss_24test_lexer_boolean_false
FN:848,_RNvNtNtCsa812O6vgh8t_16sqlrustgo_parser5lexer5testss_24test_lexer_boolean_types
FN:694,_RNvNtNtCsa812O6vgh8t_16sqlrustgo_parser5lexer5testss_24test_lexer_greater_equal
FN:820,_RNvNtNtCsa812O6vgh8t_16sqlrustgo_parser5lexer5testss_24test_lexer_integer_types
FN:700,_RNvNtNtCsa812O6vgh8t_16sqlrustgo_parser5lexer5testss_24test_lexer_not_equal_alt
FN:970,_RNvNtNtCsa812O6vgh8t_16sqlrustgo_parser5lexer5testss_25test_lexer_decimal_number
FN:510,_RNvNtNtCsa812O6vgh8t_16sqlrustgo_parser5lexer5testss_25test_lexer_string_literal
FN:952,_RNvNtNtCsa812O6vgh8t_16sqlrustgo_parser5lexer5testss_26test_lexer_multiple_spaces
FN:568,_RNvNtNtCsa812O6vgh8t_16sqlrustgo_parser5lexer5testss_26test_lexer_read_identifier
FN:561,_RNvNtNtCsa812O6vgh8t_16sqlrustgo_parser5lexer5testss_26test_lexer_skip_whitespace
FN:946,_RNvNtNtCsa812O6vgh8t_16sqlrustgo_parser5lexer5testss_26test_lexer_whitespace_tabs
FN:922,_RNvNtNtCsa812O6vgh8t_16sqlrustgo_parser5lexer5testss_27test_lexer_delete_statement
FN:903,_RNvNtNtCsa812O6vgh8t_16sqlrustgo_parser5lexer5testss_27test_lexer_insert_statement
FN:913,_RNvNtNtCsa812O6vgh8t_16sqlrustgo_parser5lexer5testss_27test_lexer_update_statement
FN:988,_RNvNtNtCsa812O6vgh8t_16sqlrustgo_parser5lexer5testss_28test_lexer_timestamp_keyword
FN:1015,_RNvNtNtCsa812O6vgh8t_16sqlrustgo_parser5lexer5testss_28test_lexer_timestamp_literal
FN:490,_RNvNtNtCsa812O6vgh8t_16sqlrustgo_parser5lexer5testss_30test_keywords_case_insensitive
FN:994,_RNvNtNtCsa812O6vgh8t_16sqlrustgo_parser5lexer5testss_30test_lexer_date_type_in_create
FN:868,_RNvNtNtCsa812O6vgh8t_16sqlrustgo_parser5lexer5testss_30test_lexer_mixed_case_keywords
FN:524,_RNvNtNtCsa812O6vgh8t_16sqlrustgo_parser5lexer5testss_30test_lexer_multiple_statements
FN:582,_RNvNtNtCsa812O6vgh8t_16sqlrustgo_parser5lexer5testss_30test_lexer_read_number_decimal
FN:575,_RNvNtNtCsa812O6vgh8t_16sqlrustgo_parser5lexer5testss_30test_lexer_read_number_integer
FN:596,_RNvNtNtCsa812O6vgh8t_16sqlrustgo_parser5lexer5testss_31test_lexer_string_escaped_quote
FN:976,_RNvNtNtCsa812O6vgh8t_16sqlrustgo_parser5lexer5testss_36test_lexer_string_with_escaped_quote
FN:862,_RNvNtNtCsa812O6vgh8t_16sqlrustgo_parser5lexer5testss_37test_lexer_identifier_with_underscore
FN:999,_RNCNvNtNtCsa812O6vgh8t_16sqlrustgo_parser5lexer5testss_30test_lexer_date_type_in_create0B7_
FN:145,_RNvMNtCsa812O6vgh8t_16sqlrustgo_parser5lexerNtB2_5Lexer10next_token
FN:102,_RNvMNtCsa812O6vgh8t_16sqlrustgo_parser5lexerNtB2_5Lexer11read_number
FN:121,_RNvMNtCsa812O6vgh8t_16sqlrustgo_parser5lexerNtB2_5Lexer11read_string
FN:89,_RNvMNtCsa812O6vgh8t_16sqlrustgo_parser5lexerNtB2_5Lexer15read_identifier
FN:54,_RNvMNtCsa812O6vgh8t_16sqlrustgo_parser5lexerNtB2_5Lexer15skip_whitespace
FN:26,_RNvMNtCsa812O6vgh8t_16sqlrustgo_parser5lexerNtB2_5Lexer3new
FN:36,_RNvMNtCsa812O6vgh8t_16sqlrustgo_parser5lexerNtB2_5Lexer6is_eof
FN:31,_RNvMNtCsa812O6vgh8t_16sqlrustgo_parser5lexerNtB2_5Lexer8position
FN:443,_RNvMNtCsa812O6vgh8t_16sqlrustgo_parser5lexerNtB2_5Lexer8tokenize
FN:47,_RNvMNtCsa812O6vgh8t_16sqlrustgo_parser5lexerNtB2_5Lexer9next_char
FN:41,_RNvMNtCsa812O6vgh8t_16sqlrustgo_parser5lexerNtB2_5Lexer9peek_char
FN:457,_RNvNtCsa812O6vgh8t_16sqlrustgo_parser5lexer8tokenize
FN:145,_RNvMNtCs3Y8Ciw6e7SB_16sqlrustgo_parser5lexerNtB2_5Lexer10next_token
FN:102,_RNvMNtCs3Y8Ciw6e7SB_16sqlrustgo_parser5lexerNtB2_5Lexer11read_number
FN:121,_RNvMNtCs3Y8Ciw6e7SB_16sqlrustgo_parser5lexerNtB2_5Lexer11read_string
FN:89,_RNvMNtCs3Y8Ciw6e7SB_16sqlrustgo_parser5lexerNtB2_5Lexer15read_identifier
FN:54,_RNvMNtCs3Y8Ciw6e7SB_16sqlrustgo_parser5lexerNtB2_5Lexer15skip_whitespace
FN:26,_RNvMNtCs3Y8Ciw6e7SB_16sqlrustgo_parser5lexerNtB2_5Lexer3new
FN:36,_RNvMNtCs3Y8Ciw6e7SB_16sqlrustgo_parser5lexerNtB2_5Lexer6is_eof
FN:31,_RNvMNtCs3Y8Ciw6e7SB_16sqlrustgo_parser5lexerNtB2_5Lexer8position
FN:443,_RNvMNtCs3Y8Ciw6e7SB_16sqlrustgo_parser5lexerNtB2_5Lexer8tokenize
FN:41,_RNvMNtCs3Y8Ciw6e7SB_16sqlrustgo_parser5lexerNtB2_5Lexer9peek_char
FN:457,_RNvNtCs3Y8Ciw6e7SB_16sqlrustgo_parser5lexer8tokenize
FNDA:0,_RNvMNtCsfPVfeOGg4hx_16sqlrustgo_parser5lexerNtB2_5Lexer10next_token
FNDA:0,_RNvMNtCsfPVfeOGg4hx_16sqlrustgo_parser5lexerNtB2_5Lexer11read_number
FNDA:0,_RNvMNtCsfPVfeOGg4hx_16sqlrustgo_parser5lexerNtB2_5Lexer11read_string
FNDA:0,_RNvMNtCsfPVfeOGg4hx_16sqlrustgo_parser5lexerNtB2_5Lexer15read_identifier
FNDA:0,_RNvMNtCsfPVfeOGg4hx_16sqlrustgo_parser5lexerNtB2_5Lexer15skip_whitespace
FNDA:0,_RNvMNtCsfPVfeOGg4hx_16sqlrustgo_parser5lexerNtB2_5Lexer3new
FNDA:0,_RNvMNtCsfPVfeOGg4hx_16sqlrustgo_parser5lexerNtB2_5Lexer6is_eof
FNDA:0,_RNvMNtCsfPVfeOGg4hx_16sqlrustgo_parser5lexerNtB2_5Lexer8position
FNDA:0,_RNvMNtCsfPVfeOGg4hx_16sqlrustgo_parser5lexerNtB2_5Lexer8tokenize
FNDA:0,_RNvMNtCsfPVfeOGg4hx_16sqlrustgo_parser5lexerNtB2_5Lexer9peek_char
FNDA:0,_RNvNtCsfPVfeOGg4hx_16sqlrustgo_parser5lexer8tokenize
FNDA:1,_RNvNtNtCsa812O6vgh8t_16sqlrustgo_parser5lexer5testss_13test_lexer_on
FNDA:1,_RNvNtNtCsa812O6vgh8t_16sqlrustgo_parser5lexer5testss_13test_lexer_or
FNDA:1,_RNvNtNtCsa812O6vgh8t_16sqlrustgo_parser5lexer5testss_14test_lexer_and
FNDA:1,_RNvNtNtCsa812O6vgh8t_16sqlrustgo_parser5lexer5testss_14test_lexer_dot
FNDA:1,_RNvNtNtCsa812O6vgh8t_16sqlrustgo_parser5lexer5testss_14test_lexer_key
FNDA:1,_RNvNtNtCsa812O6vgh8t_16sqlrustgo_parser5lexer5testss_14test_lexer_not
FNDA:1,_RNvNtNtCsa812O6vgh8t_16sqlrustgo_parser5lexer5testss_14test_lexer_set
FNDA:1,_RNvNtNtCsa812O6vgh8t_16sqlrustgo_parser5lexer5testss_14test_operators
FNDA:1,_RNvNtNtCsa812O6vgh8t_16sqlrustgo_parser5lexer5testss_15test_lexer_blob
FNDA:1,_RNvNtNtCsa812O6vgh8t_16sqlrustgo_parser5lexer5testss_15test_lexer_into
FNDA:1,_RNvNtNtCsa812O6vgh8t_16sqlrustgo_parser5lexer5testss_15test_lexer_less
FNDA:1,_RNvNtNtCsa812O6vgh8t_16sqlrustgo_parser5lexer5testss_15test_lexer_plus
FNDA:1,_RNvNtNtCsa812O6vgh8t_16sqlrustgo_parser5lexer5testss_15test_lexer_star
FNDA:1,_RNvNtNtCsa812O6vgh8t_16sqlrustgo_parser5lexer5testss_16test_lexer_alter
FNDA:1,_RNvNtNtCsa812O6vgh8t_16sqlrustgo_parser5lexer5testss_16test_lexer_begin
FNDA:1,_RNvNtNtCsa812O6vgh8t_16sqlrustgo_parser5lexer5testss_16test_lexer_colon
FNDA:1,_RNvNtNtCsa812O6vgh8t_16sqlrustgo_parser5lexer5testss_16test_lexer_comma
FNDA:1,_RNvNtNtCsa812O6vgh8t_16sqlrustgo_parser5lexer5testss_16test_lexer_grant
FNDA:1,_RNvNtNtCsa812O6vgh8t_16sqlrustgo_parser5lexer5testss_16test_lexer_index
FNDA:1,_RNvNtNtCsa812O6vgh8t_16sqlrustgo_parser5lexer5testss_16test_lexer_minus
FNDA:1,_RNvNtNtCsa812O6vgh8t_16sqlrustgo_parser5lexer5testss_16test_lexer_slash
FNDA:1,_RNvNtNtCsa812O6vgh8t_16sqlrustgo_parser5lexer5testss_17test_all_keywords
FNDA:1,_RNvNtNtCsa812O6vgh8t_16sqlrustgo_parser5lexer5testss_17test_lexer_commit
FNDA:1,_RNvNtNtCsa812O6vgh8t_16sqlrustgo_parser5lexer5testss_17test_lexer_is_eof
FNDA:1,_RNvNtNtCsa812O6vgh8t_16sqlrustgo_parser5lexer5testss_17test_lexer_parens
FNDA:1,_RNvNtNtCsa812O6vgh8t_16sqlrustgo_parser5lexer5testss_17test_lexer_revoke
FNDA:1,_RNvNtNtCsa812O6vgh8t_16sqlrustgo_parser5lexer5testss_17test_lexer_values
FNDA:1,_RNvNtNtCsa812O6vgh8t_16sqlrustgo_parser5lexer5testss_18test_lexer_analyze
FNDA:1,_RNvNtNtCsa812O6vgh8t_16sqlrustgo_parser5lexer5testss_18test_lexer_greater
FNDA:1,_RNvNtNtCsa812O6vgh8t_16sqlrustgo_parser5lexer5testss_18test_lexer_percent
FNDA:1,_RNvNtNtCsa812O6vgh8t_16sqlrustgo_parser5lexer5testss_18test_lexer_primary
FNDA:1,_RNvNtNtCsa812O6vgh8t_16sqlrustgo_parser5lexer5testss_18test_simple_select
FNDA:1,_RNvNtNtCsa812O6vgh8t_16sqlrustgo_parser5lexer5testss_19test_lexer_position
FNDA:1,_RNvNtNtCsa812O6vgh8t_16sqlrustgo_parser5lexer5testss_19test_lexer_rollback
FNDA:1,_RNvNtNtCsa812O6vgh8t_16sqlrustgo_parser5lexer5testss_20test_lexer_eof_token
FNDA:1,_RNvNtNtCsa812O6vgh8t_16sqlrustgo_parser5lexer5testss_20test_lexer_next_char
FNDA:1,_RNvNtNtCsa812O6vgh8t_16sqlrustgo_parser5lexer5testss_20test_lexer_not_equal
FNDA:1,_RNvNtNtCsa812O6vgh8t_16sqlrustgo_parser5lexer5testss_20test_lexer_operators
FNDA:1,_RNvNtNtCsa812O6vgh8t_16sqlrustgo_parser5lexer5testss_20test_lexer_peek_char
FNDA:1,_RNvNtNtCsa812O6vgh8t_16sqlrustgo_parser5lexer5testss_20test_lexer_semicolon
FNDA:1,_RNvNtNtCsa812O6vgh8t_16sqlrustgo_parser5lexer5testss_21test_lexer_drop_table
FNDA:1,_RNvNtNtCsa812O6vgh8t_16sqlrustgo_parser5lexer5testss_21test_lexer_less_equal
FNDA:1,_RNvNtNtCsa812O6vgh8t_16sqlrustgo_parser5lexer5testss_21test_lexer_text_types
FNDA:1,_RNvNtNtCsa812O6vgh8t_16sqlrustgo_parser5lexer5testss_22test_lexer_complex_sql
FNDA:1,_RNvNtNtCsa812O6vgh8t_16sqlrustgo_parser5lexer5testss_22test_lexer_float_types
FNDA:1,_RNvNtNtCsa812O6vgh8t_16sqlrustgo_parser5lexer5testss_22test_lexer_not_keyword
FNDA:1,_RNvNtNtCsa812O6vgh8t_16sqlrustgo_parser5lexer5testss_22test_lexer_number_only
FNDA:1,_RNvNtNtCsa812O6vgh8t_16sqlrustgo_parser5lexer5testss_22test_lexer_read_string
FNDA:1,_RNvNtNtCsa812O6vgh8t_16sqlrustgo_parser5lexer5testss_23test_lexer_boolean_true
FNDA:1,_RNvNtNtCsa812O6vgh8t_16sqlrustgo_parser5lexer5testss_23test_lexer_create_table
FNDA:1,_RNvNtNtCsa812O6vgh8t_16sqlrustgo_parser5lexer5testss_23test_lexer_date_keyword
FNDA:1,_RNvNtNtCsa812O6vgh8t_16sqlrustgo_parser5lexer5testss_23test_lexer_date_literal
FNDA:1,_RNvNtNtCsa812O6vgh8t_16sqlrustgo_parser5lexer5testss_23test_lexer_empty_string
FNDA:1,_RNvNtNtCsa812O6vgh8t_16sqlrustgo_parser5lexer5testss_23test_lexer_unknown_char
FNDA:1,_RNvNtNtCsa812O6vgh8t_16sqlrustgo_parser5lexer5testss_24test_lexer_boolean_false
FNDA:1,_RNvNtNtCsa812O6vgh8t_16sqlrustgo_parser5lexer5testss_24test_lexer_boolean_types
FNDA:1,_RNvNtNtCsa812O6vgh8t_16sqlrustgo_parser5lexer5testss_24test_lexer_greater_equal
FNDA:1,_RNvNtNtCsa812O6vgh8t_16sqlrustgo_parser5lexer5testss_24test_lexer_integer_types
FNDA:1,_RNvNtNtCsa812O6vgh8t_16sqlrustgo_parser5lexer5testss_24test_lexer_not_equal_alt
FNDA:1,_RNvNtNtCsa812O6vgh8t_16sqlrustgo_parser5lexer5testss_25test_lexer_decimal_number
FNDA:1,_RNvNtNtCsa812O6vgh8t_16sqlrustgo_parser5lexer5testss_25test_lexer_string_literal
FNDA:1,_RNvNtNtCsa812O6vgh8t_16sqlrustgo_parser5lexer5testss_26test_lexer_multiple_spaces
FNDA:1,_RNvNtNtCsa812O6vgh8t_16sqlrustgo_parser5lexer5testss_26test_lexer_read_identifier
FNDA:1,_RNvNtNtCsa812O6vgh8t_16sqlrustgo_parser5lexer5testss_26test_lexer_skip_whitespace
FNDA:1,_RNvNtNtCsa812O6vgh8t_16sqlrustgo_parser5lexer5testss_26test_lexer_whitespace_tabs
FNDA:1,_RNvNtNtCsa812O6vgh8t_16sqlrustgo_parser5lexer5testss_27test_lexer_delete_statement
FNDA:1,_RNvNtNtCsa812O6vgh8t_16sqlrustgo_parser5lexer5testss_27test_lexer_insert_statement
FNDA:1,_RNvNtNtCsa812O6vgh8t_16sqlrustgo_parser5lexer5testss_27test_lexer_update_statement
FNDA:1,_RNvNtNtCsa812O6vgh8t_16sqlrustgo_parser5lexer5testss_28test_lexer_timestamp_keyword
FNDA:1,_RNvNtNtCsa812O6vgh8t_16sqlrustgo_parser5lexer5testss_28test_lexer_timestamp_literal
FNDA:1,_RNvNtNtCsa812O6vgh8t_16sqlrustgo_parser5lexer5testss_30test_keywords_case_insensitive
FNDA:1,_RNvNtNtCsa812O6vgh8t_16sqlrustgo_parser5lexer5testss_30test_lexer_date_type_in_create
FNDA:1,_RNvNtNtCsa812O6vgh8t_16sqlrustgo_parser5lexer5testss_30test_lexer_mixed_case_keywords
FNDA:1,_RNvNtNtCsa812O6vgh8t_16sqlrustgo_parser5lexer5testss_30test_lexer_multiple_statements
FNDA:1,_RNvNtNtCsa812O6vgh8t_16sqlrustgo_parser5lexer5testss_30test_lexer_read_number_decimal
FNDA:1,_RNvNtNtCsa812O6vgh8t_16sqlrustgo_parser5lexer5testss_30test_lexer_read_number_integer
FNDA:1,_RNvNtNtCsa812O6vgh8t_16sqlrustgo_parser5lexer5testss_31test_lexer_string_escaped_quote
FNDA:1,_RNvNtNtCsa812O6vgh8t_16sqlrustgo_parser5lexer5testss_36test_lexer_string_with_escaped_quote
FNDA:1,_RNvNtNtCsa812O6vgh8t_16sqlrustgo_parser5lexer5testss_37test_lexer_identifier_with_underscore
FNDA:9,_RNCNvNtNtCsa812O6vgh8t_16sqlrustgo_parser5lexer5testss_30test_lexer_date_type_in_create0B7_
FNDA:2547,_RNvMNtCsa812O6vgh8t_16sqlrustgo_parser5lexerNtB2_5Lexer10next_token
FNDA:93,_RNvMNtCsa812O6vgh8t_16sqlrustgo_parser5lexerNtB2_5Lexer11read_number
FNDA:88,_RNvMNtCsa812O6vgh8t_16sqlrustgo_parser5lexerNtB2_5Lexer11read_string
FNDA:1551,_RNvMNtCsa812O6vgh8t_16sqlrustgo_parser5lexerNtB2_5Lexer15read_identifier
FNDA:2554,_RNvMNtCsa812O6vgh8t_16sqlrustgo_parser5lexerNtB2_5Lexer15skip_whitespace
FNDA:301,_RNvMNtCsa812O6vgh8t_16sqlrustgo_parser5lexerNtB2_5Lexer3new
FNDA:16786,_RNvMNtCsa812O6vgh8t_16sqlrustgo_parser5lexerNtB2_5Lexer6is_eof
FNDA:4,_RNvMNtCsa812O6vgh8t_16sqlrustgo_parser5lexerNtB2_5Lexer8position
FNDA:290,_RNvMNtCsa812O6vgh8t_16sqlrustgo_parser5lexerNtB2_5Lexer8tokenize
FNDA:1,_RNvMNtCsa812O6vgh8t_16sqlrustgo_parser5lexerNtB2_5Lexer9next_char
FNDA:15920,_RNvMNtCsa812O6vgh8t_16sqlrustgo_parser5lexerNtB2_5Lexer9peek_char
FNDA:53,_RNvNtCsa812O6vgh8t_16sqlrustgo_parser5lexer8tokenize
FNDA:0,_RNvMNtCs3Y8Ciw6e7SB_16sqlrustgo_parser5lexerNtB2_5Lexer10next_token
FNDA:0,_RNvMNtCs3Y8Ciw6e7SB_16sqlrustgo_parser5lexerNtB2_5Lexer11read_number
FNDA:0,_RNvMNtCs3Y8Ciw6e7SB_16sqlrustgo_parser5lexerNtB2_5Lexer11read_string
FNDA:0,_RNvMNtCs3Y8Ciw6e7SB_16sqlrustgo_parser5lexerNtB2_5Lexer15read_identifier
FNDA:0,_RNvMNtCs3Y8Ciw6e7SB_16sqlrustgo_parser5lexerNtB2_5Lexer15skip_whitespace
FNDA:0,_RNvMNtCs3Y8Ciw6e7SB_16sqlrustgo_parser5lexerNtB2_5Lexer3new
FNDA:0,_RNvMNtCs3Y8Ciw6e7SB_16sqlrustgo_parser5lexerNtB2_5Lexer6is_eof
FNDA:0,_RNvMNtCs3Y8Ciw6e7SB_16sqlrustgo_parser5lexerNtB2_5Lexer8position
FNDA:0,_RNvMNtCs3Y8Ciw6e7SB_16sqlrustgo_parser5lexerNtB2_5Lexer8tokenize
FNDA:0,_RNvMNtCs3Y8Ciw6e7SB_16sqlrustgo_parser5lexerNtB2_5Lexer9peek_char
FNDA:0,_RNvNtCs3Y8Ciw6e7SB_16sqlrustgo_parser5lexer8tokenize
FNF:92
FNH:92
DA:26,301
DA:27,301
DA:28,301
DA:31,4
DA:32,4
DA:33,4
DA:36,16786
DA:37,16786
DA:38,16786
DA:41,15920
DA:42,15920
DA:43,15920
DA:47,1
DA:48,1
DA:49,1
DA:50,1
DA:51,1
DA:54,2554
DA:55,4044
DA:56,3752
DA:59,3752
DA:60,1490
DA:61,1490
DA:62,2262
DA:65,2262
DA:66,0
DA:67,0
DA:68,0
DA:69,0
DA:70,2262
DA:73,2262
DA:74,0
DA:75,0
DA:76,0
DA:77,0
DA:78,0
DA:79,0
DA:80,0
DA:81,0
DA:82,2262
DA:84,2262
DA:86,2554
DA:89,1551
DA:90,1551
DA:91,9257
DA:92,9097
DA:93,9097
DA:94,1391
DA:95,7706
DA:96,7706
DA:98,1551
DA:99,1551
DA:102,93
DA:103,93
DA:104,93
DA:105,238
DA:106,204
DA:107,204
DA:108,3
DA:109,0
DA:110,3
DA:111,3
DA:112,201
DA:113,59
DA:114,142
DA:115,145
DA:117,93
DA:118,93
DA:121,88
DA:122,88
DA:123,88
DA:125,604
DA:126,604
DA:127,604
DA:128,90
DA:129,2
DA:130,2
DA:131,88
DA:132,88
DA:133,514
DA:134,514
DA:137,88
DA:138,88
DA:139,88
DA:140,88
DA:141,88
DA:142,88
DA:145,2547
DA:146,2547
DA:148,2547
DA:149,290
DA:150,2257
DA:152,2257
DA:154,93
DA:156,136
DA:157,136
DA:160,136
DA:161,136
DA:164,120
DA:165,120
DA:168,14
DA:169,14
DA:172,37
DA:173,37
DA:176,4
DA:177,4
DA:180,1
DA:181,1
DA:184,1
DA:185,1
DA:188,1
DA:189,1
DA:192,10
DA:193,10
DA:196,1
DA:197,1
DA:200,9
DA:201,9
DA:203,84
DA:205,0
DA:206,0
DA:209,39
DA:210,39
DA:213,2
DA:214,1
DA:215,1
DA:217,1
DA:218,1
DA:222,13
DA:223,2
DA:224,2
DA:226,11
DA:227,11
DA:231,6
DA:232,2
DA:233,2
DA:234,4
DA:235,2
DA:236,2
DA:238,2
DA:239,2
DA:242,1643
DA:243,1550
DA:244,1550
DA:245,1550
DA:246,1547
DA:247,1547
DA:248,1541
DA:249,1447
DA:250,1346
DA:251,1318
DA:252,1291
DA:253,1267
DA:254,1246
DA:255,1230
DA:256,1229
DA:257,1216
DA:258,1205
DA:259,1158
DA:260,1119
DA:261,1108
DA:262,1101
DA:263,1097
DA:264,1091
DA:265,1044
DA:266,1038
DA:267,1022
DA:268,1018
DA:269,1017
DA:270,1014
DA:271,1014
DA:272,1005
DA:273,1002
DA:274,999
DA:275,997
DA:276,996
DA:277,995
DA:278,995
DA:279,995
DA:280,979
DA:281,962
DA:282,946
DA:283,937
DA:284,909
DA:285,906
DA:286,906
DA:287,899
DA:288,895
DA:289,882
DA:290,879
DA:291,874
DA:292,873
DA:293,873
DA:294,872
DA:295,870
DA:296,868
DA:297,868
DA:298,867
DA:299,866
DA:300,866
DA:301,866
DA:302,866
DA:303,860
DA:304,858
DA:305,858
DA:306,857
DA:307,856
DA:308,856
DA:309,854
DA:310,852
DA:311,852
DA:312,852
DA:313,850
DA:314,850
DA:315,850
DA:316,850
DA:317,847
DA:318,843
DA:319,839
DA:320,839
DA:321,829
DA:322,828
DA:323,825
DA:324,824
DA:325,822
DA:326,821
DA:327,820
DA:328,817
DA:329,816
DA:330,808
DA:331,805
DA:332,802
DA:333,795
DA:334,795
DA:335,795
DA:336,795
DA:337,794
DA:338,794
DA:339,794
DA:340,794
DA:341,794
DA:342,792
DA:343,792
DA:344,792
DA:345,792
DA:346,786
DA:347,785
DA:348,784
DA:349,780
DA:350,780
DA:351,780
DA:352,778
DA:353,776
DA:354,776
DA:355,776
DA:356,776
DA:357,776
DA:358,775
DA:359,774
DA:360,768
DA:361,750
DA:362,744
DA:363,740
DA:364,737
DA:365,697
DA:366,685
DA:367,681
DA:368,680
DA:369,677
DA:370,676
DA:371,675
DA:372,3
DA:373,3
DA:374,3
DA:375,1
DA:377,2
DA:378,2
DA:381,672
DA:382,3
DA:383,3
DA:384,3
DA:385,1
DA:387,2
DA:388,2
DA:391,669
DA:392,669
DA:393,669
DA:394,669
DA:395,669
DA:396,669
DA:397,669
DA:398,669
DA:399,669
DA:400,669
DA:401,666
DA:402,666
DA:403,666
DA:404,666
DA:405,666
DA:406,666
DA:407,666
DA:408,666
DA:409,666
DA:410,656
DA:411,652
DA:412,651
DA:413,651
DA:414,651
DA:415,648
DA:416,647
DA:417,638
DA:418,637
DA:419,628
DA:420,625
DA:421,614
DA:422,608
DA:423,607
DA:424,605
DA:425,605
DA:426,597
DA:427,594
DA:428,591
DA:429,584
DA:430,581
DA:431,579
DA:434,93
DA:436,2
DA:437,2
DA:440,2547
DA:443,290
DA:444,290
DA:446,2545
DA:447,2545
DA:448,2545
DA:449,290
DA:450,2255
DA:452,290
DA:453,290
DA:457,53
DA:458,53
DA:459,53
DA:460,53
DA:467,1
DA:468,1
DA:469,1
DA:470,1
DA:471,1
DA:472,1
DA:473,1
DA:474,1
DA:475,1
DA:476,1
DA:477,1
DA:478,1
DA:479,1
DA:482,1
DA:484,1
DA:485,1
DA:486,1
DA:487,1
DA:490,1
DA:491,1
DA:492,1
DA:493,1
DA:494,1
DA:497,1
DA:498,1
DA:499,1
DA:500,1
DA:501,1
DA:502,1
DA:503,1
DA:504,1
DA:505,1
DA:506,1
DA:507,1
DA:510,1
DA:511,1
DA:512,1
DA:513,1
DA:516,1
DA:517,1
DA:518,1
DA:519,1
DA:520,1
DA:521,1
DA:524,1
DA:525,1
DA:528,1
DA:529,1
DA:532,1
DA:533,1
DA:534,1
DA:535,1
DA:536,1
DA:537,1
DA:540,1
DA:541,1
DA:542,1
DA:543,1
DA:546,1
DA:547,1
DA:548,1
DA:549,1
DA:550,1
DA:553,1
DA:554,1
DA:555,1
DA:556,1
DA:557,1
DA:558,1
DA:561,1
DA:562,1
DA:563,1
DA:564,1
DA:565,1
DA:568,1
DA:569,1
DA:570,1
DA:571,1
DA:572,1
DA:575,1
DA:576,1
DA:577,1
DA:578,1
DA:579,1
DA:582,1
DA:583,1
DA:584,1
DA:585,1
DA:586,1
DA:589,1
DA:590,1
DA:591,1
DA:592,1
DA:593,1
DA:596,1
DA:597,1
DA:598,1
DA:599,1
DA:600,1
DA:603,1
DA:604,1
DA:605,1
DA:606,1
DA:607,1
DA:610,1
DA:611,1
DA:612,1
DA:613,1
DA:616,1
DA:617,1
DA:618,1
DA:619,1
DA:622,1
DA:623,1
DA:624,1
DA:625,1
DA:628,1
DA:629,1
DA:630,1
DA:631,1
DA:634,1
DA:635,1
DA:636,1
DA:637,1
DA:640,1
DA:641,1
DA:642,1
DA:643,1
DA:646,1
DA:647,1
DA:648,1
DA:649,1
DA:652,1
DA:653,1
DA:654,1
DA:655,1
DA:658,1
DA:659,1
DA:660,1
DA:661,1
DA:664,1
DA:665,1
DA:666,1
DA:667,1
DA:670,1
DA:671,1
DA:672,1
DA:673,1
DA:676,1
DA:677,1
DA:678,1
DA:679,1
DA:682,1
DA:683,1
DA:684,1
DA:685,1
DA:688,1
DA:689,1
DA:690,1
DA:691,1
DA:694,1
DA:695,1
DA:696,1
DA:697,1
DA:700,1
DA:701,1
DA:702,1
DA:703,1
DA:706,1
DA:707,1
DA:708,1
DA:709,1
DA:712,1
DA:713,1
DA:714,1
DA:715,1
DA:718,1
DA:719,1
DA:720,1
DA:721,1
DA:724,1
DA:725,1
DA:726,1
DA:727,1
DA:730,1
DA:731,1
DA:732,1
DA:733,1
DA:736,1
DA:737,1
DA:738,1
DA:739,1
DA:742,1
DA:743,1
DA:744,1
DA:745,1
DA:748,1
DA:749,1
DA:750,1
DA:751,1
DA:754,1
DA:755,1
DA:756,1
DA:757,1
DA:760,1
DA:761,1
DA:762,1
DA:763,1
DA:766,1
DA:767,1
DA:768,1
DA:769,1
DA:772,1
DA:773,1
DA:774,1
DA:775,1
DA:778,1
DA:779,1
DA:780,1
DA:781,1
DA:784,1
DA:785,1
DA:786,1
DA:787,1
DA:790,1
DA:791,1
DA:792,1
DA:793,1
DA:796,1
DA:797,1
DA:798,1
DA:799,1
DA:802,1
DA:803,1
DA:804,1
DA:805,1
DA:808,1
DA:809,1
DA:810,1
DA:811,1
DA:814,1
DA:815,1
DA:816,1
DA:817,1
DA:820,1
DA:821,1
DA:822,1
DA:823,1
DA:824,1
DA:825,1
DA:828,1
DA:829,1
DA:830,1
DA:831,1
DA:832,1
DA:833,1
DA:834,1
DA:835,1
DA:838,1
DA:839,1
DA:840,1
DA:841,1
DA:842,1
DA:843,1
DA:844,1
DA:845,1
DA:848,1
DA:849,1
DA:850,1
DA:851,1
DA:852,1
DA:853,1
DA:856,1
DA:857,1
DA:858,1
DA:859,1
DA:862,1
DA:863,1
DA:864,1
DA:865,1
DA:868,1
DA:869,1
DA:870,1
DA:871,1
DA:874,1
DA:875,1
DA:876,1
DA:877,1
DA:880,1
DA:881,1
DA:882,1
DA:883,1
DA:886,1
DA:887,1
DA:888,1
DA:889,1
DA:890,1
DA:891,1
DA:892,1
DA:893,1
DA:894,1
DA:895,1
DA:896,1
DA:897,1
DA:898,1
DA:899,1
DA:900,1
DA:903,1
DA:904,1
DA:905,1
DA:906,1
DA:907,1
DA:908,1
DA:909,1
DA:910,1
DA:913,1
DA:914,1
DA:915,1
DA:916,1
DA:917,1
DA:918,1
DA:919,1
DA:922,1
DA:923,1
DA:924,1
DA:925,1
DA:926,1
DA:927,1
DA:930,1
DA:931,1
DA:932,1
DA:933,1
DA:934,1
DA:935,1
DA:938,1
DA:939,1
DA:940,1
DA:941,1
DA:942,1
DA:943,1
DA:946,1
DA:947,1
DA:948,1
DA:949,1
DA:952,1
DA:953,1
DA:954,1
DA:955,1
DA:958,1
DA:959,1
DA:960,1
DA:961,1
DA:964,1
DA:965,1
DA:966,1
DA:967,1
DA:970,1
DA:971,1
DA:972,1
DA:973,1
DA:976,1
DA:977,1
DA:978,1
DA:979,1
DA:982,1
DA:983,1
DA:984,1
DA:985,1
DA:988,1
DA:989,1
DA:990,1
DA:991,1
DA:994,1
DA:995,1
DA:996,1
DA:997,1
DA:999,9
DA:1000,1
DA:1001,1
DA:1005,1
DA:1008,1
DA:1009,1
DA:1010,1
DA:1011,1
DA:1012,1
DA:1015,1
DA:1016,1
DA:1017,1
DA:1018,1
DA:1019,1
BRF:0
BRH:0
LF:733
LH:718
end_of_record
SF:/home/openclaw/dev/yinglichina8848/sqlrustgo/crates/parser/src/lib.rs
FN:366,_RNvCsa812O6vgh8t_16sqlrustgo_parsers_15test_parse_copy
FN:380,_RNvCsa812O6vgh8t_16sqlrustgo_parsers_15test_parse_kill
FN:589,_RNvCsa812O6vgh8t_16sqlrustgo_parsers_15test_parse_like
FN:624,_RNvCsa812O6vgh8t_16sqlrustgo_parsers_16test_parse_alias
FN:554,_RNvCsa812O6vgh8t_16sqlrustgo_parsers_16test_parse_limit
FN:408,_RNvCsa812O6vgh8t_16sqlrustgo_parsers_16test_parse_merge
FN:610,_RNvCsa812O6vgh8t_16sqlrustgo_parsers_16test_parse_union
FN:455,_RNvCsa812O6vgh8t_16sqlrustgo_parsers_17test_parse_commit
FN:494,_RNvCsa812O6vgh8t_16sqlrustgo_parsers_17test_parse_delete
FN:212,_RNvCsa812O6vgh8t_16sqlrustgo_parsers_17test_parse_having
FN:515,_RNvCsa812O6vgh8t_16sqlrustgo_parsers_17test_parse_revoke
FN:487,_RNvCsa812O6vgh8t_16sqlrustgo_parsers_17test_parse_update
FN:582,_RNvCsa812O6vgh8t_16sqlrustgo_parsers_18test_parse_between
FN:387,_RNvCsa812O6vgh8t_16sqlrustgo_parsers_18test_parse_execute
FN:533,_RNvCsa812O6vgh8t_16sqlrustgo_parsers_18test_parse_explain
FN:596,_RNvCsa812O6vgh8t_16sqlrustgo_parsers_18test_parse_is_null
FN:547,_RNvCsa812O6vgh8t_16sqlrustgo_parsers_18test_parse_prepare
FN:180,_RNvCsa812O6vgh8t_16sqlrustgo_parsers_19test_parse_group_by
FN:226,_RNvCsa812O6vgh8t_16sqlrustgo_parsers_19test_parse_order_by
FN:462,_RNvCsa812O6vgh8t_16sqlrustgo_parsers_19test_parse_rollback
FN:501,_RNvCsa812O6vgh8t_16sqlrustgo_parsers_19test_parse_truncate
FN:159,_RNvCsa812O6vgh8t_16sqlrustgo_parsers_19test_sql92_features
FN:373,_RNvCsa812O6vgh8t_16sqlrustgo_parsers_20test_parse_delimiter
FN:359,_RNvCsa812O6vgh8t_16sqlrustgo_parsers_20test_parse_drop_user
FN:575,_RNvCsa812O6vgh8t_16sqlrustgo_parsers_20test_parse_left_join
FN:617,_RNvCsa812O6vgh8t_16sqlrustgo_parsers_20test_parse_union_all
FN:631,_RNvCsa812O6vgh8t_16sqlrustgo_parsers_21test_parse_cte_simple
FN:394,_RNvCsa812O6vgh8t_16sqlrustgo_parsers_21test_parse_deallocate
FN:508,_RNvCsa812O6vgh8t_16sqlrustgo_parsers_21test_parse_drop_table
FN:568,_RNvCsa812O6vgh8t_16sqlrustgo_parsers_21test_parse_inner_join
FN:469,_RNvCsa812O6vgh8t_16sqlrustgo_parsers_21test_parse_insert_set
FN:352,_RNvCsa812O6vgh8t_16sqlrustgo_parsers_22test_parse_create_user
FN:603,_RNvCsa812O6vgh8t_16sqlrustgo_parsers_22test_parse_is_not_null
FN:401,_RNvCsa812O6vgh8t_16sqlrustgo_parsers_22test_parse_show_status
FN:561,_RNvCsa812O6vgh8t_16sqlrustgo_parsers_23test_parse_limit_offset
FN:476,_RNvCsa812O6vgh8t_16sqlrustgo_parsers_24test_parse_insert_values
FN:540,_RNvCsa812O6vgh8t_16sqlrustgo_parsers_25test_parse_call_procedure
FN:522,_RNvCsa812O6vgh8t_16sqlrustgo_parsers_27test_parse_show_processlist
FN:448,_RNvCsa812O6vgh8t_16sqlrustgo_parsers_28test_parse_begin_transaction
FN:333,_RNvCsa812O6vgh8t_16sqlrustgo_parsers_28test_parse_window_frame_rows
FN:341,_RNvCsa812O6vgh8t_16sqlrustgo_parsers_29test_parse_window_frame_range
FN:437,_RNvCsa812O6vgh8t_16sqlrustgo_parsers_30test_parse_create_unique_index
FN:326,_RNvCsa812O6vgh8t_16sqlrustgo_parsers_30test_parse_lag_window_function
FN:319,_RNvCsa812O6vgh8t_16sqlrustgo_parsers_31test_parse_lead_window_function
FN:312,_RNvCsa812O6vgh8t_16sqlrustgo_parsers_31test_parse_rank_window_function
FN:415,_RNvCsa812O6vgh8t_16sqlrustgo_parsers_33test_parse_alter_table_add_column
FN:426,_RNvCsa812O6vgh8t_16sqlrustgo_parsers_34test_parse_alter_table_drop_column
FN:262,_RNvCsa812O6vgh8t_16sqlrustgo_parsers_35test_parse_complete_aggregate_query
FN:243,_RNvCsa812O6vgh8t_16sqlrustgo_parsers_35test_parse_order_by_desc_nulls_last
FN:195,_RNvCsa812O6vgh8t_16sqlrustgo_parsers_36test_parse_group_by_multiple_columns
FN:279,_RNvCsa812O6vgh8t_16sqlrustgo_parsers_36test_parse_order_by_multiple_columns
FN:298,_RNvCsa812O6vgh8t_16sqlrustgo_parsers_37test_parse_row_number_window_function
FN:108,_RNvNtCsa812O6vgh8t_16sqlrustgo_parser5testss_14test_parse_cte
FN:79,_RNvNtCsa812O6vgh8t_16sqlrustgo_parser5testss_16test_parse_union
FN:73,_RNvNtCsa812O6vgh8t_16sqlrustgo_parser5testss_19test_lexer_function
FN:43,_RNvNtCsa812O6vgh8t_16sqlrustgo_parser5testss_19test_module_exports
FN:67,_RNvNtCsa812O6vgh8t_16sqlrustgo_parser5testss_19test_parse_function
FN:127,_RNvNtCsa812O6vgh8t_16sqlrustgo_parser5testss_19test_parse_truncate
FN:92,_RNvNtCsa812O6vgh8t_16sqlrustgo_parser5testss_20test_parse_union_all
FN:142,_RNvNtCsa812O6vgh8t_16sqlrustgo_parser5testss_22test_parse_create_view
FNDA:1,_RNvCsa812O6vgh8t_16sqlrustgo_parsers_15test_parse_copy
FNDA:1,_RNvCsa812O6vgh8t_16sqlrustgo_parsers_15test_parse_kill
FNDA:1,_RNvCsa812O6vgh8t_16sqlrustgo_parsers_15test_parse_like
FNDA:1,_RNvCsa812O6vgh8t_16sqlrustgo_parsers_16test_parse_alias
FNDA:1,_RNvCsa812O6vgh8t_16sqlrustgo_parsers_16test_parse_limit
FNDA:1,_RNvCsa812O6vgh8t_16sqlrustgo_parsers_16test_parse_merge
FNDA:1,_RNvCsa812O6vgh8t_16sqlrustgo_parsers_16test_parse_union
FNDA:1,_RNvCsa812O6vgh8t_16sqlrustgo_parsers_17test_parse_commit
FNDA:1,_RNvCsa812O6vgh8t_16sqlrustgo_parsers_17test_parse_delete
FNDA:1,_RNvCsa812O6vgh8t_16sqlrustgo_parsers_17test_parse_having
FNDA:1,_RNvCsa812O6vgh8t_16sqlrustgo_parsers_17test_parse_revoke
FNDA:1,_RNvCsa812O6vgh8t_16sqlrustgo_parsers_17test_parse_update
FNDA:1,_RNvCsa812O6vgh8t_16sqlrustgo_parsers_18test_parse_between
FNDA:1,_RNvCsa812O6vgh8t_16sqlrustgo_parsers_18test_parse_execute
FNDA:1,_RNvCsa812O6vgh8t_16sqlrustgo_parsers_18test_parse_explain
FNDA:1,_RNvCsa812O6vgh8t_16sqlrustgo_parsers_18test_parse_is_null
FNDA:1,_RNvCsa812O6vgh8t_16sqlrustgo_parsers_18test_parse_prepare
FNDA:1,_RNvCsa812O6vgh8t_16sqlrustgo_parsers_19test_parse_group_by
FNDA:1,_RNvCsa812O6vgh8t_16sqlrustgo_parsers_19test_parse_order_by
FNDA:1,_RNvCsa812O6vgh8t_16sqlrustgo_parsers_19test_parse_rollback
FNDA:1,_RNvCsa812O6vgh8t_16sqlrustgo_parsers_19test_parse_truncate
FNDA:1,_RNvCsa812O6vgh8t_16sqlrustgo_parsers_19test_sql92_features
FNDA:1,_RNvCsa812O6vgh8t_16sqlrustgo_parsers_20test_parse_delimiter
FNDA:1,_RNvCsa812O6vgh8t_16sqlrustgo_parsers_20test_parse_drop_user
FNDA:1,_RNvCsa812O6vgh8t_16sqlrustgo_parsers_20test_parse_left_join
FNDA:1,_RNvCsa812O6vgh8t_16sqlrustgo_parsers_20test_parse_union_all
FNDA:1,_RNvCsa812O6vgh8t_16sqlrustgo_parsers_21test_parse_cte_simple
FNDA:1,_RNvCsa812O6vgh8t_16sqlrustgo_parsers_21test_parse_deallocate
FNDA:1,_RNvCsa812O6vgh8t_16sqlrustgo_parsers_21test_parse_drop_table
FNDA:1,_RNvCsa812O6vgh8t_16sqlrustgo_parsers_21test_parse_inner_join
FNDA:1,_RNvCsa812O6vgh8t_16sqlrustgo_parsers_21test_parse_insert_set
FNDA:1,_RNvCsa812O6vgh8t_16sqlrustgo_parsers_22test_parse_create_user
FNDA:1,_RNvCsa812O6vgh8t_16sqlrustgo_parsers_22test_parse_is_not_null
FNDA:1,_RNvCsa812O6vgh8t_16sqlrustgo_parsers_22test_parse_show_status
FNDA:1,_RNvCsa812O6vgh8t_16sqlrustgo_parsers_23test_parse_limit_offset
FNDA:1,_RNvCsa812O6vgh8t_16sqlrustgo_parsers_24test_parse_insert_values
FNDA:1,_RNvCsa812O6vgh8t_16sqlrustgo_parsers_25test_parse_call_procedure
FNDA:1,_RNvCsa812O6vgh8t_16sqlrustgo_parsers_27test_parse_show_processlist
FNDA:1,_RNvCsa812O6vgh8t_16sqlrustgo_parsers_28test_parse_begin_transaction
FNDA:1,_RNvCsa812O6vgh8t_16sqlrustgo_parsers_28test_parse_window_frame_rows
FNDA:1,_RNvCsa812O6vgh8t_16sqlrustgo_parsers_29test_parse_window_frame_range
FNDA:1,_RNvCsa812O6vgh8t_16sqlrustgo_parsers_30test_parse_create_unique_index
FNDA:1,_RNvCsa812O6vgh8t_16sqlrustgo_parsers_30test_parse_lag_window_function
FNDA:1,_RNvCsa812O6vgh8t_16sqlrustgo_parsers_31test_parse_lead_window_function
FNDA:1,_RNvCsa812O6vgh8t_16sqlrustgo_parsers_31test_parse_rank_window_function
FNDA:1,_RNvCsa812O6vgh8t_16sqlrustgo_parsers_33test_parse_alter_table_add_column
FNDA:1,_RNvCsa812O6vgh8t_16sqlrustgo_parsers_34test_parse_alter_table_drop_column
FNDA:1,_RNvCsa812O6vgh8t_16sqlrustgo_parsers_35test_parse_complete_aggregate_query
FNDA:1,_RNvCsa812O6vgh8t_16sqlrustgo_parsers_35test_parse_order_by_desc_nulls_last
FNDA:1,_RNvCsa812O6vgh8t_16sqlrustgo_parsers_36test_parse_group_by_multiple_columns
FNDA:1,_RNvCsa812O6vgh8t_16sqlrustgo_parsers_36test_parse_order_by_multiple_columns
FNDA:1,_RNvCsa812O6vgh8t_16sqlrustgo_parsers_37test_parse_row_number_window_function
FNDA:1,_RNvNtCsa812O6vgh8t_16sqlrustgo_parser5testss_14test_parse_cte
FNDA:1,_RNvNtCsa812O6vgh8t_16sqlrustgo_parser5testss_16test_parse_union
FNDA:1,_RNvNtCsa812O6vgh8t_16sqlrustgo_parser5testss_19test_lexer_function
FNDA:1,_RNvNtCsa812O6vgh8t_16sqlrustgo_parser5testss_19test_module_exports
FNDA:1,_RNvNtCsa812O6vgh8t_16sqlrustgo_parser5testss_19test_parse_function
FNDA:1,_RNvNtCsa812O6vgh8t_16sqlrustgo_parser5testss_19test_parse_truncate
FNDA:1,_RNvNtCsa812O6vgh8t_16sqlrustgo_parser5testss_20test_parse_union_all
FNDA:1,_RNvNtCsa812O6vgh8t_16sqlrustgo_parser5testss_22test_parse_create_view
FNF:60
FNH:60
DA:43,1
DA:44,1
DA:45,1
DA:46,1
DA:47,1
DA:48,1
DA:49,1
DA:50,1
DA:51,1
DA:52,1
DA:53,1
DA:54,1
DA:55,1
DA:56,1
DA:57,1
DA:58,1
DA:59,1
DA:60,1
DA:61,1
DA:62,1
DA:63,1
DA:64,1
DA:67,1
DA:68,1
DA:69,1
DA:70,1
DA:73,1
DA:74,1
DA:75,1
DA:76,1
DA:79,1
DA:80,1
DA:81,1
DA:82,0
DA:83,1
DA:84,1
DA:85,1
DA:86,1
DA:87,0
DA:89,1
DA:92,1
DA:93,1
DA:94,1
DA:95,0
DA:96,1
DA:97,1
DA:98,1
DA:102,1
DA:103,0
DA:105,1
DA:108,1
DA:109,1
DA:110,1
DA:111,0
DA:112,1
DA:113,1
DA:114,1
DA:115,1
DA:116,1
DA:117,1
DA:118,1
DA:119,1
DA:120,1
DA:122,0
DA:124,1
DA:127,1
DA:128,1
DA:129,1
DA:130,0
DA:131,1
DA:132,1
DA:133,1
DA:134,1
DA:135,1
DA:137,0
DA:139,1
DA:142,1
DA:143,1
DA:144,1
DA:145,0
DA:146,1
DA:147,1
DA:148,1
DA:149,1
DA:150,1
DA:151,1
DA:153,0
DA:155,1
DA:159,1
DA:160,1
DA:161,1
DA:162,1
DA:163,1
DA:164,1
DA:165,1
DA:166,1
DA:167,1
DA:168,1
DA:169,1
DA:171,9
DA:172,9
DA:173,9
DA:174,9
DA:175,0
DA:177,1
DA:180,1
DA:181,1
DA:182,1
DA:183,1
DA:184,1
DA:185,1
DA:186,1
DA:187,1
DA:188,1
DA:190,0
DA:192,1
DA:195,1
DA:196,1
DA:197,1
DA:198,1
DA:199,1
DA:203,1
DA:204,1
DA:205,1
DA:206,1
DA:207,1
DA:208,0
DA:209,1
DA:212,1
DA:213,1
DA:214,1
DA:215,1
DA:216,1
DA:217,1
DA:218,1
DA:219,1
DA:221,0
DA:223,1
DA:226,1
DA:227,1
DA:228,1
DA:229,1
DA:230,1
DA:231,1
DA:232,1
DA:233,1
DA:234,1
DA:235,1
DA:236,1
DA:238,0
DA:240,1
DA:243,1
DA:244,1
DA:245,1
DA:246,1
DA:247,1
DA:251,1
DA:252,1
DA:253,1
DA:254,1
DA:255,1
DA:256,1
DA:257,1
DA:258,0
DA:259,1
DA:262,1
DA:263,1
DA:264,1
DA:265,1
DA:266,1
DA:270,1
DA:271,1
DA:272,1
DA:273,1
DA:274,1
DA:275,0
DA:276,1
DA:279,1
DA:280,1
DA:281,1
DA:282,1
DA:283,1
DA:287,1
DA:288,1
DA:289,1
DA:290,1
DA:291,1
DA:292,1
DA:293,1
DA:294,0
DA:295,1
DA:298,1
DA:299,1
DA:300,1
DA:301,1
DA:302,1
DA:303,1
DA:305,1
DA:307,0
DA:309,1
DA:312,1
DA:313,1
DA:314,1
DA:315,1
DA:316,1
DA:319,1
DA:320,1
DA:321,1
DA:322,1
DA:323,1
DA:326,1
DA:327,1
DA:328,1
DA:329,1
DA:330,1
DA:333,1
DA:335,1
DA:336,1
DA:337,1
DA:338,1
DA:341,1
DA:342,1
DA:343,1
DA:344,1
DA:345,1
DA:349,1
DA:352,1
DA:353,1
DA:354,1
DA:355,1
DA:356,1
DA:359,1
DA:360,1
DA:361,1
DA:362,1
DA:363,1
DA:366,1
DA:367,1
DA:368,1
DA:369,1
DA:370,1
DA:373,1
DA:374,1
DA:375,1
DA:376,1
DA:377,1
DA:380,1
DA:381,1
DA:382,1
DA:383,1
DA:384,1
DA:387,1
DA:388,1
DA:389,1
DA:390,1
DA:391,1
DA:394,1
DA:395,1
DA:396,1
DA:397,1
DA:398,1
DA:401,1
DA:402,1
DA:403,1
DA:404,1
DA:405,1
DA:408,1
DA:409,1
DA:410,1
DA:411,1
DA:412,1
DA:415,1
DA:416,1
DA:417,1
DA:418,1
DA:419,1
DA:423,1
DA:426,1
DA:427,1
DA:428,1
DA:429,1
DA:430,1
DA:434,1
DA:437,1
DA:438,1
DA:439,1
DA:440,1
DA:441,1
DA:445,1
DA:448,1
DA:449,1
DA:450,1
DA:451,1
DA:452,1
DA:455,1
DA:456,1
DA:457,1
DA:458,1
DA:459,1
DA:462,1
DA:463,1
DA:464,1
DA:465,1
DA:466,1
DA:469,1
DA:470,1
DA:471,1
DA:472,1
DA:473,1
DA:476,1
DA:477,1
DA:478,1
DA:479,1
DA:480,1
DA:484,1
DA:487,1
DA:488,1
DA:489,1
DA:490,1
DA:491,1
DA:494,1
DA:495,1
DA:496,1
DA:497,1
DA:498,1
DA:501,1
DA:502,1
DA:503,1
DA:504,1
DA:505,1
DA:508,1
DA:509,1
DA:510,1
DA:511,1
DA:512,1
DA:515,1
DA:516,1
DA:517,1
DA:518,1
DA:519,1
DA:522,1
DA:523,1
DA:524,1
DA:525,1
DA:526,1
DA:530,1
DA:533,1
DA:534,1
DA:535,1
DA:536,1
DA:537,1
DA:540,1
DA:541,1
DA:542,1
DA:543,1
DA:544,1
DA:547,1
DA:548,1
DA:549,1
DA:550,1
DA:551,1
DA:554,1
DA:555,1
DA:556,1
DA:557,1
DA:558,1
DA:561,1
DA:562,1
DA:563,1
DA:564,1
DA:565,1
DA:568,1
DA:569,1
DA:570,1
DA:571,1
DA:572,1
DA:575,1
DA:576,1
DA:577,1
DA:578,1
DA:579,1
DA:582,1
DA:583,1
DA:584,1
DA:585,1
DA:586,1
DA:589,1
DA:590,1
DA:591,1
DA:592,1
DA:593,1
DA:596,1
DA:597,1
DA:598,1
DA:599,1
DA:600,1
DA:603,1
DA:604,1
DA:605,1
DA:606,1
DA:607,1
DA:610,1
DA:611,1
DA:612,1
DA:613,1
DA:614,1
DA:617,1
DA:618,1
DA:619,1
DA:620,1
DA:621,1
DA:624,1
DA:625,1
DA:626,1
DA:627,1
DA:628,1
DA:631,1
DA:632,1
DA:633,1
DA:634,1
DA:635,1
BRF:0
BRH:0
LF:421
LH:402
end_of_record
SF:/home/openclaw/dev/yinglichina8848/sqlrustgo/crates/parser/src/parser.rs
FN:4559,_RNCNvMs0_NtCsfPVfeOGg4hx_16sqlrustgo_parser6parserNtB7_6Parser10parse_kill0B9_
FN:351,_RNvMNtCsfPVfeOGg4hx_16sqlrustgo_parser6parserNtB2_12UserIdentity3new
FN:4718,_RNvMs0_NtCsfPVfeOGg4hx_16sqlrustgo_parser6parserNtB5_6Parser10parse_call
FN:4653,_RNvMs0_NtCsfPVfeOGg4hx_16sqlrustgo_parser6parserNtB5_6Parser10parse_copy
FN:4538,_RNvMs0_NtCsfPVfeOGg4hx_16sqlrustgo_parser6parserNtB5_6Parser10parse_kill
FN:4521,_RNvMs0_NtCsfPVfeOGg4hx_16sqlrustgo_parser6parserNtB5_6Parser10parse_show
FN:798,_RNvMs0_NtCsfPVfeOGg4hx_16sqlrustgo_parser6parserNtB5_6Parser10parse_with
FN:2012,_RNvMs0_NtCsfPVfeOGg4hx_16sqlrustgo_parser6parserNtB5_6Parser11parse_alter
FN:4405,_RNvMs0_NtCsfPVfeOGg4hx_16sqlrustgo_parser6parserNtB5_6Parser11parse_grant
FN:890,_RNvMs0_NtCsfPVfeOGg4hx_16sqlrustgo_parser6parserNtB5_6Parser11parse_merge
FN:2997,_RNvMs0_NtCsfPVfeOGg4hx_16sqlrustgo_parser6parserNtB5_6Parser12parse_create
FN:2874,_RNvMs0_NtCsfPVfeOGg4hx_16sqlrustgo_parser6parserNtB5_6Parser12parse_delete
FN:1769,_RNvMs0_NtCsfPVfeOGg4hx_16sqlrustgo_parser6parserNtB5_6Parser12parse_insert
FN:4463,_RNvMs0_NtCsfPVfeOGg4hx_16sqlrustgo_parser6parserNtB5_6Parser12parse_revoke
FN:983,_RNvMs0_NtCsfPVfeOGg4hx_16sqlrustgo_parser6parserNtB5_6Parser12parse_select
FN:2077,_RNvMs0_NtCsfPVfeOGg4hx_16sqlrustgo_parser6parserNtB5_6Parser12parse_update
FN:4370,_RNvMs0_NtCsfPVfeOGg4hx_16sqlrustgo_parser6parserNtB5_6Parser13parse_analyze
FN:4600,_RNvMs0_NtCsfPVfeOGg4hx_16sqlrustgo_parser6parserNtB5_6Parser13parse_execute
FN:4386,_RNvMs0_NtCsfPVfeOGg4hx_16sqlrustgo_parser6parserNtB5_6Parser13parse_explain
FN:4571,_RNvMs0_NtCsfPVfeOGg4hx_16sqlrustgo_parser6parserNtB5_6Parser13parse_prepare
FN:970,_RNvMs0_NtCsfPVfeOGg4hx_16sqlrustgo_parser6parserNtB5_6Parser14parse_truncate
FN:4758,_RNvMs0_NtCsfPVfeOGg4hx_16sqlrustgo_parser6parserNtB5_6Parser15parse_delimiter
FN:3658,_RNvMs0_NtCsfPVfeOGg4hx_16sqlrustgo_parser6parserNtB5_6Parser15parse_drop_user
FN:3553,_RNvMs0_NtCsfPVfeOGg4hx_16sqlrustgo_parser6parserNtB5_6Parser15parse_fk_action
FN:762,_RNvMs0_NtCsfPVfeOGg4hx_16sqlrustgo_parser6parserNtB5_6Parser15parse_statement
FN:4633,_RNvMs0_NtCsfPVfeOGg4hx_16sqlrustgo_parser6parserNtB5_6Parser16parse_deallocate
FN:3577,_RNvMs0_NtCsfPVfeOGg4hx_16sqlrustgo_parser6parserNtB5_6Parser16parse_drop_table
FN:2139,_RNvMs0_NtCsfPVfeOGg4hx_16sqlrustgo_parser6parserNtB5_6Parser16parse_expression
FN:3612,_RNvMs0_NtCsfPVfeOGg4hx_16sqlrustgo_parser6parserNtB5_6Parser17parse_create_user
FN:4345,_RNvMs0_NtCsfPVfeOGg4hx_16sqlrustgo_parser6parserNtB5_6Parser17parse_create_view
FN:2770,_RNvMs0_NtCsfPVfeOGg4hx_16sqlrustgo_parser6parserNtB5_6Parser17parse_frame_bound
FN:4772,_RNvMs0_NtCsfPVfeOGg4hx_16sqlrustgo_parser6parserNtB5_6Parser17parse_transaction
FN:2896,_RNvMs0_NtCsfPVfeOGg4hx_16sqlrustgo_parser6parserNtB5_6Parser18parse_create_index
FN:3021,_RNvMs0_NtCsfPVfeOGg4hx_16sqlrustgo_parser6parserNtB5_6Parser18parse_create_table
FN:2708,_RNvMs0_NtCsfPVfeOGg4hx_16sqlrustgo_parser6parserNtB5_6Parser18parse_window_frame
FN:2144,_RNvMs0_NtCsfPVfeOGg4hx_16sqlrustgo_parser6parserNtB5_6Parser19parse_or_expression
FN:2832,_RNvMs0_NtCsfPVfeOGg4hx_16sqlrustgo_parser6parserNtB5_6Parser19parse_order_by_item
FN:4270,_RNvMs0_NtCsfPVfeOGg4hx_16sqlrustgo_parser6parserNtB5_6Parser20collect_until_end_if
FN:2157,_RNvMs0_NtCsfPVfeOGg4hx_16sqlrustgo_parser6parserNtB5_6Parser20parse_and_expression
FN:3692,_RNvMs0_NtCsfPVfeOGg4hx_16sqlrustgo_parser6parserNtB5_6Parser20parse_create_trigger
FN:2963,_RNvMs0_NtCsfPVfeOGg4hx_16sqlrustgo_parser6parserNtB5_6Parser21parse_create_or_index
FN:2631,_RNvMs0_NtCsfPVfeOGg4hx_16sqlrustgo_parser6parserNtB5_6Parser21parse_window_function
FN:4308,_RNvMs0_NtCsfPVfeOGg4hx_16sqlrustgo_parser6parserNtB5_6Parser22collect_until_end_loop
FN:3759,_RNvMs0_NtCsfPVfeOGg4hx_16sqlrustgo_parser6parserNtB5_6Parser22parse_create_procedure
FN:3350,_RNvMs0_NtCsfPVfeOGg4hx_16sqlrustgo_parser6parserNtB5_6Parser22parse_table_constraint
FN:4249,_RNvMs0_NtCsfPVfeOGg4hx_16sqlrustgo_parser6parserNtB5_6Parser23collect_until_semicolon
FN:2579,_RNvMs0_NtCsfPVfeOGg4hx_16sqlrustgo_parser6parserNtB5_6Parser24parse_extract_expression
FN:2409,_RNvMs0_NtCsfPVfeOGg4hx_16sqlrustgo_parser6parserNtB5_6Parser24parse_primary_expression
FN:2546,_RNvMs0_NtCsfPVfeOGg4hx_16sqlrustgo_parser6parserNtB5_6Parser26parse_case_when_expression
FN:2599,_RNvMs0_NtCsfPVfeOGg4hx_16sqlrustgo_parser6parserNtB5_6Parser26parse_substring_expression
FN:2339,_RNvMs0_NtCsfPVfeOGg4hx_16sqlrustgo_parser6parserNtB5_6Parser27parse_arithmetic_expression
FN:2170,_RNvMs0_NtCsfPVfeOGg4hx_16sqlrustgo_parser6parserNtB5_6Parser27parse_comparison_expression
FN:3531,_RNvMs0_NtCsfPVfeOGg4hx_16sqlrustgo_parser6parserNtB5_6Parser28parse_fk_referential_actions
FN:728,_RNvMs0_NtCsfPVfeOGg4hx_16sqlrustgo_parser6parserNtB5_6Parser3new
FN:747,_RNvMs0_NtCsfPVfeOGg4hx_16sqlrustgo_parser6parserNtB5_6Parser4next
FN:753,_RNvMs0_NtCsfPVfeOGg4hx_16sqlrustgo_parser6parserNtB5_6Parser6expect
FN:736,_RNvMs0_NtCsfPVfeOGg4hx_16sqlrustgo_parser6parserNtB5_6Parser7current
FN:390,_RNvMs_NtCsfPVfeOGg4hx_16sqlrustgo_parser6parserNtB4_9Privilege20can_view_processlist
FN:386,_RNvMs_NtCsfPVfeOGg4hx_16sqlrustgo_parser6parserNtB4_9Privilege8can_kill
FN:4847,_RNvNtCsfPVfeOGg4hx_16sqlrustgo_parser6parser5parse
FN:4879,_RNvNtNtCsa812O6vgh8t_16sqlrustgo_parser6parser5testss_14test_parse_q13
FN:4886,_RNvNtNtCsa812O6vgh8t_16sqlrustgo_parser6parser5testss_14test_parse_q22
FN:5045,_RNvNtNtCsa812O6vgh8t_16sqlrustgo_parser6parser5testss_15test_parse_drop
FN:5018,_RNvNtNtCsa812O6vgh8t_16sqlrustgo_parser6parser5testss_17test_parse_create
FN:4993,_RNvNtNtCsa812O6vgh8t_16sqlrustgo_parser6parser5testss_17test_parse_delete
FN:4906,_RNvNtNtCsa812O6vgh8t_16sqlrustgo_parser6parser5testss_17test_parse_insert
FN:4893,_RNvNtNtCsa812O6vgh8t_16sqlrustgo_parser6parser5testss_17test_parse_select
FN:4965,_RNvNtNtCsa812O6vgh8t_16sqlrustgo_parser6parser5testss_17test_parse_update
FN:5238,_RNvNtNtCsa812O6vgh8t_16sqlrustgo_parser6parser5testss_18test_parse_explain
FN:5138,_RNvNtNtCsa812O6vgh8t_16sqlrustgo_parser6parser5testss_18test_parser_expect
FN:5131,_RNvNtNtCsa812O6vgh8t_16sqlrustgo_parser6parser5testss_18test_parser_is_eof
FN:5556,_RNvNtNtCsa812O6vgh8t_16sqlrustgo_parser6parser5testss_19test_privilege_enum
FN:5689,_RNvNtNtCsa812O6vgh8t_16sqlrustgo_parser6parser5testss_20test_parse_drop_user
FN:5296,_RNvNtNtCsa812O6vgh8t_16sqlrustgo_parser6parser5testss_20test_parse_grant_all
FN:5268,_RNvNtNtCsa812O6vgh8t_16sqlrustgo_parser6parser5testss_21test_parse_grant_read
FN:6106,_RNvNtNtCsa812O6vgh8t_16sqlrustgo_parser6parser5testss_21test_parse_kill_query
FN:5440,_RNvNtNtCsa812O6vgh8t_16sqlrustgo_parser6parser5testss_21test_parse_revoke_all
FN:5166,_RNvNtNtCsa812O6vgh8t_16sqlrustgo_parser6parser5testss_21test_update_multi_set
FN:5643,_RNvNtNtCsa812O6vgh8t_16sqlrustgo_parser6parser5testss_22test_parse_create_user
FN:5852,_RNvNtNtCsa812O6vgh8t_16sqlrustgo_parser6parser5testss_22test_parse_create_view
FN:5107,_RNvNtNtCsa812O6vgh8t_16sqlrustgo_parser6parser5testss_22test_parse_error_empty
FN:5282,_RNvNtNtCsa812O6vgh8t_16sqlrustgo_parser6parser5testss_22test_parse_grant_write
FN:5412,_RNvNtNtCsa812O6vgh8t_16sqlrustgo_parser6parser5testss_22test_parse_revoke_read
FN:5057,_RNvNtNtCsa812O6vgh8t_16sqlrustgo_parser6parser5testss_22test_parse_select_star
FN:6056,_RNvNtNtCsa812O6vgh8t_16sqlrustgo_parser6parser5testss_22test_parse_show_status
FN:5763,_RNvNtNtCsa812O6vgh8t_16sqlrustgo_parser6parser5testss_23test_parse_batch_insert
FN:5352,_RNvNtNtCsa812O6vgh8t_16sqlrustgo_parser6parser5testss_23test_parse_grant_delete
FN:5324,_RNvNtNtCsa812O6vgh8t_16sqlrustgo_parser6parser5testss_23test_parse_grant_insert
FN:5310,_RNvNtNtCsa812O6vgh8t_16sqlrustgo_parser6parser5testss_23test_parse_grant_select
FN:5338,_RNvNtNtCsa812O6vgh8t_16sqlrustgo_parser6parser5testss_23test_parse_grant_update
FN:5426,_RNvNtNtCsa812O6vgh8t_16sqlrustgo_parser6parser5testss_23test_parse_revoke_write
FN:5496,_RNvNtNtCsa812O6vgh8t_16sqlrustgo_parser6parser5testss_24test_parse_revoke_delete
FN:5468,_RNvNtNtCsa812O6vgh8t_16sqlrustgo_parser6parser5testss_24test_parse_revoke_insert
FN:5454,_RNvNtNtCsa812O6vgh8t_16sqlrustgo_parser6parser5testss_24test_parse_revoke_select
FN:5482,_RNvNtNtCsa812O6vgh8t_16sqlrustgo_parser6parser5testss_24test_parse_revoke_update
FN:5719,_RNvNtNtCsa812O6vgh8t_16sqlrustgo_parser6parser5testss_24test_parse_upsert_single
FN:5146,_RNvNtNtCsa812O6vgh8t_16sqlrustgo_parser6parser5testss_24test_parser_expect_error
FN:5976,_RNvNtNtCsa812O6vgh8t_16sqlrustgo_parser6parser5testss_25test_parse_view_lowercase
FN:5934,_RNvNtNtCsa812O6vgh8t_16sqlrustgo_parser6parser5testss_26test_foreign_key_ref_clone
FN:5563,_RNvNtNtCsa812O6vgh8t_16sqlrustgo_parser6parser5testss_26test_grant_statement_clone
FN:5589,_RNvNtNtCsa812O6vgh8t_16sqlrustgo_parser6parser5testss_26test_grant_statement_debug
FN:5821,_RNvNtNtCsa812O6vgh8t_16sqlrustgo_parser6parser5testss_26test_parse_column_not_null
FN:6138,_RNvNtNtCsa812O6vgh8t_16sqlrustgo_parser6parser5testss_26test_parse_copy_to_parquet
FN:5256,_RNvNtNtCsa812O6vgh8t_16sqlrustgo_parser6parser5testss_26test_parse_explain_analyze
FN:5366,_RNvNtNtCsa812O6vgh8t_16sqlrustgo_parser6parser5testss_26test_parse_grant_lowercase
FN:6080,_RNvNtNtCsa812O6vgh8t_16sqlrustgo_parser6parser5testss_26test_parse_kill_connection
FN:4858,_RNvNtNtCsa812O6vgh8t_16sqlrustgo_parser6parser5testss_26test_parse_not_in_subquery
FN:5737,_RNvNtNtCsa812O6vgh8t_16sqlrustgo_parser6parser5testss_26test_parse_upsert_multiple
FN:5982,_RNvNtNtCsa812O6vgh8t_16sqlrustgo_parser6parser5testss_26test_parse_view_missing_as
FN:5400,_RNvNtNtCsa812O6vgh8t_16sqlrustgo_parser6parser5testss_27test_parse_grant_missing_on
FN:5406,_RNvNtNtCsa812O6vgh8t_16sqlrustgo_parser6parser5testss_27test_parse_grant_missing_to
FN:5380,_RNvNtNtCsa812O6vgh8t_16sqlrustgo_parser6parser5testss_27test_parse_grant_mixed_case
FN:4949,_RNvNtNtCsa812O6vgh8t_16sqlrustgo_parser6parser5testss_27test_parse_insert_multi_row
FN:5510,_RNvNtNtCsa812O6vgh8t_16sqlrustgo_parser6parser5testss_27test_parse_revoke_lowercase
FN:6066,_RNvNtNtCsa812O6vgh8t_16sqlrustgo_parser6parser5testss_27test_parse_show_processlist
FN:5576,_RNvNtNtCsa812O6vgh8t_16sqlrustgo_parser6parser5testss_27test_revoke_statement_clone
FN:5603,_RNvNtNtCsa812O6vgh8t_16sqlrustgo_parser6parser5testss_27test_revoke_statement_debug
FN:5879,_RNvNtNtCsa812O6vgh8t_16sqlrustgo_parser6parser5testss_28test_column_definition_clone
FN:5900,_RNvNtNtCsa812O6vgh8t_16sqlrustgo_parser6parser5testss_28test_column_definition_debug
FN:5947,_RNvNtNtCsa812O6vgh8t_16sqlrustgo_parser6parser5testss_28test_foreign_key_action_enum
FN:6123,_RNvNtNtCsa812O6vgh8t_16sqlrustgo_parser6parser5testss_28test_parse_copy_from_parquet
FN:5005,_RNvNtNtCsa812O6vgh8t_16sqlrustgo_parser6parser5testss_28test_parse_delete_with_where
FN:5544,_RNvNtNtCsa812O6vgh8t_16sqlrustgo_parser6parser5testss_28test_parse_revoke_missing_on
FN:5524,_RNvNtNtCsa812O6vgh8t_16sqlrustgo_parser6parser5testss_28test_parse_revoke_mixed_case
FN:5083,_RNvNtNtCsa812O6vgh8t_16sqlrustgo_parser6parser5testss_28test_parse_select_with_where
FN:5232,_RNvNtNtCsa812O6vgh8t_16sqlrustgo_parser6parser5testss_28test_parse_update_single_set
FN:4979,_RNvNtNtCsa812O6vgh8t_16sqlrustgo_parser6parser5testss_28test_parse_update_with_where
FN:5095,_RNvNtNtCsa812O6vgh8t_16sqlrustgo_parser6parser5testss_29test_parse_analyze_with_table
FN:5804,_RNvNtNtCsa812O6vgh8t_16sqlrustgo_parser6parser5testss_29test_parse_column_foreign_key
FN:5790,_RNvNtNtCsa812O6vgh8t_16sqlrustgo_parser6parser5testss_29test_parse_column_primary_key
FN:6196,_RNvNtNtCsa812O6vgh8t_16sqlrustgo_parser6parser5testss_29test_parse_copy_error_no_path
FN:5208,_RNvNtNtCsa812O6vgh8t_16sqlrustgo_parser6parser5testss_29test_parse_drop_error_no_name
FN:5703,_RNvNtNtCsa812O6vgh8t_16sqlrustgo_parser6parser5testss_29test_parse_drop_user_multiple
FN:4872,_RNvNtNtCsa812O6vgh8t_16sqlrustgo_parser6parser5testss_29test_parse_inline_view_simple
FN:4920,_RNvNtNtCsa812O6vgh8t_16sqlrustgo_parser6parser5testss_29test_parse_insert_with_values
FN:5184,_RNvNtNtCsa812O6vgh8t_16sqlrustgo_parser6parser5testss_29test_parse_select_all_columns
FN:5617,_RNvNtNtCsa812O6vgh8t_16sqlrustgo_parser6parser5testss_30test_multiple_grant_statements
FN:6184,_RNvNtNtCsa812O6vgh8t_16sqlrustgo_parser6parser5testss_30test_parse_copy_error_no_table
FN:5865,_RNvNtNtCsa812O6vgh8t_16sqlrustgo_parser6parser5testss_30test_parse_create_view_complex
FN:5030,_RNvNtNtCsa812O6vgh8t_16sqlrustgo_parser6parser5testss_30test_parse_create_with_columns
FN:5214,_RNvNtNtCsa812O6vgh8t_16sqlrustgo_parser6parser5testss_30test_parse_insert_single_value
FN:4934,_RNvNtNtCsa812O6vgh8t_16sqlrustgo_parser6parser5testss_30test_parse_insert_with_columns
FN:5550,_RNvNtNtCsa812O6vgh8t_16sqlrustgo_parser6parser5testss_30test_parse_revoke_missing_from
FN:5119,_RNvNtNtCsa812O6vgh8t_16sqlrustgo_parser6parser5testss_30test_parse_select_missing_from
FN:5196,_RNvNtNtCsa812O6vgh8t_16sqlrustgo_parser6parser5testss_30test_parse_update_error_no_set
FN:5988,_RNvNtNtCsa812O6vgh8t_16sqlrustgo_parser6parser5testss_30test_parse_upsert_empty_update
FN:5154,_RNvNtNtCsa812O6vgh8t_16sqlrustgo_parser6parser5testss_31test_create_table_with_not_null
FN:5630,_RNvNtNtCsa812O6vgh8t_16sqlrustgo_parser6parser5testss_31test_multiple_revoke_statements
FN:5658,_RNvNtNtCsa812O6vgh8t_16sqlrustgo_parser6parser5testss_31test_parse_create_user_multiple
FN:5125,_RNvNtNtCsa812O6vgh8t_16sqlrustgo_parser6parser5testss_31test_parse_insert_missing_table
FN:5954,_RNvNtNtCsa812O6vgh8t_16sqlrustgo_parser6parser5testss_32test_create_view_statement_clone
FN:5965,_RNvNtNtCsa812O6vgh8t_16sqlrustgo_parser6parser5testss_32test_create_view_statement_debug
FN:5776,_RNvNtNtCsa812O6vgh8t_16sqlrustgo_parser6parser5testss_32test_parse_column_auto_increment
FN:5190,_RNvNtNtCsa812O6vgh8t_16sqlrustgo_parser6parser5testss_32test_parse_delete_error_no_table
FN:4865,_RNvNtNtCsa812O6vgh8t_16sqlrustgo_parser6parser5testss_32test_parse_inline_view_with_join
FN:5172,_RNvNtNtCsa812O6vgh8t_16sqlrustgo_parser6parser5testss_32test_parse_insert_error_no_table
FN:6020,_RNvNtNtCsa812O6vgh8t_16sqlrustgo_parser6parser5testss_32test_parse_multiple_foreign_keys
FN:5835,_RNvNtNtCsa812O6vgh8t_16sqlrustgo_parser6parser5testss_33test_parse_column_all_constraints
FN:5202,_RNvNtNtCsa812O6vgh8t_16sqlrustgo_parser6parser5testss_33test_parse_create_without_columns
FN:5113,_RNvNtNtCsa812O6vgh8t_16sqlrustgo_parser6parser5testss_33test_parse_error_unexpected_token
FN:5178,_RNvNtNtCsa812O6vgh8t_16sqlrustgo_parser6parser5testss_33test_parse_insert_error_no_values
FN:5994,_RNvNtNtCsa812O6vgh8t_16sqlrustgo_parser6parser5testss_34test_parse_batch_insert_single_row
FN:6190,_RNvNtNtCsa812O6vgh8t_16sqlrustgo_parser6parser5testss_34test_parse_copy_error_no_direction
FN:5394,_RNvNtNtCsa812O6vgh8t_16sqlrustgo_parser6parser5testss_34test_parse_grant_invalid_privilege
FN:5220,_RNvNtNtCsa812O6vgh8t_16sqlrustgo_parser6parser5testss_34test_parse_insert_with_column_list
FN:5071,_RNvNtNtCsa812O6vgh8t_16sqlrustgo_parser6parser5testss_34test_parse_select_multiple_columns
FN:5675,_RNvNtNtCsa812O6vgh8t_16sqlrustgo_parser6parser5testss_35test_parse_create_user_default_host
FN:6093,_RNvNtNtCsa812O6vgh8t_16sqlrustgo_parser6parser5testss_35test_parse_kill_connection_explicit
FN:5538,_RNvNtNtCsa812O6vgh8t_16sqlrustgo_parser6parser5testss_35test_parse_revoke_invalid_privilege
FN:6000,_RNvNtNtCsa812O6vgh8t_16sqlrustgo_parser6parser5testss_36test_parse_batch_insert_empty_values
FN:5751,_RNvNtNtCsa812O6vgh8t_16sqlrustgo_parser6parser5testss_38test_parse_upsert_without_on_duplicate
FN:5160,_RNvNtNtCsa812O6vgh8t_16sqlrustgo_parser6parser5testss_39test_create_table_with_multiple_columns
FN:6006,_RNvNtNtCsa812O6vgh8t_16sqlrustgo_parser6parser5testss_39test_parse_column_foreign_key_no_column
FN:6050,_RNvNtNtCsa812O6vgh8t_16sqlrustgo_parser6parser5testss_41test_parse_column_auto_increment_synonyms
FN:6169,_RNvNtNtCsa812O6vgh8t_16sqlrustgo_parser6parser5testss_41test_parse_copy_to_parquet_without_format
FN:6153,_RNvNtNtCsa812O6vgh8t_16sqlrustgo_parser6parser5testss_43test_parse_copy_from_parquet_without_format
FN:5916,_RNvNtNtCsa812O6vgh8t_16sqlrustgo_parser6parser5testss_45test_insert_statement_with_on_duplicate_clone
FN:4559,_RNCNvMs0_NtCsa812O6vgh8t_16sqlrustgo_parser6parserNtB7_6Parser10parse_kill0B9_
FN:351,_RNvMNtCsa812O6vgh8t_16sqlrustgo_parser6parserNtB2_12UserIdentity3new
FN:4718,_RNvMs0_NtCsa812O6vgh8t_16sqlrustgo_parser6parserNtB5_6Parser10parse_call
FN:4653,_RNvMs0_NtCsa812O6vgh8t_16sqlrustgo_parser6parserNtB5_6Parser10parse_copy
FN:4538,_RNvMs0_NtCsa812O6vgh8t_16sqlrustgo_parser6parserNtB5_6Parser10parse_kill
FN:4521,_RNvMs0_NtCsa812O6vgh8t_16sqlrustgo_parser6parserNtB5_6Parser10parse_show
FN:798,_RNvMs0_NtCsa812O6vgh8t_16sqlrustgo_parser6parserNtB5_6Parser10parse_with
FN:2012,_RNvMs0_NtCsa812O6vgh8t_16sqlrustgo_parser6parserNtB5_6Parser11parse_alter
FN:4405,_RNvMs0_NtCsa812O6vgh8t_16sqlrustgo_parser6parserNtB5_6Parser11parse_grant
FN:890,_RNvMs0_NtCsa812O6vgh8t_16sqlrustgo_parser6parserNtB5_6Parser11parse_merge
FN:2997,_RNvMs0_NtCsa812O6vgh8t_16sqlrustgo_parser6parserNtB5_6Parser12parse_create
FN:2874,_RNvMs0_NtCsa812O6vgh8t_16sqlrustgo_parser6parserNtB5_6Parser12parse_delete
FN:1769,_RNvMs0_NtCsa812O6vgh8t_16sqlrustgo_parser6parserNtB5_6Parser12parse_insert
FN:4463,_RNvMs0_NtCsa812O6vgh8t_16sqlrustgo_parser6parserNtB5_6Parser12parse_revoke
FN:983,_RNvMs0_NtCsa812O6vgh8t_16sqlrustgo_parser6parserNtB5_6Parser12parse_select
FN:2077,_RNvMs0_NtCsa812O6vgh8t_16sqlrustgo_parser6parserNtB5_6Parser12parse_update
FN:4370,_RNvMs0_NtCsa812O6vgh8t_16sqlrustgo_parser6parserNtB5_6Parser13parse_analyze
FN:4600,_RNvMs0_NtCsa812O6vgh8t_16sqlrustgo_parser6parserNtB5_6Parser13parse_execute
FN:4386,_RNvMs0_NtCsa812O6vgh8t_16sqlrustgo_parser6parserNtB5_6Parser13parse_explain
FN:4571,_RNvMs0_NtCsa812O6vgh8t_16sqlrustgo_parser6parserNtB5_6Parser13parse_prepare
FN:970,_RNvMs0_NtCsa812O6vgh8t_16sqlrustgo_parser6parserNtB5_6Parser14parse_truncate
FN:4758,_RNvMs0_NtCsa812O6vgh8t_16sqlrustgo_parser6parserNtB5_6Parser15parse_delimiter
FN:3658,_RNvMs0_NtCsa812O6vgh8t_16sqlrustgo_parser6parserNtB5_6Parser15parse_drop_user
FN:3553,_RNvMs0_NtCsa812O6vgh8t_16sqlrustgo_parser6parserNtB5_6Parser15parse_fk_action
FN:762,_RNvMs0_NtCsa812O6vgh8t_16sqlrustgo_parser6parserNtB5_6Parser15parse_statement
FN:4633,_RNvMs0_NtCsa812O6vgh8t_16sqlrustgo_parser6parserNtB5_6Parser16parse_deallocate
FN:3577,_RNvMs0_NtCsa812O6vgh8t_16sqlrustgo_parser6parserNtB5_6Parser16parse_drop_table
FN:2139,_RNvMs0_NtCsa812O6vgh8t_16sqlrustgo_parser6parserNtB5_6Parser16parse_expression
FN:3612,_RNvMs0_NtCsa812O6vgh8t_16sqlrustgo_parser6parserNtB5_6Parser17parse_create_user
FN:4345,_RNvMs0_NtCsa812O6vgh8t_16sqlrustgo_parser6parserNtB5_6Parser17parse_create_view
FN:2770,_RNvMs0_NtCsa812O6vgh8t_16sqlrustgo_parser6parserNtB5_6Parser17parse_frame_bound
FN:4772,_RNvMs0_NtCsa812O6vgh8t_16sqlrustgo_parser6parserNtB5_6Parser17parse_transaction
FN:2896,_RNvMs0_NtCsa812O6vgh8t_16sqlrustgo_parser6parserNtB5_6Parser18parse_create_index
FN:3021,_RNvMs0_NtCsa812O6vgh8t_16sqlrustgo_parser6parserNtB5_6Parser18parse_create_table
FN:2708,_RNvMs0_NtCsa812O6vgh8t_16sqlrustgo_parser6parserNtB5_6Parser18parse_window_frame
FN:2144,_RNvMs0_NtCsa812O6vgh8t_16sqlrustgo_parser6parserNtB5_6Parser19parse_or_expression
FN:2832,_RNvMs0_NtCsa812O6vgh8t_16sqlrustgo_parser6parserNtB5_6Parser19parse_order_by_item
FN:4270,_RNvMs0_NtCsa812O6vgh8t_16sqlrustgo_parser6parserNtB5_6Parser20collect_until_end_if
FN:2157,_RNvMs0_NtCsa812O6vgh8t_16sqlrustgo_parser6parserNtB5_6Parser20parse_and_expression
FN:3692,_RNvMs0_NtCsa812O6vgh8t_16sqlrustgo_parser6parserNtB5_6Parser20parse_create_trigger
FN:2963,_RNvMs0_NtCsa812O6vgh8t_16sqlrustgo_parser6parserNtB5_6Parser21parse_create_or_index
FN:2631,_RNvMs0_NtCsa812O6vgh8t_16sqlrustgo_parser6parserNtB5_6Parser21parse_window_function
FN:4308,_RNvMs0_NtCsa812O6vgh8t_16sqlrustgo_parser6parserNtB5_6Parser22collect_until_end_loop
FN:3759,_RNvMs0_NtCsa812O6vgh8t_16sqlrustgo_parser6parserNtB5_6Parser22parse_create_procedure
FN:3350,_RNvMs0_NtCsa812O6vgh8t_16sqlrustgo_parser6parserNtB5_6Parser22parse_table_constraint
FN:4249,_RNvMs0_NtCsa812O6vgh8t_16sqlrustgo_parser6parserNtB5_6Parser23collect_until_semicolon
FN:2579,_RNvMs0_NtCsa812O6vgh8t_16sqlrustgo_parser6parserNtB5_6Parser24parse_extract_expression
FN:2409,_RNvMs0_NtCsa812O6vgh8t_16sqlrustgo_parser6parserNtB5_6Parser24parse_primary_expression
FN:2546,_RNvMs0_NtCsa812O6vgh8t_16sqlrustgo_parser6parserNtB5_6Parser26parse_case_when_expression
FN:2599,_RNvMs0_NtCsa812O6vgh8t_16sqlrustgo_parser6parserNtB5_6Parser26parse_substring_expression
FN:2339,_RNvMs0_NtCsa812O6vgh8t_16sqlrustgo_parser6parserNtB5_6Parser27parse_arithmetic_expression
FN:2170,_RNvMs0_NtCsa812O6vgh8t_16sqlrustgo_parser6parserNtB5_6Parser27parse_comparison_expression
FN:3531,_RNvMs0_NtCsa812O6vgh8t_16sqlrustgo_parser6parserNtB5_6Parser28parse_fk_referential_actions
FN:728,_RNvMs0_NtCsa812O6vgh8t_16sqlrustgo_parser6parserNtB5_6Parser3new
FN:747,_RNvMs0_NtCsa812O6vgh8t_16sqlrustgo_parser6parserNtB5_6Parser4next
FN:753,_RNvMs0_NtCsa812O6vgh8t_16sqlrustgo_parser6parserNtB5_6Parser6expect
FN:742,_RNvMs0_NtCsa812O6vgh8t_16sqlrustgo_parser6parserNtB5_6Parser6is_eof
FN:736,_RNvMs0_NtCsa812O6vgh8t_16sqlrustgo_parser6parserNtB5_6Parser7current
FN:4847,_RNvNtCsa812O6vgh8t_16sqlrustgo_parser6parser5parse
FN:6383,_RNvNtCsa812O6vgh8t_16sqlrustgo_parser6parsers_15test_parse_kill
FN:6484,_RNvNtCsa812O6vgh8t_16sqlrustgo_parser6parsers_16test_parse_union
FN:6419,_RNvNtCsa812O6vgh8t_16sqlrustgo_parser6parsers_19test_parse_truncate
FN:6496,_RNvNtCsa812O6vgh8t_16sqlrustgo_parser6parsers_20test_parse_union_all
FN:6407,_RNvNtCsa812O6vgh8t_16sqlrustgo_parser6parsers_21test_parse_kill_query
FN:6314,_RNvNtCsa812O6vgh8t_16sqlrustgo_parser6parsers_22test_parse_create_view
FN:6363,_RNvNtCsa812O6vgh8t_16sqlrustgo_parser6parsers_22test_parse_show_status
FN:6286,_RNvNtCsa812O6vgh8t_16sqlrustgo_parser6parsers_23test_parse_create_index
FN:6221,_RNvNtCsa812O6vgh8t_16sqlrustgo_parser6parsers_23test_parse_replace_into
FN:6207,_RNvNtCsa812O6vgh8t_16sqlrustgo_parser6parsers_24test_parse_insert_ignore
FN:6395,_RNvNtCsa812O6vgh8t_16sqlrustgo_parser6parsers_26test_parse_kill_connection
FN:6604,_RNvNtCsa812O6vgh8t_16sqlrustgo_parser6parsers_27test_parse_procedure_return
FN:6373,_RNvNtCsa812O6vgh8t_16sqlrustgo_parser6parsers_27test_parse_show_processlist
FN:6431,_RNvNtCsa812O6vgh8t_16sqlrustgo_parser6parsers_28test_parse_delete_with_limit
FN:6568,_RNvNtCsa812O6vgh8t_16sqlrustgo_parser6parsers_28test_parse_procedure_if_else
FN:6510,_RNvNtCsa812O6vgh8t_16sqlrustgo_parser6parsers_28test_parse_procedure_with_if
FN:6327,_RNvNtCsa812O6vgh8t_16sqlrustgo_parser6parsers_28test_parse_transaction_begin
FN:6470,_RNvNtCsa812O6vgh8t_16sqlrustgo_parser6parsers_29test_parse_select_with_having
FN:6339,_RNvNtCsa812O6vgh8t_16sqlrustgo_parser6parsers_29test_parse_transaction_commit
FN:6300,_RNvNtCsa812O6vgh8t_16sqlrustgo_parser6parsers_30test_parse_create_unique_index
FN:6530,_RNvNtCsa812O6vgh8t_16sqlrustgo_parser6parsers_31test_parse_procedure_with_while
FN:6457,_RNvNtCsa812O6vgh8t_16sqlrustgo_parser6parsers_31test_parse_select_with_group_by
FN:6444,_RNvNtCsa812O6vgh8t_16sqlrustgo_parser6parsers_31test_parse_select_with_order_by
FN:6351,_RNvNtCsa812O6vgh8t_16sqlrustgo_parser6parsers_31test_parse_transaction_rollback
FN:6262,_RNvNtCsa812O6vgh8t_16sqlrustgo_parser6parsers_33test_parse_alter_table_add_column
FN:6248,_RNvNtCsa812O6vgh8t_16sqlrustgo_parser6parsers_33test_parse_insert_with_set_ignore
FN:6588,_RNvNtCsa812O6vgh8t_16sqlrustgo_parser6parsers_33test_parse_procedure_with_declare
FN:6274,_RNvNtCsa812O6vgh8t_16sqlrustgo_parser6parsers_34test_parse_alter_table_drop_column
FN:6795,_RNvNtCsa812O6vgh8t_16sqlrustgo_parser6parsers_34test_parse_table_constraint_unique
FN:6549,_RNvNtCsa812O6vgh8t_16sqlrustgo_parser6parsers_36test_parse_procedure_with_loop_leave
FN:6817,_RNvNtCsa812O6vgh8t_16sqlrustgo_parser6parsers_36test_parse_table_constraint_multiple
FN:6235,_RNvNtCsa812O6vgh8t_16sqlrustgo_parser6parsers_37test_parse_insert_ignore_on_duplicate
FN:6620,_RNvNtCsa812O6vgh8t_16sqlrustgo_parser6parsers_39test_parse_table_constraint_foreign_key
FN:6773,_RNvNtCsa812O6vgh8t_16sqlrustgo_parser6parsers_39test_parse_table_constraint_primary_key
FN:6680,_RNvNtCsa812O6vgh8t_16sqlrustgo_parser6parsers_43test_parse_table_constraint_fk_with_cascade
FN:6652,_RNvNtCsa812O6vgh8t_16sqlrustgo_parser6parsers_43test_parse_table_constraint_multi_column_fk
FN:6737,_RNvNtCsa812O6vgh8t_16sqlrustgo_parser6parsers_44test_parse_table_constraint_fk_with_set_null
FN:6708,_RNvNtCsa812O6vgh8t_16sqlrustgo_parser6parsers_51test_parse_table_constraint_fk_with_constraint_name
FN:2947,_RNvMs0_NtCsa812O6vgh8t_16sqlrustgo_parser6parserNtB5_6Parser16parse_drop_index
FN:3602,_RNvMs0_NtCsa812O6vgh8t_16sqlrustgo_parser6parserNtB5_6Parser18parse_drop_trigger
FN:4026,_RNvMs0_NtCsa812O6vgh8t_16sqlrustgo_parser6parserNtB5_6Parser18parse_procedure_if
FN:4189,_RNvMs0_NtCsa812O6vgh8t_16sqlrustgo_parser6parserNtB5_6Parser19collect_until_token
FN:4171,_RNvMs0_NtCsa812O6vgh8t_16sqlrustgo_parser6parserNtB5_6Parser19parse_procedure_set
FN:3910,_RNvMs0_NtCsa812O6vgh8t_16sqlrustgo_parser6parserNtB5_6Parser20parse_procedure_body
FN:4123,_RNvMs0_NtCsa812O6vgh8t_16sqlrustgo_parser6parserNtB5_6Parser20parse_procedure_call
FN:4082,_RNvMs0_NtCsa812O6vgh8t_16sqlrustgo_parser6parserNtB5_6Parser20parse_procedure_loop
FN:3492,_RNvMs0_NtCsa812O6vgh8t_16sqlrustgo_parser6parserNtB5_6Parser21parse_identifier_list
FN:4094,_RNvMs0_NtCsa812O6vgh8t_16sqlrustgo_parser6parserNtB5_6Parser21parse_procedure_leave
FN:4067,_RNvMs0_NtCsa812O6vgh8t_16sqlrustgo_parser6parserNtB5_6Parser21parse_procedure_while
FN:3513,_RNvMs0_NtCsa812O6vgh8t_16sqlrustgo_parser6parserNtB5_6Parser22parse_fk_delete_action
FN:4116,_RNvMs0_NtCsa812O6vgh8t_16sqlrustgo_parser6parserNtB5_6Parser22parse_procedure_return
FN:3980,_RNvMs0_NtCsa812O6vgh8t_16sqlrustgo_parser6parserNtB5_6Parser23parse_procedure_declare
FN:4105,_RNvMs0_NtCsa812O6vgh8t_16sqlrustgo_parser6parserNtB5_6Parser23parse_procedure_iterate
FN:3942,_RNvMs0_NtCsa812O6vgh8t_16sqlrustgo_parser6parserNtB5_6Parser25parse_procedure_statement
FN:4220,_RNvMs0_NtCsa812O6vgh8t_16sqlrustgo_parser6parserNtB5_6Parser29expect_token_case_insensitive
FN:2959,_RNvMs0_NtCsa812O6vgh8t_16sqlrustgo_parser6parserNtB5_6Parser4peek
FN:390,_RNvMs_NtCsa812O6vgh8t_16sqlrustgo_parser6parserNtB4_9Privilege20can_view_processlist
FN:386,_RNvMs_NtCsa812O6vgh8t_16sqlrustgo_parser6parserNtB4_9Privilege8can_kill
FN:351,_RNvMNtCs3Y8Ciw6e7SB_16sqlrustgo_parser6parserNtB2_12UserIdentity3new
FN:4718,_RNvMs0_NtCs3Y8Ciw6e7SB_16sqlrustgo_parser6parserNtB5_6Parser10parse_call
FN:4653,_RNvMs0_NtCs3Y8Ciw6e7SB_16sqlrustgo_parser6parserNtB5_6Parser10parse_copy
FN:4538,_RNvMs0_NtCs3Y8Ciw6e7SB_16sqlrustgo_parser6parserNtB5_6Parser10parse_kill
FN:4521,_RNvMs0_NtCs3Y8Ciw6e7SB_16sqlrustgo_parser6parserNtB5_6Parser10parse_show
FN:798,_RNvMs0_NtCs3Y8Ciw6e7SB_16sqlrustgo_parser6parserNtB5_6Parser10parse_with
FN:2012,_RNvMs0_NtCs3Y8Ciw6e7SB_16sqlrustgo_parser6parserNtB5_6Parser11parse_alter
FN:4405,_RNvMs0_NtCs3Y8Ciw6e7SB_16sqlrustgo_parser6parserNtB5_6Parser11parse_grant
FN:890,_RNvMs0_NtCs3Y8Ciw6e7SB_16sqlrustgo_parser6parserNtB5_6Parser11parse_merge
FN:2997,_RNvMs0_NtCs3Y8Ciw6e7SB_16sqlrustgo_parser6parserNtB5_6Parser12parse_create
FN:2874,_RNvMs0_NtCs3Y8Ciw6e7SB_16sqlrustgo_parser6parserNtB5_6Parser12parse_delete
FN:1769,_RNvMs0_NtCs3Y8Ciw6e7SB_16sqlrustgo_parser6parserNtB5_6Parser12parse_insert
FN:4463,_RNvMs0_NtCs3Y8Ciw6e7SB_16sqlrustgo_parser6parserNtB5_6Parser12parse_revoke
FN:983,_RNvMs0_NtCs3Y8Ciw6e7SB_16sqlrustgo_parser6parserNtB5_6Parser12parse_select
FN:2077,_RNvMs0_NtCs3Y8Ciw6e7SB_16sqlrustgo_parser6parserNtB5_6Parser12parse_update
FN:4370,_RNvMs0_NtCs3Y8Ciw6e7SB_16sqlrustgo_parser6parserNtB5_6Parser13parse_analyze
FN:4600,_RNvMs0_NtCs3Y8Ciw6e7SB_16sqlrustgo_parser6parserNtB5_6Parser13parse_execute
FN:4386,_RNvMs0_NtCs3Y8Ciw6e7SB_16sqlrustgo_parser6parserNtB5_6Parser13parse_explain
FN:4571,_RNvMs0_NtCs3Y8Ciw6e7SB_16sqlrustgo_parser6parserNtB5_6Parser13parse_prepare
FN:970,_RNvMs0_NtCs3Y8Ciw6e7SB_16sqlrustgo_parser6parserNtB5_6Parser14parse_truncate
FN:4758,_RNvMs0_NtCs3Y8Ciw6e7SB_16sqlrustgo_parser6parserNtB5_6Parser15parse_delimiter
FN:3658,_RNvMs0_NtCs3Y8Ciw6e7SB_16sqlrustgo_parser6parserNtB5_6Parser15parse_drop_user
FN:3553,_RNvMs0_NtCs3Y8Ciw6e7SB_16sqlrustgo_parser6parserNtB5_6Parser15parse_fk_action
FN:762,_RNvMs0_NtCs3Y8Ciw6e7SB_16sqlrustgo_parser6parserNtB5_6Parser15parse_statement
FN:4633,_RNvMs0_NtCs3Y8Ciw6e7SB_16sqlrustgo_parser6parserNtB5_6Parser16parse_deallocate
FN:3577,_RNvMs0_NtCs3Y8Ciw6e7SB_16sqlrustgo_parser6parserNtB5_6Parser16parse_drop_table
FN:2139,_RNvMs0_NtCs3Y8Ciw6e7SB_16sqlrustgo_parser6parserNtB5_6Parser16parse_expression
FN:3612,_RNvMs0_NtCs3Y8Ciw6e7SB_16sqlrustgo_parser6parserNtB5_6Parser17parse_create_user
FN:4345,_RNvMs0_NtCs3Y8Ciw6e7SB_16sqlrustgo_parser6parserNtB5_6Parser17parse_create_view
FN:2770,_RNvMs0_NtCs3Y8Ciw6e7SB_16sqlrustgo_parser6parserNtB5_6Parser17parse_frame_bound
FN:4772,_RNvMs0_NtCs3Y8Ciw6e7SB_16sqlrustgo_parser6parserNtB5_6Parser17parse_transaction
FN:2896,_RNvMs0_NtCs3Y8Ciw6e7SB_16sqlrustgo_parser6parserNtB5_6Parser18parse_create_index
FN:3021,_RNvMs0_NtCs3Y8Ciw6e7SB_16sqlrustgo_parser6parserNtB5_6Parser18parse_create_table
FN:2708,_RNvMs0_NtCs3Y8Ciw6e7SB_16sqlrustgo_parser6parserNtB5_6Parser18parse_window_frame
FN:2144,_RNvMs0_NtCs3Y8Ciw6e7SB_16sqlrustgo_parser6parserNtB5_6Parser19parse_or_expression
FN:2832,_RNvMs0_NtCs3Y8Ciw6e7SB_16sqlrustgo_parser6parserNtB5_6Parser19parse_order_by_item
FN:4270,_RNvMs0_NtCs3Y8Ciw6e7SB_16sqlrustgo_parser6parserNtB5_6Parser20collect_until_end_if
FN:2157,_RNvMs0_NtCs3Y8Ciw6e7SB_16sqlrustgo_parser6parserNtB5_6Parser20parse_and_expression
FN:3692,_RNvMs0_NtCs3Y8Ciw6e7SB_16sqlrustgo_parser6parserNtB5_6Parser20parse_create_trigger
FN:2963,_RNvMs0_NtCs3Y8Ciw6e7SB_16sqlrustgo_parser6parserNtB5_6Parser21parse_create_or_index
FN:2631,_RNvMs0_NtCs3Y8Ciw6e7SB_16sqlrustgo_parser6parserNtB5_6Parser21parse_window_function
FN:4308,_RNvMs0_NtCs3Y8Ciw6e7SB_16sqlrustgo_parser6parserNtB5_6Parser22collect_until_end_loop
FN:3759,_RNvMs0_NtCs3Y8Ciw6e7SB_16sqlrustgo_parser6parserNtB5_6Parser22parse_create_procedure
FN:3350,_RNvMs0_NtCs3Y8Ciw6e7SB_16sqlrustgo_parser6parserNtB5_6Parser22parse_table_constraint
FN:4249,_RNvMs0_NtCs3Y8Ciw6e7SB_16sqlrustgo_parser6parserNtB5_6Parser23collect_until_semicolon
FN:2579,_RNvMs0_NtCs3Y8Ciw6e7SB_16sqlrustgo_parser6parserNtB5_6Parser24parse_extract_expression
FN:2409,_RNvMs0_NtCs3Y8Ciw6e7SB_16sqlrustgo_parser6parserNtB5_6Parser24parse_primary_expression
FN:2546,_RNvMs0_NtCs3Y8Ciw6e7SB_16sqlrustgo_parser6parserNtB5_6Parser26parse_case_when_expression
FN:2599,_RNvMs0_NtCs3Y8Ciw6e7SB_16sqlrustgo_parser6parserNtB5_6Parser26parse_substring_expression
FN:2339,_RNvMs0_NtCs3Y8Ciw6e7SB_16sqlrustgo_parser6parserNtB5_6Parser27parse_arithmetic_expression
FN:2170,_RNvMs0_NtCs3Y8Ciw6e7SB_16sqlrustgo_parser6parserNtB5_6Parser27parse_comparison_expression
FN:3531,_RNvMs0_NtCs3Y8Ciw6e7SB_16sqlrustgo_parser6parserNtB5_6Parser28parse_fk_referential_actions
FN:728,_RNvMs0_NtCs3Y8Ciw6e7SB_16sqlrustgo_parser6parserNtB5_6Parser3new
FN:747,_RNvMs0_NtCs3Y8Ciw6e7SB_16sqlrustgo_parser6parserNtB5_6Parser4next
FN:753,_RNvMs0_NtCs3Y8Ciw6e7SB_16sqlrustgo_parser6parserNtB5_6Parser6expect
FN:736,_RNvMs0_NtCs3Y8Ciw6e7SB_16sqlrustgo_parser6parserNtB5_6Parser7current
FN:390,_RNvMs_NtCs3Y8Ciw6e7SB_16sqlrustgo_parser6parserNtB4_9Privilege20can_view_processlist
FN:386,_RNvMs_NtCs3Y8Ciw6e7SB_16sqlrustgo_parser6parserNtB4_9Privilege8can_kill
FN:4847,_RNvNtCs3Y8Ciw6e7SB_16sqlrustgo_parser6parser5parse
FN:4559,_RNCNvMs0_NtCs3Y8Ciw6e7SB_16sqlrustgo_parser6parserNtB7_6Parser10parse_kill0B9_
FNDA:0,_RNCNvMs0_NtCsfPVfeOGg4hx_16sqlrustgo_parser6parserNtB7_6Parser10parse_kill0B9_
FNDA:0,_RNvMNtCsfPVfeOGg4hx_16sqlrustgo_parser6parserNtB2_12UserIdentity3new
FNDA:0,_RNvMs0_NtCsfPVfeOGg4hx_16sqlrustgo_parser6parserNtB5_6Parser10parse_call
FNDA:0,_RNvMs0_NtCsfPVfeOGg4hx_16sqlrustgo_parser6parserNtB5_6Parser10parse_copy
FNDA:0,_RNvMs0_NtCsfPVfeOGg4hx_16sqlrustgo_parser6parserNtB5_6Parser10parse_kill
FNDA:0,_RNvMs0_NtCsfPVfeOGg4hx_16sqlrustgo_parser6parserNtB5_6Parser10parse_show
FNDA:0,_RNvMs0_NtCsfPVfeOGg4hx_16sqlrustgo_parser6parserNtB5_6Parser10parse_with
FNDA:0,_RNvMs0_NtCsfPVfeOGg4hx_16sqlrustgo_parser6parserNtB5_6Parser11parse_alter
FNDA:0,_RNvMs0_NtCsfPVfeOGg4hx_16sqlrustgo_parser6parserNtB5_6Parser11parse_grant
FNDA:0,_RNvMs0_NtCsfPVfeOGg4hx_16sqlrustgo_parser6parserNtB5_6Parser11parse_merge
FNDA:0,_RNvMs0_NtCsfPVfeOGg4hx_16sqlrustgo_parser6parserNtB5_6Parser12parse_create
FNDA:0,_RNvMs0_NtCsfPVfeOGg4hx_16sqlrustgo_parser6parserNtB5_6Parser12parse_delete
FNDA:0,_RNvMs0_NtCsfPVfeOGg4hx_16sqlrustgo_parser6parserNtB5_6Parser12parse_insert
FNDA:0,_RNvMs0_NtCsfPVfeOGg4hx_16sqlrustgo_parser6parserNtB5_6Parser12parse_revoke
FNDA:0,_RNvMs0_NtCsfPVfeOGg4hx_16sqlrustgo_parser6parserNtB5_6Parser12parse_select
FNDA:0,_RNvMs0_NtCsfPVfeOGg4hx_16sqlrustgo_parser6parserNtB5_6Parser12parse_update
FNDA:0,_RNvMs0_NtCsfPVfeOGg4hx_16sqlrustgo_parser6parserNtB5_6Parser13parse_analyze
FNDA:0,_RNvMs0_NtCsfPVfeOGg4hx_16sqlrustgo_parser6parserNtB5_6Parser13parse_execute
FNDA:0,_RNvMs0_NtCsfPVfeOGg4hx_16sqlrustgo_parser6parserNtB5_6Parser13parse_explain
FNDA:0,_RNvMs0_NtCsfPVfeOGg4hx_16sqlrustgo_parser6parserNtB5_6Parser13parse_prepare
FNDA:0,_RNvMs0_NtCsfPVfeOGg4hx_16sqlrustgo_parser6parserNtB5_6Parser14parse_truncate
FNDA:0,_RNvMs0_NtCsfPVfeOGg4hx_16sqlrustgo_parser6parserNtB5_6Parser15parse_delimiter
FNDA:0,_RNvMs0_NtCsfPVfeOGg4hx_16sqlrustgo_parser6parserNtB5_6Parser15parse_drop_user
FNDA:0,_RNvMs0_NtCsfPVfeOGg4hx_16sqlrustgo_parser6parserNtB5_6Parser15parse_fk_action
FNDA:0,_RNvMs0_NtCsfPVfeOGg4hx_16sqlrustgo_parser6parserNtB5_6Parser15parse_statement
FNDA:0,_RNvMs0_NtCsfPVfeOGg4hx_16sqlrustgo_parser6parserNtB5_6Parser16parse_deallocate
FNDA:0,_RNvMs0_NtCsfPVfeOGg4hx_16sqlrustgo_parser6parserNtB5_6Parser16parse_drop_table
FNDA:0,_RNvMs0_NtCsfPVfeOGg4hx_16sqlrustgo_parser6parserNtB5_6Parser16parse_expression
FNDA:0,_RNvMs0_NtCsfPVfeOGg4hx_16sqlrustgo_parser6parserNtB5_6Parser17parse_create_user
FNDA:0,_RNvMs0_NtCsfPVfeOGg4hx_16sqlrustgo_parser6parserNtB5_6Parser17parse_create_view
FNDA:0,_RNvMs0_NtCsfPVfeOGg4hx_16sqlrustgo_parser6parserNtB5_6Parser17parse_frame_bound
FNDA:0,_RNvMs0_NtCsfPVfeOGg4hx_16sqlrustgo_parser6parserNtB5_6Parser17parse_transaction
FNDA:0,_RNvMs0_NtCsfPVfeOGg4hx_16sqlrustgo_parser6parserNtB5_6Parser18parse_create_index
FNDA:0,_RNvMs0_NtCsfPVfeOGg4hx_16sqlrustgo_parser6parserNtB5_6Parser18parse_create_table
FNDA:0,_RNvMs0_NtCsfPVfeOGg4hx_16sqlrustgo_parser6parserNtB5_6Parser18parse_window_frame
FNDA:0,_RNvMs0_NtCsfPVfeOGg4hx_16sqlrustgo_parser6parserNtB5_6Parser19parse_or_expression
FNDA:0,_RNvMs0_NtCsfPVfeOGg4hx_16sqlrustgo_parser6parserNtB5_6Parser19parse_order_by_item
FNDA:0,_RNvMs0_NtCsfPVfeOGg4hx_16sqlrustgo_parser6parserNtB5_6Parser20collect_until_end_if
FNDA:0,_RNvMs0_NtCsfPVfeOGg4hx_16sqlrustgo_parser6parserNtB5_6Parser20parse_and_expression
FNDA:0,_RNvMs0_NtCsfPVfeOGg4hx_16sqlrustgo_parser6parserNtB5_6Parser20parse_create_trigger
FNDA:0,_RNvMs0_NtCsfPVfeOGg4hx_16sqlrustgo_parser6parserNtB5_6Parser21parse_create_or_index
FNDA:0,_RNvMs0_NtCsfPVfeOGg4hx_16sqlrustgo_parser6parserNtB5_6Parser21parse_window_function
FNDA:0,_RNvMs0_NtCsfPVfeOGg4hx_16sqlrustgo_parser6parserNtB5_6Parser22collect_until_end_loop
FNDA:0,_RNvMs0_NtCsfPVfeOGg4hx_16sqlrustgo_parser6parserNtB5_6Parser22parse_create_procedure
FNDA:0,_RNvMs0_NtCsfPVfeOGg4hx_16sqlrustgo_parser6parserNtB5_6Parser22parse_table_constraint
FNDA:0,_RNvMs0_NtCsfPVfeOGg4hx_16sqlrustgo_parser6parserNtB5_6Parser23collect_until_semicolon
FNDA:0,_RNvMs0_NtCsfPVfeOGg4hx_16sqlrustgo_parser6parserNtB5_6Parser24parse_extract_expression
FNDA:0,_RNvMs0_NtCsfPVfeOGg4hx_16sqlrustgo_parser6parserNtB5_6Parser24parse_primary_expression
FNDA:0,_RNvMs0_NtCsfPVfeOGg4hx_16sqlrustgo_parser6parserNtB5_6Parser26parse_case_when_expression
FNDA:0,_RNvMs0_NtCsfPVfeOGg4hx_16sqlrustgo_parser6parserNtB5_6Parser26parse_substring_expression
FNDA:0,_RNvMs0_NtCsfPVfeOGg4hx_16sqlrustgo_parser6parserNtB5_6Parser27parse_arithmetic_expression
FNDA:0,_RNvMs0_NtCsfPVfeOGg4hx_16sqlrustgo_parser6parserNtB5_6Parser27parse_comparison_expression
FNDA:0,_RNvMs0_NtCsfPVfeOGg4hx_16sqlrustgo_parser6parserNtB5_6Parser28parse_fk_referential_actions
FNDA:0,_RNvMs0_NtCsfPVfeOGg4hx_16sqlrustgo_parser6parserNtB5_6Parser3new
FNDA:0,_RNvMs0_NtCsfPVfeOGg4hx_16sqlrustgo_parser6parserNtB5_6Parser4next
FNDA:0,_RNvMs0_NtCsfPVfeOGg4hx_16sqlrustgo_parser6parserNtB5_6Parser6expect
FNDA:0,_RNvMs0_NtCsfPVfeOGg4hx_16sqlrustgo_parser6parserNtB5_6Parser7current
FNDA:0,_RNvMs_NtCsfPVfeOGg4hx_16sqlrustgo_parser6parserNtB4_9Privilege20can_view_processlist
FNDA:0,_RNvMs_NtCsfPVfeOGg4hx_16sqlrustgo_parser6parserNtB4_9Privilege8can_kill
FNDA:0,_RNvNtCsfPVfeOGg4hx_16sqlrustgo_parser6parser5parse
FNDA:1,_RNvNtNtCsa812O6vgh8t_16sqlrustgo_parser6parser5testss_14test_parse_q13
FNDA:1,_RNvNtNtCsa812O6vgh8t_16sqlrustgo_parser6parser5testss_14test_parse_q22
FNDA:1,_RNvNtNtCsa812O6vgh8t_16sqlrustgo_parser6parser5testss_15test_parse_drop
FNDA:1,_RNvNtNtCsa812O6vgh8t_16sqlrustgo_parser6parser5testss_17test_parse_create
FNDA:1,_RNvNtNtCsa812O6vgh8t_16sqlrustgo_parser6parser5testss_17test_parse_delete
FNDA:1,_RNvNtNtCsa812O6vgh8t_16sqlrustgo_parser6parser5testss_17test_parse_insert
FNDA:1,_RNvNtNtCsa812O6vgh8t_16sqlrustgo_parser6parser5testss_17test_parse_select
FNDA:1,_RNvNtNtCsa812O6vgh8t_16sqlrustgo_parser6parser5testss_17test_parse_update
FNDA:1,_RNvNtNtCsa812O6vgh8t_16sqlrustgo_parser6parser5testss_18test_parse_explain
FNDA:1,_RNvNtNtCsa812O6vgh8t_16sqlrustgo_parser6parser5testss_18test_parser_expect
FNDA:1,_RNvNtNtCsa812O6vgh8t_16sqlrustgo_parser6parser5testss_18test_parser_is_eof
FNDA:1,_RNvNtNtCsa812O6vgh8t_16sqlrustgo_parser6parser5testss_19test_privilege_enum
FNDA:1,_RNvNtNtCsa812O6vgh8t_16sqlrustgo_parser6parser5testss_20test_parse_drop_user
FNDA:1,_RNvNtNtCsa812O6vgh8t_16sqlrustgo_parser6parser5testss_20test_parse_grant_all
FNDA:1,_RNvNtNtCsa812O6vgh8t_16sqlrustgo_parser6parser5testss_21test_parse_grant_read
FNDA:1,_RNvNtNtCsa812O6vgh8t_16sqlrustgo_parser6parser5testss_21test_parse_kill_query
FNDA:1,_RNvNtNtCsa812O6vgh8t_16sqlrustgo_parser6parser5testss_21test_parse_revoke_all
FNDA:1,_RNvNtNtCsa812O6vgh8t_16sqlrustgo_parser6parser5testss_21test_update_multi_set
FNDA:1,_RNvNtNtCsa812O6vgh8t_16sqlrustgo_parser6parser5testss_22test_parse_create_user
FNDA:1,_RNvNtNtCsa812O6vgh8t_16sqlrustgo_parser6parser5testss_22test_parse_create_view
FNDA:1,_RNvNtNtCsa812O6vgh8t_16sqlrustgo_parser6parser5testss_22test_parse_error_empty
FNDA:1,_RNvNtNtCsa812O6vgh8t_16sqlrustgo_parser6parser5testss_22test_parse_grant_write
FNDA:1,_RNvNtNtCsa812O6vgh8t_16sqlrustgo_parser6parser5testss_22test_parse_revoke_read
FNDA:1,_RNvNtNtCsa812O6vgh8t_16sqlrustgo_parser6parser5testss_22test_parse_select_star
FNDA:1,_RNvNtNtCsa812O6vgh8t_16sqlrustgo_parser6parser5testss_22test_parse_show_status
FNDA:1,_RNvNtNtCsa812O6vgh8t_16sqlrustgo_parser6parser5testss_23test_parse_batch_insert
FNDA:1,_RNvNtNtCsa812O6vgh8t_16sqlrustgo_parser6parser5testss_23test_parse_grant_delete
FNDA:1,_RNvNtNtCsa812O6vgh8t_16sqlrustgo_parser6parser5testss_23test_parse_grant_insert
FNDA:1,_RNvNtNtCsa812O6vgh8t_16sqlrustgo_parser6parser5testss_23test_parse_grant_select
FNDA:1,_RNvNtNtCsa812O6vgh8t_16sqlrustgo_parser6parser5testss_23test_parse_grant_update
FNDA:1,_RNvNtNtCsa812O6vgh8t_16sqlrustgo_parser6parser5testss_23test_parse_revoke_write
FNDA:1,_RNvNtNtCsa812O6vgh8t_16sqlrustgo_parser6parser5testss_24test_parse_revoke_delete
FNDA:1,_RNvNtNtCsa812O6vgh8t_16sqlrustgo_parser6parser5testss_24test_parse_revoke_insert
FNDA:1,_RNvNtNtCsa812O6vgh8t_16sqlrustgo_parser6parser5testss_24test_parse_revoke_select
FNDA:1,_RNvNtNtCsa812O6vgh8t_16sqlrustgo_parser6parser5testss_24test_parse_revoke_update
FNDA:1,_RNvNtNtCsa812O6vgh8t_16sqlrustgo_parser6parser5testss_24test_parse_upsert_single
FNDA:1,_RNvNtNtCsa812O6vgh8t_16sqlrustgo_parser6parser5testss_24test_parser_expect_error
FNDA:1,_RNvNtNtCsa812O6vgh8t_16sqlrustgo_parser6parser5testss_25test_parse_view_lowercase
FNDA:1,_RNvNtNtCsa812O6vgh8t_16sqlrustgo_parser6parser5testss_26test_foreign_key_ref_clone
FNDA:1,_RNvNtNtCsa812O6vgh8t_16sqlrustgo_parser6parser5testss_26test_grant_statement_clone
FNDA:1,_RNvNtNtCsa812O6vgh8t_16sqlrustgo_parser6parser5testss_26test_grant_statement_debug
FNDA:1,_RNvNtNtCsa812O6vgh8t_16sqlrustgo_parser6parser5testss_26test_parse_column_not_null
FNDA:1,_RNvNtNtCsa812O6vgh8t_16sqlrustgo_parser6parser5testss_26test_parse_copy_to_parquet
FNDA:1,_RNvNtNtCsa812O6vgh8t_16sqlrustgo_parser6parser5testss_26test_parse_explain_analyze
FNDA:1,_RNvNtNtCsa812O6vgh8t_16sqlrustgo_parser6parser5testss_26test_parse_grant_lowercase
FNDA:1,_RNvNtNtCsa812O6vgh8t_16sqlrustgo_parser6parser5testss_26test_parse_kill_connection
FNDA:1,_RNvNtNtCsa812O6vgh8t_16sqlrustgo_parser6parser5testss_26test_parse_not_in_subquery
FNDA:1,_RNvNtNtCsa812O6vgh8t_16sqlrustgo_parser6parser5testss_26test_parse_upsert_multiple
FNDA:1,_RNvNtNtCsa812O6vgh8t_16sqlrustgo_parser6parser5testss_26test_parse_view_missing_as
FNDA:1,_RNvNtNtCsa812O6vgh8t_16sqlrustgo_parser6parser5testss_27test_parse_grant_missing_on
FNDA:1,_RNvNtNtCsa812O6vgh8t_16sqlrustgo_parser6parser5testss_27test_parse_grant_missing_to
FNDA:1,_RNvNtNtCsa812O6vgh8t_16sqlrustgo_parser6parser5testss_27test_parse_grant_mixed_case
FNDA:1,_RNvNtNtCsa812O6vgh8t_16sqlrustgo_parser6parser5testss_27test_parse_insert_multi_row
FNDA:1,_RNvNtNtCsa812O6vgh8t_16sqlrustgo_parser6parser5testss_27test_parse_revoke_lowercase
FNDA:1,_RNvNtNtCsa812O6vgh8t_16sqlrustgo_parser6parser5testss_27test_parse_show_processlist
FNDA:1,_RNvNtNtCsa812O6vgh8t_16sqlrustgo_parser6parser5testss_27test_revoke_statement_clone
FNDA:1,_RNvNtNtCsa812O6vgh8t_16sqlrustgo_parser6parser5testss_27test_revoke_statement_debug
FNDA:1,_RNvNtNtCsa812O6vgh8t_16sqlrustgo_parser6parser5testss_28test_column_definition_clone
FNDA:1,_RNvNtNtCsa812O6vgh8t_16sqlrustgo_parser6parser5testss_28test_column_definition_debug
FNDA:1,_RNvNtNtCsa812O6vgh8t_16sqlrustgo_parser6parser5testss_28test_foreign_key_action_enum
FNDA:1,_RNvNtNtCsa812O6vgh8t_16sqlrustgo_parser6parser5testss_28test_parse_copy_from_parquet
FNDA:1,_RNvNtNtCsa812O6vgh8t_16sqlrustgo_parser6parser5testss_28test_parse_delete_with_where
FNDA:1,_RNvNtNtCsa812O6vgh8t_16sqlrustgo_parser6parser5testss_28test_parse_revoke_missing_on
FNDA:1,_RNvNtNtCsa812O6vgh8t_16sqlrustgo_parser6parser5testss_28test_parse_revoke_mixed_case
FNDA:1,_RNvNtNtCsa812O6vgh8t_16sqlrustgo_parser6parser5testss_28test_parse_select_with_where
FNDA:1,_RNvNtNtCsa812O6vgh8t_16sqlrustgo_parser6parser5testss_28test_parse_update_single_set
FNDA:1,_RNvNtNtCsa812O6vgh8t_16sqlrustgo_parser6parser5testss_28test_parse_update_with_where
FNDA:1,_RNvNtNtCsa812O6vgh8t_16sqlrustgo_parser6parser5testss_29test_parse_analyze_with_table
FNDA:1,_RNvNtNtCsa812O6vgh8t_16sqlrustgo_parser6parser5testss_29test_parse_column_foreign_key
FNDA:1,_RNvNtNtCsa812O6vgh8t_16sqlrustgo_parser6parser5testss_29test_parse_column_primary_key
FNDA:1,_RNvNtNtCsa812O6vgh8t_16sqlrustgo_parser6parser5testss_29test_parse_copy_error_no_path
FNDA:1,_RNvNtNtCsa812O6vgh8t_16sqlrustgo_parser6parser5testss_29test_parse_drop_error_no_name
FNDA:1,_RNvNtNtCsa812O6vgh8t_16sqlrustgo_parser6parser5testss_29test_parse_drop_user_multiple
FNDA:1,_RNvNtNtCsa812O6vgh8t_16sqlrustgo_parser6parser5testss_29test_parse_inline_view_simple
FNDA:1,_RNvNtNtCsa812O6vgh8t_16sqlrustgo_parser6parser5testss_29test_parse_insert_with_values
FNDA:1,_RNvNtNtCsa812O6vgh8t_16sqlrustgo_parser6parser5testss_29test_parse_select_all_columns
FNDA:1,_RNvNtNtCsa812O6vgh8t_16sqlrustgo_parser6parser5testss_30test_multiple_grant_statements
FNDA:1,_RNvNtNtCsa812O6vgh8t_16sqlrustgo_parser6parser5testss_30test_parse_copy_error_no_table
FNDA:1,_RNvNtNtCsa812O6vgh8t_16sqlrustgo_parser6parser5testss_30test_parse_create_view_complex
FNDA:1,_RNvNtNtCsa812O6vgh8t_16sqlrustgo_parser6parser5testss_30test_parse_create_with_columns
FNDA:1,_RNvNtNtCsa812O6vgh8t_16sqlrustgo_parser6parser5testss_30test_parse_insert_single_value
FNDA:1,_RNvNtNtCsa812O6vgh8t_16sqlrustgo_parser6parser5testss_30test_parse_insert_with_columns
FNDA:1,_RNvNtNtCsa812O6vgh8t_16sqlrustgo_parser6parser5testss_30test_parse_revoke_missing_from
FNDA:1,_RNvNtNtCsa812O6vgh8t_16sqlrustgo_parser6parser5testss_30test_parse_select_missing_from
FNDA:1,_RNvNtNtCsa812O6vgh8t_16sqlrustgo_parser6parser5testss_30test_parse_update_error_no_set
FNDA:1,_RNvNtNtCsa812O6vgh8t_16sqlrustgo_parser6parser5testss_30test_parse_upsert_empty_update
FNDA:1,_RNvNtNtCsa812O6vgh8t_16sqlrustgo_parser6parser5testss_31test_create_table_with_not_null
FNDA:1,_RNvNtNtCsa812O6vgh8t_16sqlrustgo_parser6parser5testss_31test_multiple_revoke_statements
FNDA:1,_RNvNtNtCsa812O6vgh8t_16sqlrustgo_parser6parser5testss_31test_parse_create_user_multiple
FNDA:1,_RNvNtNtCsa812O6vgh8t_16sqlrustgo_parser6parser5testss_31test_parse_insert_missing_table
FNDA:1,_RNvNtNtCsa812O6vgh8t_16sqlrustgo_parser6parser5testss_32test_create_view_statement_clone
FNDA:1,_RNvNtNtCsa812O6vgh8t_16sqlrustgo_parser6parser5testss_32test_create_view_statement_debug
FNDA:1,_RNvNtNtCsa812O6vgh8t_16sqlrustgo_parser6parser5testss_32test_parse_column_auto_increment
FNDA:1,_RNvNtNtCsa812O6vgh8t_16sqlrustgo_parser6parser5testss_32test_parse_delete_error_no_table
FNDA:1,_RNvNtNtCsa812O6vgh8t_16sqlrustgo_parser6parser5testss_32test_parse_inline_view_with_join
FNDA:1,_RNvNtNtCsa812O6vgh8t_16sqlrustgo_parser6parser5testss_32test_parse_insert_error_no_table
FNDA:1,_RNvNtNtCsa812O6vgh8t_16sqlrustgo_parser6parser5testss_32test_parse_multiple_foreign_keys
FNDA:1,_RNvNtNtCsa812O6vgh8t_16sqlrustgo_parser6parser5testss_33test_parse_column_all_constraints
FNDA:1,_RNvNtNtCsa812O6vgh8t_16sqlrustgo_parser6parser5testss_33test_parse_create_without_columns
FNDA:1,_RNvNtNtCsa812O6vgh8t_16sqlrustgo_parser6parser5testss_33test_parse_error_unexpected_token
FNDA:1,_RNvNtNtCsa812O6vgh8t_16sqlrustgo_parser6parser5testss_33test_parse_insert_error_no_values
FNDA:1,_RNvNtNtCsa812O6vgh8t_16sqlrustgo_parser6parser5testss_34test_parse_batch_insert_single_row
FNDA:1,_RNvNtNtCsa812O6vgh8t_16sqlrustgo_parser6parser5testss_34test_parse_copy_error_no_direction
FNDA:1,_RNvNtNtCsa812O6vgh8t_16sqlrustgo_parser6parser5testss_34test_parse_grant_invalid_privilege
FNDA:1,_RNvNtNtCsa812O6vgh8t_16sqlrustgo_parser6parser5testss_34test_parse_insert_with_column_list
FNDA:1,_RNvNtNtCsa812O6vgh8t_16sqlrustgo_parser6parser5testss_34test_parse_select_multiple_columns
FNDA:1,_RNvNtNtCsa812O6vgh8t_16sqlrustgo_parser6parser5testss_35test_parse_create_user_default_host
FNDA:1,_RNvNtNtCsa812O6vgh8t_16sqlrustgo_parser6parser5testss_35test_parse_kill_connection_explicit
FNDA:1,_RNvNtNtCsa812O6vgh8t_16sqlrustgo_parser6parser5testss_35test_parse_revoke_invalid_privilege
FNDA:1,_RNvNtNtCsa812O6vgh8t_16sqlrustgo_parser6parser5testss_36test_parse_batch_insert_empty_values
FNDA:1,_RNvNtNtCsa812O6vgh8t_16sqlrustgo_parser6parser5testss_38test_parse_upsert_without_on_duplicate
FNDA:1,_RNvNtNtCsa812O6vgh8t_16sqlrustgo_parser6parser5testss_39test_create_table_with_multiple_columns
FNDA:1,_RNvNtNtCsa812O6vgh8t_16sqlrustgo_parser6parser5testss_39test_parse_column_foreign_key_no_column
FNDA:1,_RNvNtNtCsa812O6vgh8t_16sqlrustgo_parser6parser5testss_41test_parse_column_auto_increment_synonyms
FNDA:1,_RNvNtNtCsa812O6vgh8t_16sqlrustgo_parser6parser5testss_41test_parse_copy_to_parquet_without_format
FNDA:1,_RNvNtNtCsa812O6vgh8t_16sqlrustgo_parser6parser5testss_43test_parse_copy_from_parquet_without_format
FNDA:1,_RNvNtNtCsa812O6vgh8t_16sqlrustgo_parser6parser5testss_45test_insert_statement_with_on_duplicate_clone
FNDA:0,_RNCNvMs0_NtCsa812O6vgh8t_16sqlrustgo_parser6parserNtB7_6Parser10parse_kill0B9_
FNDA:56,_RNvMNtCsa812O6vgh8t_16sqlrustgo_parser6parserNtB2_12UserIdentity3new
FNDA:1,_RNvMs0_NtCsa812O6vgh8t_16sqlrustgo_parser6parserNtB5_6Parser10parse_call
FNDA:8,_RNvMs0_NtCsa812O6vgh8t_16sqlrustgo_parser6parserNtB5_6Parser10parse_copy
FNDA:7,_RNvMs0_NtCsa812O6vgh8t_16sqlrustgo_parser6parserNtB5_6Parser10parse_kill
FNDA:6,_RNvMs0_NtCsa812O6vgh8t_16sqlrustgo_parser6parserNtB5_6Parser10parse_show
FNDA:2,_RNvMs0_NtCsa812O6vgh8t_16sqlrustgo_parser6parserNtB5_6Parser10parse_with
FNDA:6,_RNvMs0_NtCsa812O6vgh8t_16sqlrustgo_parser6parserNtB5_6Parser11parse_alter
FNDA:15,_RNvMs0_NtCsa812O6vgh8t_16sqlrustgo_parser6parserNtB5_6Parser11parse_grant
FNDA:1,_RNvMs0_NtCsa812O6vgh8t_16sqlrustgo_parser6parserNtB5_6Parser11parse_merge
FNDA:35,_RNvMs0_NtCsa812O6vgh8t_16sqlrustgo_parser6parserNtB5_6Parser12parse_create
FNDA:5,_RNvMs0_NtCsa812O6vgh8t_16sqlrustgo_parser6parserNtB5_6Parser12parse_delete
FNDA:23,_RNvMs0_NtCsa812O6vgh8t_16sqlrustgo_parser6parserNtB5_6Parser12parse_insert
FNDA:16,_RNvMs0_NtCsa812O6vgh8t_16sqlrustgo_parser6parserNtB5_6Parser12parse_revoke
FNDA:67,_RNvMs0_NtCsa812O6vgh8t_16sqlrustgo_parser6parserNtB5_6Parser12parse_select
FNDA:6,_RNvMs0_NtCsa812O6vgh8t_16sqlrustgo_parser6parserNtB5_6Parser12parse_update
FNDA:1,_RNvMs0_NtCsa812O6vgh8t_16sqlrustgo_parser6parserNtB5_6Parser13parse_analyze
FNDA:1,_RNvMs0_NtCsa812O6vgh8t_16sqlrustgo_parser6parserNtB5_6Parser13parse_execute
FNDA:3,_RNvMs0_NtCsa812O6vgh8t_16sqlrustgo_parser6parserNtB5_6Parser13parse_explain
FNDA:1,_RNvMs0_NtCsa812O6vgh8t_16sqlrustgo_parser6parserNtB5_6Parser13parse_prepare
FNDA:3,_RNvMs0_NtCsa812O6vgh8t_16sqlrustgo_parser6parserNtB5_6Parser14parse_truncate
FNDA:1,_RNvMs0_NtCsa812O6vgh8t_16sqlrustgo_parser6parserNtB5_6Parser15parse_delimiter
FNDA:3,_RNvMs0_NtCsa812O6vgh8t_16sqlrustgo_parser6parserNtB5_6Parser15parse_drop_user
FNDA:3,_RNvMs0_NtCsa812O6vgh8t_16sqlrustgo_parser6parserNtB5_6Parser15parse_fk_action
FNDA:210,_RNvMs0_NtCsa812O6vgh8t_16sqlrustgo_parser6parserNtB5_6Parser15parse_statement
FNDA:1,_RNvMs0_NtCsa812O6vgh8t_16sqlrustgo_parser6parserNtB5_6Parser16parse_deallocate
FNDA:6,_RNvMs0_NtCsa812O6vgh8t_16sqlrustgo_parser6parserNtB5_6Parser16parse_drop_table
FNDA:86,_RNvMs0_NtCsa812O6vgh8t_16sqlrustgo_parser6parserNtB5_6Parser16parse_expression
FNDA:4,_RNvMs0_NtCsa812O6vgh8t_16sqlrustgo_parser6parserNtB5_6Parser17parse_create_user
FNDA:6,_RNvMs0_NtCsa812O6vgh8t_16sqlrustgo_parser6parserNtB5_6Parser17parse_create_view
FNDA:4,_RNvMs0_NtCsa812O6vgh8t_16sqlrustgo_parser6parserNtB5_6Parser17parse_frame_bound
FNDA:6,_RNvMs0_NtCsa812O6vgh8t_16sqlrustgo_parser6parserNtB5_6Parser17parse_transaction
FNDA:5,_RNvMs0_NtCsa812O6vgh8t_16sqlrustgo_parser6parserNtB5_6Parser18parse_create_index
FNDA:23,_RNvMs0_NtCsa812O6vgh8t_16sqlrustgo_parser6parserNtB5_6Parser18parse_create_table
FNDA:6,_RNvMs0_NtCsa812O6vgh8t_16sqlrustgo_parser6parserNtB5_6Parser18parse_window_frame
FNDA:86,_RNvMs0_NtCsa812O6vgh8t_16sqlrustgo_parser6parserNtB5_6Parser19parse_or_expression
FNDA:6,_RNvMs0_NtCsa812O6vgh8t_16sqlrustgo_parser6parserNtB5_6Parser19parse_order_by_item
FNDA:2,_RNvMs0_NtCsa812O6vgh8t_16sqlrustgo_parser6parserNtB5_6Parser20collect_until_end_if
FNDA:86,_RNvMs0_NtCsa812O6vgh8t_16sqlrustgo_parser6parserNtB5_6Parser20parse_and_expression
FNDA:0,_RNvMs0_NtCsa812O6vgh8t_16sqlrustgo_parser6parserNtB5_6Parser20parse_create_trigger
FNDA:44,_RNvMs0_NtCsa812O6vgh8t_16sqlrustgo_parser6parserNtB5_6Parser21parse_create_or_index
FNDA:6,_RNvMs0_NtCsa812O6vgh8t_16sqlrustgo_parser6parserNtB5_6Parser21parse_window_function
FNDA:2,_RNvMs0_NtCsa812O6vgh8t_16sqlrustgo_parser6parserNtB5_6Parser22collect_until_end_loop
FNDA:6,_RNvMs0_NtCsa812O6vgh8t_16sqlrustgo_parser6parserNtB5_6Parser22parse_create_procedure
FNDA:9,_RNvMs0_NtCsa812O6vgh8t_16sqlrustgo_parser6parserNtB5_6Parser22parse_table_constraint
FNDA:5,_RNvMs0_NtCsa812O6vgh8t_16sqlrustgo_parser6parserNtB5_6Parser23collect_until_semicolon
FNDA:0,_RNvMs0_NtCsa812O6vgh8t_16sqlrustgo_parser6parserNtB5_6Parser24parse_extract_expression
FNDA:131,_RNvMs0_NtCsa812O6vgh8t_16sqlrustgo_parser6parserNtB5_6Parser24parse_primary_expression
FNDA:0,_RNvMs0_NtCsa812O6vgh8t_16sqlrustgo_parser6parserNtB5_6Parser26parse_case_when_expression
FNDA:3,_RNvMs0_NtCsa812O6vgh8t_16sqlrustgo_parser6parserNtB5_6Parser26parse_substring_expression
FNDA:131,_RNvMs0_NtCsa812O6vgh8t_16sqlrustgo_parser6parserNtB5_6Parser27parse_arithmetic_expression
FNDA:91,_RNvMs0_NtCsa812O6vgh8t_16sqlrustgo_parser6parserNtB5_6Parser27parse_comparison_expression
FNDA:6,_RNvMs0_NtCsa812O6vgh8t_16sqlrustgo_parser6parserNtB5_6Parser28parse_fk_referential_actions
FNDA:214,_RNvMs0_NtCsa812O6vgh8t_16sqlrustgo_parser6parserNtB5_6Parser3new
FNDA:2005,_RNvMs0_NtCsa812O6vgh8t_16sqlrustgo_parser6parserNtB5_6Parser4next
FNDA:551,_RNvMs0_NtCsa812O6vgh8t_16sqlrustgo_parser6parserNtB5_6Parser6expect
FNDA:1,_RNvMs0_NtCsa812O6vgh8t_16sqlrustgo_parser6parserNtB5_6Parser6is_eof
FNDA:4913,_RNvMs0_NtCsa812O6vgh8t_16sqlrustgo_parser6parserNtB5_6Parser7current
FNDA:210,_RNvNtCsa812O6vgh8t_16sqlrustgo_parser6parser5parse
FNDA:1,_RNvNtCsa812O6vgh8t_16sqlrustgo_parser6parsers_15test_parse_kill
FNDA:1,_RNvNtCsa812O6vgh8t_16sqlrustgo_parser6parsers_16test_parse_union
FNDA:1,_RNvNtCsa812O6vgh8t_16sqlrustgo_parser6parsers_19test_parse_truncate
FNDA:1,_RNvNtCsa812O6vgh8t_16sqlrustgo_parser6parsers_20test_parse_union_all
FNDA:1,_RNvNtCsa812O6vgh8t_16sqlrustgo_parser6parsers_21test_parse_kill_query
FNDA:1,_RNvNtCsa812O6vgh8t_16sqlrustgo_parser6parsers_22test_parse_create_view
FNDA:1,_RNvNtCsa812O6vgh8t_16sqlrustgo_parser6parsers_22test_parse_show_status
FNDA:1,_RNvNtCsa812O6vgh8t_16sqlrustgo_parser6parsers_23test_parse_create_index
FNDA:1,_RNvNtCsa812O6vgh8t_16sqlrustgo_parser6parsers_23test_parse_replace_into
FNDA:1,_RNvNtCsa812O6vgh8t_16sqlrustgo_parser6parsers_24test_parse_insert_ignore
FNDA:1,_RNvNtCsa812O6vgh8t_16sqlrustgo_parser6parsers_26test_parse_kill_connection
FNDA:1,_RNvNtCsa812O6vgh8t_16sqlrustgo_parser6parsers_27test_parse_procedure_return
FNDA:1,_RNvNtCsa812O6vgh8t_16sqlrustgo_parser6parsers_27test_parse_show_processlist
FNDA:1,_RNvNtCsa812O6vgh8t_16sqlrustgo_parser6parsers_28test_parse_delete_with_limit
FNDA:1,_RNvNtCsa812O6vgh8t_16sqlrustgo_parser6parsers_28test_parse_procedure_if_else
FNDA:1,_RNvNtCsa812O6vgh8t_16sqlrustgo_parser6parsers_28test_parse_procedure_with_if
FNDA:1,_RNvNtCsa812O6vgh8t_16sqlrustgo_parser6parsers_28test_parse_transaction_begin
FNDA:1,_RNvNtCsa812O6vgh8t_16sqlrustgo_parser6parsers_29test_parse_select_with_having
FNDA:1,_RNvNtCsa812O6vgh8t_16sqlrustgo_parser6parsers_29test_parse_transaction_commit
FNDA:1,_RNvNtCsa812O6vgh8t_16sqlrustgo_parser6parsers_30test_parse_create_unique_index
FNDA:1,_RNvNtCsa812O6vgh8t_16sqlrustgo_parser6parsers_31test_parse_procedure_with_while
FNDA:1,_RNvNtCsa812O6vgh8t_16sqlrustgo_parser6parsers_31test_parse_select_with_group_by
FNDA:1,_RNvNtCsa812O6vgh8t_16sqlrustgo_parser6parsers_31test_parse_select_with_order_by
FNDA:1,_RNvNtCsa812O6vgh8t_16sqlrustgo_parser6parsers_31test_parse_transaction_rollback
FNDA:1,_RNvNtCsa812O6vgh8t_16sqlrustgo_parser6parsers_33test_parse_alter_table_add_column
FNDA:1,_RNvNtCsa812O6vgh8t_16sqlrustgo_parser6parsers_33test_parse_insert_with_set_ignore
FNDA:1,_RNvNtCsa812O6vgh8t_16sqlrustgo_parser6parsers_33test_parse_procedure_with_declare
FNDA:1,_RNvNtCsa812O6vgh8t_16sqlrustgo_parser6parsers_34test_parse_alter_table_drop_column
FNDA:1,_RNvNtCsa812O6vgh8t_16sqlrustgo_parser6parsers_34test_parse_table_constraint_unique
FNDA:1,_RNvNtCsa812O6vgh8t_16sqlrustgo_parser6parsers_36test_parse_procedure_with_loop_leave
FNDA:1,_RNvNtCsa812O6vgh8t_16sqlrustgo_parser6parsers_36test_parse_table_constraint_multiple
FNDA:1,_RNvNtCsa812O6vgh8t_16sqlrustgo_parser6parsers_37test_parse_insert_ignore_on_duplicate
FNDA:1,_RNvNtCsa812O6vgh8t_16sqlrustgo_parser6parsers_39test_parse_table_constraint_foreign_key
FNDA:1,_RNvNtCsa812O6vgh8t_16sqlrustgo_parser6parsers_39test_parse_table_constraint_primary_key
FNDA:1,_RNvNtCsa812O6vgh8t_16sqlrustgo_parser6parsers_43test_parse_table_constraint_fk_with_cascade
FNDA:1,_RNvNtCsa812O6vgh8t_16sqlrustgo_parser6parsers_43test_parse_table_constraint_multi_column_fk
FNDA:1,_RNvNtCsa812O6vgh8t_16sqlrustgo_parser6parsers_44test_parse_table_constraint_fk_with_set_null
FNDA:1,_RNvNtCsa812O6vgh8t_16sqlrustgo_parser6parsers_51test_parse_table_constraint_fk_with_constraint_name
FNDA:0,_RNvMs0_NtCsa812O6vgh8t_16sqlrustgo_parser6parserNtB5_6Parser16parse_drop_index
FNDA:0,_RNvMs0_NtCsa812O6vgh8t_16sqlrustgo_parser6parserNtB5_6Parser18parse_drop_trigger
FNDA:0,_RNvMs0_NtCsa812O6vgh8t_16sqlrustgo_parser6parserNtB5_6Parser18parse_procedure_if
FNDA:0,_RNvMs0_NtCsa812O6vgh8t_16sqlrustgo_parser6parserNtB5_6Parser19collect_until_token
FNDA:0,_RNvMs0_NtCsa812O6vgh8t_16sqlrustgo_parser6parserNtB5_6Parser19parse_procedure_set
FNDA:0,_RNvMs0_NtCsa812O6vgh8t_16sqlrustgo_parser6parserNtB5_6Parser20parse_procedure_body
FNDA:0,_RNvMs0_NtCsa812O6vgh8t_16sqlrustgo_parser6parserNtB5_6Parser20parse_procedure_call
FNDA:0,_RNvMs0_NtCsa812O6vgh8t_16sqlrustgo_parser6parserNtB5_6Parser20parse_procedure_loop
FNDA:0,_RNvMs0_NtCsa812O6vgh8t_16sqlrustgo_parser6parserNtB5_6Parser21parse_identifier_list
FNDA:0,_RNvMs0_NtCsa812O6vgh8t_16sqlrustgo_parser6parserNtB5_6Parser21parse_procedure_leave
FNDA:0,_RNvMs0_NtCsa812O6vgh8t_16sqlrustgo_parser6parserNtB5_6Parser21parse_procedure_while
FNDA:0,_RNvMs0_NtCsa812O6vgh8t_16sqlrustgo_parser6parserNtB5_6Parser22parse_fk_delete_action
FNDA:0,_RNvMs0_NtCsa812O6vgh8t_16sqlrustgo_parser6parserNtB5_6Parser22parse_procedure_return
FNDA:0,_RNvMs0_NtCsa812O6vgh8t_16sqlrustgo_parser6parserNtB5_6Parser23parse_procedure_declare
FNDA:0,_RNvMs0_NtCsa812O6vgh8t_16sqlrustgo_parser6parserNtB5_6Parser23parse_procedure_iterate
FNDA:0,_RNvMs0_NtCsa812O6vgh8t_16sqlrustgo_parser6parserNtB5_6Parser25parse_procedure_statement
FNDA:0,_RNvMs0_NtCsa812O6vgh8t_16sqlrustgo_parser6parserNtB5_6Parser29expect_token_case_insensitive
FNDA:0,_RNvMs0_NtCsa812O6vgh8t_16sqlrustgo_parser6parserNtB5_6Parser4peek
FNDA:0,_RNvMs_NtCsa812O6vgh8t_16sqlrustgo_parser6parserNtB4_9Privilege20can_view_processlist
FNDA:0,_RNvMs_NtCsa812O6vgh8t_16sqlrustgo_parser6parserNtB4_9Privilege8can_kill
FNDA:0,_RNvMNtCs3Y8Ciw6e7SB_16sqlrustgo_parser6parserNtB2_12UserIdentity3new
FNDA:0,_RNvMs0_NtCs3Y8Ciw6e7SB_16sqlrustgo_parser6parserNtB5_6Parser10parse_call
FNDA:0,_RNvMs0_NtCs3Y8Ciw6e7SB_16sqlrustgo_parser6parserNtB5_6Parser10parse_copy
FNDA:0,_RNvMs0_NtCs3Y8Ciw6e7SB_16sqlrustgo_parser6parserNtB5_6Parser10parse_kill
FNDA:0,_RNvMs0_NtCs3Y8Ciw6e7SB_16sqlrustgo_parser6parserNtB5_6Parser10parse_show
FNDA:0,_RNvMs0_NtCs3Y8Ciw6e7SB_16sqlrustgo_parser6parserNtB5_6Parser10parse_with
FNDA:0,_RNvMs0_NtCs3Y8Ciw6e7SB_16sqlrustgo_parser6parserNtB5_6Parser11parse_alter
FNDA:0,_RNvMs0_NtCs3Y8Ciw6e7SB_16sqlrustgo_parser6parserNtB5_6Parser11parse_grant
FNDA:0,_RNvMs0_NtCs3Y8Ciw6e7SB_16sqlrustgo_parser6parserNtB5_6Parser11parse_merge
FNDA:0,_RNvMs0_NtCs3Y8Ciw6e7SB_16sqlrustgo_parser6parserNtB5_6Parser12parse_create
FNDA:0,_RNvMs0_NtCs3Y8Ciw6e7SB_16sqlrustgo_parser6parserNtB5_6Parser12parse_delete
FNDA:0,_RNvMs0_NtCs3Y8Ciw6e7SB_16sqlrustgo_parser6parserNtB5_6Parser12parse_insert
FNDA:0,_RNvMs0_NtCs3Y8Ciw6e7SB_16sqlrustgo_parser6parserNtB5_6Parser12parse_revoke
FNDA:0,_RNvMs0_NtCs3Y8Ciw6e7SB_16sqlrustgo_parser6parserNtB5_6Parser12parse_select
FNDA:0,_RNvMs0_NtCs3Y8Ciw6e7SB_16sqlrustgo_parser6parserNtB5_6Parser12parse_update
FNDA:0,_RNvMs0_NtCs3Y8Ciw6e7SB_16sqlrustgo_parser6parserNtB5_6Parser13parse_analyze
FNDA:0,_RNvMs0_NtCs3Y8Ciw6e7SB_16sqlrustgo_parser6parserNtB5_6Parser13parse_execute
FNDA:0,_RNvMs0_NtCs3Y8Ciw6e7SB_16sqlrustgo_parser6parserNtB5_6Parser13parse_explain
FNDA:0,_RNvMs0_NtCs3Y8Ciw6e7SB_16sqlrustgo_parser6parserNtB5_6Parser13parse_prepare
FNDA:0,_RNvMs0_NtCs3Y8Ciw6e7SB_16sqlrustgo_parser6parserNtB5_6Parser14parse_truncate
FNDA:0,_RNvMs0_NtCs3Y8Ciw6e7SB_16sqlrustgo_parser6parserNtB5_6Parser15parse_delimiter
FNDA:0,_RNvMs0_NtCs3Y8Ciw6e7SB_16sqlrustgo_parser6parserNtB5_6Parser15parse_drop_user
FNDA:0,_RNvMs0_NtCs3Y8Ciw6e7SB_16sqlrustgo_parser6parserNtB5_6Parser15parse_fk_action
FNDA:0,_RNvMs0_NtCs3Y8Ciw6e7SB_16sqlrustgo_parser6parserNtB5_6Parser15parse_statement
FNDA:0,_RNvMs0_NtCs3Y8Ciw6e7SB_16sqlrustgo_parser6parserNtB5_6Parser16parse_deallocate
FNDA:0,_RNvMs0_NtCs3Y8Ciw6e7SB_16sqlrustgo_parser6parserNtB5_6Parser16parse_drop_table
FNDA:0,_RNvMs0_NtCs3Y8Ciw6e7SB_16sqlrustgo_parser6parserNtB5_6Parser16parse_expression
FNDA:0,_RNvMs0_NtCs3Y8Ciw6e7SB_16sqlrustgo_parser6parserNtB5_6Parser17parse_create_user
FNDA:0,_RNvMs0_NtCs3Y8Ciw6e7SB_16sqlrustgo_parser6parserNtB5_6Parser17parse_create_view
FNDA:0,_RNvMs0_NtCs3Y8Ciw6e7SB_16sqlrustgo_parser6parserNtB5_6Parser17parse_frame_bound
FNDA:0,_RNvMs0_NtCs3Y8Ciw6e7SB_16sqlrustgo_parser6parserNtB5_6Parser17parse_transaction
FNDA:0,_RNvMs0_NtCs3Y8Ciw6e7SB_16sqlrustgo_parser6parserNtB5_6Parser18parse_create_index
FNDA:0,_RNvMs0_NtCs3Y8Ciw6e7SB_16sqlrustgo_parser6parserNtB5_6Parser18parse_create_table
FNDA:0,_RNvMs0_NtCs3Y8Ciw6e7SB_16sqlrustgo_parser6parserNtB5_6Parser18parse_window_frame
FNDA:0,_RNvMs0_NtCs3Y8Ciw6e7SB_16sqlrustgo_parser6parserNtB5_6Parser19parse_or_expression
FNDA:0,_RNvMs0_NtCs3Y8Ciw6e7SB_16sqlrustgo_parser6parserNtB5_6Parser19parse_order_by_item
FNDA:0,_RNvMs0_NtCs3Y8Ciw6e7SB_16sqlrustgo_parser6parserNtB5_6Parser20collect_until_end_if
FNDA:0,_RNvMs0_NtCs3Y8Ciw6e7SB_16sqlrustgo_parser6parserNtB5_6Parser20parse_and_expression
FNDA:0,_RNvMs0_NtCs3Y8Ciw6e7SB_16sqlrustgo_parser6parserNtB5_6Parser20parse_create_trigger
FNDA:0,_RNvMs0_NtCs3Y8Ciw6e7SB_16sqlrustgo_parser6parserNtB5_6Parser21parse_create_or_index
FNDA:0,_RNvMs0_NtCs3Y8Ciw6e7SB_16sqlrustgo_parser6parserNtB5_6Parser21parse_window_function
FNDA:0,_RNvMs0_NtCs3Y8Ciw6e7SB_16sqlrustgo_parser6parserNtB5_6Parser22collect_until_end_loop
FNDA:0,_RNvMs0_NtCs3Y8Ciw6e7SB_16sqlrustgo_parser6parserNtB5_6Parser22parse_create_procedure
FNDA:0,_RNvMs0_NtCs3Y8Ciw6e7SB_16sqlrustgo_parser6parserNtB5_6Parser22parse_table_constraint
FNDA:0,_RNvMs0_NtCs3Y8Ciw6e7SB_16sqlrustgo_parser6parserNtB5_6Parser23collect_until_semicolon
FNDA:0,_RNvMs0_NtCs3Y8Ciw6e7SB_16sqlrustgo_parser6parserNtB5_6Parser24parse_extract_expression
FNDA:0,_RNvMs0_NtCs3Y8Ciw6e7SB_16sqlrustgo_parser6parserNtB5_6Parser24parse_primary_expression
FNDA:0,_RNvMs0_NtCs3Y8Ciw6e7SB_16sqlrustgo_parser6parserNtB5_6Parser26parse_case_when_expression
FNDA:0,_RNvMs0_NtCs3Y8Ciw6e7SB_16sqlrustgo_parser6parserNtB5_6Parser26parse_substring_expression
FNDA:0,_RNvMs0_NtCs3Y8Ciw6e7SB_16sqlrustgo_parser6parserNtB5_6Parser27parse_arithmetic_expression
FNDA:0,_RNvMs0_NtCs3Y8Ciw6e7SB_16sqlrustgo_parser6parserNtB5_6Parser27parse_comparison_expression
FNDA:0,_RNvMs0_NtCs3Y8Ciw6e7SB_16sqlrustgo_parser6parserNtB5_6Parser28parse_fk_referential_actions
FNDA:0,_RNvMs0_NtCs3Y8Ciw6e7SB_16sqlrustgo_parser6parserNtB5_6Parser3new
FNDA:0,_RNvMs0_NtCs3Y8Ciw6e7SB_16sqlrustgo_parser6parserNtB5_6Parser4next
FNDA:0,_RNvMs0_NtCs3Y8Ciw6e7SB_16sqlrustgo_parser6parserNtB5_6Parser6expect
FNDA:0,_RNvMs0_NtCs3Y8Ciw6e7SB_16sqlrustgo_parser6parserNtB5_6Parser7current
FNDA:0,_RNvMs_NtCs3Y8Ciw6e7SB_16sqlrustgo_parser6parserNtB4_9Privilege20can_view_processlist
FNDA:0,_RNvMs_NtCs3Y8Ciw6e7SB_16sqlrustgo_parser6parserNtB4_9Privilege8can_kill
FNDA:0,_RNvNtCs3Y8Ciw6e7SB_16sqlrustgo_parser6parser5parse
FNDA:0,_RNCNvMs0_NtCs3Y8Ciw6e7SB_16sqlrustgo_parser6parserNtB7_6Parser10parse_kill0B9_
FNF:234
FNH:210
DA:351,56
DA:352,56
DA:353,56
DA:354,56
DA:355,56
DA:356,56
DA:386,0
DA:387,0
DA:388,0
DA:390,0
DA:391,0
DA:392,0
DA:728,214
DA:729,214
DA:730,214
DA:731,214
DA:732,214
DA:733,214
DA:736,4913
DA:737,4913
DA:738,4913
DA:742,1
DA:743,1
DA:744,1
DA:747,2005
DA:748,2005
DA:749,2005
DA:750,2005
DA:753,551
DA:754,551
DA:755,551
DA:756,9
DA:757,0
DA:759,551
DA:762,210
DA:763,210
DA:764,2
DA:765,45
DA:766,23
DA:767,6
DA:768,5
DA:769,6
DA:770,0
DA:771,44
DA:772,6
DA:773,1
DA:774,3
DA:779,6
DA:780,15
DA:781,16
DA:782,6
DA:783,7
DA:784,1
DA:785,1
DA:786,1
DA:787,8
DA:788,1
DA:789,3
DA:790,1
DA:791,1
DA:792,2
DA:793,0
DA:795,210
DA:798,2
DA:799,2
DA:801,2
DA:802,2
DA:803,1
DA:804,1
DA:806,2
DA:810,2
DA:811,2
DA:812,0
DA:813,0
DA:815,2
DA:818,2
DA:819,2
DA:820,0
DA:822,0
DA:823,0
DA:824,0
DA:825,0
DA:826,0
DA:827,0
DA:828,0
DA:829,0
DA:833,0
DA:834,0
DA:836,0
DA:839,2
DA:842,2
DA:843,2
DA:846,2
DA:848,2
DA:850,2
DA:851,2
DA:852,2
DA:853,2
DA:854,2
DA:857,2
DA:858,0
DA:859,0
DA:860,0
DA:863,2
DA:865,0
DA:866,0
DA:871,2
DA:872,2
DA:873,0
DA:877,2
DA:878,2
DA:879,2
DA:880,2
DA:882,2
DA:883,2
DA:890,1
DA:891,1
DA:894,1
DA:895,1
DA:896,1
DA:897,0
DA:899,1
DA:902,1
DA:903,1
DA:904,1
DA:905,0
DA:907,1
DA:910,1
DA:911,1
DA:913,1
DA:914,1
DA:918,2
DA:920,1
DA:921,1
DA:923,1
DA:924,1
DA:925,1
DA:926,1
DA:928,1
DA:930,1
DA:931,1
DA:932,1
DA:933,1
DA:934,1
DA:935,1
DA:936,1
DA:937,1
DA:938,0
DA:939,0
DA:940,1
DA:943,0
DA:945,0
DA:949,1
DA:951,0
DA:954,1
DA:955,0
DA:959,1
DA:960,1
DA:961,1
DA:962,1
DA:963,1
DA:964,1
DA:965,1
DA:966,1
DA:970,3
DA:971,3
DA:972,3
DA:974,3
DA:975,3
DA:976,0
DA:978,3
DA:980,3
DA:981,3
DA:983,67
DA:984,67
DA:986,67
DA:987,67
DA:989,164
DA:990,66
DA:993,0
DA:994,0
DA:995,0
DA:996,0
DA:999,0
DA:1000,0
DA:1001,0
DA:1002,0
DA:1003,0
DA:1004,0
DA:1005,0
DA:1007,0
DA:1010,0
DA:1013,0
DA:1014,0
DA:1015,0
DA:1016,0
DA:1017,0
DA:1019,0
DA:1023,22
DA:1024,22
DA:1025,22
DA:1026,22
DA:1027,22
DA:1028,22
DA:1031,1
DA:1032,1
DA:1033,1
DA:1034,1
DA:1035,1
DA:1036,1
DA:1037,1
DA:1038,1
DA:1040,0
DA:1043,0
DA:1045,1
DA:1046,1
DA:1047,1
DA:1048,1
DA:1049,1
DA:1052,0
DA:1053,0
DA:1054,0
DA:1055,0
DA:1056,0
DA:1057,0
DA:1058,0
DA:1059,0
DA:1061,0
DA:1064,0
DA:1066,0
DA:1067,0
DA:1068,0
DA:1069,0
DA:1070,0
DA:1074,11
DA:1075,8
DA:1076,2
DA:1077,1
DA:1078,0
DA:1079,0
DA:1080,0
DA:1082,11
DA:1083,11
DA:1085,11
DA:1087,0
DA:1088,0
DA:1090,11
DA:1093,11
DA:1094,11
DA:1095,7
DA:1096,7
DA:1097,7
DA:1098,7
DA:1103,4
DA:1104,4
DA:1107,0
DA:1108,0
DA:1109,0
DA:1113,11
DA:1115,11
DA:1116,4
DA:1117,4
DA:1118,4
DA:1119,4
DA:1120,4
DA:1121,4
DA:1123,0
DA:1126,7
DA:1129,11
DA:1130,11
DA:1131,11
DA:1132,11
DA:1133,11
DA:1134,11
DA:1136,11
DA:1137,11
DA:1138,11
DA:1139,11
DA:1141,11
DA:1142,11
DA:1143,11
DA:1149,0
DA:1150,0
DA:1151,0
DA:1152,0
DA:1153,0
DA:1154,0
DA:1156,0
DA:1157,0
DA:1158,0
DA:1159,0
DA:1162,11
DA:1163,0
DA:1164,0
DA:1165,0
DA:1166,0
DA:1167,0
DA:1168,0
DA:1170,0
DA:1173,11
DA:1176,11
DA:1177,11
DA:1178,11
DA:1179,11
DA:1180,11
DA:1191,6
DA:1192,6
DA:1193,6
DA:1194,6
DA:1195,6
DA:1196,6
DA:1199,42
DA:1200,42
DA:1201,0
DA:1203,42
DA:1206,42
DA:1207,2
DA:1208,2
DA:1209,2
DA:1210,2
DA:1211,2
DA:1212,2
DA:1214,0
DA:1217,40
DA:1221,42
DA:1222,1
DA:1223,1
DA:1224,1
DA:1225,1
DA:1226,1
DA:1227,1
DA:1229,0
DA:1232,41
DA:1235,42
DA:1236,42
DA:1237,42
DA:1238,42
DA:1239,42
DA:1241,15
DA:1242,15
DA:1243,15
DA:1245,1
DA:1250,66
DA:1252,66
DA:1253,66
DA:1254,66
DA:1257,72
DA:1269,3
DA:1271,69
DA:1275,69
DA:1276,65
DA:1277,65
DA:1279,3
DA:1281,3
DA:1282,3
DA:1283,1
DA:1284,2
DA:1285,0
DA:1287,3
DA:1288,3
DA:1289,3
DA:1290,3
DA:1291,3
DA:1292,3
DA:1293,0
DA:1294,0
DA:1296,0
DA:1300,3
DA:1301,3
DA:1302,3
DA:1303,3
DA:1304,3
DA:1306,0
DA:1307,0
DA:1309,0
DA:1311,3
DA:1314,3
DA:1315,0
DA:1316,3
DA:1317,3
DA:1320,3
DA:1321,3
DA:1322,3
DA:1323,62
DA:1324,4
DA:1327,66
DA:1328,62
DA:1330,0
DA:1333,0
DA:1334,0
DA:1335,0
DA:1336,0
DA:1337,0
DA:1339,0
DA:1340,0
DA:1342,0
DA:1344,0
DA:1347,0
DA:1348,0
DA:1349,0
DA:1350,0
DA:1353,0
DA:1354,0
DA:1355,0
DA:1356,62
DA:1357,4
DA:1359,66
DA:1360,4
DA:1361,4
DA:1362,0
DA:1363,4
DA:1364,4
DA:1365,4
DA:1366,4
DA:1367,0
DA:1369,4
DA:1370,4
DA:1371,4
DA:1372,4
DA:1373,4
DA:1374,4
DA:1375,4
DA:1377,0
DA:1379,4
DA:1380,4
DA:1381,4
DA:1382,4
DA:1383,4
DA:1384,62
DA:1386,62
DA:1387,62
DA:1388,62
DA:1389,62
DA:1391,62
DA:1392,0
DA:1393,0
DA:1394,0
DA:1395,0
DA:1398,0
DA:1400,0
DA:1401,0
DA:1403,0
DA:1406,62
DA:1409,0
DA:1410,0
DA:1412,62
DA:1414,62
DA:1415,0
DA:1416,0
DA:1417,62
DA:1418,8
DA:1419,8
DA:1420,3
DA:1422,5
DA:1424,54
DA:1425,54
DA:1426,54
DA:1429,0
DA:1431,54
DA:1435,66
DA:1438,66
DA:1440,66
DA:1442,0
DA:1444,0
DA:1445,0
DA:1446,0
DA:1447,0
DA:1449,0
DA:1452,0
DA:1454,0
DA:1456,0
DA:1457,0
DA:1458,0
DA:1459,0
DA:1460,0
DA:1461,0
DA:1462,0
DA:1463,0
DA:1464,0
DA:1466,0
DA:1467,0
DA:1469,0
DA:1470,0
DA:1471,0
DA:1472,0
DA:1473,0
DA:1474,0
DA:1475,0
DA:1476,0
DA:1477,0
DA:1479,0
DA:1480,0
DA:1481,0
DA:1482,0
DA:1483,0
DA:1486,0
DA:1488,0
DA:1489,0
DA:1490,0
DA:1491,0
DA:1492,0
DA:1493,0
DA:1494,0
DA:1496,0
DA:1497,0
DA:1499,0
DA:1500,0
DA:1501,0
DA:1502,0
DA:1503,0
DA:1504,0
DA:1505,0
DA:1506,0
DA:1507,0
DA:1509,0
DA:1510,0
DA:1511,0
DA:1512,0
DA:1513,0
DA:1516,0
DA:1518,0
DA:1519,0
DA:1520,0
DA:1521,0
DA:1522,0
DA:1523,0
DA:1524,0
DA:1526,0
DA:1527,0
DA:1529,0
DA:1530,0
DA:1531,0
DA:1532,0
DA:1533,0
DA:1534,0
DA:1535,0
DA:1536,0
DA:1537,0
DA:1539,0
DA:1540,0
DA:1541,0
DA:1542,0
DA:1543,0
DA:1545,66
DA:1550,66
DA:1553,66
DA:1554,3
DA:1555,0
DA:1556,0
DA:1557,0
DA:1558,0
DA:1559,0
DA:1561,3
DA:1566,66
DA:1567,14
DA:1568,14
DA:1569,14
DA:1570,1
DA:1571,1
DA:1572,1
DA:1573,1
DA:1574,1
DA:1576,13
DA:1579,52
DA:1583,66
DA:1584,9
DA:1585,9
DA:1586,0
DA:1587,9
DA:1588,9
DA:1590,9
DA:1592,10
DA:1593,10
DA:1595,10
DA:1596,9
DA:1597,1
DA:1598,1
DA:1601,9
DA:1603,57
DA:1607,66
DA:1608,3
DA:1609,3
DA:1611,63
DA:1615,66
DA:1616,7
DA:1617,7
DA:1618,0
DA:1619,7
DA:1620,7
DA:1622,7
DA:1624,9
DA:1627,9
DA:1629,3
DA:1630,3
DA:1633,5
DA:1634,5
DA:1636,1
DA:1640,9
DA:1642,1
DA:1643,1
DA:1645,0
DA:1646,0
DA:1649,1
DA:1650,1
DA:1652,0
DA:1655,8
DA:1658,9
DA:1659,9
DA:1660,9
DA:1661,9
DA:1662,9
DA:1664,9
DA:1665,7
DA:1666,2
DA:1667,2
DA:1670,7
DA:1672,59
DA:1675,66
DA:1676,66
DA:1677,66
DA:1678,66
DA:1679,66
DA:1680,66
DA:1681,66
DA:1682,66
DA:1683,66
DA:1684,66
DA:1685,66
DA:1686,66
DA:1687,66
DA:1688,66
DA:1689,66
DA:1690,66
DA:1693,66
DA:1694,66
DA:1695,0
DA:1696,0
DA:1697,0
DA:1698,0
DA:1699,0
DA:1700,0
DA:1702,66
DA:1704,66
DA:1705,0
DA:1706,0
DA:1707,0
DA:1708,0
DA:1709,0
DA:1710,0
DA:1712,66
DA:1715,66
DA:1717,7
DA:1718,7
DA:1719,7
DA:1720,4
DA:1721,4
DA:1723,7
DA:1724,7
DA:1726,0
DA:1728,0
DA:1730,7
DA:1731,4
DA:1733,3
DA:1735,7
DA:1736,7
DA:1737,7
DA:1738,7
DA:1739,7
DA:1742,0
DA:1743,0
DA:1744,0
DA:1745,0
DA:1747,0
DA:1748,0
DA:1749,0
DA:1750,0
DA:1751,0
DA:1754,0
DA:1755,0
DA:1756,0
DA:1757,0
DA:1759,0
DA:1760,0
DA:1761,0
DA:1762,0
DA:1763,0
DA:1765,59
DA:1767,67
DA:1769,23
DA:1771,23
DA:1772,23
DA:1774,23
DA:1775,1
DA:1776,1
DA:1777,22
DA:1778,0
DA:1779,0
DA:1780,0
DA:1781,22
DA:1784,23
DA:1785,22
DA:1786,1
DA:1789,23
DA:1790,3
DA:1791,3
DA:1792,20
DA:1794,23
DA:1796,21
DA:1797,21
DA:1798,0
DA:1802,21
DA:1803,21
DA:1805,21
DA:1807,3
DA:1809,5
DA:1810,5
DA:1811,5
DA:1812,5
DA:1815,5
DA:1816,5
DA:1817,0
DA:1819,5
DA:1822,5
DA:1823,1
DA:1824,1
DA:1825,1
DA:1826,1
DA:1828,4
DA:1829,4
DA:1830,4
DA:1831,4
DA:1833,0
DA:1834,0
DA:1835,0
DA:1836,0
DA:1837,0
DA:1839,0
DA:1840,0
DA:1841,0
DA:1845,0
DA:1846,0
DA:1847,0
DA:1848,0
DA:1849,0
DA:1851,0
DA:1854,0
DA:1856,5
DA:1859,5
DA:1860,2
DA:1861,2
DA:1862,2
DA:1863,3
DA:1867,3
DA:1868,3
DA:1869,3
DA:1870,3
DA:1871,3
DA:1872,3
DA:1873,3
DA:1874,3
DA:1875,18
DA:1877,10
DA:1879,37
DA:1880,18
DA:1881,18
DA:1882,19
DA:1883,10
DA:1884,10
DA:1885,9
DA:1886,9
DA:1887,9
DA:1888,0
DA:1891,8
DA:1894,18
DA:1895,1
DA:1896,17
DA:1897,17
DA:1900,17
DA:1903,17
DA:1904,0
DA:1905,17
DA:1909,21
DA:1910,0
DA:1911,21
DA:1914,21
DA:1915,21
DA:1917,75
DA:1919,21
DA:1920,21
DA:1922,0
DA:1923,0
DA:1924,0
DA:1925,0
DA:1926,0
DA:1927,0
DA:1928,0
DA:1930,20
DA:1931,20
DA:1932,20
DA:1933,20
DA:1934,17
DA:1935,17
DA:1936,17
DA:1937,17
DA:1938,17
DA:1939,17
DA:1940,17
DA:1943,0
DA:1944,0
DA:1945,0
DA:1946,0
DA:1947,0
DA:1948,0
DA:1951,0
DA:1954,21
DA:1957,21
DA:1958,4
DA:1959,4
DA:1960,4
DA:1961,17
DA:1965,17
DA:1966,0
DA:1967,17
DA:1970,17
DA:1971,17
DA:1972,4
DA:1973,4
DA:1974,4
DA:1975,4
DA:1976,4
DA:1977,4
DA:1978,4
DA:1980,4
DA:1982,9
DA:1983,4
DA:1984,4
DA:1985,4
DA:1986,4
DA:1987,4
DA:1988,4
DA:1990,1
DA:1991,1
DA:1992,1
DA:1993,4
DA:1996,4
DA:1997,0
DA:1998,0
DA:1999,0
DA:2000,13
DA:2002,17
DA:2003,17
DA:2004,17
DA:2005,17
DA:2006,17
DA:2007,17
DA:2008,17
DA:2009,17
DA:2010,23
DA:2012,6
DA:2013,6
DA:2014,6
DA:2015,6
DA:2016,6
DA:2017,0
DA:2019,6
DA:2021,3
DA:2022,3
DA:2023,3
DA:2024,3
DA:2025,0
DA:2027,3
DA:2029,2
DA:2030,2
DA:2033,1
DA:2034,1
DA:2036,0
DA:2038,3
DA:2041,3
DA:2042,3
DA:2043,3
DA:2044,3
DA:2045,0
DA:2047,3
DA:2050,0
DA:2051,0
DA:2052,0
DA:2053,0
DA:2054,0
DA:2056,0
DA:2058,0
DA:2059,0
DA:2062,0
DA:2063,0
DA:2065,0
DA:2067,0
DA:2069,0
DA:2071,6
DA:2072,6
DA:2073,6
DA:2074,6
DA:2075,6
DA:2077,6
DA:2078,6
DA:2079,6
DA:2080,6
DA:2081,0
DA:2085,6
DA:2086,1
DA:2087,5
DA:2088,5
DA:2091,5
DA:2093,6
DA:2094,6
DA:2095,0
DA:2097,6
DA:2100,6
DA:2101,6
DA:2102,0
DA:2104,6
DA:2107,6
DA:2109,6
DA:2112,6
DA:2113,1
DA:2114,1
DA:2115,1
DA:2116,5
DA:2117,0
DA:2122,5
DA:2123,3
DA:2124,3
DA:2126,2
DA:2129,5
DA:2130,5
DA:2131,5
DA:2132,5
DA:2133,5
DA:2134,6
DA:2139,86
DA:2140,86
DA:2141,86
DA:2144,86
DA:2145,86
DA:2147,86
DA:2148,0
DA:2149,0
DA:2150,0
DA:2153,86
DA:2154,86
DA:2157,86
DA:2158,86
DA:2160,90
DA:2161,4
DA:2162,4
DA:2163,4
DA:2166,86
DA:2167,86
DA:2170,91
DA:2172,91
DA:2173,1
DA:2174,1
DA:2176,1
DA:2177,0
DA:2178,0
DA:2179,0
DA:2180,0
DA:2181,0
DA:2182,0
DA:2183,0
DA:2184,1
DA:2185,1
DA:2186,0
DA:2187,0
DA:2189,0
DA:2190,0
DA:2191,0
DA:2192,0
DA:2193,0
DA:2194,0
DA:2195,0
DA:2196,0
DA:2198,0
DA:2200,0
DA:2201,0
DA:2202,0
DA:2203,0
DA:2204,0
DA:2206,0
DA:2207,0
DA:2210,0
DA:2214,0
DA:2215,0
DA:2216,0
DA:2217,0
DA:2218,1
DA:2219,1
DA:2220,1
DA:2221,90
DA:2223,90
DA:2226,90
DA:2227,11
DA:2228,0
DA:2229,7
DA:2230,1
DA:2231,0
DA:2232,0
DA:2235,71
DA:2236,1
DA:2237,1
DA:2238,1
DA:2239,1
DA:2240,1
DA:2241,1
DA:2242,1
DA:2243,1
DA:2244,1
DA:2245,70
DA:2247,70
DA:2248,2
DA:2249,2
DA:2252,2
DA:2253,0
DA:2254,0
DA:2255,0
DA:2256,0
DA:2257,0
DA:2258,0
DA:2259,2
DA:2262,2
DA:2264,14
DA:2265,14
DA:2266,12
DA:2267,12
DA:2268,12
DA:2270,2
DA:2271,2
DA:2274,0
DA:2278,2
DA:2279,2
DA:2280,2
DA:2281,2
DA:2282,68
DA:2284,68
DA:2285,3
DA:2286,3
DA:2287,3
DA:2288,3
DA:2289,3
DA:2290,3
DA:2291,3
DA:2292,65
DA:2293,65
DA:2296,19
DA:2298,19
DA:2299,0
DA:2300,0
DA:2301,0
DA:2302,0
DA:2303,0
DA:2304,0
DA:2305,0
DA:2306,0
DA:2307,0
DA:2308,0
DA:2309,0
DA:2310,0
DA:2311,0
DA:2312,19
DA:2313,19
DA:2314,0
DA:2315,0
DA:2316,0
DA:2317,0
DA:2318,0
DA:2319,0
DA:2320,0
DA:2321,0
DA:2322,0
DA:2323,0
DA:2324,0
DA:2325,0
DA:2326,0
DA:2327,19
DA:2329,19
DA:2331,19
DA:2332,19
DA:2333,19
DA:2334,19
DA:2335,19
DA:2336,91
DA:2339,131
DA:2340,131
DA:2342,131
DA:2343,3
DA:2344,3
DA:2345,1
DA:2346,1
DA:2347,1
DA:2348,1
DA:2349,1
DA:2350,1
DA:2351,1
DA:2352,2
DA:2353,2
DA:2354,2
DA:2355,2
DA:2356,2
DA:2357,2
DA:2358,2
DA:2359,2
DA:2360,2
DA:2361,2
DA:2362,2
DA:2363,0
DA:2364,0
DA:2366,0
DA:2367,0
DA:2368,0
DA:2369,0
DA:2370,0
DA:2372,0
DA:2373,0
DA:2376,0
DA:2380,0
DA:2381,0
DA:2382,0
DA:2383,0
DA:2384,0
DA:2385,0
DA:2386,0
DA:2387,128
DA:2390,128
DA:2391,1
DA:2392,0
DA:2393,0
DA:2394,0
DA:2395,127
DA:2397,1
DA:2399,1
DA:2401,1
DA:2402,1
DA:2403,1
DA:2404,1
DA:2405,1
DA:2406,131
DA:2409,131
DA:2410,131
DA:2412,131
DA:2413,70
DA:2414,70
DA:2415,0
DA:2416,70
DA:2417,70
DA:2420,70
DA:2421,5
DA:2422,5
DA:2423,5
DA:2424,5
DA:2425,5
DA:2426,5
DA:2428,0
DA:2430,65
DA:2432,65
DA:2434,25
DA:2435,25
DA:2436,25
DA:2437,25
DA:2439,27
DA:2440,27
DA:2441,27
DA:2442,27
DA:2444,0
DA:2445,0
DA:2446,0
DA:2447,0
DA:2449,0
DA:2450,0
DA:2451,0
DA:2452,0
DA:2455,0
DA:2456,0
DA:2457,0
DA:2458,0
DA:2459,0
DA:2461,0
DA:2465,0
DA:2466,0
DA:2469,0
DA:2470,0
DA:2473,3
DA:2474,3
DA:2479,4
DA:2480,2
DA:2481,2
DA:2482,0
DA:2483,0
DA:2484,0
DA:2485,0
DA:2487,4
DA:2488,4
DA:2491,4
DA:2492,4
DA:2493,2
DA:2494,2
DA:2495,2
DA:2496,2
DA:2501,2
DA:2502,2
DA:2505,0
DA:2506,0
DA:2507,0
DA:2511,4
DA:2512,4
DA:2522,0
DA:2524,2
DA:2527,2
DA:2528,2
DA:2529,2
DA:2530,2
DA:2531,0
DA:2534,0
DA:2535,0
DA:2536,0
DA:2539,0
DA:2540,0
DA:2542,0
DA:2544,131
DA:2546,0
DA:2547,0
DA:2548,0
DA:2550,0
DA:2551,0
DA:2552,0
DA:2553,0
DA:2554,0
DA:2555,0
DA:2556,0
DA:2558,0
DA:2559,0
DA:2561,0
DA:2562,0
DA:2565,0
DA:2566,0
DA:2567,0
DA:2569,0
DA:2571,0
DA:2572,0
DA:2573,0
DA:2574,0
DA:2575,0
DA:2576,0
DA:2579,0
DA:2580,0
DA:2581,0
DA:2582,0
DA:2583,0
DA:2584,0
DA:2585,0
DA:2586,0
DA:2588,0
DA:2589,0
DA:2590,0
DA:2591,0
DA:2592,0
DA:2593,0
DA:2599,3
DA:2600,3
DA:2601,3
DA:2604,3
DA:2606,0
DA:2607,0
DA:2608,0
DA:2609,0
DA:2610,0
DA:2612,0
DA:2614,0
DA:2615,0
DA:2618,3
DA:2619,3
DA:2620,3
DA:2621,3
DA:2622,3
DA:2623,3
DA:2624,3
DA:2625,3
DA:2626,3
DA:2627,3
DA:2629,3
DA:2631,6
DA:2633,6
DA:2634,2
DA:2635,2
DA:2636,0
DA:2637,1
DA:2638,1
DA:2639,0
DA:2640,0
DA:2641,0
DA:2642,0
DA:2643,0
DA:2644,0
DA:2645,0
DA:2646,0
DA:2647,0
DA:2649,6
DA:2652,6
DA:2653,6
DA:2654,6
DA:2655,6
DA:2656,2
DA:2657,5
DA:2658,3
DA:2659,3
DA:2661,4
DA:2662,6
DA:2663,0
DA:2666,6
DA:2667,6
DA:2670,6
DA:2671,6
DA:2672,2
DA:2673,2
DA:2674,2
DA:2675,2
DA:2676,0
DA:2677,0
DA:2679,4
DA:2682,6
DA:2683,6
DA:2684,6
DA:2685,6
DA:2686,6
DA:2687,6
DA:2688,0
DA:2689,0
DA:2691,0
DA:2694,6
DA:2696,6
DA:2698,6
DA:2699,6
DA:2700,6
DA:2701,6
DA:2702,6
DA:2703,6
DA:2704,6
DA:2705,6
DA:2708,6
DA:2710,6
DA:2712,1
DA:2713,1
DA:2716,1
DA:2717,1
DA:2720,0
DA:2721,0
DA:2725,4
DA:2730,2
DA:2732,2
DA:2733,2
DA:2734,2
DA:2737,2
DA:2738,0
DA:2739,0
DA:2741,0
DA:2742,0
DA:2745,0
DA:2746,0
DA:2747,0
DA:2750,0
DA:2751,0
DA:2754,0
DA:2758,2
DA:2761,2
DA:2762,2
DA:2763,2
DA:2764,2
DA:2765,2
DA:2766,2
DA:2767,6
DA:2770,4
DA:2771,4
DA:2773,2
DA:2774,2
DA:2776,2
DA:2777,2
DA:2780,0
DA:2781,0
DA:2783,0
DA:2787,0
DA:2789,0
DA:2790,0
DA:2791,0
DA:2792,0
DA:2793,0
DA:2795,0
DA:2796,0
DA:2797,0
DA:2798,0
DA:2799,0
DA:2801,0
DA:2805,0
DA:2807,0
DA:2808,0
DA:2809,0
DA:2810,0
DA:2811,0
DA:2813,0
DA:2814,0
DA:2815,0
DA:2816,0
DA:2817,0
DA:2819,0
DA:2823,2
DA:2824,2
DA:2825,2
DA:2827,0
DA:2829,4
DA:2832,6
DA:2833,6
DA:2836,6
DA:2838,0
DA:2839,0
DA:2842,0
DA:2843,0
DA:2845,6
DA:2849,6
DA:2851,0
DA:2852,0
DA:2854,0
DA:2855,0
DA:2858,0
DA:2859,0
DA:2861,0
DA:2864,6
DA:2867,6
DA:2868,6
DA:2869,6
DA:2870,6
DA:2871,6
DA:2872,6
DA:2874,5
DA:2875,5
DA:2876,5
DA:2877,4
DA:2878,4
DA:2879,0
DA:2883,4
DA:2884,3
DA:2885,3
DA:2887,1
DA:2890,4
DA:2891,4
DA:2892,4
DA:2893,4
DA:2894,5
DA:2896,5
DA:2898,5
DA:2899,5
DA:2900,3
DA:2901,3
DA:2902,3
DA:2904,5
DA:2905,0
DA:2906,5
DA:2907,5
DA:2908,5
DA:2909,5
DA:2910,0
DA:2913,5
DA:2914,5
DA:2915,5
DA:2916,0
DA:2919,5
DA:2920,5
DA:2922,10
DA:2923,5
DA:2924,5
DA:2925,5
DA:2926,5
DA:2927,0
DA:2928,0
DA:2929,0
DA:2931,5
DA:2932,5
DA:2934,0
DA:2938,5
DA:2939,5
DA:2940,5
DA:2941,5
DA:2942,5
DA:2943,5
DA:2944,5
DA:2947,0
DA:2949,0
DA:2950,0
DA:2951,0
DA:2952,0
DA:2955,0
DA:2956,0
DA:2959,0
DA:2960,0
DA:2961,0
DA:2963,44
DA:2964,44
DA:2965,44
DA:2966,44
DA:2967,44
DA:2968,44
DA:2969,44
DA:2970,44
DA:2971,44
DA:2972,3
DA:2973,3
DA:2974,41
DA:2975,0
DA:2976,44
DA:2977,44
DA:2978,5
DA:2979,39
DA:2980,0
DA:2981,44
DA:2982,44
DA:2983,4
DA:2984,40
DA:2985,0
DA:2986,44
DA:2987,5
DA:2988,5
DA:2989,39
DA:2990,4
DA:2991,4
DA:2993,35
DA:2995,44
DA:2997,35
DA:2998,35
DA:3000,35
DA:3002,23
DA:3003,23
DA:3006,6
DA:3007,6
DA:3010,0
DA:3011,0
DA:3014,6
DA:3015,6
DA:3017,0
DA:3019,35
DA:3021,23
DA:3023,23
DA:3024,23
DA:3025,0
DA:3026,0
DA:3027,0
DA:3028,0
DA:3029,0
DA:3030,0
DA:3031,0
DA:3032,0
DA:3033,0
DA:3034,0
DA:3035,23
DA:3037,23
DA:3038,23
DA:3039,23
DA:3040,23
DA:3041,23
DA:3043,0
DA:3047,23
DA:3048,23
DA:3049,23
DA:3050,21
DA:3052,94
DA:3053,43
DA:3054,43
DA:3055,43
DA:3057,43
DA:3058,0
DA:3059,0
DA:3060,0
DA:3061,0
DA:3064,32
DA:3065,32
DA:3068,7
DA:3069,7
DA:3072,1
DA:3073,1
DA:3076,1
DA:3077,1
DA:3080,1
DA:3081,1
DA:3083,1
DA:3087,43
DA:3088,43
DA:3089,43
DA:3090,43
DA:3093,56
DA:3095,3
DA:3096,3
DA:3097,3
DA:3098,3
DA:3099,3
DA:3100,3
DA:3101,0
DA:3103,3
DA:3104,3
DA:3105,3
DA:3106,3
DA:3108,2
DA:3109,2
DA:3110,2
DA:3111,2
DA:3112,2
DA:3115,5
DA:3116,5
DA:3117,5
DA:3118,5
DA:3119,5
DA:3120,5
DA:3122,0
DA:3125,5
DA:3127,4
DA:3128,4
DA:3129,4
DA:3130,4
DA:3131,4
DA:3132,4
DA:3134,0
DA:3137,4
DA:3138,4
DA:3139,4
DA:3140,4
DA:3142,1
DA:3143,0
DA:3144,0
DA:3145,0
DA:3146,0
DA:3148,1
DA:3151,5
DA:3152,5
DA:3153,5
DA:3154,5
DA:3155,5
DA:3156,5
DA:3158,5
DA:3159,0
DA:3161,0
DA:3162,0
DA:3164,0
DA:3166,0
DA:3167,0
DA:3168,0
DA:3170,0
DA:3171,0
DA:3172,0
DA:3174,0
DA:3177,0
DA:3181,0
DA:3182,0
DA:3185,0
DA:3186,0
DA:3188,0
DA:3189,0
DA:3190,0
DA:3191,0
DA:3192,0
DA:3193,0
DA:3195,0
DA:3196,0
DA:3198,0
DA:3201,0
DA:3203,0
DA:3204,0
DA:3205,0
DA:3206,0
DA:3208,0
DA:3209,0
DA:3210,0
DA:3212,0
DA:3213,0
DA:3214,0
DA:3216,0
DA:3217,0
DA:3218,0
DA:3220,0
DA:3223,0
DA:3227,0
DA:3228,0
DA:3231,0
DA:3232,0
DA:3234,0
DA:3235,0
DA:3236,0
DA:3237,0
DA:3238,0
DA:3239,0
DA:3241,0
DA:3242,0
DA:3244,0
DA:3247,0
DA:3249,0
DA:3250,0
DA:3251,0
DA:3252,0
DA:3255,43
DA:3259,43
DA:3260,43
DA:3261,43
DA:3262,43
DA:3263,43
DA:3264,43
DA:3265,43
DA:3266,43
DA:3269,11
DA:3270,11
DA:3272,30
DA:3273,30
DA:3274,30
DA:3280,8
DA:3282,2
DA:3288,30
DA:3290,8
DA:3291,8
DA:3292,8
DA:3294,1
DA:3295,1
DA:3296,1
DA:3297,21
DA:3300,2
DA:3302,23
DA:3304,24
DA:3306,1
DA:3307,1
DA:3308,1
DA:3309,1
DA:3310,1
DA:3311,1
DA:3313,0
DA:3315,1
DA:3316,1
DA:3317,1
DA:3320,0
DA:3321,0
DA:3322,0
DA:3323,0
DA:3326,0
DA:3327,0
DA:3328,0
DA:3329,0
DA:3332,0
DA:3333,0
DA:3334,0
DA:3335,0
DA:3337,23
DA:3341,23
DA:3342,23
DA:3343,23
DA:3344,23
DA:3345,23
DA:3346,23
DA:3347,23
DA:3348,23
DA:3350,9
DA:3351,9
DA:3352,9
DA:3353,9
DA:3354,9
DA:3356,6
DA:3357,6
DA:3358,6
DA:3359,6
DA:3360,6
DA:3361,6
DA:3362,6
DA:3363,6
DA:3365,7
DA:3366,7
DA:3367,7
DA:3368,7
DA:3369,7
DA:3370,0
DA:3372,7
DA:3373,1
DA:3374,1
DA:3376,6
DA:3379,6
DA:3380,6
DA:3381,6
DA:3382,6
DA:3383,6
DA:3384,6
DA:3385,6
DA:3386,6
DA:3387,6
DA:3388,6
DA:3389,6
DA:3391,0
DA:3393,6
DA:3394,6
DA:3395,6
DA:3397,7
DA:3398,7
DA:3399,7
DA:3400,7
DA:3401,7
DA:3402,0
DA:3404,7
DA:3405,1
DA:3406,1
DA:3408,6
DA:3411,6
DA:3412,6
DA:3413,6
DA:3414,0
DA:3415,6
DA:3416,6
DA:3417,6
DA:3418,6
DA:3419,6
DA:3420,6
DA:3421,6
DA:3422,6
DA:3423,6
DA:3424,6
DA:3425,6
DA:3428,1
DA:3429,1
DA:3430,1
DA:3431,1
DA:3432,1
DA:3434,1
DA:3435,1
DA:3436,1
DA:3437,1
DA:3438,1
DA:3439,0
DA:3441,1
DA:3442,0
DA:3443,0
DA:3445,1
DA:3448,1
DA:3449,1
DA:3450,1
DA:3451,1
DA:3452,1
DA:3453,1
DA:3454,1
DA:3457,2
DA:3458,2
DA:3459,2
DA:3460,2
DA:3461,2
DA:3462,2
DA:3463,2
DA:3464,2
DA:3466,4
DA:3467,4
DA:3468,4
DA:3469,4
DA:3470,4
DA:3471,0
DA:3473,4
DA:3474,2
DA:3475,2
DA:3477,2
DA:3480,2
DA:3481,2
DA:3482,2
DA:3483,2
DA:3484,2
DA:3485,2
DA:3486,2
DA:3488,0
DA:3490,9
DA:3492,0
DA:3493,0
DA:3495,0
DA:3496,0
DA:3497,0
DA:3498,0
DA:3499,0
DA:3500,0
DA:3502,0
DA:3504,0
DA:3505,0
DA:3507,0
DA:3510,0
DA:3511,0
DA:3513,0
DA:3514,0
DA:3515,0
DA:3516,0
DA:3517,0
DA:3518,0
DA:3520,0
DA:3521,0
DA:3523,0
DA:3524,0
DA:3525,0
DA:3527,0
DA:3529,0
DA:3531,6
DA:3532,6
DA:3533,6
DA:3534,6
DA:3535,6
DA:3537,9
DA:3538,3
DA:3539,3
DA:3540,2
DA:3541,2
DA:3542,1
DA:3543,1
DA:3544,1
DA:3545,0
DA:3547,6
DA:3550,6
DA:3551,6
DA:3553,3
DA:3554,3
DA:3555,2
DA:3556,2
DA:3557,1
DA:3558,0
DA:3559,0
DA:3560,1
DA:3561,1
DA:3562,1
DA:3563,1
DA:3564,1
DA:3565,1
DA:3567,0
DA:3570,0
DA:3573,0
DA:3575,3
DA:3577,6
DA:3578,6
DA:3579,6
DA:3580,6
DA:3581,6
DA:3582,6
DA:3583,6
DA:3584,6
DA:3585,3
DA:3586,3
DA:3587,0
DA:3588,6
DA:3589,3
DA:3590,3
DA:3592,3
DA:3593,3
DA:3594,3
DA:3595,2
DA:3596,1
DA:3598,2
DA:3600,6
DA:3602,0
DA:3603,0
DA:3604,0
DA:3605,0
DA:3606,0
DA:3609,0
DA:3610,0
DA:3612,4
DA:3613,4
DA:3615,4
DA:3617,5
DA:3618,5
DA:3619,0
DA:3621,5
DA:3623,5
DA:3624,4
DA:3625,4
DA:3626,4
DA:3627,0
DA:3629,4
DA:3630,4
DA:3632,1
DA:3635,5
DA:3637,5
DA:3638,4
DA:3639,1
DA:3640,1
DA:3643,4
DA:3644,4
DA:3645,4
DA:3646,4
DA:3647,4
DA:3648,4
DA:3649,4
DA:3650,4
DA:3651,4
DA:3652,4
DA:3654,0
DA:3656,4
DA:3658,3
DA:3659,3
DA:3661,3
DA:3663,4
DA:3664,4
DA:3665,0
DA:3667,4
DA:3669,4
DA:3670,4
DA:3671,4
DA:3672,4
DA:3673,0
DA:3675,4
DA:3676,4
DA:3678,0
DA:3681,4
DA:3683,4
DA:3684,3
DA:3685,1
DA:3686,1
DA:3689,3
DA:3690,3
DA:3692,0
DA:3693,0
DA:3694,0
DA:3695,0
DA:3699,0
DA:3701,0
DA:3702,0
DA:3703,0
DA:3707,0
DA:3709,0
DA:3710,0
DA:3713,0
DA:3714,0
DA:3716,0
DA:3720,0
DA:3722,0
DA:3723,0
DA:3726,0
DA:3727,0
DA:3730,0
DA:3731,0
DA:3733,0
DA:3737,0
DA:3740,0
DA:3741,0
DA:3742,0
DA:3743,0
DA:3744,0
DA:3746,0
DA:3750,0
DA:3751,0
DA:3752,0
DA:3753,0
DA:3754,0
DA:3755,0
DA:3756,0
DA:3757,0
DA:3759,6
DA:3761,6
DA:3762,6
DA:3763,0
DA:3767,6
DA:3769,6
DA:3770,6
DA:3772,2
DA:3773,2
DA:3774,0
DA:3778,2
DA:3779,0
DA:3780,0
DA:3781,0
DA:3782,0
DA:3783,0
DA:3785,0
DA:3786,0
DA:3787,0
DA:3789,0
DA:3790,0
DA:3791,0
DA:3793,0
DA:3796,2
DA:3800,2
DA:3801,0
DA:3802,2
DA:3803,0
DA:3804,0
DA:3805,0
DA:3806,0
DA:3807,0
DA:3808,0
DA:3809,0
DA:3810,0
DA:3813,2
DA:3814,2
DA:3815,2
DA:3816,2
DA:3817,2
DA:3819,2
DA:3820,0
DA:3821,0
DA:3822,0
DA:3823,2
DA:3826,4
DA:3827,6
DA:3830,6
DA:3832,6
DA:3836,15
DA:3837,0
DA:3838,15
DA:3839,9
DA:3841,9
DA:3844,0
DA:3845,0
DA:3848,1
DA:3849,1
DA:3852,0
DA:3853,0
DA:3856,0
DA:3857,0
DA:3860,2
DA:3861,2
DA:3864,1
DA:3865,1
DA:3868,1
DA:3869,1
DA:3872,0
DA:3873,0
DA:3876,0
DA:3877,0
DA:3880,0
DA:3881,0
DA:3884,1
DA:3885,1
DA:3888,3
DA:3889,3
DA:3892,9
DA:3896,6
DA:3897,0
DA:3898,0
DA:3899,0
DA:3900,6
DA:3902,6
DA:3903,6
DA:3904,6
DA:3905,6
DA:3906,6
DA:3907,6
DA:3910,0
DA:3911,0
DA:3915,0
DA:3916,0
DA:3918,0
DA:3919,0
DA:3921,0
DA:3922,0
DA:3923,0
DA:3925,0
DA:3926,0
DA:3928,0
DA:3929,0
DA:3930,0
DA:3932,0
DA:3933,0
DA:3938,0
DA:3939,0
DA:3942,0
DA:3943,0
DA:3944,0
DA:3946,0
DA:3947,0
DA:3950,0
DA:3951,0
DA:3953,0
DA:3954,0
DA:3955,0
DA:3956,0
DA:3957,0
DA:3958,0
DA:3959,0
DA:3960,0
DA:3961,0
DA:3962,0
DA:3963,0
DA:3965,0
DA:3966,0
DA:3968,0
DA:3969,0
DA:3970,0
DA:3973,0
DA:3974,0
DA:3977,0
DA:3980,0
DA:3981,0
DA:3984,0
DA:3985,0
DA:3986,0
DA:3990,0
DA:3991,0
DA:3992,0
DA:3993,0
DA:3994,0
DA:3997,0
DA:3998,0
DA:4001,0
DA:4002,0
DA:4004,0
DA:4008,0
DA:4010,0
DA:4011,0
DA:4012,0
DA:4014,0
DA:4015,0
DA:4018,0
DA:4019,0
DA:4020,0
DA:4021,0
DA:4022,0
DA:4023,0
DA:4026,0
DA:4027,0
DA:4030,0
DA:4032,0
DA:4035,0
DA:4038,0
DA:4039,0
DA:4040,0
DA:4041,0
DA:4042,0
DA:4043,0
DA:4044,0
DA:4048,0
DA:4049,0
DA:4050,0
DA:4052,0
DA:4055,0
DA:4056,0
DA:4058,0
DA:4059,0
DA:4060,0
DA:4061,0
DA:4062,0
DA:4063,0
DA:4064,0
DA:4067,0
DA:4068,0
DA:4070,0
DA:4071,0
DA:4073,0
DA:4075,0
DA:4076,0
DA:4078,0
DA:4079,0
DA:4082,0
DA:4083,0
DA:4085,0
DA:4087,0
DA:4088,0
DA:4090,0
DA:4091,0
DA:4094,0
DA:4095,0
DA:4096,0
DA:4097,0
DA:4098,0
DA:4100,0
DA:4101,0
DA:4102,0
DA:4105,0
DA:4106,0
DA:4107,0
DA:4108,0
DA:4109,0
DA:4111,0
DA:4112,0
DA:4113,0
DA:4116,0
DA:4117,0
DA:4118,0
DA:4119,0
DA:4120,0
DA:4123,0
DA:4125,0
DA:4126,0
DA:4127,0
DA:4131,0
DA:4132,0
DA:4133,0
DA:4134,0
DA:4135,0
DA:4136,0
DA:4137,0
DA:4138,0
DA:4139,0
DA:4140,0
DA:4141,0
DA:4142,0
DA:4143,0
DA:4146,0
DA:4147,0
DA:4150,0
DA:4152,0
DA:4153,0
DA:4154,0
DA:4155,0
DA:4158,0
DA:4161,0
DA:4163,0
DA:4164,0
DA:4165,0
DA:4166,0
DA:4167,0
DA:4168,0
DA:4171,0
DA:4172,0
DA:4173,0
DA:4174,0
DA:4175,0
DA:4179,0
DA:4180,0
DA:4181,0
DA:4183,0
DA:4185,0
DA:4186,0
DA:4189,0
DA:4190,0
DA:4191,0
DA:4194,0
DA:4195,0
DA:4196,0
DA:4197,0
DA:4198,0
DA:4199,0
DA:4200,0
DA:4201,0
DA:4202,0
DA:4203,0
DA:4204,0
DA:4205,0
DA:4206,0
DA:4207,0
DA:4208,0
DA:4209,0
DA:4210,0
DA:4211,0
DA:4212,0
DA:4216,0
DA:4217,0
DA:4220,0
DA:4221,0
DA:4223,0
DA:4224,0
DA:4225,0
DA:4228,0
DA:4229,0
DA:4230,0
DA:4232,0
DA:4233,0
DA:4234,0
DA:4236,0
DA:4237,0
DA:4238,0
DA:4240,0
DA:4241,0
DA:4242,0
DA:4244,0
DA:4246,0
DA:4249,5
DA:4250,5
DA:4252,18
DA:4254,3
DA:4255,3
DA:4257,2
DA:4258,0
DA:4259,13
DA:4260,13
DA:4261,13
DA:4262,13
DA:4263,13
DA:4266,5
DA:4267,5
DA:4270,2
DA:4271,2
DA:4272,2
DA:4274,30
DA:4275,2
DA:4276,2
DA:4277,0
DA:4278,0
DA:4279,0
DA:4280,0
DA:4281,0
DA:4282,0
DA:4283,0
DA:4284,0
DA:4285,0
DA:4286,0
DA:4287,0
DA:4288,0
DA:4290,0
DA:4292,4
DA:4293,4
DA:4294,4
DA:4295,4
DA:4296,4
DA:4297,24
DA:4298,24
DA:4299,24
DA:4300,24
DA:4301,24
DA:4304,2
DA:4305,2
DA:4308,2
DA:4309,2
DA:4310,2
DA:4312,22
DA:4313,2
DA:4314,0
DA:4315,0
DA:4316,0
DA:4317,0
DA:4318,0
DA:4319,0
DA:4320,0
DA:4321,0
DA:4322,0
DA:4323,0
DA:4324,0
DA:4325,0
DA:4326,0
DA:4328,0
DA:4330,2
DA:4331,2
DA:4332,2
DA:4333,2
DA:4334,2
DA:4335,18
DA:4336,18
DA:4337,18
DA:4338,18
DA:4339,18
DA:4342,2
DA:4343,2
DA:4345,6
DA:4346,6
DA:4347,6
DA:4348,0
DA:4351,6
DA:4353,5
DA:4354,42
DA:4355,37
DA:4357,0
DA:4359,37
DA:4360,37
DA:4361,37
DA:4362,37
DA:4366,5
DA:4367,5
DA:4368,6
DA:4370,1
DA:4371,1
DA:4373,1
DA:4374,1
DA:4375,1
DA:4376,1
DA:4377,1
DA:4379,0
DA:4380,0
DA:4383,1
DA:4384,1
DA:4386,3
DA:4387,3
DA:4389,3
DA:4391,1
DA:4392,1
DA:4394,2
DA:4397,3
DA:4398,3
DA:4399,0
DA:4402,3
DA:4403,3
DA:4405,15
DA:4406,15
DA:4408,15
DA:4410,1
DA:4411,1
DA:4414,3
DA:4415,3
DA:4418,2
DA:4419,2
DA:4421,9
DA:4422,9
DA:4423,9
DA:4424,9
DA:4425,9
DA:4426,3
DA:4427,1
DA:4428,1
DA:4431,0
DA:4434,14
DA:4436,13
DA:4437,13
DA:4438,13
DA:4439,13
DA:4440,13
DA:4442,0
DA:4445,13
DA:4447,12
DA:4448,12
DA:4449,12
DA:4450,12
DA:4451,12
DA:4453,0
DA:4456,12
DA:4457,12
DA:4458,12
DA:4459,12
DA:4460,12
DA:4461,15
DA:4463,16
DA:4464,16
DA:4466,16
DA:4468,1
DA:4469,1
DA:4472,4
DA:4473,4
DA:4476,2
DA:4477,2
DA:4479,9
DA:4480,9
DA:4481,9
DA:4482,9
DA:4483,9
DA:4484,3
DA:4485,1
DA:4486,1
DA:4489,0
DA:4492,15
DA:4494,14
DA:4495,14
DA:4496,14
DA:4497,14
DA:4498,14
DA:4500,0
DA:4503,14
DA:4505,13
DA:4506,13
DA:4507,13
DA:4508,13
DA:4509,13
DA:4511,0
DA:4514,13
DA:4515,13
DA:4516,13
DA:4517,13
DA:4518,13
DA:4519,16
DA:4521,6
DA:4522,6
DA:4524,6
DA:4526,3
DA:4527,3
DA:4530,3
DA:4531,3
DA:4533,0
DA:4535,6
DA:4538,7
DA:4539,7
DA:4541,7
DA:4543,3
DA:4544,3
DA:4547,2
DA:4548,2
DA:4550,2
DA:4553,7
DA:4554,7
DA:4555,7
DA:4556,7
DA:4557,7
DA:4558,7
DA:4559,7
DA:4561,0
DA:4564,7
DA:4565,7
DA:4566,7
DA:4567,7
DA:4568,7
DA:4571,1
DA:4572,1
DA:4575,1
DA:4576,1
DA:4577,1
DA:4578,1
DA:4579,1
DA:4581,0
DA:4584,1
DA:4587,1
DA:4588,1
DA:4589,1
DA:4590,1
DA:4591,1
DA:4593,0
DA:4596,1
DA:4597,1
DA:4600,1
DA:4601,1
DA:4604,1
DA:4605,1
DA:4606,1
DA:4607,1
DA:4608,1
DA:4610,0
DA:4614,1
DA:4615,1
DA:4616,0
DA:4619,0
DA:4620,0
DA:4621,0
DA:4622,0
DA:4623,0
DA:4624,0
DA:4627,1
DA:4629,1
DA:4630,1
DA:4633,1
DA:4634,1
DA:4635,1
DA:4638,1
DA:4639,1
DA:4640,1
DA:4641,1
DA:4642,1
DA:4644,0
DA:4647,1
DA:4648,1
DA:4649,1
DA:4650,1
DA:4653,8
DA:4654,8
DA:4657,8
DA:4658,7
DA:4659,1
DA:4663,7
DA:4665,4
DA:4666,4
DA:4669,2
DA:4670,2
DA:4672,1
DA:4676,6
DA:4677,5
DA:4678,1
DA:4682,5
DA:4683,3
DA:4685,3
DA:4686,3
DA:4687,3
DA:4688,3
DA:4689,0
DA:4690,0
DA:4691,0
DA:4692,0
DA:4695,3
DA:4696,3
DA:4697,3
DA:4698,3
DA:4699,0
DA:4700,0
DA:4701,0
DA:4702,0
DA:4704,3
DA:4705,3
DA:4707,2
DA:4710,5
DA:4711,5
DA:4712,5
DA:4713,5
DA:4714,5
DA:4715,5
DA:4716,8
DA:4718,1
DA:4719,1
DA:4722,1
DA:4723,1
DA:4724,0
DA:4728,1
DA:4730,1
DA:4731,1
DA:4733,2
DA:4734,0
DA:4735,1
DA:4736,1
DA:4737,0
DA:4738,0
DA:4740,2
DA:4742,2
DA:4743,1
DA:4744,1
DA:4745,1
DA:4746,1
DA:4749,0
DA:4750,1
DA:4752,1
DA:4753,1
DA:4754,1
DA:4755,1
DA:4756,1
DA:4758,1
DA:4759,1
DA:4762,1
DA:4763,0
DA:4764,1
DA:4765,0
DA:4766,0
DA:4769,1
DA:4770,1
DA:4772,6
DA:4773,6
DA:4775,2
DA:4776,2
DA:4777,2
DA:4778,2
DA:4781,2
DA:4782,2
DA:4783,2
DA:4784,2
DA:4787,2
DA:4788,2
DA:4790,0
DA:4791,0
DA:4792,0
DA:4793,0
DA:4794,0
DA:4795,0
DA:4797,0
DA:4799,0
DA:4800,0
DA:4801,0
DA:4803,2
DA:4804,2
DA:4805,2
DA:4809,0
DA:4810,0
DA:4811,0
DA:4812,0
DA:4813,0
DA:4814,0
DA:4816,0
DA:4818,0
DA:4819,0
DA:4820,0
DA:4823,0
DA:4825,0
DA:4826,0
DA:4827,0
DA:4828,0
DA:4829,0
DA:4830,0
DA:4831,0
DA:4832,0
DA:4833,0
DA:4835,0
DA:4837,0
DA:4838,0
DA:4839,0
DA:4841,0
DA:4843,6
DA:4847,210
DA:4848,210
DA:4849,210
DA:4850,210
DA:4851,210
DA:4858,1
DA:4859,1
DA:4860,1
DA:4861,1
DA:4862,1
DA:4865,1
DA:4866,1
DA:4867,1
DA:4868,1
DA:4869,1
DA:4872,1
DA:4873,1
DA:4874,1
DA:4875,1
DA:4876,1
DA:4879,1
DA:4880,1
DA:4881,1
DA:4882,1
DA:4883,1
DA:4886,1
DA:4887,1
DA:4888,1
DA:4889,1
DA:4890,1
DA:4893,1
DA:4894,1
DA:4895,1
DA:4896,1
DA:4897,1
DA:4898,1
DA:4899,1
DA:4901,0
DA:4903,1
DA:4906,1
DA:4907,1
DA:4908,1
DA:4909,1
DA:4910,1
DA:4911,1
DA:4912,1
DA:4913,1
DA:4915,0
DA:4917,1
DA:4920,1
DA:4921,1
DA:4922,1
DA:4923,1
DA:4924,1
DA:4925,1
DA:4926,1
DA:4927,1
DA:4929,0
DA:4931,1
DA:4934,1
DA:4935,1
DA:4936,1
DA:4937,1
DA:4938,1
DA:4939,1
DA:4940,1
DA:4941,1
DA:4942,1
DA:4944,0
DA:4946,1
DA:4949,1
DA:4950,1
DA:4951,1
DA:4952,1
DA:4953,1
DA:4954,1
DA:4955,1
DA:4956,1
DA:4957,1
DA:4958,1
DA:4960,0
DA:4962,1
DA:4965,1
DA:4966,1
DA:4967,1
DA:4968,1
DA:4969,1
DA:4970,1
DA:4971,1
DA:4972,1
DA:4974,0
DA:4976,1
DA:4979,1
DA:4980,1
DA:4981,1
DA:4982,1
DA:4983,1
DA:4984,1
DA:4985,1
DA:4986,1
DA:4988,0
DA:4990,1
DA:4993,1
DA:4994,1
DA:4995,1
DA:4996,1
DA:4997,1
DA:4998,1
DA:5000,0
DA:5002,1
DA:5005,1
DA:5006,1
DA:5007,1
DA:5008,1
DA:5009,1
DA:5010,1
DA:5011,1
DA:5013,0
DA:5015,1
DA:5018,1
DA:5019,1
DA:5020,1
DA:5021,1
DA:5022,1
DA:5023,1
DA:5025,0
DA:5027,1
DA:5030,1
DA:5031,1
DA:5032,1
DA:5033,1
DA:5034,1
DA:5035,1
DA:5036,1
DA:5037,1
DA:5038,1
DA:5040,0
DA:5042,1
DA:5045,1
DA:5046,1
DA:5047,1
DA:5048,1
DA:5049,1
DA:5050,1
DA:5052,0
DA:5054,1
DA:5057,1
DA:5058,1
DA:5059,1
DA:5060,1
DA:5061,1
DA:5062,1
DA:5063,1
DA:5064,1
DA:5066,0
DA:5068,1
DA:5071,1
DA:5072,1
DA:5073,1
DA:5074,1
DA:5075,1
DA:5076,1
DA:5078,0
DA:5080,1
DA:5083,1
DA:5084,1
DA:5085,1
DA:5086,1
DA:5087,1
DA:5088,1
DA:5090,0
DA:5092,1
DA:5095,1
DA:5096,1
DA:5097,1
DA:5098,1
DA:5099,1
DA:5100,1
DA:5102,0
DA:5104,1
DA:5107,1
DA:5108,1
DA:5109,1
DA:5110,1
DA:5113,1
DA:5114,1
DA:5115,1
DA:5116,1
DA:5119,1
DA:5120,1
DA:5121,1
DA:5122,1
DA:5125,1
DA:5126,1
DA:5127,1
DA:5128,1
DA:5131,1
DA:5132,1
DA:5133,1
DA:5134,1
DA:5135,1
DA:5138,1
DA:5139,1
DA:5140,1
DA:5141,1
DA:5142,1
DA:5143,1
DA:5146,1
DA:5147,1
DA:5148,1
DA:5149,1
DA:5150,1
DA:5151,1
DA:5154,1
DA:5155,1
DA:5156,1
DA:5157,1
DA:5160,1
DA:5161,1
DA:5162,1
DA:5163,1
DA:5166,1
DA:5167,1
DA:5168,1
DA:5169,1
DA:5172,1
DA:5173,1
DA:5174,1
DA:5175,1
DA:5178,1
DA:5179,1
DA:5180,1
DA:5181,1
DA:5184,1
DA:5185,1
DA:5186,1
DA:5187,1
DA:5190,1
DA:5191,1
DA:5192,1
DA:5193,1
DA:5196,1
DA:5197,1
DA:5198,1
DA:5199,1
DA:5202,1
DA:5203,1
DA:5204,1
DA:5205,1
DA:5208,1
DA:5209,1
DA:5210,1
DA:5211,1
DA:5214,1
DA:5215,1
DA:5216,1
DA:5217,1
DA:5220,1
DA:5221,1
DA:5222,1
DA:5223,1
DA:5224,1
DA:5225,1
DA:5227,0
DA:5229,1
DA:5232,1
DA:5233,1
DA:5234,1
DA:5235,1
DA:5238,1
DA:5239,1
DA:5240,1
DA:5241,1
DA:5242,1
DA:5243,1
DA:5244,1
DA:5245,1
DA:5246,1
DA:5248,0
DA:5251,0
DA:5253,1
DA:5256,1
DA:5257,1
DA:5258,1
DA:5259,1
DA:5260,1
DA:5261,1
DA:5263,0
DA:5265,1
DA:5268,1
DA:5269,1
DA:5270,1
DA:5271,1
DA:5272,1
DA:5273,1
DA:5274,1
DA:5275,1
DA:5277,0
DA:5279,1
DA:5282,1
DA:5283,1
DA:5284,1
DA:5285,1
DA:5286,1
DA:5287,1
DA:5288,1
DA:5289,1
DA:5291,0
DA:5293,1
DA:5296,1
DA:5297,1
DA:5298,1
DA:5299,1
DA:5300,1
DA:5301,1
DA:5302,1
DA:5303,1
DA:5305,0
DA:5307,1
DA:5310,1
DA:5311,1
DA:5312,1
DA:5313,1
DA:5314,1
DA:5315,1
DA:5316,1
DA:5317,1
DA:5319,0
DA:5321,1
DA:5324,1
DA:5325,1
DA:5326,1
DA:5327,1
DA:5328,1
DA:5329,1
DA:5330,1
DA:5331,1
DA:5333,0
DA:5335,1
DA:5338,1
DA:5339,1
DA:5340,1
DA:5341,1
DA:5342,1
DA:5343,1
DA:5344,1
DA:5345,1
DA:5347,0
DA:5349,1
DA:5352,1
DA:5353,1
DA:5354,1
DA:5355,1
DA:5356,1
DA:5357,1
DA:5358,1
DA:5359,1
DA:5361,0
DA:5363,1
DA:5366,1
DA:5367,1
DA:5368,1
DA:5369,1
DA:5370,1
DA:5371,1
DA:5372,1
DA:5373,1
DA:5375,0
DA:5377,1
DA:5380,1
DA:5381,1
DA:5382,1
DA:5383,1
DA:5384,1
DA:5385,1
DA:5386,1
DA:5387,1
DA:5389,0
DA:5391,1
DA:5394,1
DA:5395,1
DA:5396,1
DA:5397,1
DA:5400,1
DA:5401,1
DA:5402,1
DA:5403,1
DA:5406,1
DA:5407,1
DA:5408,1
DA:5409,1
DA:5412,1
DA:5413,1
DA:5414,1
DA:5415,1
DA:5416,1
DA:5417,1
DA:5418,1
DA:5419,1
DA:5421,0
DA:5423,1
DA:5426,1
DA:5427,1
DA:5428,1
DA:5429,1
DA:5430,1
DA:5431,1
DA:5432,1
DA:5433,1
DA:5435,0
DA:5437,1
DA:5440,1
DA:5441,1
DA:5442,1
DA:5443,1
DA:5444,1
DA:5445,1
DA:5446,1
DA:5447,1
DA:5449,0
DA:5451,1
DA:5454,1
DA:5455,1
DA:5456,1
DA:5457,1
DA:5458,1
DA:5459,1
DA:5460,1
DA:5461,1
DA:5463,0
DA:5465,1
DA:5468,1
DA:5469,1
DA:5470,1
DA:5471,1
DA:5472,1
DA:5473,1
DA:5474,1
DA:5475,1
DA:5477,0
DA:5479,1
DA:5482,1
DA:5483,1
DA:5484,1
DA:5485,1
DA:5486,1
DA:5487,1
DA:5488,1
DA:5489,1
DA:5491,0
DA:5493,1
DA:5496,1
DA:5497,1
DA:5498,1
DA:5499,1
DA:5500,1
DA:5501,1
DA:5502,1
DA:5503,1
DA:5505,0
DA:5507,1
DA:5510,1
DA:5511,1
DA:5512,1
DA:5513,1
DA:5514,1
DA:5515,1
DA:5516,1
DA:5517,1
DA:5519,0
DA:5521,1
DA:5524,1
DA:5525,1
DA:5526,1
DA:5527,1
DA:5528,1
DA:5529,1
DA:5530,1
DA:5531,1
DA:5533,0
DA:5535,1
DA:5538,1
DA:5539,1
DA:5540,1
DA:5541,1
DA:5544,1
DA:5545,1
DA:5546,1
DA:5547,1
DA:5550,1
DA:5551,1
DA:5552,1
DA:5553,1
DA:5556,1
DA:5557,1
DA:5558,1
DA:5559,1
DA:5560,1
DA:5563,1
DA:5564,1
DA:5565,1
DA:5566,1
DA:5567,1
DA:5568,1
DA:5569,1
DA:5570,1
DA:5571,1
DA:5572,1
DA:5573,1
DA:5576,1
DA:5577,1
DA:5578,1
DA:5579,1
DA:5580,1
DA:5581,1
DA:5582,1
DA:5583,1
DA:5584,1
DA:5585,1
DA:5586,1
DA:5589,1
DA:5590,1
DA:5591,1
DA:5592,1
DA:5593,1
DA:5594,1
DA:5595,1
DA:5596,1
DA:5597,1
DA:5598,1
DA:5599,1
DA:5600,1
DA:5603,1
DA:5604,1
DA:5605,1
DA:5606,1
DA:5607,1
DA:5608,1
DA:5609,1
DA:5610,1
DA:5611,1
DA:5612,1
DA:5613,1
DA:5614,1
DA:5617,1
DA:5618,1
DA:5620,1
DA:5621,1
DA:5623,3
DA:5624,3
DA:5625,3
DA:5627,1
DA:5630,1
DA:5631,1
DA:5633,1
DA:5634,1
DA:5636,3
DA:5637,3
DA:5638,3
DA:5640,1
DA:5643,1
DA:5644,1
DA:5645,1
DA:5646,1
DA:5647,1
DA:5648,1
DA:5649,1
DA:5650,1
DA:5651,1
DA:5653,0
DA:5655,1
DA:5658,1
DA:5659,1
DA:5660,1
DA:5661,1
DA:5662,1
DA:5663,1
DA:5664,1
DA:5665,1
DA:5666,1
DA:5667,1
DA:5668,1
DA:5670,0
DA:5672,1
DA:5675,1
DA:5676,1
DA:5677,1
DA:5678,1
DA:5679,1
DA:5680,1
DA:5681,1
DA:5682,1
DA:5684,0
DA:5686,1
DA:5689,1
DA:5690,1
DA:5691,1
DA:5692,1
DA:5693,1
DA:5694,1
DA:5695,1
DA:5696,1
DA:5698,0
DA:5700,1
DA:5703,1
DA:5704,1
DA:5705,1
DA:5706,1
DA:5707,1
DA:5708,1
DA:5709,1
DA:5710,1
DA:5711,1
DA:5712,1
DA:5714,0
DA:5716,1
DA:5719,1
DA:5720,1
DA:5721,1
DA:5723,1
DA:5724,1
DA:5725,1
DA:5726,1
DA:5727,1
DA:5728,1
DA:5729,1
DA:5730,1
DA:5732,0
DA:5734,1
DA:5737,1
DA:5738,1
DA:5739,1
DA:5740,1
DA:5741,1
DA:5742,1
DA:5743,1
DA:5744,1
DA:5746,0
DA:5748,1
DA:5751,1
DA:5752,1
DA:5753,1
DA:5754,1
DA:5755,1
DA:5756,1
DA:5758,0
DA:5760,1
DA:5763,1
DA:5764,1
DA:5765,1
DA:5766,1
DA:5767,1
DA:5768,1
DA:5769,1
DA:5771,0
DA:5773,1
DA:5776,1
DA:5777,1
DA:5778,1
DA:5779,1
DA:5780,1
DA:5781,1
DA:5782,1
DA:5783,1
DA:5785,0
DA:5787,1
DA:5790,1
DA:5791,1
DA:5792,1
DA:5793,1
DA:5794,1
DA:5795,1
DA:5796,1
DA:5797,1
DA:5799,0
DA:5801,1
DA:5804,1
DA:5805,1
DA:5806,1
DA:5807,1
DA:5808,1
DA:5809,1
DA:5810,1
DA:5811,1
DA:5812,1
DA:5813,1
DA:5814,1
DA:5816,0
DA:5818,1
DA:5821,1
DA:5822,1
DA:5823,1
DA:5824,1
DA:5825,1
DA:5826,1
DA:5827,1
DA:5828,1
DA:5830,0
DA:5832,1
DA:5835,1
DA:5836,1
DA:5837,1
DA:5838,1
DA:5839,1
DA:5840,1
DA:5841,1
DA:5842,1
DA:5843,1
DA:5844,1
DA:5845,1
DA:5847,0
DA:5849,1
DA:5852,1
DA:5853,1
DA:5854,1
DA:5855,1
DA:5856,1
DA:5857,1
DA:5858,1
DA:5860,0
DA:5862,1
DA:5865,1
DA:5866,1
DA:5867,1
DA:5868,1
DA:5869,1
DA:5870,1
DA:5871,1
DA:5872,1
DA:5874,0
DA:5876,1
DA:5879,1
DA:5880,1
DA:5881,1
DA:5882,1
DA:5883,1
DA:5884,1
DA:5885,1
DA:5886,1
DA:5887,1
DA:5888,1
DA:5889,1
DA:5890,1
DA:5891,1
DA:5892,1
DA:5893,1
DA:5894,1
DA:5895,1
DA:5896,1
DA:5897,1
DA:5900,1
DA:5901,1
DA:5902,1
DA:5903,1
DA:5904,1
DA:5905,1
DA:5906,1
DA:5907,1
DA:5908,1
DA:5909,1
DA:5910,1
DA:5911,1
DA:5912,1
DA:5913,1
DA:5916,1
DA:5917,1
DA:5918,1
DA:5919,1
DA:5920,1
DA:5921,1
DA:5922,1
DA:5923,1
DA:5924,1
DA:5925,1
DA:5926,1
DA:5927,1
DA:5928,1
DA:5929,1
DA:5930,1
DA:5931,1
DA:5934,1
DA:5935,1
DA:5936,1
DA:5937,1
DA:5938,1
DA:5939,1
DA:5940,1
DA:5941,1
DA:5942,1
DA:5943,1
DA:5944,1
DA:5947,1
DA:5948,1
DA:5949,1
DA:5950,1
DA:5951,1
DA:5954,1
DA:5955,1
DA:5956,1
DA:5957,1
DA:5958,1
DA:5959,1
DA:5960,1
DA:5961,1
DA:5962,1
DA:5965,1
DA:5966,1
DA:5967,1
DA:5968,1
DA:5969,1
DA:5970,1
DA:5971,1
DA:5972,1
DA:5973,1
DA:5976,1
DA:5977,1
DA:5978,1
DA:5979,1
DA:5982,1
DA:5983,1
DA:5984,1
DA:5985,1
DA:5988,1
DA:5989,1
DA:5990,1
DA:5991,1
DA:5994,1
DA:5995,1
DA:5996,1
DA:5997,1
DA:6000,1
DA:6001,1
DA:6002,1
DA:6003,1
DA:6006,1
DA:6007,1
DA:6008,1
DA:6009,1
DA:6010,1
DA:6011,1
DA:6012,1
DA:6013,1
DA:6015,0
DA:6017,1
DA:6020,1
DA:6022,1
DA:6023,1
DA:6025,1
DA:6026,1
DA:6027,1
DA:6028,1
DA:6030,1
DA:6031,1
DA:6033,1
DA:6034,1
DA:6035,1
DA:6036,1
DA:6037,1
DA:6039,1
DA:6040,1
DA:6041,1
DA:6042,1
DA:6043,1
DA:6045,0
DA:6047,1
DA:6050,1
DA:6051,1
DA:6052,1
DA:6053,1
DA:6056,1
DA:6057,1
DA:6058,1
DA:6059,1
DA:6060,1
DA:6061,0
DA:6063,1
DA:6066,1
DA:6067,1
DA:6068,1
DA:6069,1
DA:6070,1
DA:6071,0
DA:6073,1
DA:6080,1
DA:6081,1
DA:6082,1
DA:6083,1
DA:6084,1
DA:6085,1
DA:6086,1
DA:6088,0
DA:6090,1
DA:6093,1
DA:6094,1
DA:6095,1
DA:6096,1
DA:6097,1
DA:6098,1
DA:6099,1
DA:6101,0
DA:6103,1
DA:6106,1
DA:6107,1
DA:6108,1
DA:6109,1
DA:6110,1
DA:6111,1
DA:6112,1
DA:6114,0
DA:6116,1
DA:6123,1
DA:6124,1
DA:6125,1
DA:6126,1
DA:6127,1
DA:6128,1
DA:6129,1
DA:6130,1
DA:6131,1
DA:6133,0
DA:6135,1
DA:6138,1
DA:6139,1
DA:6140,1
DA:6141,1
DA:6142,1
DA:6143,1
DA:6144,1
DA:6145,1
DA:6146,1
DA:6148,0
DA:6150,1
DA:6153,1
DA:6155,1
DA:6156,1
DA:6157,1
DA:6158,1
DA:6159,1
DA:6160,1
DA:6161,1
DA:6162,1
DA:6164,0
DA:6166,1
DA:6169,1
DA:6170,1
DA:6171,1
DA:6172,1
DA:6173,1
DA:6174,1
DA:6175,1
DA:6176,1
DA:6177,1
DA:6179,0
DA:6181,1
DA:6184,1
DA:6185,1
DA:6186,1
DA:6187,1
DA:6190,1
DA:6191,1
DA:6192,1
DA:6193,1
DA:6196,1
DA:6197,1
DA:6198,1
DA:6199,1
DA:6207,1
DA:6208,1
DA:6209,1
DA:6210,1
DA:6211,1
DA:6212,1
DA:6213,1
DA:6214,1
DA:6216,0
DA:6218,1
DA:6221,1
DA:6222,1
DA:6223,1
DA:6224,1
DA:6225,1
DA:6226,1
DA:6227,1
DA:6228,1
DA:6230,0
DA:6232,1
DA:6235,1
DA:6236,1
DA:6237,1
DA:6238,1
DA:6239,1
DA:6240,1
DA:6241,1
DA:6243,0
DA:6245,1
DA:6248,1
DA:6249,1
DA:6250,1
DA:6251,1
DA:6252,1
DA:6253,1
DA:6254,1
DA:6255,1
DA:6257,0
DA:6259,1
DA:6262,1
DA:6263,1
DA:6264,1
DA:6265,1
DA:6266,1
DA:6267,1
DA:6269,0
DA:6271,1
DA:6274,1
DA:6275,1
DA:6276,1
DA:6277,1
DA:6278,1
DA:6279,1
DA:6281,0
DA:6283,1
DA:6286,1
DA:6287,1
DA:6288,1
DA:6289,1
DA:6290,1
DA:6291,1
DA:6292,1
DA:6293,1
DA:6295,0
DA:6297,1
DA:6300,1
DA:6301,1
DA:6302,1
DA:6303,1
DA:6304,1
DA:6305,1
DA:6306,1
DA:6307,1
DA:6309,0
DA:6311,1
DA:6314,1
DA:6315,1
DA:6316,1
DA:6317,1
DA:6318,1
DA:6319,1
DA:6320,1
DA:6322,0
DA:6324,1
DA:6327,1
DA:6328,1
DA:6329,1
DA:6330,1
DA:6331,1
DA:6332,1
DA:6334,0
DA:6336,1
DA:6339,1
DA:6340,1
DA:6341,1
DA:6342,1
DA:6343,1
DA:6344,1
DA:6346,0
DA:6348,1
DA:6351,1
DA:6352,1
DA:6353,1
DA:6354,1
DA:6355,1
DA:6356,1
DA:6358,0
DA:6360,1
DA:6363,1
DA:6364,1
DA:6365,1
DA:6366,1
DA:6367,1
DA:6368,0
DA:6370,1
DA:6373,1
DA:6374,1
DA:6375,1
DA:6376,1
DA:6377,1
DA:6378,0
DA:6380,1
DA:6383,1
DA:6384,1
DA:6385,1
DA:6386,1
DA:6387,1
DA:6388,1
DA:6390,0
DA:6392,1
DA:6395,1
DA:6396,1
DA:6397,1
DA:6398,1
DA:6399,1
DA:6400,1
DA:6402,0
DA:6404,1
DA:6407,1
DA:6408,1
DA:6409,1
DA:6410,1
DA:6411,1
DA:6412,1
DA:6414,0
DA:6416,1
DA:6419,1
DA:6420,1
DA:6421,1
DA:6422,1
DA:6423,1
DA:6424,1
DA:6426,0
DA:6428,1
DA:6431,1
DA:6432,1
DA:6433,1
DA:6434,1
DA:6435,1
DA:6436,1
DA:6437,1
DA:6439,0
DA:6441,1
DA:6444,1
DA:6445,1
DA:6446,1
DA:6447,1
DA:6448,1
DA:6449,1
DA:6450,1
DA:6452,0
DA:6454,1
DA:6457,1
DA:6458,1
DA:6459,1
DA:6460,1
DA:6461,1
DA:6462,1
DA:6463,1
DA:6465,0
DA:6467,1
DA:6470,1
DA:6471,1
DA:6472,1
DA:6473,1
DA:6474,1
DA:6475,1
DA:6476,1
DA:6477,1
DA:6479,0
DA:6481,1
DA:6484,1
DA:6485,1
DA:6486,1
DA:6487,1
DA:6488,1
DA:6489,1
DA:6491,0
DA:6493,1
DA:6496,1
DA:6497,1
DA:6498,1
DA:6499,1
DA:6500,1
DA:6501,1
DA:6503,0
DA:6505,1
DA:6510,1
DA:6511,1
DA:6512,1
DA:6513,1
DA:6514,1
DA:6515,1
DA:6516,1
DA:6517,1
DA:6518,1
DA:6519,1
DA:6520,1
DA:6522,0
DA:6525,0
DA:6527,1
DA:6530,1
DA:6531,1
DA:6532,1
DA:6533,1
DA:6534,1
DA:6535,1
DA:6536,1
DA:6537,1
DA:6538,1
DA:6539,1
DA:6541,0
DA:6544,0
DA:6546,1
DA:6549,1
DA:6550,1
DA:6551,1
DA:6552,1
DA:6553,1
DA:6554,1
DA:6555,1
DA:6556,1
DA:6557,1
DA:6558,1
DA:6560,0
DA:6563,0
DA:6565,1
DA:6568,1
DA:6569,1
DA:6570,1
DA:6571,1
DA:6572,1
DA:6573,1
DA:6574,1
DA:6575,1
DA:6576,1
DA:6577,1
DA:6578,1
DA:6580,0
DA:6583,0
DA:6585,1
DA:6588,1
DA:6589,1
DA:6590,1
DA:6591,1
DA:6592,1
DA:6593,1
DA:6594,1
DA:6595,1
DA:6597,0
DA:6599,0
DA:6601,1
DA:6604,1
DA:6605,1
DA:6606,1
DA:6607,1
DA:6608,1
DA:6609,1
DA:6610,1
DA:6611,1
DA:6613,0
DA:6615,0
DA:6617,1
DA:6620,1
DA:6621,1
DA:6622,1
DA:6623,1
DA:6624,1
DA:6625,1
DA:6626,1
DA:6627,1
DA:6628,1
DA:6629,1
DA:6633,1
DA:6634,1
DA:6635,1
DA:6640,1
DA:6641,1
DA:6642,1
DA:6644,0
DA:6647,0
DA:6649,1
DA:6652,1
DA:6653,1
DA:6654,1
DA:6655,1
DA:6656,1
DA:6657,1
DA:6658,1
DA:6659,1
DA:6663,1
DA:6664,1
DA:6669,1
DA:6670,1
DA:6672,0
DA:6675,0
DA:6677,1
DA:6680,1
DA:6681,1
DA:6682,1
DA:6683,1
DA:6684,1
DA:6685,1
DA:6686,1
DA:6687,1
DA:6691,1
DA:6692,1
DA:6697,1
DA:6698,1
DA:6700,0
DA:6703,0
DA:6705,1
DA:6708,1
DA:6709,1
DA:6710,1
DA:6711,1
DA:6712,1
DA:6713,1
DA:6714,1
DA:6715,1
DA:6717,1
DA:6720,1
DA:6721,1
DA:6725,1
DA:6726,1
DA:6727,1
DA:6729,0
DA:6732,0
DA:6734,1
DA:6737,1
DA:6738,1
DA:6739,1
DA:6740,1
DA:6741,1
DA:6742,1
DA:6743,1
DA:6744,1
DA:6748,1
DA:6749,1
DA:6754,1
DA:6755,1
DA:6759,1
DA:6760,1
DA:6765,0
DA:6768,0
DA:6770,1
DA:6773,1
DA:6774,1
DA:6775,1
DA:6776,1
DA:6777,1
DA:6778,1
DA:6779,1
DA:6780,1
DA:6782,1
DA:6785,1
DA:6787,0
DA:6790,0
DA:6792,1
DA:6795,1
DA:6796,1
DA:6797,1
DA:6798,1
DA:6799,1
DA:6800,1
DA:6801,1
DA:6802,1
DA:6804,1
DA:6807,1
DA:6809,0
DA:6812,0
DA:6814,1
DA:6817,1
DA:6818,1
DA:6819,1
DA:6820,1
DA:6821,1
DA:6822,1
DA:6823,1
DA:6824,1
DA:6826,1
DA:6829,1
DA:6831,0
DA:6833,1
DA:6837,1
DA:6838,1
DA:6843,1
DA:6844,1
DA:6846,0
DA:6849,0
DA:6851,1
BRF:0
BRH:0
LF:4136
LH:2876
end_of_record
SF:/home/openclaw/dev/yinglichina8848/sqlrustgo/crates/parser/src/token.rs
FN:459,_RNvNtCsfPVfeOGg4hx_16sqlrustgo_parser5token10is_keyword
FN:540,_RNvNtCsfPVfeOGg4hx_16sqlrustgo_parser5token12from_keyword
FN:242,_RNvXNtCsfPVfeOGg4hx_16sqlrustgo_parser5tokenNtB2_5TokenNtNtCs8nPosuWgJFh_4core3fmt7Display3fmt
FN:742,_RNvNtNtCsa812O6vgh8t_16sqlrustgo_parser5token5testss_15test_is_keyword
FN:735,_RNvNtNtCsa812O6vgh8t_16sqlrustgo_parser5token5testss_16test_token_clone
FN:833,_RNvNtNtCsa812O6vgh8t_16sqlrustgo_parser5token5testss_16test_token_debug
FN:642,_RNvNtNtCsa812O6vgh8t_16sqlrustgo_parser5token5testss_18test_token_display
FN:751,_RNvNtNtCsa812O6vgh8t_16sqlrustgo_parser5token5testss_23test_is_keyword_various
FN:775,_RNvNtNtCsa812O6vgh8t_16sqlrustgo_parser5token5testss_23test_token_from_keyword
FN:784,_RNvNtNtCsa812O6vgh8t_16sqlrustgo_parser5token5testss_25test_from_keyword_various
FN:675,_RNvNtNtCsa812O6vgh8t_16sqlrustgo_parser5token5testss_25test_token_display_syntax
FN:729,_RNvNtNtCsa812O6vgh8t_16sqlrustgo_parser5token5testss_26test_token_boolean_literal
FN:688,_RNvNtNtCsa812O6vgh8t_16sqlrustgo_parser5token5testss_27test_token_display_keywords
FN:657,_RNvNtNtCsa812O6vgh8t_16sqlrustgo_parser5token5testss_28test_token_display_operators
FN:705,_RNvNtNtCsa812O6vgh8t_16sqlrustgo_parser5token5testss_29test_token_display_data_types
FN:713,_RNvNtNtCsa812O6vgh8t_16sqlrustgo_parser5token5testss_30test_token_display_transaction
FN:722,_RNvNtNtCsa812O6vgh8t_16sqlrustgo_parser5token5testss_33test_token_display_other_keywords
FN:459,_RNvNtCsa812O6vgh8t_16sqlrustgo_parser5token10is_keyword
FN:540,_RNvNtCsa812O6vgh8t_16sqlrustgo_parser5token12from_keyword
FN:242,_RNvXNtCsa812O6vgh8t_16sqlrustgo_parser5tokenNtB2_5TokenNtNtCs8nPosuWgJFh_4core3fmt7Display3fmt
FN:459,_RNvNtCs3Y8Ciw6e7SB_16sqlrustgo_parser5token10is_keyword
FN:540,_RNvNtCs3Y8Ciw6e7SB_16sqlrustgo_parser5token12from_keyword
FN:242,_RNvXNtCs3Y8Ciw6e7SB_16sqlrustgo_parser5tokenNtB2_5TokenNtNtCs8nPosuWgJFh_4core3fmt7Display3fmt
FNDA:0,_RNvNtCsfPVfeOGg4hx_16sqlrustgo_parser5token10is_keyword
FNDA:0,_RNvNtCsfPVfeOGg4hx_16sqlrustgo_parser5token12from_keyword
FNDA:0,_RNvXNtCsfPVfeOGg4hx_16sqlrustgo_parser5tokenNtB2_5TokenNtNtCs8nPosuWgJFh_4core3fmt7Display3fmt
FNDA:1,_RNvNtNtCsa812O6vgh8t_16sqlrustgo_parser5token5testss_15test_is_keyword
FNDA:1,_RNvNtNtCsa812O6vgh8t_16sqlrustgo_parser5token5testss_16test_token_clone
FNDA:1,_RNvNtNtCsa812O6vgh8t_16sqlrustgo_parser5token5testss_16test_token_debug
FNDA:1,_RNvNtNtCsa812O6vgh8t_16sqlrustgo_parser5token5testss_18test_token_display
FNDA:1,_RNvNtNtCsa812O6vgh8t_16sqlrustgo_parser5token5testss_23test_is_keyword_various
FNDA:1,_RNvNtNtCsa812O6vgh8t_16sqlrustgo_parser5token5testss_23test_token_from_keyword
FNDA:1,_RNvNtNtCsa812O6vgh8t_16sqlrustgo_parser5token5testss_25test_from_keyword_various
FNDA:1,_RNvNtNtCsa812O6vgh8t_16sqlrustgo_parser5token5testss_25test_token_display_syntax
FNDA:1,_RNvNtNtCsa812O6vgh8t_16sqlrustgo_parser5token5testss_26test_token_boolean_literal
FNDA:1,_RNvNtNtCsa812O6vgh8t_16sqlrustgo_parser5token5testss_27test_token_display_keywords
FNDA:1,_RNvNtNtCsa812O6vgh8t_16sqlrustgo_parser5token5testss_28test_token_display_operators
FNDA:1,_RNvNtNtCsa812O6vgh8t_16sqlrustgo_parser5token5testss_29test_token_display_data_types
FNDA:1,_RNvNtNtCsa812O6vgh8t_16sqlrustgo_parser5token5testss_30test_token_display_transaction
FNDA:1,_RNvNtNtCsa812O6vgh8t_16sqlrustgo_parser5token5testss_33test_token_display_other_keywords
FNDA:18,_RNvNtCsa812O6vgh8t_16sqlrustgo_parser5token10is_keyword
FNDA:35,_RNvNtCsa812O6vgh8t_16sqlrustgo_parser5token12from_keyword
FNDA:147,_RNvXNtCsa812O6vgh8t_16sqlrustgo_parser5tokenNtB2_5TokenNtNtCs8nPosuWgJFh_4core3fmt7Display3fmt
FNDA:0,_RNvNtCs3Y8Ciw6e7SB_16sqlrustgo_parser5token10is_keyword
FNDA:0,_RNvNtCs3Y8Ciw6e7SB_16sqlrustgo_parser5token12from_keyword
FNDA:0,_RNvXNtCs3Y8Ciw6e7SB_16sqlrustgo_parser5tokenNtB2_5TokenNtNtCs8nPosuWgJFh_4core3fmt7Display3fmt
FNF:17
FNH:17
DA:242,147
DA:243,147
DA:244,17
DA:245,1
DA:246,13
DA:247,4
DA:248,0
DA:249,0
DA:251,0
DA:252,0
DA:253,0
DA:254,11
DA:255,6
DA:256,3
DA:257,1
DA:258,1
DA:259,1
DA:260,1
DA:261,2
DA:262,1
DA:263,1
DA:264,1
DA:265,1
DA:266,1
DA:267,0
DA:268,0
DA:269,1
DA:270,1
DA:271,0
DA:272,1
DA:273,1
DA:274,0
DA:275,0
DA:276,0
DA:277,0
DA:278,0
DA:279,1
DA:280,1
DA:281,1
DA:282,0
DA:283,0
DA:284,1
DA:285,1
DA:286,0
DA:287,0
DA:288,0
DA:289,0
DA:290,0
DA:291,0
DA:292,1
DA:293,0
DA:294,0
DA:296,0
DA:297,0
DA:298,0
DA:299,0
DA:300,0
DA:301,0
DA:302,0
DA:303,0
DA:304,1
DA:305,0
DA:306,2
DA:307,1
DA:308,0
DA:309,0
DA:310,2
DA:311,0
DA:312,0
DA:313,0
DA:314,0
DA:315,0
DA:316,1
DA:317,0
DA:318,0
DA:319,0
DA:320,0
DA:321,0
DA:322,0
DA:324,0
DA:325,0
DA:326,0
DA:327,0
DA:328,0
DA:329,0
DA:330,0
DA:331,0
DA:332,0
DA:333,0
DA:334,0
DA:336,0
DA:337,0
DA:338,0
DA:339,0
DA:340,0
DA:341,0
DA:342,0
DA:343,0
DA:344,0
DA:345,0
DA:346,0
DA:347,0
DA:348,0
DA:349,0
DA:350,0
DA:351,0
DA:352,0
DA:353,0
DA:354,0
DA:355,0
DA:356,0
DA:357,0
DA:358,0
DA:359,0
DA:360,0
DA:361,0
DA:362,10
DA:363,0
DA:364,0
DA:365,0
DA:366,0
DA:367,0
DA:368,0
DA:369,2
DA:370,1
DA:371,1
DA:372,0
DA:373,0
DA:374,1
DA:375,1
DA:376,0
DA:377,0
DA:378,0
DA:379,0
DA:380,0
DA:381,0
DA:382,0
DA:383,0
DA:384,0
DA:386,0
DA:387,0
DA:388,0
DA:389,0
DA:390,0
DA:391,0
DA:392,0
DA:393,0
DA:394,0
DA:395,0
DA:396,0
DA:397,0
DA:398,0
DA:399,0
DA:400,0
DA:401,0
DA:402,0
DA:404,5
DA:405,1
DA:406,3
DA:407,1
DA:408,1
DA:409,1
DA:410,1
DA:411,1
DA:412,1
DA:413,1
DA:414,1
DA:415,1
DA:416,1
DA:417,1
DA:419,0
DA:420,0
DA:422,0
DA:423,0
DA:424,0
DA:426,1
DA:427,1
DA:428,3
DA:429,1
DA:430,10
DA:431,1
DA:432,0
DA:433,1
DA:434,0
DA:435,4
DA:436,6
DA:438,0
DA:439,0
DA:440,0
DA:442,0
DA:443,0
DA:444,0
DA:446,0
DA:447,0
DA:448,0
DA:450,0
DA:451,0
DA:452,0
DA:453,0
DA:455,147
DA:459,18
DA:460,14
DA:461,18
DA:462,18
DA:463,16
DA:464,16
DA:465,16
DA:466,16
DA:467,16
DA:468,16
DA:469,16
DA:470,16
DA:471,16
DA:472,16
DA:473,16
DA:474,16
DA:475,16
DA:476,16
DA:477,16
DA:478,16
DA:479,16
DA:480,16
DA:481,16
DA:482,16
DA:483,16
DA:484,16
DA:485,16
DA:486,16
DA:487,16
DA:488,15
DA:489,14
DA:490,13
DA:491,12
DA:492,11
DA:493,10
DA:494,10
DA:495,10
DA:496,10
DA:497,10
DA:498,10
DA:499,8
DA:500,7
DA:501,6
DA:502,5
DA:503,4
DA:504,4
DA:505,4
DA:506,4
DA:507,4
DA:508,4
DA:509,4
DA:510,4
DA:511,4
DA:512,4
DA:513,4
DA:514,4
DA:515,4
DA:516,4
DA:517,4
DA:518,4
DA:519,4
DA:520,4
DA:521,4
DA:522,4
DA:523,4
DA:524,4
DA:525,4
DA:526,4
DA:527,4
DA:528,4
DA:529,4
DA:530,4
DA:531,4
DA:532,4
DA:533,4
DA:534,4
DA:535,4
DA:537,18
DA:540,35
DA:541,35
DA:542,35
DA:543,32
DA:544,30
DA:545,29
DA:546,28
DA:547,28
DA:548,28
DA:549,27
DA:550,26
DA:551,25
DA:552,24
DA:553,23
DA:554,22
DA:555,21
DA:556,20
DA:557,20
DA:558,20
DA:559,20
DA:560,20
DA:561,20
DA:562,20
DA:563,20
DA:564,20
DA:565,20
DA:566,19
DA:567,18
DA:568,17
DA:569,17
DA:570,17
DA:571,17
DA:572,17
DA:573,17
DA:574,17
DA:575,16
DA:576,15
DA:577,14
DA:578,13
DA:579,12
DA:580,10
DA:581,8
DA:582,8
DA:583,8
DA:584,8
DA:585,8
DA:586,8
DA:587,7
DA:588,6
DA:589,5
DA:590,4
DA:591,3
DA:592,3
DA:593,3
DA:594,3
DA:595,3
DA:596,3
DA:597,3
DA:598,3
DA:599,3
DA:600,3
DA:601,3
DA:602,3
DA:603,3
DA:604,3
DA:605,3
DA:606,3
DA:607,3
DA:608,3
DA:609,3
DA:610,3
DA:611,3
DA:612,3
DA:613,3
DA:614,3
DA:615,3
DA:616,3
DA:617,3
DA:618,3
DA:619,3
DA:620,3
DA:621,3
DA:622,3
DA:623,3
DA:624,3
DA:625,3
DA:626,3
DA:627,3
DA:628,3
DA:629,3
DA:630,3
DA:631,3
DA:632,3
DA:633,3
DA:635,35
DA:642,1
DA:643,1
DA:644,1
DA:645,1
DA:646,1
DA:649,1
DA:650,1
DA:653,1
DA:654,1
DA:657,1
DA:658,1
DA:659,1
DA:660,1
DA:661,1
DA:662,1
DA:663,1
DA:664,1
DA:665,1
DA:666,1
DA:667,1
DA:668,1
DA:669,1
DA:670,1
DA:671,1
DA:672,1
DA:675,1
DA:676,1
DA:677,1
DA:678,1
DA:679,1
DA:680,1
DA:681,1
DA:682,1
DA:683,1
DA:684,1
DA:685,1
DA:688,1
DA:689,1
DA:690,1
DA:691,1
DA:692,1
DA:693,1
DA:694,1
DA:695,1
DA:696,1
DA:697,1
DA:698,1
DA:699,1
DA:700,1
DA:701,1
DA:702,1
DA:705,1
DA:706,1
DA:707,1
DA:708,1
DA:709,1
DA:710,1
DA:713,1
DA:714,1
DA:715,1
DA:716,1
DA:717,1
DA:718,1
DA:719,1
DA:722,1
DA:723,1
DA:724,1
DA:725,1
DA:726,1
DA:729,1
DA:730,1
DA:731,1
DA:732,1
DA:735,1
DA:736,1
DA:737,1
DA:738,1
DA:739,1
DA:742,1
DA:743,1
DA:744,1
DA:745,1
DA:746,1
DA:747,1
DA:748,1
DA:751,1
DA:753,1
DA:754,1
DA:755,1
DA:756,1
DA:757,1
DA:760,1
DA:761,1
DA:764,1
DA:765,1
DA:766,1
DA:769,1
DA:770,1
DA:771,1
DA:772,1
DA:775,1
DA:776,1
DA:777,1
DA:778,1
DA:779,1
DA:780,1
DA:781,1
DA:784,1
DA:786,1
DA:787,1
DA:788,1
DA:789,1
DA:790,1
DA:793,1
DA:794,1
DA:795,1
DA:796,1
DA:797,1
DA:800,1
DA:801,1
DA:802,1
DA:805,1
DA:806,1
DA:807,1
DA:808,1
DA:809,1
DA:810,1
DA:811,1
DA:814,1
DA:817,1
DA:818,1
DA:819,1
DA:822,1
DA:823,1
DA:824,1
DA:825,1
DA:828,1
DA:829,1
DA:830,1
DA:833,1
DA:834,1
DA:835,1
DA:836,1
DA:837,1
BRF:0
BRH:0
LF:517
LH:381
end_of_record