SF:/home/openclaw/dev/yinglichina8848/sqlrustgo/crates/distributed/src/distributed_lock.rs
FN:207,_RNCNvMs_NtCsgL00ocYfxWJ_21sqlrustgo_distributed16distributed_lockNtB6_22DistributedLockManager27release_all_for_transaction0B8_
FN:208,_RNCNvMs_NtCsgL00ocYfxWJ_21sqlrustgo_distributed16distributed_lockNtB6_22DistributedLockManager27release_all_for_transactions_0B8_
FN:316,_RNvNtNtCsgL00ocYfxWJ_21sqlrustgo_distributed16distributed_lock5testss_16test_extend_lock
FN:304,_RNvNtNtCsgL00ocYfxWJ_21sqlrustgo_distributed16distributed_lock5testss_16test_lock_expiry
FN:277,_RNvNtNtCsgL00ocYfxWJ_21sqlrustgo_distributed16distributed_lock5testss_16test_lock_unlock
FN:345,_RNvNtNtCsgL00ocYfxWJ_21sqlrustgo_distributed16distributed_lock5testss_19test_lock_entry_new
FN:296,_RNvNtNtCsgL00ocYfxWJ_21sqlrustgo_distributed16distributed_lock5testss_21test_unlock_not_owner
FN:288,_RNvNtNtCsgL00ocYfxWJ_21sqlrustgo_distributed16distributed_lock5testss_24test_lock_already_locked
FN:368,_RNvNtNtCsgL00ocYfxWJ_21sqlrustgo_distributed16distributed_lock5testss_25test_lock_entry_no_expiry
FN:361,_RNvNtNtCsgL00ocYfxWJ_21sqlrustgo_distributed16distributed_lock5testss_26test_lock_entry_is_expired
FN:355,_RNvNtNtCsgL00ocYfxWJ_21sqlrustgo_distributed16distributed_lock5testss_27test_lock_entry_with_expiry
FN:331,_RNvNtNtCsgL00ocYfxWJ_21sqlrustgo_distributed16distributed_lock5testss_32test_release_all_for_transaction
FN:374,_RNvNtNtCsgL00ocYfxWJ_21sqlrustgo_distributed16distributed_lock5testss_34test_try_lock_same_owner_reentrant
FN:225,_RNCNvMs_NtCsgL00ocYfxWJ_21sqlrustgo_distributed16distributed_lockNtB6_22DistributedLockManager13get_lock_info0B8_
FN:140,_RNCNvMs_NtCsgL00ocYfxWJ_21sqlrustgo_distributed16distributed_lockNtB6_22DistributedLockManager14get_lock_owner0B8_
FN:238,_RNCNvMs_NtCsgL00ocYfxWJ_21sqlrustgo_distributed16distributed_lockNtB6_22DistributedLockManager14list_all_locks0B8_
FN:74,_RNvMs_NtCsgL00ocYfxWJ_21sqlrustgo_distributed16distributed_lockNtB4_22DistributedLockManager12with_timeout
FN:223,_RNvMs_NtCsgL00ocYfxWJ_21sqlrustgo_distributed16distributed_lockNtB4_22DistributedLockManager13get_lock_info
FN:186,_RNvMs_NtCsgL00ocYfxWJ_21sqlrustgo_distributed16distributed_lockNtB4_22DistributedLockManager14check_timeouts
FN:139,_RNvMs_NtCsgL00ocYfxWJ_21sqlrustgo_distributed16distributed_lockNtB4_22DistributedLockManager14get_lock_owner
FN:234,_RNvMs_NtCsgL00ocYfxWJ_21sqlrustgo_distributed16distributed_lockNtB4_22DistributedLockManager14list_all_locks
FN:173,_RNvMs_NtCsgL00ocYfxWJ_21sqlrustgo_distributed16distributed_lockNtB4_22DistributedLockManager19add_pending_request
FN:219,_RNvMs_NtCsgL00ocYfxWJ_21sqlrustgo_distributed16distributed_lockNtB4_22DistributedLockManager9num_locks
FN:250,_RNvXs0_NtCsgL00ocYfxWJ_21sqlrustgo_distributed16distributed_lockNtB5_22DistributedLockManagerNtNtCs8nPosuWgJFh_4core7default7Default7default
FN:37,_RNvMNtCsgL00ocYfxWJ_21sqlrustgo_distributed16distributed_lockNtB2_9LockEntry10is_expired
FN:32,_RNvMNtCsgL00ocYfxWJ_21sqlrustgo_distributed16distributed_lockNtB2_9LockEntry11with_expiry
FN:22,_RNvMNtCsgL00ocYfxWJ_21sqlrustgo_distributed16distributed_lockNtB2_9LockEntry3new
FN:143,_RNvMs_NtCsgL00ocYfxWJ_21sqlrustgo_distributed16distributed_lockNtB4_22DistributedLockManager11extend_lock
FN:95,_RNvMs_NtCsgL00ocYfxWJ_21sqlrustgo_distributed16distributed_lockNtB4_22DistributedLockManager17try_lock_with_ttl
FN:161,_RNvMs_NtCsgL00ocYfxWJ_21sqlrustgo_distributed16distributed_lockNtB4_22DistributedLockManager24process_pending_requests
FN:203,_RNvMs_NtCsgL00ocYfxWJ_21sqlrustgo_distributed16distributed_lockNtB4_22DistributedLockManager27release_all_for_transaction
FN:66,_RNvMs_NtCsgL00ocYfxWJ_21sqlrustgo_distributed16distributed_lockNtB4_22DistributedLockManager3new
FN:117,_RNvMs_NtCsgL00ocYfxWJ_21sqlrustgo_distributed16distributed_lockNtB4_22DistributedLockManager6unlock
FN:79,_RNvMs_NtCsgL00ocYfxWJ_21sqlrustgo_distributed16distributed_lockNtB4_22DistributedLockManager8try_lock
FN:131,_RNvMs_NtCsgL00ocYfxWJ_21sqlrustgo_distributed16distributed_lockNtB4_22DistributedLockManager9is_locked
FN:265,_RNvNtCsgL00ocYfxWJ_21sqlrustgo_distributed16distributed_lock17current_timestamp
FNDA:3,_RNCNvMs_NtCsgL00ocYfxWJ_21sqlrustgo_distributed16distributed_lockNtB6_22DistributedLockManager27release_all_for_transaction0B8_
FNDA:2,_RNCNvMs_NtCsgL00ocYfxWJ_21sqlrustgo_distributed16distributed_lockNtB6_22DistributedLockManager27release_all_for_transactions_0B8_
FNDA:1,_RNvNtNtCsgL00ocYfxWJ_21sqlrustgo_distributed16distributed_lock5testss_16test_extend_lock
FNDA:1,_RNvNtNtCsgL00ocYfxWJ_21sqlrustgo_distributed16distributed_lock5testss_16test_lock_expiry
FNDA:1,_RNvNtNtCsgL00ocYfxWJ_21sqlrustgo_distributed16distributed_lock5testss_16test_lock_unlock
FNDA:1,_RNvNtNtCsgL00ocYfxWJ_21sqlrustgo_distributed16distributed_lock5testss_19test_lock_entry_new
FNDA:1,_RNvNtNtCsgL00ocYfxWJ_21sqlrustgo_distributed16distributed_lock5testss_21test_unlock_not_owner
FNDA:1,_RNvNtNtCsgL00ocYfxWJ_21sqlrustgo_distributed16distributed_lock5testss_24test_lock_already_locked
FNDA:1,_RNvNtNtCsgL00ocYfxWJ_21sqlrustgo_distributed16distributed_lock5testss_25test_lock_entry_no_expiry
FNDA:1,_RNvNtNtCsgL00ocYfxWJ_21sqlrustgo_distributed16distributed_lock5testss_26test_lock_entry_is_expired
FNDA:1,_RNvNtNtCsgL00ocYfxWJ_21sqlrustgo_distributed16distributed_lock5testss_27test_lock_entry_with_expiry
FNDA:1,_RNvNtNtCsgL00ocYfxWJ_21sqlrustgo_distributed16distributed_lock5testss_32test_release_all_for_transaction
FNDA:1,_RNvNtNtCsgL00ocYfxWJ_21sqlrustgo_distributed16distributed_lock5testss_34test_try_lock_same_owner_reentrant
FNDA:0,_RNCNvMs_NtCsgL00ocYfxWJ_21sqlrustgo_distributed16distributed_lockNtB6_22DistributedLockManager13get_lock_info0B8_
FNDA:0,_RNCNvMs_NtCsgL00ocYfxWJ_21sqlrustgo_distributed16distributed_lockNtB6_22DistributedLockManager14get_lock_owner0B8_
FNDA:0,_RNCNvMs_NtCsgL00ocYfxWJ_21sqlrustgo_distributed16distributed_lockNtB6_22DistributedLockManager14list_all_locks0B8_
FNDA:0,_RNvMs_NtCsgL00ocYfxWJ_21sqlrustgo_distributed16distributed_lockNtB4_22DistributedLockManager12with_timeout
FNDA:0,_RNvMs_NtCsgL00ocYfxWJ_21sqlrustgo_distributed16distributed_lockNtB4_22DistributedLockManager13get_lock_info
FNDA:0,_RNvMs_NtCsgL00ocYfxWJ_21sqlrustgo_distributed16distributed_lockNtB4_22DistributedLockManager14check_timeouts
FNDA:0,_RNvMs_NtCsgL00ocYfxWJ_21sqlrustgo_distributed16distributed_lockNtB4_22DistributedLockManager14get_lock_owner
FNDA:0,_RNvMs_NtCsgL00ocYfxWJ_21sqlrustgo_distributed16distributed_lockNtB4_22DistributedLockManager14list_all_locks
FNDA:0,_RNvMs_NtCsgL00ocYfxWJ_21sqlrustgo_distributed16distributed_lockNtB4_22DistributedLockManager19add_pending_request
FNDA:0,_RNvMs_NtCsgL00ocYfxWJ_21sqlrustgo_distributed16distributed_lockNtB4_22DistributedLockManager9num_locks
FNDA:0,_RNvXs0_NtCsgL00ocYfxWJ_21sqlrustgo_distributed16distributed_lockNtB5_22DistributedLockManagerNtNtCs8nPosuWgJFh_4core7default7Default7default
FNDA:11,_RNvMNtCsgL00ocYfxWJ_21sqlrustgo_distributed16distributed_lockNtB2_9LockEntry10is_expired
FNDA:5,_RNvMNtCsgL00ocYfxWJ_21sqlrustgo_distributed16distributed_lockNtB2_9LockEntry11with_expiry
FNDA:14,_RNvMNtCsgL00ocYfxWJ_21sqlrustgo_distributed16distributed_lockNtB2_9LockEntry3new
FNDA:1,_RNvMs_NtCsgL00ocYfxWJ_21sqlrustgo_distributed16distributed_lockNtB4_22DistributedLockManager11extend_lock
FNDA:3,_RNvMs_NtCsgL00ocYfxWJ_21sqlrustgo_distributed16distributed_lockNtB4_22DistributedLockManager17try_lock_with_ttl
FNDA:3,_RNvMs_NtCsgL00ocYfxWJ_21sqlrustgo_distributed16distributed_lockNtB4_22DistributedLockManager24process_pending_requests
FNDA:1,_RNvMs_NtCsgL00ocYfxWJ_21sqlrustgo_distributed16distributed_lockNtB4_22DistributedLockManager27release_all_for_transaction
FNDA:7,_RNvMs_NtCsgL00ocYfxWJ_21sqlrustgo_distributed16distributed_lockNtB4_22DistributedLockManager3new
FNDA:2,_RNvMs_NtCsgL00ocYfxWJ_21sqlrustgo_distributed16distributed_lockNtB4_22DistributedLockManager6unlock
FNDA:9,_RNvMs_NtCsgL00ocYfxWJ_21sqlrustgo_distributed16distributed_lockNtB4_22DistributedLockManager8try_lock
FNDA:8,_RNvMs_NtCsgL00ocYfxWJ_21sqlrustgo_distributed16distributed_lockNtB4_22DistributedLockManager9is_locked
FNDA:25,_RNvNtCsgL00ocYfxWJ_21sqlrustgo_distributed16distributed_lock17current_timestamp
FNF:36
FNH:25
DA:22,14
DA:23,14
DA:24,14
DA:25,14
DA:26,14
DA:27,14
DA:28,14
DA:29,14
DA:30,14
DA:32,5
DA:33,5
DA:34,5
DA:35,5
DA:37,11
DA:38,11
DA:39,5
DA:40,6
DA:41,6
DA:42,11
DA:66,7
DA:67,7
DA:68,7
DA:69,7
DA:70,7
DA:71,7
DA:72,7
DA:74,0
DA:75,0
DA:76,0
DA:77,0
DA:79,9
DA:80,9
DA:81,2
DA:82,0
DA:83,2
DA:84,1
DA:86,1
DA:88,7
DA:90,7
DA:91,7
DA:92,7
DA:93,9
DA:95,3
DA:96,3
DA:97,3
DA:98,3
DA:99,3
DA:100,3
DA:101,3
DA:102,3
DA:103,1
DA:104,1
DA:105,1
DA:106,0
DA:108,0
DA:110,2
DA:112,3
DA:113,3
DA:114,3
DA:115,3
DA:117,2
DA:118,2
DA:119,2
DA:120,1
DA:121,1
DA:122,1
DA:124,1
DA:127,0
DA:129,2
DA:131,8
DA:132,8
DA:133,5
DA:135,3
DA:137,8
DA:139,0
DA:140,0
DA:141,0
DA:143,1
DA:144,1
DA:145,1
DA:146,1
DA:147,1
DA:148,1
DA:149,1
DA:150,1
DA:151,1
DA:152,1
DA:153,1
DA:155,0
DA:157,0
DA:158,0
DA:159,1
DA:161,3
DA:162,3
DA:163,0
DA:164,0
DA:165,0
DA:166,0
DA:167,0
DA:168,0
DA:170,3
DA:171,3
DA:173,0
DA:174,0
DA:175,0
DA:176,0
DA:177,0
DA:178,0
DA:180,0
DA:181,0
DA:182,0
DA:183,0
DA:184,0
DA:186,0
DA:187,0
DA:189,0
DA:190,0
DA:191,0
DA:192,0
DA:195,0
DA:196,0
DA:197,0
DA:198,0
DA:200,0
DA:201,0
DA:203,1
DA:204,1
DA:205,1
DA:206,1
DA:207,3
DA:208,2
DA:209,1
DA:211,2
DA:212,2
DA:213,2
DA:214,2
DA:216,1
DA:217,1
DA:219,0
DA:220,0
DA:221,0
DA:223,0
DA:224,0
DA:225,0
DA:226,0
DA:227,0
DA:228,0
DA:229,0
DA:230,0
DA:231,0
DA:232,0
DA:234,0
DA:235,0
DA:236,0
DA:237,0
DA:238,0
DA:239,0
DA:240,0
DA:241,0
DA:242,0
DA:243,0
DA:244,0
DA:245,0
DA:246,0
DA:250,0
DA:251,0
DA:252,0
DA:265,25
DA:266,25
DA:267,25
DA:268,25
DA:269,25
DA:270,25
DA:277,1
DA:278,1
DA:280,1
DA:281,1
DA:283,1
DA:284,1
DA:285,1
DA:288,1
DA:289,1
DA:291,1
DA:292,1
DA:293,1
DA:296,1
DA:297,1
DA:299,1
DA:300,1
DA:301,1
DA:304,1
DA:305,1
DA:307,1
DA:308,1
DA:310,1
DA:312,1
DA:313,1
DA:316,1
DA:317,1
DA:319,1
DA:321,1
DA:323,1
DA:325,1
DA:326,1
DA:327,1
DA:328,1
DA:331,1
DA:332,1
DA:334,1
DA:335,1
DA:336,1
DA:338,1
DA:339,1
DA:340,1
DA:341,1
DA:342,1
DA:345,1
DA:346,1
DA:347,1
DA:348,1
DA:349,1
DA:350,1
DA:351,1
DA:352,1
DA:355,1
DA:356,1
DA:357,1
DA:358,1
DA:361,1
DA:362,1
DA:363,1
DA:364,1
DA:365,1
DA:368,1
DA:369,1
DA:370,1
DA:371,1
DA:374,1
DA:375,1
DA:377,1
DA:378,1
DA:379,1
BRF:0
BRH:0
LF:245
LH:172
end_of_record
SF:/home/openclaw/dev/yinglichina8848/sqlrustgo/crates/distributed/src/partition.rs
FN:172,_RNvNtNtCsgL00ocYfxWJ_21sqlrustgo_distributed9partition5testss_19test_calculate_hash
FN:127,_RNvNtNtCsgL00ocYfxWJ_21sqlrustgo_distributed9partition5testss_20test_range_partition
FN:155,_RNvNtNtCsgL00ocYfxWJ_21sqlrustgo_distributed9partition5testss_23test_partition_key_hash
FN:221,_RNvNtNtCsgL00ocYfxWJ_21sqlrustgo_distributed9partition5testss_24test_partition_key_debug
FN:162,_RNvNtNtCsgL00ocYfxWJ_21sqlrustgo_distributed9partition5testss_24test_partition_key_range
FN:149,_RNvNtNtCsgL00ocYfxWJ_21sqlrustgo_distributed9partition5testss_26test_range_partition_empty
FN:110,_RNvNtNtCsgL00ocYfxWJ_21sqlrustgo_distributed9partition5testss_27test_hash_partition_integer
FN:120,_RNvNtNtCsgL00ocYfxWJ_21sqlrustgo_distributed9partition5testss_28test_hash_partition_negative
FN:182,_RNvNtNtCsgL00ocYfxWJ_21sqlrustgo_distributed9partition5testss_29test_partition_value_from_i64
FN:194,_RNvNtNtCsgL00ocYfxWJ_21sqlrustgo_distributed9partition5testss_30test_partition_value_abs_value
FN:188,_RNvNtNtCsgL00ocYfxWJ_21sqlrustgo_distributed9partition5testss_30test_partition_value_from_text
FN:212,_RNvNtNtCsgL00ocYfxWJ_21sqlrustgo_distributed9partition5testss_31test_partition_strategy_default
FN:206,_RNvNtNtCsgL00ocYfxWJ_21sqlrustgo_distributed9partition5testss_38test_range_partition_text_returns_none
FN:57,_RNvMs0_NtCsgL00ocYfxWJ_21sqlrustgo_distributed9partitionNtB5_14PartitionValue8from_i64
FN:65,_RNvMs0_NtCsgL00ocYfxWJ_21sqlrustgo_distributed9partitionNtB5_14PartitionValue9abs_value
FN:61,_RNvMs0_NtCsgL00ocYfxWJ_21sqlrustgo_distributed9partitionNtB5_14PartitionValue9from_text
FN:28,_RNvMs_NtCsgL00ocYfxWJ_21sqlrustgo_distributed9partitionNtB4_12PartitionKey8new_hash
FN:35,_RNvMs_NtCsgL00ocYfxWJ_21sqlrustgo_distributed9partitionNtB4_12PartitionKey9new_range
FN:42,_RNvMs_NtCsgL00ocYfxWJ_21sqlrustgo_distributed9partitionNtB4_12PartitionKey9partition
FN:99,_RNvNtCsgL00ocYfxWJ_21sqlrustgo_distributed9partition14calculate_hash
FN:73,_RNvNtCsgL00ocYfxWJ_21sqlrustgo_distributed9partition14hash_partition
FN:80,_RNvNtCsgL00ocYfxWJ_21sqlrustgo_distributed9partition15range_partition
FN:16,_RNvXNtCsgL00ocYfxWJ_21sqlrustgo_distributed9partitionNtB2_17PartitionStrategyNtNtCs8nPosuWgJFh_4core7default7Default7default
FNDA:1,_RNvNtNtCsgL00ocYfxWJ_21sqlrustgo_distributed9partition5testss_19test_calculate_hash
FNDA:1,_RNvNtNtCsgL00ocYfxWJ_21sqlrustgo_distributed9partition5testss_20test_range_partition
FNDA:1,_RNvNtNtCsgL00ocYfxWJ_21sqlrustgo_distributed9partition5testss_23test_partition_key_hash
FNDA:1,_RNvNtNtCsgL00ocYfxWJ_21sqlrustgo_distributed9partition5testss_24test_partition_key_debug
FNDA:1,_RNvNtNtCsgL00ocYfxWJ_21sqlrustgo_distributed9partition5testss_24test_partition_key_range
FNDA:1,_RNvNtNtCsgL00ocYfxWJ_21sqlrustgo_distributed9partition5testss_26test_range_partition_empty
FNDA:1,_RNvNtNtCsgL00ocYfxWJ_21sqlrustgo_distributed9partition5testss_27test_hash_partition_integer
FNDA:1,_RNvNtNtCsgL00ocYfxWJ_21sqlrustgo_distributed9partition5testss_28test_hash_partition_negative
FNDA:1,_RNvNtNtCsgL00ocYfxWJ_21sqlrustgo_distributed9partition5testss_29test_partition_value_from_i64
FNDA:1,_RNvNtNtCsgL00ocYfxWJ_21sqlrustgo_distributed9partition5testss_30test_partition_value_abs_value
FNDA:1,_RNvNtNtCsgL00ocYfxWJ_21sqlrustgo_distributed9partition5testss_30test_partition_value_from_text
FNDA:1,_RNvNtNtCsgL00ocYfxWJ_21sqlrustgo_distributed9partition5testss_31test_partition_strategy_default
FNDA:1,_RNvNtNtCsgL00ocYfxWJ_21sqlrustgo_distributed9partition5testss_38test_range_partition_text_returns_none
FNDA:1,_RNvMs0_NtCsgL00ocYfxWJ_21sqlrustgo_distributed9partitionNtB5_14PartitionValue8from_i64
FNDA:3,_RNvMs0_NtCsgL00ocYfxWJ_21sqlrustgo_distributed9partitionNtB5_14PartitionValue9abs_value
FNDA:1,_RNvMs0_NtCsgL00ocYfxWJ_21sqlrustgo_distributed9partitionNtB5_14PartitionValue9from_text
FNDA:7,_RNvMs_NtCsgL00ocYfxWJ_21sqlrustgo_distributed9partitionNtB4_12PartitionKey8new_hash
FNDA:1,_RNvMs_NtCsgL00ocYfxWJ_21sqlrustgo_distributed9partitionNtB4_12PartitionKey9new_range
FNDA:8,_RNvMs_NtCsgL00ocYfxWJ_21sqlrustgo_distributed9partitionNtB4_12PartitionKey9partition
FNDA:4,_RNvNtCsgL00ocYfxWJ_21sqlrustgo_distributed9partition14calculate_hash
FNDA:7,_RNvNtCsgL00ocYfxWJ_21sqlrustgo_distributed9partition14hash_partition
FNDA:10,_RNvNtCsgL00ocYfxWJ_21sqlrustgo_distributed9partition15range_partition
FNDA:1,_RNvXNtCsgL00ocYfxWJ_21sqlrustgo_distributed9partitionNtB2_17PartitionStrategyNtNtCs8nPosuWgJFh_4core7default7Default7default
FNF:23
FNH:23
DA:16,1
DA:17,1
DA:18,1
DA:28,7
DA:29,7
DA:30,7
DA:31,7
DA:32,7
DA:33,7
DA:35,1
DA:36,1
DA:37,1
DA:38,1
DA:39,1
DA:40,1
DA:42,8
DA:43,8
DA:44,4
DA:45,4
DA:47,8
DA:57,1
DA:58,1
DA:59,1
DA:61,1
DA:62,1
DA:63,1
DA:65,3
DA:66,3
DA:67,2
DA:68,1
DA:70,3
DA:73,7
DA:74,7
DA:75,7
DA:76,0
DA:78,7
DA:80,10
DA:81,10
DA:82,9
DA:83,1
DA:86,9
DA:87,1
DA:88,8
DA:90,18
DA:91,18
DA:92,6
DA:93,12
DA:96,2
DA:97,10
DA:99,4
DA:100,4
DA:101,4
DA:102,4
DA:103,4
DA:110,1
DA:111,1
DA:112,1
DA:113,1
DA:115,1
DA:116,1
DA:117,1
DA:120,1
DA:121,1
DA:122,1
DA:123,1
DA:124,1
DA:127,1
DA:128,1
DA:130,1
DA:131,1
DA:134,1
DA:135,1
DA:138,1
DA:139,1
DA:142,1
DA:143,1
DA:146,1
DA:149,1
DA:150,1
DA:151,1
DA:152,1
DA:155,1
DA:156,1
DA:157,1
DA:158,1
DA:159,1
DA:162,1
DA:163,1
DA:165,1
DA:166,1
DA:167,1
DA:168,1
DA:169,1
DA:172,1
DA:173,1
DA:174,1
DA:175,1
DA:177,1
DA:178,1
DA:179,1
DA:182,1
DA:183,1
DA:184,1
DA:185,1
DA:188,1
DA:189,1
DA:190,1
DA:191,1
DA:194,1
DA:195,1
DA:196,1
DA:198,1
DA:199,1
DA:201,1
DA:202,1
DA:203,1
DA:206,1
DA:207,1
DA:208,1
DA:209,1
DA:212,1
DA:213,1
DA:214,1
DA:215,1
DA:218,1
DA:221,1
DA:222,1
DA:223,1
DA:224,1
DA:225,1
BRF:0
BRH:0
LF:130
LH:129
end_of_record
SF:/home/openclaw/dev/yinglichina8848/sqlrustgo/crates/distributed/src/raft.rs
FN:60,_RNCNvMNtCsgL00ocYfxWJ_21sqlrustgo_distributed4raftNtB4_7RaftLog9get_entry0B6_
FN:76,_RNCNvMNtCsgL00ocYfxWJ_21sqlrustgo_distributed4raftNtB4_7RaftLog14truncate_after0B6_
FN:64,_RNCNvMNtCsgL00ocYfxWJ_21sqlrustgo_distributed4raftNtB4_7RaftLog16get_entries_from0B6_
FN:351,_RNCNvMs0_NtCsgL00ocYfxWJ_21sqlrustgo_distributed4raftNtB7_8RaftNode9replicate0B9_
FN:71,_RNvMNtCsgL00ocYfxWJ_21sqlrustgo_distributed4raftNtB2_7RaftLog13set_committed
FN:75,_RNvMNtCsgL00ocYfxWJ_21sqlrustgo_distributed4raftNtB2_7RaftLog14truncate_after
FN:67,_RNvMNtCsgL00ocYfxWJ_21sqlrustgo_distributed4raftNtB2_7RaftLog15committed_index
FN:63,_RNvMNtCsgL00ocYfxWJ_21sqlrustgo_distributed4raftNtB2_7RaftLog16get_entries_from
FN:367,_RNvMs0_NtCsgL00ocYfxWJ_21sqlrustgo_distributed4raftNtB5_8RaftNode19get_applied_entries
FN:331,_RNvMs0_NtCsgL00ocYfxWJ_21sqlrustgo_distributed4raftNtB5_8RaftNode21should_send_heartbeat
FN:310,_RNvMs0_NtCsgL00ocYfxWJ_21sqlrustgo_distributed4raftNtB5_8RaftNode22check_election_timeout
FN:378,_RNvMs0_NtCsgL00ocYfxWJ_21sqlrustgo_distributed4raftNtB5_8RaftNode9get_state
FN:173,_RNvMs0_NtCsgL00ocYfxWJ_21sqlrustgo_distributed4raftNtB5_8RaftNode9is_leader
FN:338,_RNvMs0_NtCsgL00ocYfxWJ_21sqlrustgo_distributed4raftNtB5_8RaftNode9replicate
FN:81,_RNvXs_NtCsgL00ocYfxWJ_21sqlrustgo_distributed4raftNtB4_7RaftLogNtNtCs8nPosuWgJFh_4core7default7Default7default
FN:432,_RNvNtNtCsgL00ocYfxWJ_21sqlrustgo_distributed4raft5testss_13test_raft_log
FN:448,_RNvNtNtCsgL00ocYfxWJ_21sqlrustgo_distributed4raft5testss_17test_request_vote
FN:423,_RNvNtNtCsgL00ocYfxWJ_21sqlrustgo_distributed4raft5testss_18test_become_leader
FN:414,_RNvNtNtCsgL00ocYfxWJ_21sqlrustgo_distributed4raft5testss_29test_raft_node_initialization
FN:51,_RNvMNtCsgL00ocYfxWJ_21sqlrustgo_distributed4raftNtB2_7RaftLog10last_index
FN:40,_RNvMNtCsgL00ocYfxWJ_21sqlrustgo_distributed4raftNtB2_7RaftLog3new
FN:47,_RNvMNtCsgL00ocYfxWJ_21sqlrustgo_distributed4raftNtB2_7RaftLog6append
FN:59,_RNvMNtCsgL00ocYfxWJ_21sqlrustgo_distributed4raftNtB2_7RaftLog9get_entry
FN:55,_RNvMNtCsgL00ocYfxWJ_21sqlrustgo_distributed4raftNtB2_7RaftLog9last_term
FN:248,_RNvMs0_NtCsgL00ocYfxWJ_21sqlrustgo_distributed4raftNtB5_8RaftNode11count_votes
FN:177,_RNvMs0_NtCsgL00ocYfxWJ_21sqlrustgo_distributed4raftNtB5_8RaftNode13become_leader
FN:196,_RNvMs0_NtCsgL00ocYfxWJ_21sqlrustgo_distributed4raftNtB5_8RaftNode14handle_message
FN:182,_RNvMs0_NtCsgL00ocYfxWJ_21sqlrustgo_distributed4raftNtB5_8RaftNode15become_follower
FN:190,_RNvMs0_NtCsgL00ocYfxWJ_21sqlrustgo_distributed4raftNtB5_8RaftNode16become_candidate
FN:300,_RNvMs0_NtCsgL00ocYfxWJ_21sqlrustgo_distributed4raftNtB5_8RaftNode16handle_heartbeat
FN:207,_RNvMs0_NtCsgL00ocYfxWJ_21sqlrustgo_distributed4raftNtB5_8RaftNode19handle_request_vote
FN:232,_RNvMs0_NtCsgL00ocYfxWJ_21sqlrustgo_distributed4raftNtB5_8RaftNode20handle_vote_response
FN:252,_RNvMs0_NtCsgL00ocYfxWJ_21sqlrustgo_distributed4raftNtB5_8RaftNode21handle_append_entries
FN:285,_RNvMs0_NtCsgL00ocYfxWJ_21sqlrustgo_distributed4raftNtB5_8RaftNode22handle_append_response
FN:144,_RNvMs0_NtCsgL00ocYfxWJ_21sqlrustgo_distributed4raftNtB5_8RaftNode3new
FN:169,_RNvMs0_NtCsgL00ocYfxWJ_21sqlrustgo_distributed4raftNtB5_8RaftNode4term
FN:165,_RNvMs0_NtCsgL00ocYfxWJ_21sqlrustgo_distributed4raftNtB5_8RaftNode5state
FN:161,_RNvMs0_NtCsgL00ocYfxWJ_21sqlrustgo_distributed4raftNtB5_8RaftNode7node_id
FN:398,_RNvNtCsgL00ocYfxWJ_21sqlrustgo_distributed4raft8rand_u64
FNDA:0,_RNCNvMNtCsgL00ocYfxWJ_21sqlrustgo_distributed4raftNtB4_7RaftLog9get_entry0B6_
FNDA:0,_RNCNvMNtCsgL00ocYfxWJ_21sqlrustgo_distributed4raftNtB4_7RaftLog14truncate_after0B6_
FNDA:0,_RNCNvMNtCsgL00ocYfxWJ_21sqlrustgo_distributed4raftNtB4_7RaftLog16get_entries_from0B6_
FNDA:0,_RNCNvMs0_NtCsgL00ocYfxWJ_21sqlrustgo_distributed4raftNtB7_8RaftNode9replicate0B9_
FNDA:0,_RNvMNtCsgL00ocYfxWJ_21sqlrustgo_distributed4raftNtB2_7RaftLog13set_committed
FNDA:0,_RNvMNtCsgL00ocYfxWJ_21sqlrustgo_distributed4raftNtB2_7RaftLog14truncate_after
FNDA:0,_RNvMNtCsgL00ocYfxWJ_21sqlrustgo_distributed4raftNtB2_7RaftLog15committed_index
FNDA:0,_RNvMNtCsgL00ocYfxWJ_21sqlrustgo_distributed4raftNtB2_7RaftLog16get_entries_from
FNDA:0,_RNvMs0_NtCsgL00ocYfxWJ_21sqlrustgo_distributed4raftNtB5_8RaftNode19get_applied_entries
FNDA:0,_RNvMs0_NtCsgL00ocYfxWJ_21sqlrustgo_distributed4raftNtB5_8RaftNode21should_send_heartbeat
FNDA:0,_RNvMs0_NtCsgL00ocYfxWJ_21sqlrustgo_distributed4raftNtB5_8RaftNode22check_election_timeout
FNDA:0,_RNvMs0_NtCsgL00ocYfxWJ_21sqlrustgo_distributed4raftNtB5_8RaftNode9get_state
FNDA:0,_RNvMs0_NtCsgL00ocYfxWJ_21sqlrustgo_distributed4raftNtB5_8RaftNode9is_leader
FNDA:0,_RNvMs0_NtCsgL00ocYfxWJ_21sqlrustgo_distributed4raftNtB5_8RaftNode9replicate
FNDA:0,_RNvXs_NtCsgL00ocYfxWJ_21sqlrustgo_distributed4raftNtB4_7RaftLogNtNtCs8nPosuWgJFh_4core7default7Default7default
FNDA:1,_RNvNtNtCsgL00ocYfxWJ_21sqlrustgo_distributed4raft5testss_13test_raft_log
FNDA:1,_RNvNtNtCsgL00ocYfxWJ_21sqlrustgo_distributed4raft5testss_17test_request_vote
FNDA:1,_RNvNtNtCsgL00ocYfxWJ_21sqlrustgo_distributed4raft5testss_18test_become_leader
FNDA:1,_RNvNtNtCsgL00ocYfxWJ_21sqlrustgo_distributed4raft5testss_29test_raft_node_initialization
FNDA:3,_RNvMNtCsgL00ocYfxWJ_21sqlrustgo_distributed4raftNtB2_7RaftLog10last_index
FNDA:4,_RNvMNtCsgL00ocYfxWJ_21sqlrustgo_distributed4raftNtB2_7RaftLog3new
FNDA:1,_RNvMNtCsgL00ocYfxWJ_21sqlrustgo_distributed4raftNtB2_7RaftLog6append
FNDA:0,_RNvMNtCsgL00ocYfxWJ_21sqlrustgo_distributed4raftNtB2_7RaftLog9get_entry
FNDA:2,_RNvMNtCsgL00ocYfxWJ_21sqlrustgo_distributed4raftNtB2_7RaftLog9last_term
FNDA:0,_RNvMs0_NtCsgL00ocYfxWJ_21sqlrustgo_distributed4raftNtB5_8RaftNode11count_votes
FNDA:1,_RNvMs0_NtCsgL00ocYfxWJ_21sqlrustgo_distributed4raftNtB5_8RaftNode13become_leader
FNDA:1,_RNvMs0_NtCsgL00ocYfxWJ_21sqlrustgo_distributed4raftNtB5_8RaftNode14handle_message
FNDA:1,_RNvMs0_NtCsgL00ocYfxWJ_21sqlrustgo_distributed4raftNtB5_8RaftNode15become_follower
FNDA:1,_RNvMs0_NtCsgL00ocYfxWJ_21sqlrustgo_distributed4raftNtB5_8RaftNode16become_candidate
FNDA:0,_RNvMs0_NtCsgL00ocYfxWJ_21sqlrustgo_distributed4raftNtB5_8RaftNode16handle_heartbeat
FNDA:1,_RNvMs0_NtCsgL00ocYfxWJ_21sqlrustgo_distributed4raftNtB5_8RaftNode19handle_request_vote
FNDA:0,_RNvMs0_NtCsgL00ocYfxWJ_21sqlrustgo_distributed4raftNtB5_8RaftNode20handle_vote_response
FNDA:0,_RNvMs0_NtCsgL00ocYfxWJ_21sqlrustgo_distributed4raftNtB5_8RaftNode21handle_append_entries
FNDA:0,_RNvMs0_NtCsgL00ocYfxWJ_21sqlrustgo_distributed4raftNtB5_8RaftNode22handle_append_response
FNDA:3,_RNvMs0_NtCsgL00ocYfxWJ_21sqlrustgo_distributed4raftNtB5_8RaftNode3new
FNDA:1,_RNvMs0_NtCsgL00ocYfxWJ_21sqlrustgo_distributed4raftNtB5_8RaftNode4term
FNDA:2,_RNvMs0_NtCsgL00ocYfxWJ_21sqlrustgo_distributed4raftNtB5_8RaftNode5state
FNDA:1,_RNvMs0_NtCsgL00ocYfxWJ_21sqlrustgo_distributed4raftNtB5_8RaftNode7node_id
FNDA:3,_RNvNtCsgL00ocYfxWJ_21sqlrustgo_distributed4raft8rand_u64
FNF:39
FNH:18
DA:40,4
DA:41,4
DA:42,4
DA:43,4
DA:44,4
DA:45,4
DA:47,1
DA:48,1
DA:49,1
DA:51,3
DA:52,3
DA:53,3
DA:55,2
DA:56,2
DA:57,2
DA:59,0
DA:60,0
DA:61,0
DA:63,0
DA:64,0
DA:65,0
DA:67,0
DA:68,0
DA:69,0
DA:71,0
DA:72,0
DA:73,0
DA:75,0
DA:76,0
DA:77,0
DA:81,0
DA:82,0
DA:83,0
DA:144,3
DA:145,3
DA:146,3
DA:147,3
DA:148,3
DA:149,3
DA:150,3
DA:151,3
DA:152,3
DA:153,3
DA:154,3
DA:155,3
DA:156,3
DA:157,3
DA:158,3
DA:159,3
DA:161,1
DA:162,1
DA:163,1
DA:165,2
DA:166,2
DA:167,2
DA:169,1
DA:170,1
DA:171,1
DA:173,0
DA:174,0
DA:175,0
DA:177,1
DA:178,1
DA:179,1
DA:180,1
DA:182,1
DA:183,1
DA:184,1
DA:185,1
DA:186,1
DA:187,1
DA:188,1
DA:190,1
DA:191,1
DA:192,1
DA:193,1
DA:194,1
DA:196,1
DA:197,1
DA:198,1
DA:199,0
DA:200,0
DA:201,0
DA:202,0
DA:203,0
DA:205,1
DA:207,1
DA:208,1
DA:209,1
DA:210,1
DA:212,1
DA:213,1
DA:214,1
DA:215,1
DA:217,1
DA:218,1
DA:220,0
DA:223,1
DA:224,1
DA:225,1
DA:226,1
DA:227,1
DA:228,1
DA:229,1
DA:230,1
DA:232,0
DA:233,0
DA:234,0
DA:235,0
DA:236,0
DA:238,0
DA:239,0
DA:240,0
DA:241,0
DA:242,0
DA:243,0
DA:245,0
DA:246,0
DA:248,0
DA:249,0
DA:250,0
DA:252,0
DA:253,0
DA:254,0
DA:255,0
DA:257,0
DA:258,0
DA:260,0
DA:261,0
DA:262,0
DA:263,0
DA:264,0
DA:265,0
DA:266,0
DA:268,0
DA:271,0
DA:272,0
DA:274,0
DA:275,0
DA:276,0
DA:277,0
DA:279,0
DA:283,0
DA:285,0
DA:286,0
DA:287,0
DA:288,0
DA:289,0
DA:290,0
DA:291,0
DA:293,0
DA:294,0
DA:295,0
DA:297,0
DA:298,0
DA:300,0
DA:301,0
DA:302,0
DA:303,0
DA:304,0
DA:306,0
DA:307,0
DA:308,0
DA:310,0
DA:311,0
DA:312,0
DA:313,0
DA:315,0
DA:316,0
DA:317,0
DA:318,0
DA:320,0
DA:321,0
DA:322,0
DA:323,0
DA:324,0
DA:325,0
DA:327,0
DA:329,0
DA:331,0
DA:332,0
DA:333,0
DA:334,0
DA:335,0
DA:336,0
DA:338,0
DA:339,0
DA:340,0
DA:341,0
DA:343,0
DA:344,0
DA:345,0
DA:346,0
DA:347,0
DA:349,0
DA:350,0
DA:351,0
DA:352,0
DA:353,0
DA:354,0
DA:355,0
DA:356,0
DA:357,0
DA:358,0
DA:359,0
DA:360,0
DA:361,0
DA:362,0
DA:363,0
DA:364,0
DA:365,0
DA:367,0
DA:368,0
DA:369,0
DA:370,0
DA:371,0
DA:372,0
DA:373,0
DA:375,0
DA:376,0
DA:378,0
DA:379,0
DA:380,0
DA:381,0
DA:382,0
DA:383,0
DA:384,0
DA:385,0
DA:386,0
DA:398,3
DA:403,3
DA:404,3
DA:405,3
DA:406,3
DA:407,3
DA:414,1
DA:415,1
DA:417,1
DA:418,1
DA:419,1
DA:420,1
DA:423,1
DA:424,1
DA:425,1
DA:426,1
DA:428,1
DA:429,1
DA:432,1
DA:433,1
DA:435,1
DA:437,1
DA:438,1
DA:439,1
DA:440,1
DA:441,1
DA:443,1
DA:444,1
DA:445,1
DA:448,1
DA:449,1
DA:451,1
DA:452,1
DA:453,1
DA:454,1
DA:455,1
DA:456,1
DA:458,1
DA:460,1
DA:461,1
DA:463,0
DA:465,1
BRF:0
BRH:0
LF:275
LH:119
end_of_record
SF:/home/openclaw/dev/yinglichina8848/sqlrustgo/crates/distributed/src/shard_manager.rs
FN:204,_RNvNtNtCsgL00ocYfxWJ_21sqlrustgo_distributed13shard_manager5testss_17test_create_shard
FN:250,_RNvNtNtCsgL00ocYfxWJ_21sqlrustgo_distributed13shard_manager5testss_17test_shard_status
FN:226,_RNvNtNtCsgL00ocYfxWJ_21sqlrustgo_distributed13shard_manager5testss_19test_partition_rule
FN:214,_RNvNtNtCsgL00ocYfxWJ_21sqlrustgo_distributed13shard_manager5testss_19test_shard_replicas
FN:237,_RNvNtNtCsgL00ocYfxWJ_21sqlrustgo_distributed13shard_manager5testss_28test_initialize_table_shards
FN:148,_RNCNCNvMs0_NtCsgL00ocYfxWJ_21sqlrustgo_distributed13shard_managerNtB9_12ShardManager18get_shards_by_node00Bb_
FN:138,_RNCNvMs0_NtCsgL00ocYfxWJ_21sqlrustgo_distributed13shard_managerNtB7_12ShardManager17get_active_shards0B9_
FN:145,_RNCNvMs0_NtCsgL00ocYfxWJ_21sqlrustgo_distributed13shard_managerNtB7_12ShardManager18get_shards_by_node0B9_
FN:156,_RNCNvMs0_NtCsgL00ocYfxWJ_21sqlrustgo_distributed13shard_managerNtB7_12ShardManager22remove_node_from_shard0B9_
FN:113,_RNvMs0_NtCsgL00ocYfxWJ_21sqlrustgo_distributed13shard_managerNtB5_12ShardManager10get_shards
FN:109,_RNvMs0_NtCsgL00ocYfxWJ_21sqlrustgo_distributed13shard_managerNtB5_12ShardManager13get_shard_mut
FN:117,_RNvMs0_NtCsgL00ocYfxWJ_21sqlrustgo_distributed13shard_managerNtB5_12ShardManager15get_node_shards
FN:135,_RNvMs0_NtCsgL00ocYfxWJ_21sqlrustgo_distributed13shard_managerNtB5_12ShardManager17get_active_shards
FN:142,_RNvMs0_NtCsgL00ocYfxWJ_21sqlrustgo_distributed13shard_managerNtB5_12ShardManager18get_shards_by_node
FN:88,_RNvMs0_NtCsgL00ocYfxWJ_21sqlrustgo_distributed13shard_managerNtB5_12ShardManager19with_default_shards
FN:154,_RNvMs0_NtCsgL00ocYfxWJ_21sqlrustgo_distributed13shard_managerNtB5_12ShardManager22remove_node_from_shard
FN:169,_RNvMs0_NtCsgL00ocYfxWJ_21sqlrustgo_distributed13shard_managerNtB5_12ShardManager9num_nodes
FN:193,_RNvXs1_NtCsgL00ocYfxWJ_21sqlrustgo_distributed13shard_managerNtB5_12ShardManagerNtNtCs8nPosuWgJFh_4core7default7Default7default
FN:44,_RNvMNtCsgL00ocYfxWJ_21sqlrustgo_distributed13shard_managerNtB2_9ShardInfo11add_replica
FN:50,_RNvMNtCsgL00ocYfxWJ_21sqlrustgo_distributed13shard_managerNtB2_9ShardInfo12primary_node
FN:39,_RNvMNtCsgL00ocYfxWJ_21sqlrustgo_distributed13shard_managerNtB2_9ShardInfo14with_partition
FN:30,_RNvMNtCsgL00ocYfxWJ_21sqlrustgo_distributed13shard_managerNtB2_9ShardInfo3new
FN:165,_RNvMs0_NtCsgL00ocYfxWJ_21sqlrustgo_distributed13shard_managerNtB5_12ShardManager10num_shards
FN:93,_RNvMs0_NtCsgL00ocYfxWJ_21sqlrustgo_distributed13shard_managerNtB5_12ShardManager12create_shard
FN:129,_RNvMs0_NtCsgL00ocYfxWJ_21sqlrustgo_distributed13shard_managerNtB5_12ShardManager16set_shard_status
FN:125,_RNvMs0_NtCsgL00ocYfxWJ_21sqlrustgo_distributed13shard_managerNtB5_12ShardManager17get_partition_key
FN:121,_RNvMs0_NtCsgL00ocYfxWJ_21sqlrustgo_distributed13shard_managerNtB5_12ShardManager18add_partition_rule
FN:173,_RNvMs0_NtCsgL00ocYfxWJ_21sqlrustgo_distributed13shard_managerNtB5_12ShardManager23initialize_table_shards
FN:79,_RNvMs0_NtCsgL00ocYfxWJ_21sqlrustgo_distributed13shard_managerNtB5_12ShardManager3new
FN:105,_RNvMs0_NtCsgL00ocYfxWJ_21sqlrustgo_distributed13shard_managerNtB5_12ShardManager9get_shard
FN:62,_RNvMs_NtCsgL00ocYfxWJ_21sqlrustgo_distributed13shard_managerNtB4_13PartitionRule3new
FNDA:1,_RNvNtNtCsgL00ocYfxWJ_21sqlrustgo_distributed13shard_manager5testss_17test_create_shard
FNDA:1,_RNvNtNtCsgL00ocYfxWJ_21sqlrustgo_distributed13shard_manager5testss_17test_shard_status
FNDA:1,_RNvNtNtCsgL00ocYfxWJ_21sqlrustgo_distributed13shard_manager5testss_19test_partition_rule
FNDA:1,_RNvNtNtCsgL00ocYfxWJ_21sqlrustgo_distributed13shard_manager5testss_19test_shard_replicas
FNDA:1,_RNvNtNtCsgL00ocYfxWJ_21sqlrustgo_distributed13shard_manager5testss_28test_initialize_table_shards
FNDA:0,_RNCNCNvMs0_NtCsgL00ocYfxWJ_21sqlrustgo_distributed13shard_managerNtB9_12ShardManager18get_shards_by_node00Bb_
FNDA:0,_RNCNvMs0_NtCsgL00ocYfxWJ_21sqlrustgo_distributed13shard_managerNtB7_12ShardManager17get_active_shards0B9_
FNDA:0,_RNCNvMs0_NtCsgL00ocYfxWJ_21sqlrustgo_distributed13shard_managerNtB7_12ShardManager18get_shards_by_node0B9_
FNDA:0,_RNCNvMs0_NtCsgL00ocYfxWJ_21sqlrustgo_distributed13shard_managerNtB7_12ShardManager22remove_node_from_shard0B9_
FNDA:0,_RNvMs0_NtCsgL00ocYfxWJ_21sqlrustgo_distributed13shard_managerNtB5_12ShardManager10get_shards
FNDA:0,_RNvMs0_NtCsgL00ocYfxWJ_21sqlrustgo_distributed13shard_managerNtB5_12ShardManager13get_shard_mut
FNDA:0,_RNvMs0_NtCsgL00ocYfxWJ_21sqlrustgo_distributed13shard_managerNtB5_12ShardManager15get_node_shards
FNDA:0,_RNvMs0_NtCsgL00ocYfxWJ_21sqlrustgo_distributed13shard_managerNtB5_12ShardManager17get_active_shards
FNDA:0,_RNvMs0_NtCsgL00ocYfxWJ_21sqlrustgo_distributed13shard_managerNtB5_12ShardManager18get_shards_by_node
FNDA:0,_RNvMs0_NtCsgL00ocYfxWJ_21sqlrustgo_distributed13shard_managerNtB5_12ShardManager19with_default_shards
FNDA:0,_RNvMs0_NtCsgL00ocYfxWJ_21sqlrustgo_distributed13shard_managerNtB5_12ShardManager22remove_node_from_shard
FNDA:0,_RNvMs0_NtCsgL00ocYfxWJ_21sqlrustgo_distributed13shard_managerNtB5_12ShardManager9num_nodes
FNDA:0,_RNvXs1_NtCsgL00ocYfxWJ_21sqlrustgo_distributed13shard_managerNtB5_12ShardManagerNtNtCs8nPosuWgJFh_4core7default7Default7default
FNDA:38,_RNvMNtCsgL00ocYfxWJ_21sqlrustgo_distributed13shard_managerNtB2_9ShardInfo11add_replica
FNDA:27,_RNvMNtCsgL00ocYfxWJ_21sqlrustgo_distributed13shard_managerNtB2_9ShardInfo12primary_node
FNDA:18,_RNvMNtCsgL00ocYfxWJ_21sqlrustgo_distributed13shard_managerNtB2_9ShardInfo14with_partition
FNDA:21,_RNvMNtCsgL00ocYfxWJ_21sqlrustgo_distributed13shard_managerNtB2_9ShardInfo3new
FNDA:2,_RNvMs0_NtCsgL00ocYfxWJ_21sqlrustgo_distributed13shard_managerNtB5_12ShardManager10num_shards
FNDA:21,_RNvMs0_NtCsgL00ocYfxWJ_21sqlrustgo_distributed13shard_managerNtB5_12ShardManager12create_shard
FNDA:2,_RNvMs0_NtCsgL00ocYfxWJ_21sqlrustgo_distributed13shard_managerNtB5_12ShardManager16set_shard_status
FNDA:5,_RNvMs0_NtCsgL00ocYfxWJ_21sqlrustgo_distributed13shard_managerNtB5_12ShardManager17get_partition_key
FNDA:5,_RNvMs0_NtCsgL00ocYfxWJ_21sqlrustgo_distributed13shard_managerNtB5_12ShardManager18add_partition_rule
FNDA:4,_RNvMs0_NtCsgL00ocYfxWJ_21sqlrustgo_distributed13shard_managerNtB5_12ShardManager23initialize_table_shards
FNDA:8,_RNvMs0_NtCsgL00ocYfxWJ_21sqlrustgo_distributed13shard_managerNtB5_12ShardManager3new
FNDA:9,_RNvMs0_NtCsgL00ocYfxWJ_21sqlrustgo_distributed13shard_managerNtB5_12ShardManager9get_shard
FNDA:5,_RNvMs_NtCsgL00ocYfxWJ_21sqlrustgo_distributed13shard_managerNtB4_13PartitionRule3new
FNF:31
FNH:18
DA:30,21
DA:31,21
DA:32,21
DA:33,21
DA:34,21
DA:35,21
DA:36,21
DA:37,21
DA:39,18
DA:40,18
DA:41,18
DA:42,18
DA:44,38
DA:45,38
DA:46,38
DA:47,38
DA:48,38
DA:50,27
DA:51,27
DA:52,27
DA:62,5
DA:63,5
DA:64,5
DA:65,5
DA:66,5
DA:67,5
DA:79,8
DA:80,8
DA:81,8
DA:82,8
DA:83,8
DA:84,8
DA:85,8
DA:86,8
DA:88,0
DA:89,0
DA:90,0
DA:91,0
DA:93,21
DA:94,21
DA:95,21
DA:97,21
DA:98,21
DA:99,21
DA:100,21
DA:101,21
DA:102,21
DA:103,21
DA:105,9
DA:106,9
DA:107,9
DA:109,0
DA:110,0
DA:111,0
DA:113,0
DA:114,0
DA:115,0
DA:117,0
DA:118,0
DA:119,0
DA:121,5
DA:122,5
DA:123,5
DA:125,5
DA:126,5
DA:127,5
DA:129,2
DA:130,2
DA:131,2
DA:132,2
DA:133,2
DA:135,0
DA:136,0
DA:137,0
DA:138,0
DA:139,0
DA:140,0
DA:142,0
DA:143,0
DA:144,0
DA:145,0
DA:146,0
DA:147,0
DA:148,0
DA:149,0
DA:150,0
DA:151,0
DA:152,0
DA:154,0
DA:155,0
DA:156,0
DA:157,0
DA:158,0
DA:159,0
DA:160,0
DA:161,0
DA:162,0
DA:163,0
DA:165,2
DA:166,2
DA:167,2
DA:169,0
DA:170,0
DA:171,0
DA:173,4
DA:174,4
DA:175,4
DA:177,18
DA:178,18
DA:179,18
DA:181,54
DA:182,54
DA:183,36
DA:184,36
DA:187,18
DA:189,4
DA:193,0
DA:194,0
DA:195,0
DA:204,1
DA:205,1
DA:206,1
DA:207,1
DA:209,1
DA:210,1
DA:211,1
DA:214,1
DA:215,1
DA:216,1
DA:217,1
DA:218,1
DA:219,1
DA:221,1
DA:222,1
DA:223,1
DA:226,1
DA:227,1
DA:228,1
DA:229,1
DA:231,1
DA:232,1
DA:233,1
DA:234,1
DA:237,1
DA:238,1
DA:239,1
DA:240,1
DA:242,1
DA:244,1
DA:245,1
DA:246,1
DA:247,1
DA:250,1
DA:251,1
DA:252,1
DA:254,1
DA:255,1
DA:257,1
DA:258,1
DA:259,1
BRF:0
BRH:0
LF:164
LH:114
end_of_record
SF:/home/openclaw/dev/yinglichina8848/sqlrustgo/crates/distributed/src/shard_router.rs
FN:321,_RNvNtNtCsgL00ocYfxWJ_21sqlrustgo_distributed12shard_router5tests18create_test_router
FN:330,_RNvNtNtCsgL00ocYfxWJ_21sqlrustgo_distributed12shard_router5testss_22test_route_point_query
FN:341,_RNvNtNtCsgL00ocYfxWJ_21sqlrustgo_distributed12shard_router5testss_24test_route_to_all_shards
FN:353,_RNvNtNtCsgL00ocYfxWJ_21sqlrustgo_distributed12shard_router5testss_28test_route_no_partition_rule
FN:72,_RNCNvMs_NtCsgL00ocYfxWJ_21sqlrustgo_distributed12shard_routerNtB6_11ShardRouter17route_point_query0B8_
FN:247,_RNCNvMs_NtCsgL00ocYfxWJ_21sqlrustgo_distributed12shard_routerNtB6_11ShardRouter19route_to_all_shards0B8_
FN:35,_RNvMNtCsgL00ocYfxWJ_21sqlrustgo_distributed12shard_routerNtB2_10RoutedPlan11distributed
FN:63,_RNvMs_NtCsgL00ocYfxWJ_21sqlrustgo_distributed12shard_routerNtB4_11ShardRouter17route_point_query
FN:243,_RNvMs_NtCsgL00ocYfxWJ_21sqlrustgo_distributed12shard_routerNtB4_11ShardRouter19route_to_all_shards
FN:56,_RNvMs_NtCsgL00ocYfxWJ_21sqlrustgo_distributed12shard_routerNtB4_11ShardRouter3new
FN:104,_RNCNvMs_NtCsgL00ocYfxWJ_21sqlrustgo_distributed12shard_routerNtB6_11ShardRouter17route_range_query0B8_
FN:23,_RNvMNtCsgL00ocYfxWJ_21sqlrustgo_distributed12shard_routerNtB2_10RoutedPlan6single
FN:239,_RNvMs_NtCsgL00ocYfxWJ_21sqlrustgo_distributed12shard_routerNtB4_11ShardRouter11route_local
FN:116,_RNvMs_NtCsgL00ocYfxWJ_21sqlrustgo_distributed12shard_routerNtB4_11ShardRouter16route_hash_range
FN:285,_RNvMs_NtCsgL00ocYfxWJ_21sqlrustgo_distributed12shard_routerNtB4_11ShardRouter17get_local_node_id
FN:281,_RNvMs_NtCsgL00ocYfxWJ_21sqlrustgo_distributed12shard_routerNtB4_11ShardRouter17get_shard_manager
FN:94,_RNvMs_NtCsgL00ocYfxWJ_21sqlrustgo_distributed12shard_routerNtB4_11ShardRouter17route_range_query
FN:157,_RNvMs_NtCsgL00ocYfxWJ_21sqlrustgo_distributed12shard_routerNtB4_11ShardRouter20route_range_boundary
FN:299,_RNvXs0_NtCsgL00ocYfxWJ_21sqlrustgo_distributed12shard_routerNtB5_11RouterErrorNtNtCs8nPosuWgJFh_4core3fmt7Display3fmt
FNDA:3,_RNvNtNtCsgL00ocYfxWJ_21sqlrustgo_distributed12shard_router5tests18create_test_router
FNDA:1,_RNvNtNtCsgL00ocYfxWJ_21sqlrustgo_distributed12shard_router5testss_22test_route_point_query
FNDA:1,_RNvNtNtCsgL00ocYfxWJ_21sqlrustgo_distributed12shard_router5testss_24test_route_to_all_shards
FNDA:1,_RNvNtNtCsgL00ocYfxWJ_21sqlrustgo_distributed12shard_router5testss_28test_route_no_partition_rule
FNDA:1,_RNCNvMs_NtCsgL00ocYfxWJ_21sqlrustgo_distributed12shard_routerNtB6_11ShardRouter17route_point_query0B8_
FNDA:0,_RNCNvMs_NtCsgL00ocYfxWJ_21sqlrustgo_distributed12shard_routerNtB6_11ShardRouter19route_to_all_shards0B8_
FNDA:1,_RNvMNtCsgL00ocYfxWJ_21sqlrustgo_distributed12shard_routerNtB2_10RoutedPlan11distributed
FNDA:2,_RNvMs_NtCsgL00ocYfxWJ_21sqlrustgo_distributed12shard_routerNtB4_11ShardRouter17route_point_query
FNDA:1,_RNvMs_NtCsgL00ocYfxWJ_21sqlrustgo_distributed12shard_routerNtB4_11ShardRouter19route_to_all_shards
FNDA:3,_RNvMs_NtCsgL00ocYfxWJ_21sqlrustgo_distributed12shard_routerNtB4_11ShardRouter3new
FNDA:0,_RNCNvMs_NtCsgL00ocYfxWJ_21sqlrustgo_distributed12shard_routerNtB6_11ShardRouter17route_range_query0B8_
FNDA:0,_RNvMNtCsgL00ocYfxWJ_21sqlrustgo_distributed12shard_routerNtB2_10RoutedPlan6single
FNDA:0,_RNvMs_NtCsgL00ocYfxWJ_21sqlrustgo_distributed12shard_routerNtB4_11ShardRouter11route_local
FNDA:0,_RNvMs_NtCsgL00ocYfxWJ_21sqlrustgo_distributed12shard_routerNtB4_11ShardRouter16route_hash_range
FNDA:0,_RNvMs_NtCsgL00ocYfxWJ_21sqlrustgo_distributed12shard_routerNtB4_11ShardRouter17get_local_node_id
FNDA:0,_RNvMs_NtCsgL00ocYfxWJ_21sqlrustgo_distributed12shard_routerNtB4_11ShardRouter17get_shard_manager
FNDA:0,_RNvMs_NtCsgL00ocYfxWJ_21sqlrustgo_distributed12shard_routerNtB4_11ShardRouter17route_range_query
FNDA:0,_RNvMs_NtCsgL00ocYfxWJ_21sqlrustgo_distributed12shard_routerNtB4_11ShardRouter20route_range_boundary
FNDA:0,_RNvXs0_NtCsgL00ocYfxWJ_21sqlrustgo_distributed12shard_routerNtB5_11RouterErrorNtNtCs8nPosuWgJFh_4core3fmt7Display3fmt
FNF:19
FNH:9
DA:23,0
DA:24,0
DA:25,0
DA:26,0
DA:27,0
DA:28,0
DA:29,0
DA:30,0
DA:31,0
DA:32,0
DA:33,0
DA:35,1
DA:36,1
DA:37,1
DA:38,1
DA:39,1
DA:40,1
DA:41,1
DA:56,3
DA:57,3
DA:58,3
DA:59,3
DA:60,3
DA:61,3
DA:63,2
DA:64,2
DA:65,2
DA:66,2
DA:67,2
DA:68,2
DA:69,2
DA:70,2
DA:71,2
DA:72,2
DA:74,1
DA:75,1
DA:76,1
DA:78,1
DA:79,1
DA:80,1
DA:81,1
DA:83,1
DA:84,1
DA:85,1
DA:87,1
DA:88,1
DA:89,1
DA:90,1
DA:91,1
DA:92,2
DA:94,0
DA:95,0
DA:96,0
DA:97,0
DA:98,0
DA:99,0
DA:100,0
DA:101,0
DA:102,0
DA:103,0
DA:104,0
DA:106,0
DA:107,0
DA:108,0
DA:110,0
DA:111,0
DA:114,0
DA:116,0
DA:117,0
DA:118,0
DA:119,0
DA:120,0
DA:121,0
DA:122,0
DA:123,0
DA:124,0
DA:125,0
DA:127,0
DA:128,0
DA:129,0
DA:131,0
DA:132,0
DA:134,0
DA:135,0
DA:136,0
DA:137,0
DA:139,0
DA:140,0
DA:141,0
DA:143,0
DA:144,0
DA:145,0
DA:146,0
DA:147,0
DA:148,0
DA:149,0
DA:150,0
DA:151,0
DA:154,0
DA:155,0
DA:157,0
DA:158,0
DA:159,0
DA:160,0
DA:161,0
DA:162,0
DA:163,0
DA:164,0
DA:165,0
DA:166,0
DA:167,0
DA:169,0
DA:170,0
DA:171,0
DA:172,0
DA:173,0
DA:174,0
DA:175,0
DA:177,0
DA:178,0
DA:180,0
DA:181,0
DA:182,0
DA:183,0
DA:185,0
DA:186,0
DA:187,0
DA:189,0
DA:190,0
DA:192,0
DA:194,0
DA:196,0
DA:197,0
DA:198,0
DA:199,0
DA:200,0
DA:201,0
DA:202,0
DA:203,0
DA:204,0
DA:205,0
DA:206,0
DA:209,0
DA:210,0
DA:212,0
DA:213,0
DA:215,0
DA:216,0
DA:217,0
DA:218,0
DA:220,0
DA:221,0
DA:222,0
DA:224,0
DA:225,0
DA:226,0
DA:227,0
DA:228,0
DA:229,0
DA:230,0
DA:231,0
DA:232,0
DA:233,0
DA:234,0
DA:236,0
DA:237,0
DA:239,0
DA:240,0
DA:241,0
DA:243,1
DA:244,1
DA:245,1
DA:246,1
DA:247,1
DA:249,1
DA:250,1
DA:251,0
DA:252,0
DA:256,1
DA:257,1
DA:259,4
DA:260,4
DA:262,4
DA:263,4
DA:264,4
DA:265,4
DA:267,4
DA:268,4
DA:269,4
DA:271,4
DA:272,4
DA:273,4
DA:274,4
DA:275,4
DA:278,1
DA:279,1
DA:281,0
DA:282,0
DA:283,0
DA:285,0
DA:286,0
DA:287,0
DA:299,0
DA:300,0
DA:301,0
DA:302,0
DA:304,0
DA:305,0
DA:307,0
DA:308,0
DA:309,0
DA:312,0
DA:321,3
DA:322,3
DA:323,3
DA:324,3
DA:326,3
DA:327,3
DA:330,1
DA:331,1
DA:333,1
DA:334,1
DA:336,1
DA:337,1
DA:338,1
DA:341,1
DA:342,1
DA:344,1
DA:345,1
DA:347,1
DA:348,1
DA:349,1
DA:350,1
DA:353,1
DA:354,1
DA:356,1
DA:357,1
DA:358,1
BRF:0
BRH:0
LF:241
LH:91
end_of_record
SF:/home/openclaw/dev/yinglichina8848/sqlrustgo/crates/distributed/src/two_phase_commit.rs
FN:39,_RNvMNtCsgL00ocYfxWJ_21sqlrustgo_distributed16two_phase_commitNtB2_11Participant3new
FN:54,_RNvMNtCsgL00ocYfxWJ_21sqlrustgo_distributed16two_phase_commitNtB2_11Participant7vote_no
FN:49,_RNvMNtCsgL00ocYfxWJ_21sqlrustgo_distributed16two_phase_commitNtB2_11Participant8vote_yes
FN:180,_RNvMs0_NtCsgL00ocYfxWJ_21sqlrustgo_distributed16two_phase_commitNtB5_14TwoPhaseCommit15get_transaction
FN:170,_RNvMs0_NtCsgL00ocYfxWJ_21sqlrustgo_distributed16two_phase_commitNtB5_14TwoPhaseCommit17begin_transaction
FN:443,_RNvMs0_NtCsgL00ocYfxWJ_21sqlrustgo_distributed16two_phase_commitNtB5_14TwoPhaseCommit17cleanup_completed
FN:184,_RNvMs0_NtCsgL00ocYfxWJ_21sqlrustgo_distributed16two_phase_commitNtB5_14TwoPhaseCommit19get_transaction_mut
FN:421,_RNvMs0_NtCsgL00ocYfxWJ_21sqlrustgo_distributed16two_phase_commitNtB5_14TwoPhaseCommit21force_abort_timed_out
FN:449,_RNvMs0_NtCsgL00ocYfxWJ_21sqlrustgo_distributed16two_phase_commitNtB5_14TwoPhaseCommit23num_active_transactions
FN:157,_RNvMs0_NtCsgL00ocYfxWJ_21sqlrustgo_distributed16two_phase_commitNtB5_14TwoPhaseCommit3new
FN:389,_RNvMs0_NtCsgL00ocYfxWJ_21sqlrustgo_distributed16two_phase_commitNtB5_14TwoPhaseCommit7prepare
FN:103,_RNvMs_NtCsgL00ocYfxWJ_21sqlrustgo_distributed16two_phase_commitNtB4_22DistributedTransaction11set_aborted
FN:99,_RNvMs_NtCsgL00ocYfxWJ_21sqlrustgo_distributed16two_phase_commitNtB4_22DistributedTransaction12any_voted_no
FN:91,_RNvMs_NtCsgL00ocYfxWJ_21sqlrustgo_distributed16two_phase_commitNtB4_22DistributedTransaction12is_timed_out
FN:95,_RNvMs_NtCsgL00ocYfxWJ_21sqlrustgo_distributed16two_phase_commitNtB4_22DistributedTransaction13all_voted_yes
FN:109,_RNvMs_NtCsgL00ocYfxWJ_21sqlrustgo_distributed16two_phase_commitNtB4_22DistributedTransaction13set_committed
FN:73,_RNvMs_NtCsgL00ocYfxWJ_21sqlrustgo_distributed16two_phase_commitNtB4_22DistributedTransaction3new
FN:486,_RNvNtCsgL00ocYfxWJ_21sqlrustgo_distributed16two_phase_commit17current_timestamp
FN:564,_RNvNtNtCsgL00ocYfxWJ_21sqlrustgo_distributed16two_phase_commit5testss_16test_set_aborted
FN:554,_RNvNtNtCsgL00ocYfxWJ_21sqlrustgo_distributed16two_phase_commit5testss_17test_any_voted_no
FN:543,_RNvNtNtCsgL00ocYfxWJ_21sqlrustgo_distributed16two_phase_commit5testss_18test_all_voted_yes
FN:576,_RNvNtNtCsgL00ocYfxWJ_21sqlrustgo_distributed16two_phase_commit5testss_18test_set_committed
FN:632,_RNvNtNtCsgL00ocYfxWJ_21sqlrustgo_distributed16two_phase_commit5testss_20test_get_transaction
FN:508,_RNvNtNtCsgL00ocYfxWJ_21sqlrustgo_distributed16two_phase_commit5testss_20test_prepare_success
FN:653,_RNvNtNtCsgL00ocYfxWJ_21sqlrustgo_distributed16two_phase_commit5testss_21test_participant_vote
FN:499,_RNvNtNtCsgL00ocYfxWJ_21sqlrustgo_distributed16two_phase_commit5testss_22test_begin_transaction
FN:600,_RNvNtNtCsgL00ocYfxWJ_21sqlrustgo_distributed16two_phase_commit5testss_22test_cleanup_completed
FN:532,_RNvNtNtCsgL00ocYfxWJ_21sqlrustgo_distributed16two_phase_commit5testss_24test_transaction_timeout
FN:584,_RNvNtNtCsgL00ocYfxWJ_21sqlrustgo_distributed16two_phase_commit5testss_26test_force_abort_timed_out
FN:520,_RNvNtNtCsgL00ocYfxWJ_21sqlrustgo_distributed16two_phase_commit5testss_26test_prepare_invalid_state
FN:617,_RNvNtNtCsgL00ocYfxWJ_21sqlrustgo_distributed16two_phase_commit5testss_28test_num_active_transactions
FN:646,_RNvNtNtCsgL00ocYfxWJ_21sqlrustgo_distributed16two_phase_commit5testss_34test_prepare_transaction_not_found
FN:335,_RNCNvMs0_NtCsgL00ocYfxWJ_21sqlrustgo_distributed16two_phase_commitNtB7_14TwoPhaseCommit22handle_commit_response0B9_
FN:339,_RNCNvMs0_NtCsgL00ocYfxWJ_21sqlrustgo_distributed16two_phase_commitNtB7_14TwoPhaseCommit22handle_commit_responses_0B9_
FN:260,_RNCNvMs0_NtCsgL00ocYfxWJ_21sqlrustgo_distributed16two_phase_commitNtB7_14TwoPhaseCommit23handle_prepare_response0B9_
FN:282,_RNCNvMs0_NtCsgL00ocYfxWJ_21sqlrustgo_distributed16two_phase_commitNtB7_14TwoPhaseCommit23handle_prepare_responses0_0B9_
FN:283,_RNCNvMs0_NtCsgL00ocYfxWJ_21sqlrustgo_distributed16two_phase_commitNtB7_14TwoPhaseCommit23handle_prepare_responses1_0B9_
FN:284,_RNCNvMs0_NtCsgL00ocYfxWJ_21sqlrustgo_distributed16two_phase_commitNtB7_14TwoPhaseCommit23handle_prepare_responses2_0B9_
FN:289,_RNCNvMs0_NtCsgL00ocYfxWJ_21sqlrustgo_distributed16two_phase_commitNtB7_14TwoPhaseCommit23handle_prepare_responses3_0B9_
FN:275,_RNCNvMs0_NtCsgL00ocYfxWJ_21sqlrustgo_distributed16two_phase_commitNtB7_14TwoPhaseCommit23handle_prepare_responses_0B9_
FN:385,_RNvMs0_NtCsgL00ocYfxWJ_21sqlrustgo_distributed16two_phase_commitNtB5_14TwoPhaseCommit10handle_ack
FN:352,_RNvMs0_NtCsgL00ocYfxWJ_21sqlrustgo_distributed16two_phase_commitNtB5_14TwoPhaseCommit12handle_abort
FN:306,_RNvMs0_NtCsgL00ocYfxWJ_21sqlrustgo_distributed16two_phase_commitNtB5_14TwoPhaseCommit13handle_commit
FN:191,_RNvMs0_NtCsgL00ocYfxWJ_21sqlrustgo_distributed16two_phase_commitNtB5_14TwoPhaseCommit14handle_message
FN:217,_RNvMs0_NtCsgL00ocYfxWJ_21sqlrustgo_distributed16two_phase_commitNtB5_14TwoPhaseCommit14handle_prepare
FN:370,_RNvMs0_NtCsgL00ocYfxWJ_21sqlrustgo_distributed16two_phase_commitNtB5_14TwoPhaseCommit21handle_abort_response
FN:326,_RNvMs0_NtCsgL00ocYfxWJ_21sqlrustgo_distributed16two_phase_commitNtB5_14TwoPhaseCommit22handle_commit_response
FN:250,_RNvMs0_NtCsgL00ocYfxWJ_21sqlrustgo_distributed16two_phase_commitNtB5_14TwoPhaseCommit23handle_prepare_response
FN:166,_RNvMs0_NtCsgL00ocYfxWJ_21sqlrustgo_distributed16two_phase_commitNtB5_14TwoPhaseCommit7node_id
FN:473,_RNvXs1_NtCsgL00ocYfxWJ_21sqlrustgo_distributed16two_phase_commitNtB5_10TwoPCErrorNtNtCs8nPosuWgJFh_4core3fmt7Display3fmt
FN:444,_RNCNvMs0_NtCsgL00ocYfxWJ_21sqlrustgo_distributed16two_phase_commitNtB7_14TwoPhaseCommit17cleanup_completed0B9_
FN:408,_RNCNvMs0_NtCsgL00ocYfxWJ_21sqlrustgo_distributed16two_phase_commitNtB7_14TwoPhaseCommit7prepares_0B9_
FN:100,_RNCNvMs_NtCsgL00ocYfxWJ_21sqlrustgo_distributed16two_phase_commitNtB6_22DistributedTransaction12any_voted_no0B8_
FN:96,_RNCNvMs_NtCsgL00ocYfxWJ_21sqlrustgo_distributed16two_phase_commitNtB6_22DistributedTransaction13all_voted_yes0B8_
FNDA:19,_RNvMNtCsgL00ocYfxWJ_21sqlrustgo_distributed16two_phase_commitNtB2_11Participant3new
FNDA:2,_RNvMNtCsgL00ocYfxWJ_21sqlrustgo_distributed16two_phase_commitNtB2_11Participant7vote_no
FNDA:2,_RNvMNtCsgL00ocYfxWJ_21sqlrustgo_distributed16two_phase_commitNtB2_11Participant8vote_yes
FNDA:2,_RNvMs0_NtCsgL00ocYfxWJ_21sqlrustgo_distributed16two_phase_commitNtB5_14TwoPhaseCommit15get_transaction
FNDA:8,_RNvMs0_NtCsgL00ocYfxWJ_21sqlrustgo_distributed16two_phase_commitNtB5_14TwoPhaseCommit17begin_transaction
FNDA:1,_RNvMs0_NtCsgL00ocYfxWJ_21sqlrustgo_distributed16two_phase_commitNtB5_14TwoPhaseCommit17cleanup_completed
FNDA:2,_RNvMs0_NtCsgL00ocYfxWJ_21sqlrustgo_distributed16two_phase_commitNtB5_14TwoPhaseCommit19get_transaction_mut
FNDA:1,_RNvMs0_NtCsgL00ocYfxWJ_21sqlrustgo_distributed16two_phase_commitNtB5_14TwoPhaseCommit21force_abort_timed_out
FNDA:5,_RNvMs0_NtCsgL00ocYfxWJ_21sqlrustgo_distributed16two_phase_commitNtB5_14TwoPhaseCommit23num_active_transactions
FNDA:8,_RNvMs0_NtCsgL00ocYfxWJ_21sqlrustgo_distributed16two_phase_commitNtB5_14TwoPhaseCommit3new
FNDA:4,_RNvMs0_NtCsgL00ocYfxWJ_21sqlrustgo_distributed16two_phase_commitNtB5_14TwoPhaseCommit7prepare
FNDA:2,_RNvMs_NtCsgL00ocYfxWJ_21sqlrustgo_distributed16two_phase_commitNtB4_22DistributedTransaction11set_aborted
FNDA:1,_RNvMs_NtCsgL00ocYfxWJ_21sqlrustgo_distributed16two_phase_commitNtB4_22DistributedTransaction12any_voted_no
FNDA:2,_RNvMs_NtCsgL00ocYfxWJ_21sqlrustgo_distributed16two_phase_commitNtB4_22DistributedTransaction12is_timed_out
FNDA:1,_RNvMs_NtCsgL00ocYfxWJ_21sqlrustgo_distributed16two_phase_commitNtB4_22DistributedTransaction13all_voted_yes
FNDA:2,_RNvMs_NtCsgL00ocYfxWJ_21sqlrustgo_distributed16two_phase_commitNtB4_22DistributedTransaction13set_committed
FNDA:13,_RNvMs_NtCsgL00ocYfxWJ_21sqlrustgo_distributed16two_phase_commitNtB4_22DistributedTransaction3new
FNDA:21,_RNvNtCsgL00ocYfxWJ_21sqlrustgo_distributed16two_phase_commit17current_timestamp
FNDA:1,_RNvNtNtCsgL00ocYfxWJ_21sqlrustgo_distributed16two_phase_commit5testss_16test_set_aborted
FNDA:1,_RNvNtNtCsgL00ocYfxWJ_21sqlrustgo_distributed16two_phase_commit5testss_17test_any_voted_no
FNDA:1,_RNvNtNtCsgL00ocYfxWJ_21sqlrustgo_distributed16two_phase_commit5testss_18test_all_voted_yes
FNDA:1,_RNvNtNtCsgL00ocYfxWJ_21sqlrustgo_distributed16two_phase_commit5testss_18test_set_committed
FNDA:1,_RNvNtNtCsgL00ocYfxWJ_21sqlrustgo_distributed16two_phase_commit5testss_20test_get_transaction
FNDA:1,_RNvNtNtCsgL00ocYfxWJ_21sqlrustgo_distributed16two_phase_commit5testss_20test_prepare_success
FNDA:1,_RNvNtNtCsgL00ocYfxWJ_21sqlrustgo_distributed16two_phase_commit5testss_21test_participant_vote
FNDA:1,_RNvNtNtCsgL00ocYfxWJ_21sqlrustgo_distributed16two_phase_commit5testss_22test_begin_transaction
FNDA:1,_RNvNtNtCsgL00ocYfxWJ_21sqlrustgo_distributed16two_phase_commit5testss_22test_cleanup_completed
FNDA:1,_RNvNtNtCsgL00ocYfxWJ_21sqlrustgo_distributed16two_phase_commit5testss_24test_transaction_timeout
FNDA:1,_RNvNtNtCsgL00ocYfxWJ_21sqlrustgo_distributed16two_phase_commit5testss_26test_force_abort_timed_out
FNDA:1,_RNvNtNtCsgL00ocYfxWJ_21sqlrustgo_distributed16two_phase_commit5testss_26test_prepare_invalid_state
FNDA:1,_RNvNtNtCsgL00ocYfxWJ_21sqlrustgo_distributed16two_phase_commit5testss_28test_num_active_transactions
FNDA:1,_RNvNtNtCsgL00ocYfxWJ_21sqlrustgo_distributed16two_phase_commit5testss_34test_prepare_transaction_not_found
FNDA:0,_RNCNvMs0_NtCsgL00ocYfxWJ_21sqlrustgo_distributed16two_phase_commitNtB7_14TwoPhaseCommit22handle_commit_response0B9_
FNDA:0,_RNCNvMs0_NtCsgL00ocYfxWJ_21sqlrustgo_distributed16two_phase_commitNtB7_14TwoPhaseCommit22handle_commit_responses_0B9_
FNDA:0,_RNCNvMs0_NtCsgL00ocYfxWJ_21sqlrustgo_distributed16two_phase_commitNtB7_14TwoPhaseCommit23handle_prepare_response0B9_
FNDA:0,_RNCNvMs0_NtCsgL00ocYfxWJ_21sqlrustgo_distributed16two_phase_commitNtB7_14TwoPhaseCommit23handle_prepare_responses0_0B9_
FNDA:0,_RNCNvMs0_NtCsgL00ocYfxWJ_21sqlrustgo_distributed16two_phase_commitNtB7_14TwoPhaseCommit23handle_prepare_responses1_0B9_
FNDA:0,_RNCNvMs0_NtCsgL00ocYfxWJ_21sqlrustgo_distributed16two_phase_commitNtB7_14TwoPhaseCommit23handle_prepare_responses2_0B9_
FNDA:0,_RNCNvMs0_NtCsgL00ocYfxWJ_21sqlrustgo_distributed16two_phase_commitNtB7_14TwoPhaseCommit23handle_prepare_responses3_0B9_
FNDA:0,_RNCNvMs0_NtCsgL00ocYfxWJ_21sqlrustgo_distributed16two_phase_commitNtB7_14TwoPhaseCommit23handle_prepare_responses_0B9_
FNDA:0,_RNvMs0_NtCsgL00ocYfxWJ_21sqlrustgo_distributed16two_phase_commitNtB5_14TwoPhaseCommit10handle_ack
FNDA:0,_RNvMs0_NtCsgL00ocYfxWJ_21sqlrustgo_distributed16two_phase_commitNtB5_14TwoPhaseCommit12handle_abort
FNDA:0,_RNvMs0_NtCsgL00ocYfxWJ_21sqlrustgo_distributed16two_phase_commitNtB5_14TwoPhaseCommit13handle_commit
FNDA:0,_RNvMs0_NtCsgL00ocYfxWJ_21sqlrustgo_distributed16two_phase_commitNtB5_14TwoPhaseCommit14handle_message
FNDA:0,_RNvMs0_NtCsgL00ocYfxWJ_21sqlrustgo_distributed16two_phase_commitNtB5_14TwoPhaseCommit14handle_prepare
FNDA:0,_RNvMs0_NtCsgL00ocYfxWJ_21sqlrustgo_distributed16two_phase_commitNtB5_14TwoPhaseCommit21handle_abort_response
FNDA:0,_RNvMs0_NtCsgL00ocYfxWJ_21sqlrustgo_distributed16two_phase_commitNtB5_14TwoPhaseCommit22handle_commit_response
FNDA:0,_RNvMs0_NtCsgL00ocYfxWJ_21sqlrustgo_distributed16two_phase_commitNtB5_14TwoPhaseCommit23handle_prepare_response
FNDA:0,_RNvMs0_NtCsgL00ocYfxWJ_21sqlrustgo_distributed16two_phase_commitNtB5_14TwoPhaseCommit7node_id
FNDA:0,_RNvXs1_NtCsgL00ocYfxWJ_21sqlrustgo_distributed16two_phase_commitNtB5_10TwoPCErrorNtNtCs8nPosuWgJFh_4core3fmt7Display3fmt
FNDA:1,_RNCNvMs0_NtCsgL00ocYfxWJ_21sqlrustgo_distributed16two_phase_commitNtB7_14TwoPhaseCommit17cleanup_completed0B9_
FNDA:3,_RNCNvMs0_NtCsgL00ocYfxWJ_21sqlrustgo_distributed16two_phase_commitNtB7_14TwoPhaseCommit7prepares_0B9_
FNDA:2,_RNCNvMs_NtCsgL00ocYfxWJ_21sqlrustgo_distributed16two_phase_commitNtB6_22DistributedTransaction12any_voted_no0B8_
FNDA:2,_RNCNvMs_NtCsgL00ocYfxWJ_21sqlrustgo_distributed16two_phase_commitNtB6_22DistributedTransaction13all_voted_yes0B8_
FNF:54
FNH:36
DA:39,19
DA:40,19
DA:41,19
DA:42,19
DA:43,19
DA:44,19
DA:45,19
DA:46,19
DA:47,19
DA:49,2
DA:50,2
DA:51,2
DA:52,2
DA:54,2
DA:55,2
DA:56,2
DA:57,2
DA:73,13
DA:74,13
DA:75,13
DA:76,13
DA:77,13
DA:78,13
DA:79,13
DA:80,13
DA:81,13
DA:82,13
DA:83,13
DA:84,13
DA:85,13
DA:86,13
DA:87,13
DA:88,13
DA:89,13
DA:91,2
DA:92,2
DA:93,2
DA:95,1
DA:96,2
DA:97,1
DA:99,1
DA:100,2
DA:101,1
DA:103,2
DA:104,2
DA:105,2
DA:106,2
DA:107,2
DA:109,2
DA:110,2
DA:111,2
DA:112,2
DA:157,8
DA:158,8
DA:159,8
DA:160,8
DA:161,8
DA:162,8
DA:163,8
DA:164,8
DA:166,0
DA:167,0
DA:168,0
DA:170,8
DA:171,8
DA:172,8
DA:174,8
DA:175,8
DA:177,8
DA:178,8
DA:180,2
DA:181,2
DA:182,2
DA:184,2
DA:185,2
DA:186,2
DA:187,2
DA:188,2
DA:189,2
DA:191,0
DA:192,0
DA:194,0
DA:195,0
DA:196,0
DA:198,0
DA:199,0
DA:200,0
DA:201,0
DA:202,0
DA:203,0
DA:205,0
DA:206,0
DA:207,0
DA:208,0
DA:209,0
DA:210,0
DA:211,0
DA:213,0
DA:215,0
DA:217,0
DA:218,0
DA:219,0
DA:220,0
DA:221,0
DA:222,0
DA:224,0
DA:225,0
DA:226,0
DA:228,0
DA:229,0
DA:230,0
DA:231,0
DA:232,0
DA:233,0
DA:234,0
DA:235,0
DA:236,0
DA:238,0
DA:239,0
DA:240,0
DA:241,0
DA:242,0
DA:243,0
DA:244,0
DA:245,0
DA:246,0
DA:248,0
DA:250,0
DA:251,0
DA:252,0
DA:253,0
DA:254,0
DA:255,0
DA:256,0
DA:257,0
DA:259,0
DA:260,0
DA:261,0
DA:262,0
DA:263,0
DA:265,0
DA:267,0
DA:269,0
DA:270,0
DA:271,0
DA:272,0
DA:273,0
DA:274,0
DA:275,0
DA:276,0
DA:277,0
DA:278,0
DA:279,0
DA:280,0
DA:281,0
DA:282,0
DA:283,0
DA:284,0
DA:286,0
DA:287,0
DA:288,0
DA:289,0
DA:290,0
DA:291,0
DA:292,0
DA:293,0
DA:294,0
DA:295,0
DA:296,0
DA:297,0
DA:298,0
DA:299,0
DA:300,0
DA:301,0
DA:303,0
DA:304,0
DA:306,0
DA:307,0
DA:309,0
DA:310,0
DA:311,0
DA:313,0
DA:314,0
DA:315,0
DA:316,0
DA:317,0
DA:318,0
DA:319,0
DA:320,0
DA:322,0
DA:324,0
DA:326,0
DA:327,0
DA:328,0
DA:329,0
DA:330,0
DA:331,0
DA:332,0
DA:334,0
DA:335,0
DA:336,0
DA:337,0
DA:338,0
DA:339,0
DA:340,0
DA:343,0
DA:344,0
DA:345,0
DA:346,0
DA:347,0
DA:349,0
DA:350,0
DA:352,0
DA:353,0
DA:355,0
DA:356,0
DA:358,0
DA:359,0
DA:360,0
DA:361,0
DA:362,0
DA:363,0
DA:364,0
DA:366,0
DA:368,0
DA:370,0
DA:371,0
DA:372,0
DA:373,0
DA:374,0
DA:375,0
DA:377,0
DA:378,0
DA:379,0
DA:380,0
DA:382,0
DA:383,0
DA:385,0
DA:386,0
DA:387,0
DA:389,4
DA:390,4
DA:391,4
DA:392,4
DA:393,4
DA:395,3
DA:396,1
DA:397,2
DA:399,2
DA:400,2
DA:402,2
DA:405,2
DA:406,2
DA:407,2
DA:408,3
DA:409,3
DA:410,3
DA:411,3
DA:412,3
DA:413,3
DA:414,3
DA:415,3
DA:416,3
DA:417,2
DA:419,4
DA:421,1
DA:422,1
DA:424,1
DA:425,1
DA:426,1
DA:427,1
DA:429,1
DA:430,1
DA:432,1
DA:433,1
DA:434,1
DA:435,1
DA:437,0
DA:440,1
DA:441,1
DA:443,1
DA:444,1
DA:445,1
DA:446,1
DA:447,1
DA:449,5
DA:450,5
DA:451,5
DA:473,0
DA:474,0
DA:475,0
DA:476,0
DA:477,0
DA:478,0
DA:481,0
DA:486,21
DA:487,21
DA:488,21
DA:489,21
DA:490,21
DA:491,21
DA:499,1
DA:500,1
DA:501,1
DA:503,1
DA:504,1
DA:505,1
DA:508,1
DA:509,1
DA:510,1
DA:512,1
DA:513,1
DA:515,1
DA:516,1
DA:517,1
DA:520,1
DA:521,1
DA:522,1
DA:524,1
DA:525,1
DA:527,1
DA:528,1
DA:529,1
DA:532,1
DA:533,1
DA:534,1
DA:536,1
DA:537,1
DA:539,1
DA:540,1
DA:543,1
DA:544,1
DA:545,2
DA:546,2
DA:547,2
DA:548,1
DA:550,1
DA:551,1
DA:554,1
DA:555,1
DA:556,1
DA:557,1
DA:558,1
DA:560,1
DA:561,1
DA:564,1
DA:565,1
DA:566,1
DA:567,1
DA:569,1
DA:570,1
DA:571,1
DA:572,1
DA:573,1
DA:576,1
DA:577,1
DA:578,1
DA:579,1
DA:580,1
DA:581,1
DA:584,1
DA:585,1
DA:586,1
DA:588,1
DA:590,1
DA:591,1
DA:592,1
DA:594,1
DA:595,1
DA:596,1
DA:597,1
DA:600,1
DA:601,1
DA:602,1
DA:604,1
DA:607,1
DA:608,1
DA:609,1
DA:611,1
DA:612,1
DA:613,1
DA:614,1
DA:617,1
DA:618,1
DA:620,1
DA:622,1
DA:623,1
DA:624,1
DA:626,1
DA:627,1
DA:628,1
DA:629,1
DA:632,1
DA:633,1
DA:634,1
DA:636,1
DA:638,1
DA:639,1
DA:641,1
DA:642,1
DA:643,1
DA:646,1
DA:647,1
DA:648,1
DA:649,1
DA:650,1
DA:653,1
DA:654,1
DA:655,1
DA:657,1
DA:658,1
DA:659,1
DA:661,1
DA:662,1
DA:663,1
DA:664,1
DA:665,1
BRF:0
BRH:0
LF:429
LH:249
end_of_record