SF:/home/openclaw/dev/yinglichina8848/sqlrustgo/crates/server/src/connection_pool.rs
FN:404,_RNvNtNtCsdnEyc0opWLd_16sqlrustgo_server15connection_pool5testss_26test_connection_pool_stats
FN:355,_RNvNtNtCsdnEyc0opWLd_16sqlrustgo_server15connection_pool5testss_31test_pooled_connection_executor
FN:443,_RNvNtNtCsdnEyc0opWLd_16sqlrustgo_server15connection_pool5testss_31test_pooled_session_mark_in_use
FN:428,_RNvNtNtCsdnEyc0opWLd_16sqlrustgo_server15connection_pool5testss_33test_connection_pool_health_check
FN:343,_RNvNtNtCsdnEyc0opWLd_16sqlrustgo_server15connection_pool5testss_34test_connection_pool_get_pool_size
FN:367,_RNvNtNtCsdnEyc0opWLd_16sqlrustgo_server15connection_pool5testss_34test_pooled_session_transaction_id
FN:279,_RNvNtNtCsdnEyc0opWLd_16sqlrustgo_server15connection_pool5testss_35test_connection_pool_reuse_sessions
FN:314,_RNvNtNtCsdnEyc0opWLd_16sqlrustgo_server15connection_pool5testss_40test_connection_pool_try_acquire_success
FN:193,_RNvNtNtCsdnEyc0opWLd_16sqlrustgo_server15connection_pool5testss_42test_connection_pool_basic_acquire_release
FN:326,_RNvNtNtCsdnEyc0opWLd_16sqlrustgo_server15connection_pool5testss_43test_connection_pool_try_acquire_when_empty
FN:212,_RNvNtNtCsdnEyc0opWLd_16sqlrustgo_server15connection_pool5testss_46test_connection_pool_concurrent_50_connections
FN:244,_RNvNtNtCsdnEyc0opWLd_16sqlrustgo_server15connection_pool5testss_47test_connection_pool_concurrent_100_connections
FN:304,_RNvNtNtCsdnEyc0opWLd_16sqlrustgo_server15connection_pool5testss_47test_pooled_session_clone_creates_fresh_session
FN:389,_RNvNtNtCsdnEyc0opWLd_16sqlrustgo_server15connection_pool5testss_49test_connection_pool_acquire_with_timeout_failure
FN:373,_RNvNtNtCsdnEyc0opWLd_16sqlrustgo_server15connection_pool5testss_49test_connection_pool_acquire_with_timeout_success
FN:226,_RNCNCNvNtNtCsdnEyc0opWLd_16sqlrustgo_server15connection_pool5testss_46test_connection_pool_concurrent_50_connections00B9_
FN:258,_RNCNCNvNtNtCsdnEyc0opWLd_16sqlrustgo_server15connection_pool5testss_47test_connection_pool_concurrent_100_connections00B9_
FN:223,_RNCNvNtNtCsdnEyc0opWLd_16sqlrustgo_server15connection_pool5testss_46test_connection_pool_concurrent_50_connections0B7_
FN:255,_RNCNvNtNtCsdnEyc0opWLd_16sqlrustgo_server15connection_pool5testss_47test_connection_pool_concurrent_100_connections0B7_
FN:120,_RNvMs2_NtCsdnEyc0opWLd_16sqlrustgo_server15connection_poolNtB5_14ConnectionPool11try_acquire
FN:138,_RNvMs2_NtCsdnEyc0opWLd_16sqlrustgo_server15connection_poolNtB5_14ConnectionPool12health_check
FN:130,_RNvMs2_NtCsdnEyc0opWLd_16sqlrustgo_server15connection_poolNtB5_14ConnectionPool13get_pool_size
FN:109,_RNvMs2_NtCsdnEyc0opWLd_16sqlrustgo_server15connection_poolNtB5_14ConnectionPool20acquire_with_timeout
FN:84,_RNvMs2_NtCsdnEyc0opWLd_16sqlrustgo_server15connection_poolNtB5_14ConnectionPool3new
FN:134,_RNvMs2_NtCsdnEyc0opWLd_16sqlrustgo_server15connection_poolNtB5_14ConnectionPool4size
FN:146,_RNvMs2_NtCsdnEyc0opWLd_16sqlrustgo_server15connection_poolNtB5_14ConnectionPool5stats
FN:100,_RNvMs2_NtCsdnEyc0opWLd_16sqlrustgo_server15connection_poolNtB5_14ConnectionPool7acquire
FN:156,_RNvMs2_NtCsdnEyc0opWLd_16sqlrustgo_server15connection_poolNtB5_14ConnectionPool7release
FN:173,_RNvMs3_NtCsdnEyc0opWLd_16sqlrustgo_server15connection_poolNtB5_16PooledConnection8executor
FN:40,_RNvMs_NtCsdnEyc0opWLd_16sqlrustgo_server15connection_poolNtB4_13PooledSession11mark_in_use
FN:49,_RNvMs_NtCsdnEyc0opWLd_16sqlrustgo_server15connection_poolNtB4_13PooledSession12health_check
FN:36,_RNvMs_NtCsdnEyc0opWLd_16sqlrustgo_server15connection_poolNtB4_13PooledSession12is_available
FN:44,_RNvMs_NtCsdnEyc0opWLd_16sqlrustgo_server15connection_poolNtB4_13PooledSession14mark_available
FN:24,_RNvMs_NtCsdnEyc0opWLd_16sqlrustgo_server15connection_poolNtB4_13PooledSession3new
FN:61,_RNvXs1_NtCsdnEyc0opWLd_16sqlrustgo_server15connection_poolNtB5_13PooledSessionNtNtCs8nPosuWgJFh_4core5clone5Clone5clone
FN:125,_RNCNvMs2_NtCsdnEyc0opWLd_16sqlrustgo_server15connection_poolNtB7_14ConnectionPool11try_acquire0B9_
FN:142,_RNCNvMs2_NtCsdnEyc0opWLd_16sqlrustgo_server15connection_poolNtB7_14ConnectionPool12health_check0B9_
FN:115,_RNCNvMs2_NtCsdnEyc0opWLd_16sqlrustgo_server15connection_poolNtB7_14ConnectionPool20acquire_with_timeout0B9_
FN:86,_RNCNvMs2_NtCsdnEyc0opWLd_16sqlrustgo_server15connection_poolNtB7_14ConnectionPool3new0B9_
FN:179,_RNvXs4_NtCsdnEyc0opWLd_16sqlrustgo_server15connection_poolNtB5_16PooledConnectionNtNtNtCs8nPosuWgJFh_4core3ops4drop4Drop4drop
FN:15,_RNvXNtCsdnEyc0opWLd_16sqlrustgo_server15connection_poolNtB2_13PooledSessionNtNtCs8nPosuWgJFh_4core3fmt5Debug3fmt
FN:55,_RNvXs0_NtCsdnEyc0opWLd_16sqlrustgo_server15connection_poolNtB5_13PooledSessionNtNtCs8nPosuWgJFh_4core7default7Default7default
FNDA:1,_RNvNtNtCsdnEyc0opWLd_16sqlrustgo_server15connection_pool5testss_26test_connection_pool_stats
FNDA:1,_RNvNtNtCsdnEyc0opWLd_16sqlrustgo_server15connection_pool5testss_31test_pooled_connection_executor
FNDA:1,_RNvNtNtCsdnEyc0opWLd_16sqlrustgo_server15connection_pool5testss_31test_pooled_session_mark_in_use
FNDA:1,_RNvNtNtCsdnEyc0opWLd_16sqlrustgo_server15connection_pool5testss_33test_connection_pool_health_check
FNDA:1,_RNvNtNtCsdnEyc0opWLd_16sqlrustgo_server15connection_pool5testss_34test_connection_pool_get_pool_size
FNDA:1,_RNvNtNtCsdnEyc0opWLd_16sqlrustgo_server15connection_pool5testss_34test_pooled_session_transaction_id
FNDA:1,_RNvNtNtCsdnEyc0opWLd_16sqlrustgo_server15connection_pool5testss_35test_connection_pool_reuse_sessions
FNDA:1,_RNvNtNtCsdnEyc0opWLd_16sqlrustgo_server15connection_pool5testss_40test_connection_pool_try_acquire_success
FNDA:1,_RNvNtNtCsdnEyc0opWLd_16sqlrustgo_server15connection_pool5testss_42test_connection_pool_basic_acquire_release
FNDA:1,_RNvNtNtCsdnEyc0opWLd_16sqlrustgo_server15connection_pool5testss_43test_connection_pool_try_acquire_when_empty
FNDA:1,_RNvNtNtCsdnEyc0opWLd_16sqlrustgo_server15connection_pool5testss_46test_connection_pool_concurrent_50_connections
FNDA:1,_RNvNtNtCsdnEyc0opWLd_16sqlrustgo_server15connection_pool5testss_47test_connection_pool_concurrent_100_connections
FNDA:1,_RNvNtNtCsdnEyc0opWLd_16sqlrustgo_server15connection_pool5testss_47test_pooled_session_clone_creates_fresh_session
FNDA:1,_RNvNtNtCsdnEyc0opWLd_16sqlrustgo_server15connection_pool5testss_49test_connection_pool_acquire_with_timeout_failure
FNDA:1,_RNvNtNtCsdnEyc0opWLd_16sqlrustgo_server15connection_pool5testss_49test_connection_pool_acquire_with_timeout_success
FNDA:50,_RNCNCNvNtNtCsdnEyc0opWLd_16sqlrustgo_server15connection_pool5testss_46test_connection_pool_concurrent_50_connections00B9_
FNDA:100,_RNCNCNvNtNtCsdnEyc0opWLd_16sqlrustgo_server15connection_pool5testss_47test_connection_pool_concurrent_100_connections00B9_
FNDA:50,_RNCNvNtNtCsdnEyc0opWLd_16sqlrustgo_server15connection_pool5testss_46test_connection_pool_concurrent_50_connections0B7_
FNDA:100,_RNCNvNtNtCsdnEyc0opWLd_16sqlrustgo_server15connection_pool5testss_47test_connection_pool_concurrent_100_connections0B7_
FNDA:3,_RNvMs2_NtCsdnEyc0opWLd_16sqlrustgo_server15connection_poolNtB5_14ConnectionPool11try_acquire
FNDA:1,_RNvMs2_NtCsdnEyc0opWLd_16sqlrustgo_server15connection_poolNtB5_14ConnectionPool12health_check
FNDA:1,_RNvMs2_NtCsdnEyc0opWLd_16sqlrustgo_server15connection_poolNtB5_14ConnectionPool13get_pool_size
FNDA:4,_RNvMs2_NtCsdnEyc0opWLd_16sqlrustgo_server15connection_poolNtB5_14ConnectionPool20acquire_with_timeout
FNDA:12,_RNvMs2_NtCsdnEyc0opWLd_16sqlrustgo_server15connection_poolNtB5_14ConnectionPool3new
FNDA:2,_RNvMs2_NtCsdnEyc0opWLd_16sqlrustgo_server15connection_poolNtB5_14ConnectionPool4size
FNDA:3,_RNvMs2_NtCsdnEyc0opWLd_16sqlrustgo_server15connection_poolNtB5_14ConnectionPool5stats
FNDA:164,_RNvMs2_NtCsdnEyc0opWLd_16sqlrustgo_server15connection_poolNtB5_14ConnectionPool7acquire
FNDA:169,_RNvMs2_NtCsdnEyc0opWLd_16sqlrustgo_server15connection_poolNtB5_14ConnectionPool7release
FNDA:151,_RNvMs3_NtCsdnEyc0opWLd_16sqlrustgo_server15connection_poolNtB5_16PooledConnection8executor
FNDA:1,_RNvMs_NtCsdnEyc0opWLd_16sqlrustgo_server15connection_poolNtB4_13PooledSession11mark_in_use
FNDA:3,_RNvMs_NtCsdnEyc0opWLd_16sqlrustgo_server15connection_poolNtB4_13PooledSession12health_check
FNDA:3,_RNvMs_NtCsdnEyc0opWLd_16sqlrustgo_server15connection_poolNtB4_13PooledSession12is_available
FNDA:170,_RNvMs_NtCsdnEyc0opWLd_16sqlrustgo_server15connection_poolNtB4_13PooledSession14mark_available
FNDA:144,_RNvMs_NtCsdnEyc0opWLd_16sqlrustgo_server15connection_poolNtB4_13PooledSession3new
FNDA:310,_RNvXs1_NtCsdnEyc0opWLd_16sqlrustgo_server15connection_poolNtB5_13PooledSessionNtNtCs8nPosuWgJFh_4core5clone5Clone5clone
FNDA:2,_RNCNvMs2_NtCsdnEyc0opWLd_16sqlrustgo_server15connection_poolNtB7_14ConnectionPool11try_acquire0B9_
FNDA:3,_RNCNvMs2_NtCsdnEyc0opWLd_16sqlrustgo_server15connection_poolNtB7_14ConnectionPool12health_check0B9_
FNDA:3,_RNCNvMs2_NtCsdnEyc0opWLd_16sqlrustgo_server15connection_poolNtB7_14ConnectionPool20acquire_with_timeout0B9_
FNDA:140,_RNCNvMs2_NtCsdnEyc0opWLd_16sqlrustgo_server15connection_poolNtB7_14ConnectionPool3new0B9_
FNDA:169,_RNvXs4_NtCsdnEyc0opWLd_16sqlrustgo_server15connection_poolNtB5_16PooledConnectionNtNtNtCs8nPosuWgJFh_4core3ops4drop4Drop4drop
FNDA:0,_RNvXNtCsdnEyc0opWLd_16sqlrustgo_server15connection_poolNtB2_13PooledSessionNtNtCs8nPosuWgJFh_4core3fmt5Debug3fmt
FNDA:0,_RNvXs0_NtCsdnEyc0opWLd_16sqlrustgo_server15connection_poolNtB5_13PooledSessionNtNtCs8nPosuWgJFh_4core7default7Default7default
FNF:42
FNH:40
DA:15,0
DA:16,0
DA:17,0
DA:18,0
DA:19,0
DA:20,0
DA:24,144
DA:25,144
DA:26,144
DA:27,144
DA:28,144
DA:29,144
DA:30,144
DA:31,144
DA:32,144
DA:33,144
DA:34,144
DA:36,3
DA:37,3
DA:38,3
DA:40,1
DA:41,1
DA:42,1
DA:44,170
DA:45,170
DA:46,170
DA:47,170
DA:49,3
DA:50,3
DA:51,3
DA:55,0
DA:56,0
DA:57,0
DA:61,310
DA:62,310
DA:63,310
DA:64,310
DA:65,310
DA:66,310
DA:67,310
DA:68,310
DA:69,310
DA:70,310
DA:71,310
DA:84,12
DA:85,12
DA:86,140
DA:88,140
DA:89,140
DA:90,140
DA:92,12
DA:93,12
DA:94,12
DA:95,12
DA:96,12
DA:97,12
DA:98,12
DA:100,164
DA:101,164
DA:102,164
DA:103,164
DA:104,164
DA:105,164
DA:106,164
DA:107,164
DA:109,4
DA:110,4
DA:111,4
DA:112,4
DA:113,4
DA:114,4
DA:115,3
DA:116,3
DA:117,3
DA:118,4
DA:120,3
DA:121,3
DA:122,3
DA:123,3
DA:124,3
DA:125,2
DA:126,2
DA:127,2
DA:128,3
DA:130,1
DA:131,1
DA:132,1
DA:134,2
DA:135,2
DA:136,2
DA:138,1
DA:139,1
DA:140,1
DA:141,1
DA:142,3
DA:143,1
DA:144,1
DA:146,3
DA:147,3
DA:148,3
DA:149,3
DA:150,3
DA:151,3
DA:152,3
DA:153,3
DA:154,3
DA:156,169
DA:157,169
DA:158,169
DA:173,151
DA:174,151
DA:175,151
DA:179,169
DA:180,169
DA:181,169
DA:182,169
DA:193,1
DA:194,1
DA:195,1
DA:196,1
DA:197,1
DA:198,1
DA:200,1
DA:203,1
DA:204,1
DA:207,1
DA:208,1
DA:209,1
DA:212,1
DA:213,1
DA:214,1
DA:215,1
DA:216,1
DA:217,1
DA:218,1
DA:220,1
DA:222,1
DA:223,50
DA:224,50
DA:225,50
DA:226,50
DA:227,50
DA:229,50
DA:230,50
DA:231,50
DA:232,50
DA:233,50
DA:234,1
DA:236,50
DA:237,50
DA:238,50
DA:240,1
DA:241,1
DA:244,1
DA:245,1
DA:246,1
DA:247,1
DA:248,1
DA:249,1
DA:250,1
DA:252,1
DA:254,1
DA:255,100
DA:256,100
DA:257,100
DA:258,100
DA:260,100
DA:261,100
DA:262,100
DA:263,100
DA:264,100
DA:265,100
DA:266,100
DA:267,1
DA:269,100
DA:270,100
DA:271,100
DA:275,1
DA:276,1
DA:279,1
DA:280,1
DA:281,1
DA:282,1
DA:283,1
DA:284,1
DA:286,1
DA:288,5
DA:289,5
DA:290,5
DA:291,5
DA:294,1
DA:297,5
DA:298,5
DA:299,5
DA:300,5
DA:301,1
DA:304,1
DA:305,1
DA:306,1
DA:309,1
DA:310,1
DA:311,1
DA:314,1
DA:315,1
DA:316,1
DA:317,1
DA:318,1
DA:319,1
DA:321,1
DA:322,1
DA:323,1
DA:326,1
DA:327,1
DA:328,1
DA:329,1
DA:330,1
DA:331,1
DA:334,1
DA:335,1
DA:338,1
DA:339,1
DA:340,1
DA:343,1
DA:344,1
DA:345,1
DA:346,1
DA:347,1
DA:348,1
DA:350,1
DA:351,1
DA:352,1
DA:355,1
DA:356,1
DA:357,1
DA:358,1
DA:359,1
DA:360,1
DA:362,1
DA:363,1
DA:364,1
DA:367,1
DA:368,1
DA:369,1
DA:370,1
DA:373,1
DA:374,1
DA:375,1
DA:376,1
DA:377,1
DA:378,1
DA:380,1
DA:381,1
DA:382,1
DA:384,1
DA:385,1
DA:386,1
DA:389,1
DA:390,1
DA:391,1
DA:392,1
DA:393,1
DA:394,1
DA:396,1
DA:397,1
DA:399,1
DA:400,1
DA:401,1
DA:404,1
DA:405,1
DA:406,1
DA:407,1
DA:408,1
DA:409,1
DA:411,1
DA:412,1
DA:413,1
DA:414,1
DA:416,1
DA:417,1
DA:418,1
DA:419,1
DA:421,1
DA:422,1
DA:423,1
DA:424,1
DA:425,1
DA:428,1
DA:429,1
DA:430,1
DA:431,1
DA:432,1
DA:433,1
DA:435,1
DA:436,1
DA:437,3
DA:438,3
DA:440,1
DA:443,1
DA:444,1
DA:445,1
DA:447,1
DA:448,1
DA:450,1
DA:451,1
DA:452,1
DA:453,1
BRF:0
BRH:0
LF:312
LH:303
end_of_record
SF:/home/openclaw/dev/yinglichina8848/sqlrustgo/crates/server/src/health.rs
FN:114,_RINvMs1_NtCsdnEyc0opWLd_16sqlrustgo_server6healthNtB6_12HealthReport3newRNtNtCsj0gLuUEfogP_5alloc6string6StringEB8_
FN:114,_RINvMs1_NtCsdnEyc0opWLd_16sqlrustgo_server6healthNtB6_12HealthReport3newReEB8_
FN:160,_RINvMs2_NtCsdnEyc0opWLd_16sqlrustgo_server6healthNtB6_13HealthChecker14with_componentNtB6_21SystemHealthComponentEB8_
FN:152,_RINvMs2_NtCsdnEyc0opWLd_16sqlrustgo_server6healthNtB6_13HealthChecker3newReEB8_
FN:53,_RINvMs_NtCsdnEyc0opWLd_16sqlrustgo_server6healthNtB5_15ComponentHealth12with_messageReEB7_
FN:44,_RINvMs_NtCsdnEyc0opWLd_16sqlrustgo_server6healthNtB5_15ComponentHealth3newReEB7_
FN:115,_RNCINvMs1_NtCsdnEyc0opWLd_16sqlrustgo_server6healthNtB8_12HealthReport3newRNtNtCsj0gLuUEfogP_5alloc6string6StringE0Ba_
FN:128,_RNCINvMs1_NtCsdnEyc0opWLd_16sqlrustgo_server6healthNtB8_12HealthReport3newRNtNtCsj0gLuUEfogP_5alloc6string6StringEs0_0Ba_
FN:119,_RNCINvMs1_NtCsdnEyc0opWLd_16sqlrustgo_server6healthNtB8_12HealthReport3newRNtNtCsj0gLuUEfogP_5alloc6string6StringEs_0Ba_
FN:115,_RNCINvMs1_NtCsdnEyc0opWLd_16sqlrustgo_server6healthNtB8_12HealthReport3newReE0Ba_
FN:128,_RNCINvMs1_NtCsdnEyc0opWLd_16sqlrustgo_server6healthNtB8_12HealthReport3newReEs0_0Ba_
FN:119,_RNCINvMs1_NtCsdnEyc0opWLd_16sqlrustgo_server6healthNtB8_12HealthReport3newReEs_0Ba_
FN:91,_RNCNvMs0_NtCsdnEyc0opWLd_16sqlrustgo_server6healthNtB7_25ComprehensiveHealthReport3new0B9_
FN:170,_RNCNvMs2_NtCsdnEyc0opWLd_16sqlrustgo_server6healthNtB7_13HealthChecker11check_ready0B9_
FN:252,_RNvNtNtCsdnEyc0opWLd_16sqlrustgo_server6health5testss_19test_liveness_check
FN:275,_RNvNtNtCsdnEyc0opWLd_16sqlrustgo_server6health5testss_21test_component_health
FN:287,_RNvNtNtCsdnEyc0opWLd_16sqlrustgo_server6health5testss_26test_health_status_strings
FN:259,_RNvNtNtCsdnEyc0opWLd_16sqlrustgo_server6health5testss_26test_readiness_check_empty
FN:246,_RNvNtNtCsdnEyc0opWLd_16sqlrustgo_server6health5testss_28test_health_checker_creation
FN:324,_RNvNtNtCsdnEyc0opWLd_16sqlrustgo_server6health5testss_28test_system_health_component
FN:294,_RNvNtNtCsdnEyc0opWLd_16sqlrustgo_server6health5testss_30test_health_report_all_healthy
FN:304,_RNvNtNtCsdnEyc0opWLd_16sqlrustgo_server6health5testss_32test_health_report_with_degraded
FN:314,_RNvNtNtCsdnEyc0opWLd_16sqlrustgo_server6health5testss_33test_health_report_with_unhealthy
FN:332,_RNvNtNtCsdnEyc0opWLd_16sqlrustgo_server6health5testss_36test_comprehensive_health_report_new
FN:267,_RNvNtNtCsdnEyc0opWLd_16sqlrustgo_server6health5testss_36test_readiness_check_with_components
FN:378,_RNvNtNtCsdnEyc0opWLd_16sqlrustgo_server6health5testss_39test_component_health_with_latency_none
FN:356,_RNvNtNtCsdnEyc0opWLd_16sqlrustgo_server6health5testss_45test_comprehensive_health_report_with_metrics
FN:26,_RNvMNtCsdnEyc0opWLd_16sqlrustgo_server6healthNtB2_12HealthStatus6as_str
FN:82,_RNvMs0_NtCsdnEyc0opWLd_16sqlrustgo_server6healthNtB5_25ComprehensiveHealthReport3new
FN:165,_RNvMs2_NtCsdnEyc0opWLd_16sqlrustgo_server6healthNtB5_13HealthChecker10check_live
FN:169,_RNvMs2_NtCsdnEyc0opWLd_16sqlrustgo_server6healthNtB5_13HealthChecker11check_ready
FN:175,_RNvMs2_NtCsdnEyc0opWLd_16sqlrustgo_server6healthNtB5_13HealthChecker7version
FN:226,_RNvMs4_NtCsdnEyc0opWLd_16sqlrustgo_server6healthNtB5_21SystemHealthComponent3new
FN:58,_RNvMs_NtCsdnEyc0opWLd_16sqlrustgo_server6healthNtB4_15ComponentHealth12with_latency
FN:217,_RNvXs3_NtCsdnEyc0opWLd_16sqlrustgo_server6healthNtB5_13HealthCheckerNtNtCs8nPosuWgJFh_4core7default7Default7default
FN:232,_RNvXs5_NtCsdnEyc0opWLd_16sqlrustgo_server6healthNtB5_21SystemHealthComponentNtB5_15HealthComponent4name
FN:236,_RNvXs5_NtCsdnEyc0opWLd_16sqlrustgo_server6healthNtB5_21SystemHealthComponentNtB5_15HealthComponent5check
FN:184,_RNCNvMs2_NtCsdnEyc0opWLd_16sqlrustgo_server6healthNtB7_13HealthChecker12check_health0B9_
FN:190,_RNCNvMs2_NtCsdnEyc0opWLd_16sqlrustgo_server6healthNtB7_13HealthChecker12check_healths0_0B9_
FN:199,_RNCNvMs2_NtCsdnEyc0opWLd_16sqlrustgo_server6healthNtB7_13HealthChecker12check_healths1_0B9_
FN:209,_RNCNvMs2_NtCsdnEyc0opWLd_16sqlrustgo_server6healthNtB7_13HealthChecker12check_healths2_0B9_
FN:186,_RNCNvMs2_NtCsdnEyc0opWLd_16sqlrustgo_server6healthNtB7_13HealthChecker12check_healths_0B9_
FN:180,_RNCNvMs2_NtCsdnEyc0opWLd_16sqlrustgo_server6healthNtB7_13HealthChecker14uptime_seconds0B9_
FN:183,_RNvMs2_NtCsdnEyc0opWLd_16sqlrustgo_server6healthNtB5_13HealthChecker12check_health
FN:179,_RNvMs2_NtCsdnEyc0opWLd_16sqlrustgo_server6healthNtB5_13HealthChecker14uptime_seconds
FNDA:3,_RINvMs1_NtCsdnEyc0opWLd_16sqlrustgo_server6healthNtB6_12HealthReport3newRNtNtCsj0gLuUEfogP_5alloc6string6StringEB8_
FNDA:4,_RINvMs1_NtCsdnEyc0opWLd_16sqlrustgo_server6healthNtB6_12HealthReport3newReEB8_
FNDA:1,_RINvMs2_NtCsdnEyc0opWLd_16sqlrustgo_server6healthNtB6_13HealthChecker14with_componentNtB6_21SystemHealthComponentEB8_
FNDA:6,_RINvMs2_NtCsdnEyc0opWLd_16sqlrustgo_server6healthNtB6_13HealthChecker3newReEB8_
FNDA:4,_RINvMs_NtCsdnEyc0opWLd_16sqlrustgo_server6healthNtB5_15ComponentHealth12with_messageReEB7_
FNDA:13,_RINvMs_NtCsdnEyc0opWLd_16sqlrustgo_server6healthNtB5_15ComponentHealth3newReEB7_
FNDA:1,_RNCINvMs1_NtCsdnEyc0opWLd_16sqlrustgo_server6healthNtB8_12HealthReport3newRNtNtCsj0gLuUEfogP_5alloc6string6StringE0Ba_
FNDA:3,_RNCINvMs1_NtCsdnEyc0opWLd_16sqlrustgo_server6healthNtB8_12HealthReport3newRNtNtCsj0gLuUEfogP_5alloc6string6StringEs0_0Ba_
FNDA:0,_RNCINvMs1_NtCsdnEyc0opWLd_16sqlrustgo_server6healthNtB8_12HealthReport3newRNtNtCsj0gLuUEfogP_5alloc6string6StringEs_0Ba_
FNDA:7,_RNCINvMs1_NtCsdnEyc0opWLd_16sqlrustgo_server6healthNtB8_12HealthReport3newReE0Ba_
FNDA:4,_RNCINvMs1_NtCsdnEyc0opWLd_16sqlrustgo_server6healthNtB8_12HealthReport3newReEs0_0Ba_
FNDA:4,_RNCINvMs1_NtCsdnEyc0opWLd_16sqlrustgo_server6healthNtB8_12HealthReport3newReEs_0Ba_
FNDA:2,_RNCNvMs0_NtCsdnEyc0opWLd_16sqlrustgo_server6healthNtB7_25ComprehensiveHealthReport3new0B9_
FNDA:1,_RNCNvMs2_NtCsdnEyc0opWLd_16sqlrustgo_server6healthNtB7_13HealthChecker11check_ready0B9_
FNDA:1,_RNvNtNtCsdnEyc0opWLd_16sqlrustgo_server6health5testss_19test_liveness_check
FNDA:1,_RNvNtNtCsdnEyc0opWLd_16sqlrustgo_server6health5testss_21test_component_health
FNDA:1,_RNvNtNtCsdnEyc0opWLd_16sqlrustgo_server6health5testss_26test_health_status_strings
FNDA:1,_RNvNtNtCsdnEyc0opWLd_16sqlrustgo_server6health5testss_26test_readiness_check_empty
FNDA:1,_RNvNtNtCsdnEyc0opWLd_16sqlrustgo_server6health5testss_28test_health_checker_creation
FNDA:1,_RNvNtNtCsdnEyc0opWLd_16sqlrustgo_server6health5testss_28test_system_health_component
FNDA:1,_RNvNtNtCsdnEyc0opWLd_16sqlrustgo_server6health5testss_30test_health_report_all_healthy
FNDA:1,_RNvNtNtCsdnEyc0opWLd_16sqlrustgo_server6health5testss_32test_health_report_with_degraded
FNDA:1,_RNvNtNtCsdnEyc0opWLd_16sqlrustgo_server6health5testss_33test_health_report_with_unhealthy
FNDA:1,_RNvNtNtCsdnEyc0opWLd_16sqlrustgo_server6health5testss_36test_comprehensive_health_report_new
FNDA:1,_RNvNtNtCsdnEyc0opWLd_16sqlrustgo_server6health5testss_36test_readiness_check_with_components
FNDA:1,_RNvNtNtCsdnEyc0opWLd_16sqlrustgo_server6health5testss_39test_component_health_with_latency_none
FNDA:1,_RNvNtNtCsdnEyc0opWLd_16sqlrustgo_server6health5testss_45test_comprehensive_health_report_with_metrics
FNDA:6,_RNvMNtCsdnEyc0opWLd_16sqlrustgo_server6healthNtB2_12HealthStatus6as_str
FNDA:2,_RNvMs0_NtCsdnEyc0opWLd_16sqlrustgo_server6healthNtB5_25ComprehensiveHealthReport3new
FNDA:2,_RNvMs2_NtCsdnEyc0opWLd_16sqlrustgo_server6healthNtB5_13HealthChecker10check_live
FNDA:3,_RNvMs2_NtCsdnEyc0opWLd_16sqlrustgo_server6healthNtB5_13HealthChecker11check_ready
FNDA:1,_RNvMs2_NtCsdnEyc0opWLd_16sqlrustgo_server6healthNtB5_13HealthChecker7version
FNDA:2,_RNvMs4_NtCsdnEyc0opWLd_16sqlrustgo_server6healthNtB5_21SystemHealthComponent3new
FNDA:2,_RNvMs_NtCsdnEyc0opWLd_16sqlrustgo_server6healthNtB4_15ComponentHealth12with_latency
FNDA:1,_RNvXs3_NtCsdnEyc0opWLd_16sqlrustgo_server6healthNtB5_13HealthCheckerNtNtCs8nPosuWgJFh_4core7default7Default7default
FNDA:0,_RNvXs5_NtCsdnEyc0opWLd_16sqlrustgo_server6healthNtB5_21SystemHealthComponentNtB5_15HealthComponent4name
FNDA:2,_RNvXs5_NtCsdnEyc0opWLd_16sqlrustgo_server6healthNtB5_21SystemHealthComponentNtB5_15HealthComponent5check
FNDA:0,_RNCNvMs2_NtCsdnEyc0opWLd_16sqlrustgo_server6healthNtB7_13HealthChecker12check_health0B9_
FNDA:0,_RNCNvMs2_NtCsdnEyc0opWLd_16sqlrustgo_server6healthNtB7_13HealthChecker12check_healths0_0B9_
FNDA:0,_RNCNvMs2_NtCsdnEyc0opWLd_16sqlrustgo_server6healthNtB7_13HealthChecker12check_healths1_0B9_
FNDA:0,_RNCNvMs2_NtCsdnEyc0opWLd_16sqlrustgo_server6healthNtB7_13HealthChecker12check_healths2_0B9_
FNDA:0,_RNCNvMs2_NtCsdnEyc0opWLd_16sqlrustgo_server6healthNtB7_13HealthChecker12check_healths_0B9_
FNDA:0,_RNCNvMs2_NtCsdnEyc0opWLd_16sqlrustgo_server6healthNtB7_13HealthChecker14uptime_seconds0B9_
FNDA:0,_RNvMs2_NtCsdnEyc0opWLd_16sqlrustgo_server6healthNtB5_13HealthChecker12check_health
FNDA:0,_RNvMs2_NtCsdnEyc0opWLd_16sqlrustgo_server6healthNtB5_13HealthChecker14uptime_seconds
FNF:41
FNH:32
DA:26,6
DA:27,6
DA:28,2
DA:29,2
DA:30,2
DA:32,6
DA:44,13
DA:45,13
DA:46,13
DA:47,13
DA:48,13
DA:49,13
DA:50,13
DA:51,13
DA:53,4
DA:54,4
DA:55,4
DA:56,4
DA:58,2
DA:59,2
DA:60,2
DA:61,2
DA:82,2
DA:83,2
DA:84,2
DA:85,2
DA:86,2
DA:87,2
DA:88,2
DA:89,2
DA:90,2
DA:91,2
DA:92,2
DA:94,2
DA:95,2
DA:96,2
DA:97,2
DA:98,2
DA:99,2
DA:100,2
DA:101,2
DA:102,2
DA:114,7
DA:115,8
DA:116,5
DA:117,2
DA:118,2
DA:119,4
DA:121,1
DA:123,1
DA:126,7
DA:127,7
DA:128,7
DA:129,7
DA:131,7
DA:132,7
DA:133,7
DA:134,7
DA:135,7
DA:136,7
DA:137,7
DA:152,6
DA:153,6
DA:154,6
DA:155,6
DA:156,6
DA:157,6
DA:158,6
DA:160,1
DA:161,1
DA:162,1
DA:163,1
DA:165,2
DA:166,2
DA:167,2
DA:169,3
DA:170,3
DA:172,3
DA:173,3
DA:175,1
DA:176,1
DA:177,1
DA:179,0
DA:180,0
DA:181,0
DA:183,0
DA:184,0
DA:186,0
DA:187,0
DA:188,0
DA:189,0
DA:190,0
DA:192,0
DA:194,0
DA:197,0
DA:198,0
DA:199,0
DA:200,0
DA:203,0
DA:204,0
DA:205,0
DA:206,0
DA:207,0
DA:208,0
DA:209,0
DA:210,0
DA:211,0
DA:213,0
DA:217,1
DA:218,1
DA:219,1
DA:226,2
DA:227,2
DA:228,2
DA:232,0
DA:233,0
DA:234,0
DA:236,2
DA:237,2
DA:238,2
DA:246,1
DA:247,1
DA:248,1
DA:249,1
DA:252,1
DA:253,1
DA:254,1
DA:255,1
DA:256,1
DA:259,1
DA:260,1
DA:261,1
DA:262,1
DA:263,1
DA:264,1
DA:267,1
DA:268,1
DA:269,1
DA:270,1
DA:271,1
DA:272,1
DA:275,1
DA:276,1
DA:277,1
DA:278,1
DA:280,1
DA:281,1
DA:282,1
DA:283,1
DA:284,1
DA:287,1
DA:288,1
DA:289,1
DA:290,1
DA:291,1
DA:294,1
DA:295,1
DA:296,1
DA:297,1
DA:299,1
DA:300,1
DA:301,1
DA:304,1
DA:305,1
DA:306,1
DA:307,1
DA:309,1
DA:310,1
DA:311,1
DA:314,1
DA:315,1
DA:316,1
DA:317,1
DA:319,1
DA:320,1
DA:321,1
DA:324,1
DA:325,1
DA:326,1
DA:327,1
DA:328,1
DA:329,1
DA:332,1
DA:335,1
DA:336,1
DA:337,1
DA:338,1
DA:341,1
DA:342,1
DA:343,1
DA:345,1
DA:346,1
DA:349,1
DA:350,1
DA:351,1
DA:352,1
DA:353,1
DA:356,1
DA:359,1
DA:360,1
DA:361,1
DA:362,1
DA:363,1
DA:364,1
DA:366,1
DA:367,1
DA:368,1
DA:370,1
DA:371,1
DA:374,1
DA:375,1
DA:378,1
DA:379,1
DA:380,1
DA:381,1
BRF:0
BRH:0
LF:226
LH:191
end_of_record
SF:/home/openclaw/dev/yinglichina8848/sqlrustgo/crates/server/src/http_server.rs
FN:206,_RNvMNtNtCsdnEyc0opWLd_16sqlrustgo_server11http_server5testsNtB2_13MockTcpStream3new
FN:259,_RNvNtNtCsdnEyc0opWLd_16sqlrustgo_server11http_server5testss_21test_http_server_host
FN:234,_RNvNtNtCsdnEyc0opWLd_16sqlrustgo_server11http_server5testss_25test_http_server_creation
FN:336,_RNvNtNtCsdnEyc0opWLd_16sqlrustgo_server11http_server5testss_27test_handle_request_metrics
FN:350,_RNvNtNtCsdnEyc0opWLd_16sqlrustgo_server11http_server5testss_29test_handle_request_not_found
FN:240,_RNvNtNtCsdnEyc0opWLd_16sqlrustgo_server11http_server5testss_29test_http_server_with_version
FN:274,_RNvNtNtCsdnEyc0opWLd_16sqlrustgo_server11http_server5testss_31test_handle_request_health_live
FN:289,_RNvNtNtCsdnEyc0opWLd_16sqlrustgo_server11http_server5testss_32test_handle_request_health_ready
FN:253,_RNvNtNtCsdnEyc0opWLd_16sqlrustgo_server11http_server5testss_32test_http_server_default_version
FN:320,_RNvNtNtCsdnEyc0opWLd_16sqlrustgo_server11http_server5testss_36test_handle_request_ready_short_path
FN:364,_RNvNtNtCsdnEyc0opWLd_16sqlrustgo_server11http_server5testss_37test_handle_request_bad_request_empty
FN:305,_RNvNtNtCsdnEyc0opWLd_16sqlrustgo_server11http_server5testss_37test_handle_request_health_short_path
FN:266,_RNvNtNtCsdnEyc0opWLd_16sqlrustgo_server11http_server5testss_37test_http_server_with_different_ports
FN:246,_RNvNtNtCsdnEyc0opWLd_16sqlrustgo_server11http_server5testss_38test_http_server_with_metrics_registry
FN:375,_RNvNtNtCsdnEyc0opWLd_16sqlrustgo_server11http_server5testss_39test_handle_request_bad_request_no_path
FN:228,_RNvXs0_NtNtCsdnEyc0opWLd_16sqlrustgo_server11http_server5testsNtB5_13MockTcpStreamNtNtCsicaZO8UCM9y_3std2io5Write5flush
FN:224,_RNvXs0_NtNtCsdnEyc0opWLd_16sqlrustgo_server11http_server5testsNtB5_13MockTcpStreamNtNtCsicaZO8UCM9y_3std2io5Write5write
FN:215,_RNvXs_NtNtCsdnEyc0opWLd_16sqlrustgo_server11http_server5testsNtB4_13MockTcpStreamNtNtCsicaZO8UCM9y_3std2io4Read4read
FN:41,_RNvMNtCsdnEyc0opWLd_16sqlrustgo_server11http_serverNtB2_10HttpServer11get_version
FN:35,_RNvMNtCsdnEyc0opWLd_16sqlrustgo_server11http_serverNtB2_10HttpServer21with_metrics_registry
FN:101,_RNCNCNvMNtCsdnEyc0opWLd_16sqlrustgo_server11http_serverNtB6_10HttpServer16start_background00B8_
FN:94,_RNCNvMNtCsdnEyc0opWLd_16sqlrustgo_server11http_serverNtB4_10HttpServer16start_background0B6_
FN:75,_RNCNvMNtCsdnEyc0opWLd_16sqlrustgo_server11http_serverNtB4_10HttpServer5start0B6_
FN:89,_RNvMNtCsdnEyc0opWLd_16sqlrustgo_server11http_serverNtB2_10HttpServer16start_background
FN:46,_RNvMNtCsdnEyc0opWLd_16sqlrustgo_server11http_serverNtB2_10HttpServer22bind_to_available_port
FN:59,_RNvMNtCsdnEyc0opWLd_16sqlrustgo_server11http_serverNtB2_10HttpServer5start
FN:30,_RINvMNtCsdnEyc0opWLd_16sqlrustgo_server11http_serverNtB3_10HttpServer12with_versionReEB5_
FN:21,_RINvMNtCsdnEyc0opWLd_16sqlrustgo_server11http_serverNtB3_10HttpServer3newReEB5_
FN:112,_RINvNtCsdnEyc0opWLd_16sqlrustgo_server11http_server14handle_requestNtNtB2_5tests13MockTcpStreamEB4_
FNDA:8,_RNvMNtNtCsdnEyc0opWLd_16sqlrustgo_server11http_server5testsNtB2_13MockTcpStream3new
FNDA:1,_RNvNtNtCsdnEyc0opWLd_16sqlrustgo_server11http_server5testss_21test_http_server_host
FNDA:1,_RNvNtNtCsdnEyc0opWLd_16sqlrustgo_server11http_server5testss_25test_http_server_creation
FNDA:1,_RNvNtNtCsdnEyc0opWLd_16sqlrustgo_server11http_server5testss_27test_handle_request_metrics
FNDA:1,_RNvNtNtCsdnEyc0opWLd_16sqlrustgo_server11http_server5testss_29test_handle_request_not_found
FNDA:1,_RNvNtNtCsdnEyc0opWLd_16sqlrustgo_server11http_server5testss_29test_http_server_with_version
FNDA:1,_RNvNtNtCsdnEyc0opWLd_16sqlrustgo_server11http_server5testss_31test_handle_request_health_live
FNDA:1,_RNvNtNtCsdnEyc0opWLd_16sqlrustgo_server11http_server5testss_32test_handle_request_health_ready
FNDA:1,_RNvNtNtCsdnEyc0opWLd_16sqlrustgo_server11http_server5testss_32test_http_server_default_version
FNDA:1,_RNvNtNtCsdnEyc0opWLd_16sqlrustgo_server11http_server5testss_36test_handle_request_ready_short_path
FNDA:1,_RNvNtNtCsdnEyc0opWLd_16sqlrustgo_server11http_server5testss_37test_handle_request_bad_request_empty
FNDA:1,_RNvNtNtCsdnEyc0opWLd_16sqlrustgo_server11http_server5testss_37test_handle_request_health_short_path
FNDA:1,_RNvNtNtCsdnEyc0opWLd_16sqlrustgo_server11http_server5testss_37test_http_server_with_different_ports
FNDA:1,_RNvNtNtCsdnEyc0opWLd_16sqlrustgo_server11http_server5testss_38test_http_server_with_metrics_registry
FNDA:1,_RNvNtNtCsdnEyc0opWLd_16sqlrustgo_server11http_server5testss_39test_handle_request_bad_request_no_path
FNDA:7,_RNvXs0_NtNtCsdnEyc0opWLd_16sqlrustgo_server11http_server5testsNtB5_13MockTcpStreamNtNtCsicaZO8UCM9y_3std2io5Write5flush
FNDA:7,_RNvXs0_NtNtCsdnEyc0opWLd_16sqlrustgo_server11http_server5testsNtB5_13MockTcpStreamNtNtCsicaZO8UCM9y_3std2io5Write5write
FNDA:8,_RNvXs_NtNtCsdnEyc0opWLd_16sqlrustgo_server11http_server5testsNtB4_13MockTcpStreamNtNtCsicaZO8UCM9y_3std2io4Read4read
FNDA:1,_RNvMNtCsdnEyc0opWLd_16sqlrustgo_server11http_serverNtB2_10HttpServer11get_version
FNDA:1,_RNvMNtCsdnEyc0opWLd_16sqlrustgo_server11http_serverNtB2_10HttpServer21with_metrics_registry
FNDA:0,_RNCNCNvMNtCsdnEyc0opWLd_16sqlrustgo_server11http_serverNtB6_10HttpServer16start_background00B8_
FNDA:0,_RNCNvMNtCsdnEyc0opWLd_16sqlrustgo_server11http_serverNtB4_10HttpServer16start_background0B6_
FNDA:0,_RNCNvMNtCsdnEyc0opWLd_16sqlrustgo_server11http_serverNtB4_10HttpServer5start0B6_
FNDA:0,_RNvMNtCsdnEyc0opWLd_16sqlrustgo_server11http_serverNtB2_10HttpServer16start_background
FNDA:0,_RNvMNtCsdnEyc0opWLd_16sqlrustgo_server11http_serverNtB2_10HttpServer22bind_to_available_port
FNDA:0,_RNvMNtCsdnEyc0opWLd_16sqlrustgo_server11http_serverNtB2_10HttpServer5start
FNDA:2,_RINvMNtCsdnEyc0opWLd_16sqlrustgo_server11http_serverNtB3_10HttpServer12with_versionReEB5_
FNDA:8,_RINvMNtCsdnEyc0opWLd_16sqlrustgo_server11http_serverNtB3_10HttpServer3newReEB5_
FNDA:8,_RINvNtCsdnEyc0opWLd_16sqlrustgo_server11http_server14handle_requestNtNtB2_5tests13MockTcpStreamEB4_
FNF:29
FNH:23
DA:21,8
DA:22,8
DA:23,8
DA:24,8
DA:25,8
DA:26,8
DA:27,8
DA:28,8
DA:30,2
DA:31,2
DA:32,2
DA:33,2
DA:35,1
DA:36,1
DA:37,1
DA:38,1
DA:41,1
DA:42,1
DA:43,1
DA:46,0
DA:47,0
DA:49,0
DA:50,0
DA:51,0
DA:52,0
DA:53,0
DA:54,0
DA:55,0
DA:56,0
DA:59,0
DA:60,0
DA:61,0
DA:63,0
DA:64,0
DA:65,0
DA:66,0
DA:67,0
DA:69,0
DA:70,0
DA:71,0
DA:72,0
DA:73,0
DA:75,0
DA:76,0
DA:77,0
DA:79,0
DA:80,0
DA:85,0
DA:86,0
DA:89,0
DA:90,0
DA:91,0
DA:92,0
DA:94,0
DA:95,0
DA:96,0
DA:97,0
DA:98,0
DA:99,0
DA:100,0
DA:101,0
DA:102,0
DA:103,0
DA:104,0
DA:106,0
DA:107,0
DA:108,0
DA:112,8
DA:113,8
DA:114,8
DA:115,8
DA:116,8
DA:117,8
DA:118,8
DA:120,8
DA:121,1
DA:122,7
DA:124,7
DA:125,7
DA:127,7
DA:128,7
DA:129,7
DA:130,6
DA:132,6
DA:133,6
DA:134,2
DA:135,2
DA:137,2
DA:138,2
DA:140,4
DA:141,2
DA:142,2
DA:143,2
DA:145,2
DA:146,2
DA:148,2
DA:149,1
DA:150,1
DA:151,1
DA:152,1
DA:153,1
DA:154,1
DA:155,1
DA:157,1
DA:158,1
DA:159,1
DA:160,1
DA:161,1
DA:162,1
DA:163,1
DA:164,1
DA:165,1
DA:168,1
DA:169,1
DA:170,1
DA:171,1
DA:172,1
DA:175,0
DA:176,0
DA:177,0
DA:178,0
DA:179,0
DA:182,7
DA:186,7
DA:190,7
DA:191,7
DA:193,7
DA:194,8
DA:206,8
DA:207,8
DA:208,8
DA:209,8
DA:210,8
DA:211,8
DA:215,8
DA:216,8
DA:217,8
DA:218,8
DA:219,8
DA:220,8
DA:224,7
DA:225,7
DA:226,7
DA:227,7
DA:228,7
DA:229,7
DA:230,7
DA:234,1
DA:235,1
DA:236,1
DA:237,1
DA:240,1
DA:241,1
DA:242,1
DA:243,1
DA:246,1
DA:247,1
DA:248,1
DA:249,1
DA:250,1
DA:253,1
DA:254,1
DA:255,1
DA:256,1
DA:259,1
DA:260,1
DA:261,1
DA:262,1
DA:263,1
DA:266,1
DA:267,1
DA:268,1
DA:269,1
DA:270,1
DA:271,1
DA:274,1
DA:275,1
DA:276,1
DA:277,1
DA:279,1
DA:281,1
DA:282,1
DA:283,1
DA:284,1
DA:285,1
DA:286,1
DA:289,1
DA:290,1
DA:291,1
DA:292,1
DA:294,1
DA:296,1
DA:297,1
DA:298,1
DA:299,1
DA:300,1
DA:301,1
DA:302,1
DA:305,1
DA:306,1
DA:307,1
DA:308,1
DA:310,1
DA:312,1
DA:313,1
DA:314,1
DA:315,1
DA:316,1
DA:317,1
DA:320,1
DA:321,1
DA:322,1
DA:323,1
DA:325,1
DA:327,1
DA:328,1
DA:329,1
DA:330,1
DA:331,1
DA:332,1
DA:333,1
DA:336,1
DA:337,1
DA:338,1
DA:339,1
DA:341,1
DA:343,1
DA:344,1
DA:345,1
DA:346,1
DA:347,1
DA:350,1
DA:351,1
DA:352,1
DA:353,1
DA:355,1
DA:357,1
DA:358,1
DA:359,1
DA:360,1
DA:361,1
DA:364,1
DA:365,1
DA:366,1
DA:367,1
DA:369,1
DA:371,1
DA:372,1
DA:375,1
DA:376,1
DA:377,1
DA:378,1
DA:380,1
DA:382,1
DA:383,1
DA:384,1
DA:385,1
BRF:0
BRH:0
LF:260
LH:204
end_of_record
SF:/home/openclaw/dev/yinglichina8848/sqlrustgo/crates/server/src/lib.rs
FN:109,_RNvNtCsdnEyc0opWLd_16sqlrustgo_server5testss_24test_http_server_builder
FN:94,_RNvNtCsdnEyc0opWLd_16sqlrustgo_server5testss_25test_metrics_registry_new
FN:35,_RNvNtCsdnEyc0opWLd_16sqlrustgo_server5testss_25test_server_module_exists
FN:67,_RNvNtCsdnEyc0opWLd_16sqlrustgo_server5testss_26test_health_report_builder
FN:77,_RNvNtCsdnEyc0opWLd_16sqlrustgo_server5testss_27test_connection_pool_config
FN:41,_RNvNtCsdnEyc0opWLd_16sqlrustgo_server5testss_27test_health_checker_default
FN:48,_RNvNtCsdnEyc0opWLd_16sqlrustgo_server5testss_27test_health_status_variants
FN:87,_RNvNtCsdnEyc0opWLd_16sqlrustgo_server5testss_28test_pooled_session_creation
FN:55,_RNvNtCsdnEyc0opWLd_16sqlrustgo_server5testss_29test_component_health_builder
FN:101,_RNvNtCsdnEyc0opWLd_16sqlrustgo_server5testss_31test_teaching_endpoints_default
FNDA:1,_RNvNtCsdnEyc0opWLd_16sqlrustgo_server5testss_24test_http_server_builder
FNDA:1,_RNvNtCsdnEyc0opWLd_16sqlrustgo_server5testss_25test_metrics_registry_new
FNDA:1,_RNvNtCsdnEyc0opWLd_16sqlrustgo_server5testss_25test_server_module_exists
FNDA:1,_RNvNtCsdnEyc0opWLd_16sqlrustgo_server5testss_26test_health_report_builder
FNDA:1,_RNvNtCsdnEyc0opWLd_16sqlrustgo_server5testss_27test_connection_pool_config
FNDA:1,_RNvNtCsdnEyc0opWLd_16sqlrustgo_server5testss_27test_health_checker_default
FNDA:1,_RNvNtCsdnEyc0opWLd_16sqlrustgo_server5testss_27test_health_status_variants
FNDA:1,_RNvNtCsdnEyc0opWLd_16sqlrustgo_server5testss_28test_pooled_session_creation
FNDA:1,_RNvNtCsdnEyc0opWLd_16sqlrustgo_server5testss_29test_component_health_builder
FNDA:1,_RNvNtCsdnEyc0opWLd_16sqlrustgo_server5testss_31test_teaching_endpoints_default
FNF:10
FNH:10
DA:35,1
DA:36,1
DA:37,1
DA:38,1
DA:41,1
DA:42,1
DA:43,1
DA:44,1
DA:45,1
DA:48,1
DA:49,1
DA:50,1
DA:51,1
DA:52,1
DA:55,1
DA:56,1
DA:57,1
DA:58,1
DA:60,1
DA:61,1
DA:62,1
DA:63,1
DA:64,1
DA:67,1
DA:68,1
DA:69,1
DA:71,1
DA:72,1
DA:73,1
DA:74,1
DA:77,1
DA:78,1
DA:79,1
DA:80,1
DA:81,1
DA:82,1
DA:83,1
DA:84,1
DA:87,1
DA:88,1
DA:89,1
DA:90,1
DA:91,1
DA:94,1
DA:95,1
DA:96,1
DA:97,1
DA:98,1
DA:101,1
DA:102,1
DA:103,1
DA:104,1
DA:105,1
DA:106,1
DA:109,1
DA:110,1
DA:111,1
DA:112,1
BRF:0
BRH:0
LF:58
LH:58
end_of_record
SF:/home/openclaw/dev/yinglichina8848/sqlrustgo/crates/server/src/metrics_endpoint.rs
FN:34,_RNvMNtCsdnEyc0opWLd_16sqlrustgo_server16metrics_endpointNtB2_15MetricsRegistry13register_help
FN:26,_RNvMNtCsdnEyc0opWLd_16sqlrustgo_server16metrics_endpointNtB2_15MetricsRegistry16register_metrics
FN:38,_RNvMNtCsdnEyc0opWLd_16sqlrustgo_server16metrics_endpointNtB2_15MetricsRegistry20to_prometheus_format
FN:30,_RNvMNtCsdnEyc0opWLd_16sqlrustgo_server16metrics_endpointNtB2_15MetricsRegistry22register_custom_metric
FN:18,_RNvMNtCsdnEyc0opWLd_16sqlrustgo_server16metrics_endpointNtB2_15MetricsRegistry3new
FN:94,_RNvNtCsdnEyc0opWLd_16sqlrustgo_server16metrics_endpoint15metrics_handler
FN:103,_RNvNtCsdnEyc0opWLd_16sqlrustgo_server16metrics_endpoint23configure_metrics_scope
FN:94,_RNCNvNtCsdnEyc0opWLd_16sqlrustgo_server16metrics_endpoint15metrics_handler0B5_
FN:158,_RNvNtNtCsdnEyc0opWLd_16sqlrustgo_server16metrics_endpoint5testss_27test_metrics_registry_clone
FN:180,_RNvNtNtCsdnEyc0opWLd_16sqlrustgo_server16metrics_endpoint5testss_28test_multiple_custom_metrics
FN:119,_RNvNtNtCsdnEyc0opWLd_16sqlrustgo_server16metrics_endpoint5testss_30test_metrics_registry_creation
FN:169,_RNvNtNtCsdnEyc0opWLd_16sqlrustgo_server16metrics_endpoint5testss_32test_custom_metrics_registration
FN:194,_RNvNtNtCsdnEyc0opWLd_16sqlrustgo_server16metrics_endpoint5testss_34test_metrics_registry_empty_format
FN:140,_RNvNtNtCsdnEyc0opWLd_16sqlrustgo_server16metrics_endpoint5testss_36test_metrics_registry_with_help_text
FN:213,_RNvNtNtCsdnEyc0opWLd_16sqlrustgo_server16metrics_endpoint5testss_38test_metrics_registry_duplicate_metric
FN:125,_RNvNtNtCsdnEyc0opWLd_16sqlrustgo_server16metrics_endpoint5testss_42test_metrics_registry_with_default_metrics
FN:201,_RNvNtNtCsdnEyc0opWLd_16sqlrustgo_server16metrics_endpoint5testss_47test_metrics_registry_help_text_only_registered
FN:108,_RNvXs_NtCsdnEyc0opWLd_16sqlrustgo_server16metrics_endpointNtB4_15MetricsRegistryNtNtCs8nPosuWgJFh_4core7default7Default7default
FNDA:2,_RNvMNtCsdnEyc0opWLd_16sqlrustgo_server16metrics_endpointNtB2_15MetricsRegistry13register_help
FNDA:3,_RNvMNtCsdnEyc0opWLd_16sqlrustgo_server16metrics_endpointNtB2_15MetricsRegistry16register_metrics
FNDA:12,_RNvMNtCsdnEyc0opWLd_16sqlrustgo_server16metrics_endpointNtB2_15MetricsRegistry20to_prometheus_format
FNDA:7,_RNvMNtCsdnEyc0opWLd_16sqlrustgo_server16metrics_endpointNtB2_15MetricsRegistry22register_custom_metric
FNDA:35,_RNvMNtCsdnEyc0opWLd_16sqlrustgo_server16metrics_endpointNtB2_15MetricsRegistry3new
FNDA:1,_RNvNtCsdnEyc0opWLd_16sqlrustgo_server16metrics_endpoint15metrics_handler
FNDA:1,_RNvNtCsdnEyc0opWLd_16sqlrustgo_server16metrics_endpoint23configure_metrics_scope
FNDA:1,_RNCNvNtCsdnEyc0opWLd_16sqlrustgo_server16metrics_endpoint15metrics_handler0B5_
FNDA:1,_RNvNtNtCsdnEyc0opWLd_16sqlrustgo_server16metrics_endpoint5testss_27test_metrics_registry_clone
FNDA:1,_RNvNtNtCsdnEyc0opWLd_16sqlrustgo_server16metrics_endpoint5testss_28test_multiple_custom_metrics
FNDA:1,_RNvNtNtCsdnEyc0opWLd_16sqlrustgo_server16metrics_endpoint5testss_30test_metrics_registry_creation
FNDA:1,_RNvNtNtCsdnEyc0opWLd_16sqlrustgo_server16metrics_endpoint5testss_32test_custom_metrics_registration
FNDA:1,_RNvNtNtCsdnEyc0opWLd_16sqlrustgo_server16metrics_endpoint5testss_34test_metrics_registry_empty_format
FNDA:1,_RNvNtNtCsdnEyc0opWLd_16sqlrustgo_server16metrics_endpoint5testss_36test_metrics_registry_with_help_text
FNDA:1,_RNvNtNtCsdnEyc0opWLd_16sqlrustgo_server16metrics_endpoint5testss_38test_metrics_registry_duplicate_metric
FNDA:1,_RNvNtNtCsdnEyc0opWLd_16sqlrustgo_server16metrics_endpoint5testss_42test_metrics_registry_with_default_metrics
FNDA:1,_RNvNtNtCsdnEyc0opWLd_16sqlrustgo_server16metrics_endpoint5testss_47test_metrics_registry_help_text_only_registered
FNDA:0,_RNvXs_NtCsdnEyc0opWLd_16sqlrustgo_server16metrics_endpointNtB4_15MetricsRegistryNtNtCs8nPosuWgJFh_4core7default7Default7default
FNF:18
FNH:17
DA:18,35
DA:19,35
DA:20,35
DA:21,35
DA:22,35
DA:23,35
DA:24,35
DA:26,3
DA:27,3
DA:28,3
DA:30,7
DA:31,7
DA:32,7
DA:34,2
DA:35,2
DA:36,2
DA:38,12
DA:39,12
DA:41,12
DA:42,3
DA:43,3
DA:44,27
DA:45,27
DA:46,27
DA:48,1
DA:49,26
DA:51,27
DA:52,18
DA:53,6
DA:54,0
DA:55,3
DA:59,27
DA:61,27
DA:62,18
DA:63,6
DA:64,0
DA:65,0
DA:66,0
DA:68,0
DA:69,0
DA:74,0
DA:76,3
DA:79,27
DA:80,0
DA:82,0
DA:85,12
DA:87,6
DA:90,12
DA:91,12
DA:94,1
DA:95,1
DA:96,1
DA:98,1
DA:99,1
DA:100,1
DA:101,1
DA:103,1
DA:104,1
DA:105,1
DA:108,0
DA:109,0
DA:110,0
DA:119,1
DA:120,1
DA:121,1
DA:122,1
DA:125,1
DA:126,1
DA:127,1
DA:128,1
DA:129,1
DA:130,1
DA:132,1
DA:133,1
DA:134,1
DA:136,1
DA:137,1
DA:140,1
DA:141,1
DA:142,1
DA:144,1
DA:145,1
DA:146,1
DA:147,1
DA:148,1
DA:149,1
DA:151,1
DA:153,1
DA:154,1
DA:155,1
DA:158,1
DA:159,1
DA:160,1
DA:162,1
DA:163,1
DA:165,1
DA:166,1
DA:169,1
DA:170,1
DA:171,1
DA:173,1
DA:175,1
DA:176,1
DA:177,1
DA:180,1
DA:181,1
DA:182,1
DA:183,1
DA:184,1
DA:186,1
DA:188,1
DA:189,1
DA:190,1
DA:191,1
DA:194,1
DA:195,1
DA:196,1
DA:197,1
DA:198,1
DA:201,1
DA:202,1
DA:204,1
DA:207,1
DA:209,1
DA:210,1
DA:213,1
DA:214,1
DA:215,1
DA:216,1
DA:218,1
DA:220,1
DA:221,1
DA:222,1
BRF:0
BRH:0
LF:134
LH:122
end_of_record
SF:/home/openclaw/dev/yinglichina8848/sqlrustgo/crates/server/src/openclaw_endpoints.rs
FN:357,_RNvNtCsdnEyc0opWLd_16sqlrustgo_server18openclaw_endpoints13default_limit
FN:150,_RNvNtCsdnEyc0opWLd_16sqlrustgo_server18openclaw_endpoints18default_importance
FN:394,_RNvNtCsdnEyc0opWLd_16sqlrustgo_server18openclaw_endpoints20default_search_limit
FN:456,_RINvMNtCsdnEyc0opWLd_16sqlrustgo_server18openclaw_endpointsNtB3_18OpenClawHttpServer3newpEB5_
FN:569,_RINvNtCsdnEyc0opWLd_16sqlrustgo_server18openclaw_endpoints23handle_openclaw_requestpEB4_
FN:598,_RNCINvNtCsdnEyc0opWLd_16sqlrustgo_server18openclaw_endpoints23handle_openclaw_requestpE0B6_
FN:651,_RNCINvNtCsdnEyc0opWLd_16sqlrustgo_server18openclaw_endpoints23handle_openclaw_requestpEs0_0B6_
FN:690,_RNCINvNtCsdnEyc0opWLd_16sqlrustgo_server18openclaw_endpoints23handle_openclaw_requestpEs1_0B6_
FN:733,_RNCINvNtCsdnEyc0opWLd_16sqlrustgo_server18openclaw_endpoints23handle_openclaw_requestpEs2_0B6_
FN:748,_RNCINvNtCsdnEyc0opWLd_16sqlrustgo_server18openclaw_endpoints23handle_openclaw_requestpEs3_0B6_
FN:793,_RNCINvNtCsdnEyc0opWLd_16sqlrustgo_server18openclaw_endpoints23handle_openclaw_requestpEs4_0B6_
FN:808,_RNCINvNtCsdnEyc0opWLd_16sqlrustgo_server18openclaw_endpoints23handle_openclaw_requestpEs5_0B6_
FN:843,_RNCINvNtCsdnEyc0opWLd_16sqlrustgo_server18openclaw_endpoints23handle_openclaw_requestpEs6_0B6_
FN:874,_RNCINvNtCsdnEyc0opWLd_16sqlrustgo_server18openclaw_endpoints23handle_openclaw_requestpEs7_0B6_
FN:885,_RNCINvNtCsdnEyc0opWLd_16sqlrustgo_server18openclaw_endpoints23handle_openclaw_requestpEs8_0B6_
FN:897,_RNCINvNtCsdnEyc0opWLd_16sqlrustgo_server18openclaw_endpoints23handle_openclaw_requestpEs9_0B6_
FN:1579,_RNCINvNtCsdnEyc0opWLd_16sqlrustgo_server18openclaw_endpoints23handle_openclaw_requestpEsA_0B6_
FN:1607,_RNCINvNtCsdnEyc0opWLd_16sqlrustgo_server18openclaw_endpoints23handle_openclaw_requestpEsB_0B6_
FN:1640,_RNCINvNtCsdnEyc0opWLd_16sqlrustgo_server18openclaw_endpoints23handle_openclaw_requestpEsC_0B6_
FN:636,_RNCINvNtCsdnEyc0opWLd_16sqlrustgo_server18openclaw_endpoints23handle_openclaw_requestpEs_0B6_
FN:914,_RNCINvNtCsdnEyc0opWLd_16sqlrustgo_server18openclaw_endpoints23handle_openclaw_requestpEsa_0B6_
FN:925,_RNCINvNtCsdnEyc0opWLd_16sqlrustgo_server18openclaw_endpoints23handle_openclaw_requestpEsb_0B6_
FN:966,_RNCINvNtCsdnEyc0opWLd_16sqlrustgo_server18openclaw_endpoints23handle_openclaw_requestpEsc_0B6_
FN:1002,_RNCINvNtCsdnEyc0opWLd_16sqlrustgo_server18openclaw_endpoints23handle_openclaw_requestpEsd_0B6_
FN:1022,_RNCINvNtCsdnEyc0opWLd_16sqlrustgo_server18openclaw_endpoints23handle_openclaw_requestpEsf_0B6_
FN:1063,_RNCINvNtCsdnEyc0opWLd_16sqlrustgo_server18openclaw_endpoints23handle_openclaw_requestpEsg_0B6_
FN:1106,_RNCINvNtCsdnEyc0opWLd_16sqlrustgo_server18openclaw_endpoints23handle_openclaw_requestpEsh_0B6_
FN:1148,_RNCINvNtCsdnEyc0opWLd_16sqlrustgo_server18openclaw_endpoints23handle_openclaw_requestpEsi_0B6_
FN:1183,_RNCINvNtCsdnEyc0opWLd_16sqlrustgo_server18openclaw_endpoints23handle_openclaw_requestpEsj_0B6_
FN:1195,_RNCINvNtCsdnEyc0opWLd_16sqlrustgo_server18openclaw_endpoints23handle_openclaw_requestpEsk_0B6_
FN:1213,_RNCINvNtCsdnEyc0opWLd_16sqlrustgo_server18openclaw_endpoints23handle_openclaw_requestpEsl_0B6_
FN:1251,_RNCINvNtCsdnEyc0opWLd_16sqlrustgo_server18openclaw_endpoints23handle_openclaw_requestpEsm_0B6_
FN:1288,_RNCINvNtCsdnEyc0opWLd_16sqlrustgo_server18openclaw_endpoints23handle_openclaw_requestpEsn_0B6_
FN:1300,_RNCINvNtCsdnEyc0opWLd_16sqlrustgo_server18openclaw_endpoints23handle_openclaw_requestpEso_0B6_
FN:1322,_RNCINvNtCsdnEyc0opWLd_16sqlrustgo_server18openclaw_endpoints23handle_openclaw_requestpEsp_0B6_
FN:1345,_RNCINvNtCsdnEyc0opWLd_16sqlrustgo_server18openclaw_endpoints23handle_openclaw_requestpEsq_0B6_
FN:1395,_RNCINvNtCsdnEyc0opWLd_16sqlrustgo_server18openclaw_endpoints23handle_openclaw_requestpEsr_0B6_
FN:1430,_RNCINvNtCsdnEyc0opWLd_16sqlrustgo_server18openclaw_endpoints23handle_openclaw_requestpEss_0B6_
FN:1459,_RNCINvNtCsdnEyc0opWLd_16sqlrustgo_server18openclaw_endpoints23handle_openclaw_requestpEst_0B6_
FN:1471,_RNCINvNtCsdnEyc0opWLd_16sqlrustgo_server18openclaw_endpoints23handle_openclaw_requestpEsu_0B6_
FN:1505,_RNCINvNtCsdnEyc0opWLd_16sqlrustgo_server18openclaw_endpoints23handle_openclaw_requestpEsv_0B6_
FN:1513,_RNCINvNtCsdnEyc0opWLd_16sqlrustgo_server18openclaw_endpoints23handle_openclaw_requestpEsw_0B6_
FN:1537,_RNCINvNtCsdnEyc0opWLd_16sqlrustgo_server18openclaw_endpoints23handle_openclaw_requestpEsx_0B6_
FN:1547,_RNCINvNtCsdnEyc0opWLd_16sqlrustgo_server18openclaw_endpoints23handle_openclaw_requestpEsy_0B6_
FN:1571,_RNCINvNtCsdnEyc0opWLd_16sqlrustgo_server18openclaw_endpoints23handle_openclaw_requestpEsz_0B6_
FN:2407,_RNCNCNCNvNtCsdnEyc0opWLd_16sqlrustgo_server18openclaw_endpoints10get_schema000B9_
FN:2403,_RNCNCNvNtCsdnEyc0opWLd_16sqlrustgo_server18openclaw_endpoints10get_schema00B7_
FN:1862,_RNCNCNvNtCsdnEyc0opWLd_16sqlrustgo_server18openclaw_endpoints11execute_sqlsd_00B7_
FN:2003,_RNCNCNvNtCsdnEyc0opWLd_16sqlrustgo_server18openclaw_endpoints11execute_sqlsn_00B7_
FN:546,_RNCNvMNtCsdnEyc0opWLd_16sqlrustgo_server18openclaw_endpointsNtB4_18OpenClawHttpServer5start0B6_
FN:2399,_RNCNvNtCsdnEyc0opWLd_16sqlrustgo_server18openclaw_endpoints10get_schema0B5_
FN:1716,_RNCNvNtCsdnEyc0opWLd_16sqlrustgo_server18openclaw_endpoints11execute_sql0B5_
FN:1723,_RNCNvNtCsdnEyc0opWLd_16sqlrustgo_server18openclaw_endpoints11execute_sqls0_0B5_
FN:1731,_RNCNvNtCsdnEyc0opWLd_16sqlrustgo_server18openclaw_endpoints11execute_sqls1_0B5_
FN:1739,_RNCNvNtCsdnEyc0opWLd_16sqlrustgo_server18openclaw_endpoints11execute_sqls2_0B5_
FN:1758,_RNCNvNtCsdnEyc0opWLd_16sqlrustgo_server18openclaw_endpoints11execute_sqls3_0B5_
FN:1772,_RNCNvNtCsdnEyc0opWLd_16sqlrustgo_server18openclaw_endpoints11execute_sqls4_0B5_
FN:1795,_RNCNvNtCsdnEyc0opWLd_16sqlrustgo_server18openclaw_endpoints11execute_sqls5_0B5_
FN:1798,_RNCNvNtCsdnEyc0opWLd_16sqlrustgo_server18openclaw_endpoints11execute_sqls6_0B5_
FN:1804,_RNCNvNtCsdnEyc0opWLd_16sqlrustgo_server18openclaw_endpoints11execute_sqls7_0B5_
FN:1813,_RNCNvNtCsdnEyc0opWLd_16sqlrustgo_server18openclaw_endpoints11execute_sqls8_0B5_
FN:1815,_RNCNvNtCsdnEyc0opWLd_16sqlrustgo_server18openclaw_endpoints11execute_sqls9_0B5_
FN:1720,_RNCNvNtCsdnEyc0opWLd_16sqlrustgo_server18openclaw_endpoints11execute_sqls_0B5_
FN:1820,_RNCNvNtCsdnEyc0opWLd_16sqlrustgo_server18openclaw_endpoints11execute_sqlsa_0B5_
FN:1839,_RNCNvNtCsdnEyc0opWLd_16sqlrustgo_server18openclaw_endpoints11execute_sqlsb_0B5_
FN:1840,_RNCNvNtCsdnEyc0opWLd_16sqlrustgo_server18openclaw_endpoints11execute_sqlsc_0B5_
FN:1845,_RNCNvNtCsdnEyc0opWLd_16sqlrustgo_server18openclaw_endpoints11execute_sqlsd_0B5_
FN:1877,_RNCNvNtCsdnEyc0opWLd_16sqlrustgo_server18openclaw_endpoints11execute_sqlse_0B5_
FN:1891,_RNCNvNtCsdnEyc0opWLd_16sqlrustgo_server18openclaw_endpoints11execute_sqlsf_0B5_
FN:1910,_RNCNvNtCsdnEyc0opWLd_16sqlrustgo_server18openclaw_endpoints11execute_sqlsg_0B5_
FN:1926,_RNCNvNtCsdnEyc0opWLd_16sqlrustgo_server18openclaw_endpoints11execute_sqlsh_0B5_
FN:1937,_RNCNvNtCsdnEyc0opWLd_16sqlrustgo_server18openclaw_endpoints11execute_sqlsi_0B5_
FN:1952,_RNCNvNtCsdnEyc0opWLd_16sqlrustgo_server18openclaw_endpoints11execute_sqlsj_0B5_
FN:1965,_RNCNvNtCsdnEyc0opWLd_16sqlrustgo_server18openclaw_endpoints11execute_sqlsk_0B5_
FN:1983,_RNCNvNtCsdnEyc0opWLd_16sqlrustgo_server18openclaw_endpoints11execute_sqlsl_0B5_
FN:1991,_RNCNvNtCsdnEyc0opWLd_16sqlrustgo_server18openclaw_endpoints11execute_sqlsm_0B5_
FN:1998,_RNCNvNtCsdnEyc0opWLd_16sqlrustgo_server18openclaw_endpoints11execute_sqlsn_0B5_
FN:2022,_RNCNvNtCsdnEyc0opWLd_16sqlrustgo_server18openclaw_endpoints11execute_sqlso_0B5_
FN:2036,_RNCNvNtCsdnEyc0opWLd_16sqlrustgo_server18openclaw_endpoints11execute_sqlsp_0B5_
FN:2091,_RNCNvNtCsdnEyc0opWLd_16sqlrustgo_server18openclaw_endpoints13evaluate_expr0B5_
FN:2373,_RNCNvNtCsdnEyc0opWLd_16sqlrustgo_server18openclaw_endpoints19execute_graph_query0B5_
FN:2360,_RNCNvNtCsdnEyc0opWLd_16sqlrustgo_server18openclaw_endpoints20execute_vector_query0B5_
FN:2334,_RNCNvNtCsdnEyc0opWLd_16sqlrustgo_server18openclaw_endpoints21execute_unified_query0B5_
FN:2445,_RNCNvNtCsdnEyc0opWLd_16sqlrustgo_server18openclaw_endpoints9get_stats0B5_
FN:480,_RNvMNtCsdnEyc0opWLd_16sqlrustgo_server18openclaw_endpointsNtB2_18OpenClawHttpServer11get_version
FN:475,_RNvMNtCsdnEyc0opWLd_16sqlrustgo_server18openclaw_endpointsNtB2_18OpenClawHttpServer19get_scheduler_state
FN:490,_RNvMNtCsdnEyc0opWLd_16sqlrustgo_server18openclaw_endpointsNtB2_18OpenClawHttpServer5start
FN:485,_RNvMNtCsdnEyc0opWLd_16sqlrustgo_server18openclaw_endpointsNtB2_18OpenClawHttpServer8get_port
FN:2393,_RNvNtCsdnEyc0opWLd_16sqlrustgo_server18openclaw_endpoints10get_schema
FN:1712,_RNvNtCsdnEyc0opWLd_16sqlrustgo_server18openclaw_endpoints11execute_sql
FN:2204,_RNvNtCsdnEyc0opWLd_16sqlrustgo_server18openclaw_endpoints13base64_encode
FN:154,_RNvNtCsdnEyc0opWLd_16sqlrustgo_server18openclaw_endpoints13default_top_k
FN:2069,_RNvNtCsdnEyc0opWLd_16sqlrustgo_server18openclaw_endpoints13evaluate_expr
FN:2180,_RNvNtCsdnEyc0opWLd_16sqlrustgo_server18openclaw_endpoints13value_to_json
FN:2121,_RNvNtCsdnEyc0opWLd_16sqlrustgo_server18openclaw_endpoints14compare_values
FN:323,_RNvNtCsdnEyc0opWLd_16sqlrustgo_server18openclaw_endpoints17default_traversal
FN:327,_RNvNtCsdnEyc0opWLd_16sqlrustgo_server18openclaw_endpoints19default_graph_depth
FN:2369,_RNvNtCsdnEyc0opWLd_16sqlrustgo_server18openclaw_endpoints19execute_graph_query
FN:2356,_RNvNtCsdnEyc0opWLd_16sqlrustgo_server18openclaw_endpoints20execute_vector_query
FN:2049,_RNvNtCsdnEyc0opWLd_16sqlrustgo_server18openclaw_endpoints21evaluate_literal_expr
FN:2105,_RNvNtCsdnEyc0opWLd_16sqlrustgo_server18openclaw_endpoints21evaluate_where_clause
FN:2274,_RNvNtCsdnEyc0opWLd_16sqlrustgo_server18openclaw_endpoints21execute_unified_query
FN:2435,_RNvNtCsdnEyc0opWLd_16sqlrustgo_server18openclaw_endpoints9get_stats
FN:2230,_RNvNtCsdnEyc0opWLd_16sqlrustgo_server18openclaw_endpoints9nl_to_sql
FN:2502,_RNvNtNtCsdnEyc0opWLd_16sqlrustgo_server18openclaw_endpoints5testss_33test_load_memory_request_defaults
FN:2517,_RNvNtNtCsdnEyc0opWLd_16sqlrustgo_server18openclaw_endpoints5testss_33test_query_response_serialization
FN:2530,_RNvNtNtCsdnEyc0opWLd_16sqlrustgo_server18openclaw_endpoints5testss_34test_schema_response_serialization
FN:2509,_RNvNtNtCsdnEyc0opWLd_16sqlrustgo_server18openclaw_endpoints5testss_35test_search_memory_request_defaults
FN:2493,_RNvNtNtCsdnEyc0opWLd_16sqlrustgo_server18openclaw_endpoints5testss_38test_save_memory_request_with_defaults
FN:2485,_RNvNtNtCsdnEyc0opWLd_16sqlrustgo_server18openclaw_endpoints5testss_40test_save_memory_request_deserialization
FNDA:1,_RNvNtCsdnEyc0opWLd_16sqlrustgo_server18openclaw_endpoints13default_limit
FNDA:2,_RNvNtCsdnEyc0opWLd_16sqlrustgo_server18openclaw_endpoints18default_importance
FNDA:1,_RNvNtCsdnEyc0opWLd_16sqlrustgo_server18openclaw_endpoints20default_search_limit
FNDA:0,_RINvMNtCsdnEyc0opWLd_16sqlrustgo_server18openclaw_endpointsNtB3_18OpenClawHttpServer3newpEB5_
FNDA:0,_RINvNtCsdnEyc0opWLd_16sqlrustgo_server18openclaw_endpoints23handle_openclaw_requestpEB4_
FNDA:0,_RNCINvNtCsdnEyc0opWLd_16sqlrustgo_server18openclaw_endpoints23handle_openclaw_requestpE0B6_
FNDA:0,_RNCINvNtCsdnEyc0opWLd_16sqlrustgo_server18openclaw_endpoints23handle_openclaw_requestpEs0_0B6_
FNDA:0,_RNCINvNtCsdnEyc0opWLd_16sqlrustgo_server18openclaw_endpoints23handle_openclaw_requestpEs1_0B6_
FNDA:0,_RNCINvNtCsdnEyc0opWLd_16sqlrustgo_server18openclaw_endpoints23handle_openclaw_requestpEs2_0B6_
FNDA:0,_RNCINvNtCsdnEyc0opWLd_16sqlrustgo_server18openclaw_endpoints23handle_openclaw_requestpEs3_0B6_
FNDA:0,_RNCINvNtCsdnEyc0opWLd_16sqlrustgo_server18openclaw_endpoints23handle_openclaw_requestpEs4_0B6_
FNDA:0,_RNCINvNtCsdnEyc0opWLd_16sqlrustgo_server18openclaw_endpoints23handle_openclaw_requestpEs5_0B6_
FNDA:0,_RNCINvNtCsdnEyc0opWLd_16sqlrustgo_server18openclaw_endpoints23handle_openclaw_requestpEs6_0B6_
FNDA:0,_RNCINvNtCsdnEyc0opWLd_16sqlrustgo_server18openclaw_endpoints23handle_openclaw_requestpEs7_0B6_
FNDA:0,_RNCINvNtCsdnEyc0opWLd_16sqlrustgo_server18openclaw_endpoints23handle_openclaw_requestpEs8_0B6_
FNDA:0,_RNCINvNtCsdnEyc0opWLd_16sqlrustgo_server18openclaw_endpoints23handle_openclaw_requestpEs9_0B6_
FNDA:0,_RNCINvNtCsdnEyc0opWLd_16sqlrustgo_server18openclaw_endpoints23handle_openclaw_requestpEsA_0B6_
FNDA:0,_RNCINvNtCsdnEyc0opWLd_16sqlrustgo_server18openclaw_endpoints23handle_openclaw_requestpEsB_0B6_
FNDA:0,_RNCINvNtCsdnEyc0opWLd_16sqlrustgo_server18openclaw_endpoints23handle_openclaw_requestpEsC_0B6_
FNDA:0,_RNCINvNtCsdnEyc0opWLd_16sqlrustgo_server18openclaw_endpoints23handle_openclaw_requestpEs_0B6_
FNDA:0,_RNCINvNtCsdnEyc0opWLd_16sqlrustgo_server18openclaw_endpoints23handle_openclaw_requestpEsa_0B6_
FNDA:0,_RNCINvNtCsdnEyc0opWLd_16sqlrustgo_server18openclaw_endpoints23handle_openclaw_requestpEsb_0B6_
FNDA:0,_RNCINvNtCsdnEyc0opWLd_16sqlrustgo_server18openclaw_endpoints23handle_openclaw_requestpEsc_0B6_
FNDA:0,_RNCINvNtCsdnEyc0opWLd_16sqlrustgo_server18openclaw_endpoints23handle_openclaw_requestpEsd_0B6_
FNDA:0,_RNCINvNtCsdnEyc0opWLd_16sqlrustgo_server18openclaw_endpoints23handle_openclaw_requestpEsf_0B6_
FNDA:0,_RNCINvNtCsdnEyc0opWLd_16sqlrustgo_server18openclaw_endpoints23handle_openclaw_requestpEsg_0B6_
FNDA:0,_RNCINvNtCsdnEyc0opWLd_16sqlrustgo_server18openclaw_endpoints23handle_openclaw_requestpEsh_0B6_
FNDA:0,_RNCINvNtCsdnEyc0opWLd_16sqlrustgo_server18openclaw_endpoints23handle_openclaw_requestpEsi_0B6_
FNDA:0,_RNCINvNtCsdnEyc0opWLd_16sqlrustgo_server18openclaw_endpoints23handle_openclaw_requestpEsj_0B6_
FNDA:0,_RNCINvNtCsdnEyc0opWLd_16sqlrustgo_server18openclaw_endpoints23handle_openclaw_requestpEsk_0B6_
FNDA:0,_RNCINvNtCsdnEyc0opWLd_16sqlrustgo_server18openclaw_endpoints23handle_openclaw_requestpEsl_0B6_
FNDA:0,_RNCINvNtCsdnEyc0opWLd_16sqlrustgo_server18openclaw_endpoints23handle_openclaw_requestpEsm_0B6_
FNDA:0,_RNCINvNtCsdnEyc0opWLd_16sqlrustgo_server18openclaw_endpoints23handle_openclaw_requestpEsn_0B6_
FNDA:0,_RNCINvNtCsdnEyc0opWLd_16sqlrustgo_server18openclaw_endpoints23handle_openclaw_requestpEso_0B6_
FNDA:0,_RNCINvNtCsdnEyc0opWLd_16sqlrustgo_server18openclaw_endpoints23handle_openclaw_requestpEsp_0B6_
FNDA:0,_RNCINvNtCsdnEyc0opWLd_16sqlrustgo_server18openclaw_endpoints23handle_openclaw_requestpEsq_0B6_
FNDA:0,_RNCINvNtCsdnEyc0opWLd_16sqlrustgo_server18openclaw_endpoints23handle_openclaw_requestpEsr_0B6_
FNDA:0,_RNCINvNtCsdnEyc0opWLd_16sqlrustgo_server18openclaw_endpoints23handle_openclaw_requestpEss_0B6_
FNDA:0,_RNCINvNtCsdnEyc0opWLd_16sqlrustgo_server18openclaw_endpoints23handle_openclaw_requestpEst_0B6_
FNDA:0,_RNCINvNtCsdnEyc0opWLd_16sqlrustgo_server18openclaw_endpoints23handle_openclaw_requestpEsu_0B6_
FNDA:0,_RNCINvNtCsdnEyc0opWLd_16sqlrustgo_server18openclaw_endpoints23handle_openclaw_requestpEsv_0B6_
FNDA:0,_RNCINvNtCsdnEyc0opWLd_16sqlrustgo_server18openclaw_endpoints23handle_openclaw_requestpEsw_0B6_
FNDA:0,_RNCINvNtCsdnEyc0opWLd_16sqlrustgo_server18openclaw_endpoints23handle_openclaw_requestpEsx_0B6_
FNDA:0,_RNCINvNtCsdnEyc0opWLd_16sqlrustgo_server18openclaw_endpoints23handle_openclaw_requestpEsy_0B6_
FNDA:0,_RNCINvNtCsdnEyc0opWLd_16sqlrustgo_server18openclaw_endpoints23handle_openclaw_requestpEsz_0B6_
FNDA:0,_RNCNCNCNvNtCsdnEyc0opWLd_16sqlrustgo_server18openclaw_endpoints10get_schema000B9_
FNDA:0,_RNCNCNvNtCsdnEyc0opWLd_16sqlrustgo_server18openclaw_endpoints10get_schema00B7_
FNDA:0,_RNCNCNvNtCsdnEyc0opWLd_16sqlrustgo_server18openclaw_endpoints11execute_sqlsd_00B7_
FNDA:0,_RNCNCNvNtCsdnEyc0opWLd_16sqlrustgo_server18openclaw_endpoints11execute_sqlsn_00B7_
FNDA:0,_RNCNvMNtCsdnEyc0opWLd_16sqlrustgo_server18openclaw_endpointsNtB4_18OpenClawHttpServer5start0B6_
FNDA:0,_RNCNvNtCsdnEyc0opWLd_16sqlrustgo_server18openclaw_endpoints10get_schema0B5_
FNDA:0,_RNCNvNtCsdnEyc0opWLd_16sqlrustgo_server18openclaw_endpoints11execute_sql0B5_
FNDA:0,_RNCNvNtCsdnEyc0opWLd_16sqlrustgo_server18openclaw_endpoints11execute_sqls0_0B5_
FNDA:0,_RNCNvNtCsdnEyc0opWLd_16sqlrustgo_server18openclaw_endpoints11execute_sqls1_0B5_
FNDA:0,_RNCNvNtCsdnEyc0opWLd_16sqlrustgo_server18openclaw_endpoints11execute_sqls2_0B5_
FNDA:0,_RNCNvNtCsdnEyc0opWLd_16sqlrustgo_server18openclaw_endpoints11execute_sqls3_0B5_
FNDA:0,_RNCNvNtCsdnEyc0opWLd_16sqlrustgo_server18openclaw_endpoints11execute_sqls4_0B5_
FNDA:0,_RNCNvNtCsdnEyc0opWLd_16sqlrustgo_server18openclaw_endpoints11execute_sqls5_0B5_
FNDA:0,_RNCNvNtCsdnEyc0opWLd_16sqlrustgo_server18openclaw_endpoints11execute_sqls6_0B5_
FNDA:0,_RNCNvNtCsdnEyc0opWLd_16sqlrustgo_server18openclaw_endpoints11execute_sqls7_0B5_
FNDA:0,_RNCNvNtCsdnEyc0opWLd_16sqlrustgo_server18openclaw_endpoints11execute_sqls8_0B5_
FNDA:0,_RNCNvNtCsdnEyc0opWLd_16sqlrustgo_server18openclaw_endpoints11execute_sqls9_0B5_
FNDA:0,_RNCNvNtCsdnEyc0opWLd_16sqlrustgo_server18openclaw_endpoints11execute_sqls_0B5_
FNDA:0,_RNCNvNtCsdnEyc0opWLd_16sqlrustgo_server18openclaw_endpoints11execute_sqlsa_0B5_
FNDA:0,_RNCNvNtCsdnEyc0opWLd_16sqlrustgo_server18openclaw_endpoints11execute_sqlsb_0B5_
FNDA:0,_RNCNvNtCsdnEyc0opWLd_16sqlrustgo_server18openclaw_endpoints11execute_sqlsc_0B5_
FNDA:0,_RNCNvNtCsdnEyc0opWLd_16sqlrustgo_server18openclaw_endpoints11execute_sqlsd_0B5_
FNDA:0,_RNCNvNtCsdnEyc0opWLd_16sqlrustgo_server18openclaw_endpoints11execute_sqlse_0B5_
FNDA:0,_RNCNvNtCsdnEyc0opWLd_16sqlrustgo_server18openclaw_endpoints11execute_sqlsf_0B5_
FNDA:0,_RNCNvNtCsdnEyc0opWLd_16sqlrustgo_server18openclaw_endpoints11execute_sqlsg_0B5_
FNDA:0,_RNCNvNtCsdnEyc0opWLd_16sqlrustgo_server18openclaw_endpoints11execute_sqlsh_0B5_
FNDA:0,_RNCNvNtCsdnEyc0opWLd_16sqlrustgo_server18openclaw_endpoints11execute_sqlsi_0B5_
FNDA:0,_RNCNvNtCsdnEyc0opWLd_16sqlrustgo_server18openclaw_endpoints11execute_sqlsj_0B5_
FNDA:0,_RNCNvNtCsdnEyc0opWLd_16sqlrustgo_server18openclaw_endpoints11execute_sqlsk_0B5_
FNDA:0,_RNCNvNtCsdnEyc0opWLd_16sqlrustgo_server18openclaw_endpoints11execute_sqlsl_0B5_
FNDA:0,_RNCNvNtCsdnEyc0opWLd_16sqlrustgo_server18openclaw_endpoints11execute_sqlsm_0B5_
FNDA:0,_RNCNvNtCsdnEyc0opWLd_16sqlrustgo_server18openclaw_endpoints11execute_sqlsn_0B5_
FNDA:0,_RNCNvNtCsdnEyc0opWLd_16sqlrustgo_server18openclaw_endpoints11execute_sqlso_0B5_
FNDA:0,_RNCNvNtCsdnEyc0opWLd_16sqlrustgo_server18openclaw_endpoints11execute_sqlsp_0B5_
FNDA:0,_RNCNvNtCsdnEyc0opWLd_16sqlrustgo_server18openclaw_endpoints13evaluate_expr0B5_
FNDA:0,_RNCNvNtCsdnEyc0opWLd_16sqlrustgo_server18openclaw_endpoints19execute_graph_query0B5_
FNDA:0,_RNCNvNtCsdnEyc0opWLd_16sqlrustgo_server18openclaw_endpoints20execute_vector_query0B5_
FNDA:0,_RNCNvNtCsdnEyc0opWLd_16sqlrustgo_server18openclaw_endpoints21execute_unified_query0B5_
FNDA:0,_RNCNvNtCsdnEyc0opWLd_16sqlrustgo_server18openclaw_endpoints9get_stats0B5_
FNDA:0,_RNvMNtCsdnEyc0opWLd_16sqlrustgo_server18openclaw_endpointsNtB2_18OpenClawHttpServer11get_version
FNDA:0,_RNvMNtCsdnEyc0opWLd_16sqlrustgo_server18openclaw_endpointsNtB2_18OpenClawHttpServer19get_scheduler_state
FNDA:0,_RNvMNtCsdnEyc0opWLd_16sqlrustgo_server18openclaw_endpointsNtB2_18OpenClawHttpServer5start
FNDA:0,_RNvMNtCsdnEyc0opWLd_16sqlrustgo_server18openclaw_endpointsNtB2_18OpenClawHttpServer8get_port
FNDA:0,_RNvNtCsdnEyc0opWLd_16sqlrustgo_server18openclaw_endpoints10get_schema
FNDA:0,_RNvNtCsdnEyc0opWLd_16sqlrustgo_server18openclaw_endpoints11execute_sql
FNDA:0,_RNvNtCsdnEyc0opWLd_16sqlrustgo_server18openclaw_endpoints13base64_encode
FNDA:0,_RNvNtCsdnEyc0opWLd_16sqlrustgo_server18openclaw_endpoints13default_top_k
FNDA:0,_RNvNtCsdnEyc0opWLd_16sqlrustgo_server18openclaw_endpoints13evaluate_expr
FNDA:0,_RNvNtCsdnEyc0opWLd_16sqlrustgo_server18openclaw_endpoints13value_to_json
FNDA:0,_RNvNtCsdnEyc0opWLd_16sqlrustgo_server18openclaw_endpoints14compare_values
FNDA:0,_RNvNtCsdnEyc0opWLd_16sqlrustgo_server18openclaw_endpoints17default_traversal
FNDA:0,_RNvNtCsdnEyc0opWLd_16sqlrustgo_server18openclaw_endpoints19default_graph_depth
FNDA:0,_RNvNtCsdnEyc0opWLd_16sqlrustgo_server18openclaw_endpoints19execute_graph_query
FNDA:0,_RNvNtCsdnEyc0opWLd_16sqlrustgo_server18openclaw_endpoints20execute_vector_query
FNDA:0,_RNvNtCsdnEyc0opWLd_16sqlrustgo_server18openclaw_endpoints21evaluate_literal_expr
FNDA:0,_RNvNtCsdnEyc0opWLd_16sqlrustgo_server18openclaw_endpoints21evaluate_where_clause
FNDA:0,_RNvNtCsdnEyc0opWLd_16sqlrustgo_server18openclaw_endpoints21execute_unified_query
FNDA:0,_RNvNtCsdnEyc0opWLd_16sqlrustgo_server18openclaw_endpoints9get_stats
FNDA:0,_RNvNtCsdnEyc0opWLd_16sqlrustgo_server18openclaw_endpoints9nl_to_sql
FNDA:1,_RNvNtNtCsdnEyc0opWLd_16sqlrustgo_server18openclaw_endpoints5testss_33test_load_memory_request_defaults
FNDA:1,_RNvNtNtCsdnEyc0opWLd_16sqlrustgo_server18openclaw_endpoints5testss_33test_query_response_serialization
FNDA:1,_RNvNtNtCsdnEyc0opWLd_16sqlrustgo_server18openclaw_endpoints5testss_34test_schema_response_serialization
FNDA:1,_RNvNtNtCsdnEyc0opWLd_16sqlrustgo_server18openclaw_endpoints5testss_35test_search_memory_request_defaults
FNDA:1,_RNvNtNtCsdnEyc0opWLd_16sqlrustgo_server18openclaw_endpoints5testss_38test_save_memory_request_with_defaults
FNDA:1,_RNvNtNtCsdnEyc0opWLd_16sqlrustgo_server18openclaw_endpoints5testss_40test_save_memory_request_deserialization
FNF:110
FNH:9
DA:150,2
DA:151,2
DA:152,2
DA:154,0
DA:155,0
DA:156,0
DA:323,0
DA:324,0
DA:325,0
DA:327,0
DA:328,0
DA:329,0
DA:357,1
DA:358,1
DA:359,1
DA:394,1
DA:395,1
DA:396,1
DA:456,0
DA:457,0
DA:458,0
DA:459,0
DA:460,0
DA:461,0
DA:462,0
DA:463,0
DA:464,0
DA:465,0
DA:466,0
DA:467,0
DA:468,0
DA:469,0
DA:470,0
DA:471,0
DA:472,0
DA:475,0
DA:476,0
DA:477,0
DA:480,0
DA:481,0
DA:482,0
DA:485,0
DA:486,0
DA:487,0
DA:490,0
DA:491,0
DA:492,0
DA:495,0
DA:496,0
DA:497,0
DA:499,0
DA:500,0
DA:501,0
DA:502,0
DA:506,0
DA:507,0
DA:508,0
DA:509,0
DA:510,0
DA:511,0
DA:512,0
DA:513,0
DA:514,0
DA:515,0
DA:516,0
DA:517,0
DA:518,0
DA:519,0
DA:520,0
DA:521,0
DA:522,0
DA:523,0
DA:524,0
DA:525,0
DA:526,0
DA:527,0
DA:528,0
DA:529,0
DA:530,0
DA:531,0
DA:532,0
DA:533,0
DA:534,0
DA:536,0
DA:537,0
DA:538,0
DA:539,0
DA:540,0
DA:541,0
DA:542,0
DA:543,0
DA:544,0
DA:546,0
DA:547,0
DA:548,0
DA:549,0
DA:550,0
DA:551,0
DA:552,0
DA:553,0
DA:554,0
DA:555,0
DA:556,0
DA:558,0
DA:559,0
DA:564,0
DA:565,0
DA:569,0
DA:570,0
DA:571,0
DA:572,0
DA:573,0
DA:574,0
DA:575,0
DA:576,0
DA:577,0
DA:578,0
DA:579,0
DA:581,0
DA:582,0
DA:583,0
DA:585,0
DA:586,0
DA:588,0
DA:589,0
DA:590,0
DA:591,0
DA:592,0
DA:595,0
DA:596,0
DA:597,0
DA:598,0
DA:600,0
DA:603,0
DA:605,0
DA:606,0
DA:607,0
DA:608,0
DA:610,0
DA:611,0
DA:615,0
DA:616,0
DA:617,0
DA:618,0
DA:619,0
DA:620,0
DA:621,0
DA:623,0
DA:625,0
DA:626,0
DA:627,0
DA:628,0
DA:629,0
DA:630,0
DA:631,0
DA:632,0
DA:636,0
DA:637,0
DA:638,0
DA:641,0
DA:642,0
DA:643,0
DA:644,0
DA:645,0
DA:646,0
DA:647,0
DA:651,0
DA:652,0
DA:653,0
DA:658,0
DA:659,0
DA:660,0
DA:661,0
DA:663,0
DA:664,0
DA:668,0
DA:669,0
DA:670,0
DA:672,0
DA:673,0
DA:678,0
DA:679,0
DA:680,0
DA:681,0
DA:682,0
DA:683,0
DA:684,0
DA:685,0
DA:686,0
DA:690,0
DA:691,0
DA:692,0
DA:695,0
DA:696,0
DA:697,0
DA:698,0
DA:700,0
DA:701,0
DA:705,0
DA:706,0
DA:707,0
DA:709,0
DA:710,0
DA:715,0
DA:716,0
DA:717,0
DA:718,0
DA:719,0
DA:720,0
DA:721,0
DA:722,0
DA:723,0
DA:724,0
DA:725,0
DA:726,0
DA:727,0
DA:728,0
DA:729,0
DA:733,0
DA:734,0
DA:735,0
DA:738,0
DA:739,0
DA:740,0
DA:741,0
DA:742,0
DA:743,0
DA:744,0
DA:748,0
DA:749,0
DA:750,0
DA:755,0
DA:756,0
DA:757,0
DA:758,0
DA:760,0
DA:761,0
DA:765,0
DA:766,0
DA:767,0
DA:769,0
DA:770,0
DA:775,0
DA:776,0
DA:777,0
DA:778,0
DA:779,0
DA:780,0
DA:781,0
DA:782,0
DA:783,0
DA:784,0
DA:785,0
DA:786,0
DA:787,0
DA:788,0
DA:789,0
DA:793,0
DA:794,0
DA:795,0
DA:798,0
DA:799,0
DA:800,0
DA:801,0
DA:802,0
DA:803,0
DA:804,0
DA:808,0
DA:809,0
DA:810,0
DA:815,0
DA:816,0
DA:817,0
DA:818,0
DA:820,0
DA:821,0
DA:825,0
DA:826,0
DA:827,0
DA:829,0
DA:830,0
DA:835,0
DA:836,0
DA:837,0
DA:838,0
DA:839,0
DA:843,0
DA:844,0
DA:845,0
DA:848,0
DA:849,0
DA:850,0
DA:851,0
DA:853,0
DA:854,0
DA:858,0
DA:859,0
DA:860,0
DA:862,0
DA:863,0
DA:868,0
DA:869,0
DA:873,0
DA:874,0
DA:879,0
DA:880,0
DA:884,0
DA:885,0
DA:890,0
DA:891,0
DA:892,0
DA:893,0
DA:894,0
DA:895,0
DA:896,0
DA:897,0
DA:899,0
DA:900,0
DA:901,0
DA:902,0
DA:903,0
DA:904,0
DA:905,0
DA:906,0
DA:907,0
DA:908,0
DA:909,0
DA:911,0
DA:912,0
DA:913,0
DA:914,0
DA:915,0
DA:917,0
DA:918,0
DA:919,0
DA:920,0
DA:921,0
DA:925,0
DA:926,0
DA:927,0
DA:930,0
DA:931,0
DA:932,0
DA:933,0
DA:935,0
DA:936,0
DA:940,0
DA:941,0
DA:942,0
DA:944,0
DA:945,0
DA:950,0
DA:951,0
DA:952,0
DA:953,0
DA:954,0
DA:955,0
DA:958,0
DA:959,0
DA:960,0
DA:961,0
DA:962,0
DA:966,0
DA:967,0
DA:968,0
DA:971,0
DA:972,0
DA:973,0
DA:974,0
DA:976,0
DA:977,0
DA:981,0
DA:982,0
DA:983,0
DA:985,0
DA:986,0
DA:991,0
DA:992,0
DA:993,0
DA:994,0
DA:995,0
DA:996,0
DA:998,0
DA:999,0
DA:1000,0
DA:1001,0
DA:1002,0
DA:1003,0
DA:1004,0
DA:1006,0
DA:1007,0
DA:1008,0
DA:1009,0
DA:1010,0
DA:1011,0
DA:1012,0
DA:1014,0
DA:1015,0
DA:1016,0
DA:1017,0
DA:1022,0
DA:1023,0
DA:1024,0
DA:1027,0
DA:1028,0
DA:1029,0
DA:1030,0
DA:1032,0
DA:1033,0
DA:1037,0
DA:1038,0
DA:1039,0
DA:1041,0
DA:1042,0
DA:1047,0
DA:1048,0
DA:1049,0
DA:1050,0
DA:1051,0
DA:1054,0
DA:1056,0
DA:1057,0
DA:1058,0
DA:1059,0
DA:1063,0
DA:1064,0
DA:1065,0
DA:1068,0
DA:1069,0
DA:1070,0
DA:1071,0
DA:1073,0
DA:1074,0
DA:1078,0
DA:1079,0
DA:1080,0
DA:1082,0
DA:1083,0
DA:1088,0
DA:1089,0
DA:1090,0
DA:1092,0
DA:1093,0
DA:1095,0
DA:1096,0
DA:1097,0
DA:1098,0
DA:1099,0
DA:1100,0
DA:1101,0
DA:1105,0
DA:1106,0
DA:1111,0
DA:1112,0
DA:1113,0
DA:1114,0
DA:1115,0
DA:1116,0
DA:1117,0
DA:1118,0
DA:1126,0
DA:1127,0
DA:1128,0
DA:1129,0
DA:1130,0
DA:1131,0
DA:1132,0
DA:1133,0
DA:1134,0
DA:1135,0
DA:1136,0
DA:1137,0
DA:1138,0
DA:1139,0
DA:1140,0
DA:1141,0
DA:1142,0
DA:1143,0
DA:1144,0
DA:1148,0
DA:1149,0
DA:1150,0
DA:1153,0
DA:1154,0
DA:1155,0
DA:1156,0
DA:1158,0
DA:1159,0
DA:1163,0
DA:1164,0
DA:1165,0
DA:1167,0
DA:1168,0
DA:1173,0
DA:1174,0
DA:1175,0
DA:1176,0
DA:1177,0
DA:1178,0
DA:1179,0
DA:1183,0
DA:1184,0
DA:1185,0
DA:1188,0
DA:1189,0
DA:1190,0
DA:1191,0
DA:1195,0
DA:1196,0
DA:1197,0
DA:1203,0
DA:1204,0
DA:1205,0
DA:1206,0
DA:1207,0
DA:1208,0
DA:1212,0
DA:1213,0
DA:1218,0
DA:1219,0
DA:1220,0
DA:1221,0
DA:1222,0
DA:1223,0
DA:1225,0
DA:1226,0
DA:1228,0
DA:1229,0
DA:1230,0
DA:1232,0
DA:1233,0
DA:1238,0
DA:1239,0
DA:1240,0
DA:1241,0
DA:1242,0
DA:1243,0
DA:1244,0
DA:1245,0
DA:1246,0
DA:1247,0
DA:1251,0
DA:1252,0
DA:1253,0
DA:1256,0
DA:1257,0
DA:1258,0
DA:1259,0
DA:1261,0
DA:1262,0
DA:1266,0
DA:1267,0
DA:1268,0
DA:1270,0
DA:1271,0
DA:1276,0
DA:1277,0
DA:1278,0
DA:1279,0
DA:1280,0
DA:1281,0
DA:1282,0
DA:1283,0
DA:1284,0
DA:1288,0
DA:1289,0
DA:1290,0
DA:1293,0
DA:1294,0
DA:1295,0
DA:1296,0
DA:1300,0
DA:1301,0
DA:1302,0
DA:1308,0
DA:1309,0
DA:1310,0
DA:1311,0
DA:1313,0
DA:1314,0
DA:1315,0
DA:1316,0
DA:1317,0
DA:1318,0
DA:1322,0
DA:1323,0
DA:1324,0
DA:1328,0
DA:1329,0
DA:1330,0
DA:1334,0
DA:1335,0
DA:1337,0
DA:1338,0
DA:1339,0
DA:1340,0
DA:1341,0
DA:1345,0
DA:1346,0
DA:1347,0
DA:1351,0
DA:1352,0
DA:1353,0
DA:1354,0
DA:1356,0
DA:1357,0
DA:1361,0
DA:1362,0
DA:1363,0
DA:1365,0
DA:1366,0
DA:1371,0
DA:1372,0
DA:1373,0
DA:1374,0
DA:1375,0
DA:1376,0
DA:1377,0
DA:1378,0
DA:1379,0
DA:1380,0
DA:1381,0
DA:1382,0
DA:1383,0
DA:1384,0
DA:1385,0
DA:1386,0
DA:1387,0
DA:1388,0
DA:1389,0
DA:1390,0
DA:1391,0
DA:1395,0
DA:1396,0
DA:1397,0
DA:1400,0
DA:1401,0
DA:1402,0
DA:1403,0
DA:1405,0
DA:1406,0
DA:1410,0
DA:1411,0
DA:1412,0
DA:1414,0
DA:1415,0
DA:1420,0
DA:1421,0
DA:1422,0
DA:1423,0
DA:1424,0
DA:1425,0
DA:1429,0
DA:1430,0
DA:1435,0
DA:1436,0
DA:1437,0
DA:1438,0
DA:1439,0
DA:1440,0
DA:1441,0
DA:1442,0
DA:1443,0
DA:1445,0
DA:1446,0
DA:1447,0
DA:1448,0
DA:1449,0
DA:1450,0
DA:1451,0
DA:1452,0
DA:1453,0
DA:1454,0
DA:1455,0
DA:1459,0
DA:1460,0
DA:1461,0
DA:1464,0
DA:1465,0
DA:1466,0
DA:1467,0
DA:1471,0
DA:1472,0
DA:1473,0
DA:1477,0
DA:1478,0
DA:1479,0
DA:1480,0
DA:1482,0
DA:1483,0
DA:1487,0
DA:1488,0
DA:1489,0
DA:1491,0
DA:1492,0
DA:1501,0
DA:1502,0
DA:1503,0
DA:1504,0
DA:1505,0
DA:1506,0
DA:1507,0
DA:1509,0
DA:1510,0
DA:1513,0
DA:1514,0
DA:1515,0
DA:1517,0
DA:1518,0
DA:1519,0
DA:1520,0
DA:1522,0
DA:1523,0
DA:1524,0
DA:1525,0
DA:1526,0
DA:1527,0
DA:1533,0
DA:1534,0
DA:1535,0
DA:1536,0
DA:1537,0
DA:1538,0
DA:1539,0
DA:1541,0
DA:1542,0
DA:1543,0
DA:1544,0
DA:1547,0
DA:1548,0
DA:1549,0
DA:1551,0
DA:1552,0
DA:1553,0
DA:1554,0
DA:1556,0
DA:1557,0
DA:1558,0
DA:1559,0
DA:1560,0
DA:1561,0
DA:1567,0
DA:1568,0
DA:1569,0
DA:1570,0
DA:1571,0
DA:1572,0
DA:1573,0
DA:1575,0
DA:1576,0
DA:1579,0
DA:1580,0
DA:1581,0
DA:1583,0
DA:1584,0
DA:1585,0
DA:1586,0
DA:1588,0
DA:1589,0
DA:1590,0
DA:1591,0
DA:1592,0
DA:1593,0
DA:1599,0
DA:1600,0
DA:1601,0
DA:1603,0
DA:1604,0
DA:1607,0
DA:1608,0
DA:1609,0
DA:1611,0
DA:1612,0
DA:1613,0
DA:1614,0
DA:1616,0
DA:1617,0
DA:1618,0
DA:1619,0
DA:1620,0
DA:1621,0
DA:1627,0
DA:1628,0
DA:1630,0
DA:1631,0
DA:1632,0
DA:1633,0
DA:1634,0
DA:1635,0
DA:1640,0
DA:1641,0
DA:1642,0
DA:1645,0
DA:1646,0
DA:1647,0
DA:1648,0
DA:1650,0
DA:1651,0
DA:1652,0
DA:1653,0
DA:1654,0
DA:1655,0
DA:1662,0
DA:1663,0
DA:1664,0
DA:1666,0
DA:1667,0
DA:1671,0
DA:1672,0
DA:1673,0
DA:1674,0
DA:1675,0
DA:1678,0
DA:1679,0
DA:1680,0
DA:1681,0
DA:1682,0
DA:1685,0
DA:1689,0
DA:1693,0
DA:1694,0
DA:1696,0
DA:1697,0
DA:1712,0
DA:1713,0
DA:1714,0
DA:1715,0
DA:1716,0
DA:1719,0
DA:1720,0
DA:1721,0
DA:1723,0
DA:1724,0
DA:1725,0
DA:1726,0
DA:1727,0
DA:1728,0
DA:1731,0
DA:1732,0
DA:1733,0
DA:1734,0
DA:1735,0
DA:1736,0
DA:1739,0
DA:1740,0
DA:1741,0
DA:1742,0
DA:1743,0
DA:1744,0
DA:1747,0
DA:1748,0
DA:1749,0
DA:1750,0
DA:1751,0
DA:1754,0
DA:1756,0
DA:1757,0
DA:1758,0
DA:1760,0
DA:1761,0
DA:1762,0
DA:1763,0
DA:1764,0
DA:1767,0
DA:1768,0
DA:1769,0
DA:1770,0
DA:1771,0
DA:1772,0
DA:1774,0
DA:1777,0
DA:1780,0
DA:1783,0
DA:1784,0
DA:1785,0
DA:1789,0
DA:1790,0
DA:1791,0
DA:1793,0
DA:1794,0
DA:1795,0
DA:1796,0
DA:1798,0
DA:1801,0
DA:1802,0
DA:1803,0
DA:1804,0
DA:1805,0
DA:1807,0
DA:1810,0
DA:1811,0
DA:1813,0
DA:1815,0
DA:1818,0
DA:1819,0
DA:1820,0
DA:1821,0
DA:1823,0
DA:1824,0
DA:1825,0
DA:1826,0
DA:1827,0
DA:1830,0
DA:1831,0
DA:1832,0
DA:1833,0
DA:1834,0
DA:1836,0
DA:1837,0
DA:1838,0
DA:1839,0
DA:1840,0
DA:1842,0
DA:1843,0
DA:1844,0
DA:1845,0
DA:1846,0
DA:1847,0
DA:1849,0
DA:1850,0
DA:1851,0
DA:1852,0
DA:1853,0
DA:1856,0
DA:1857,0
DA:1858,0
DA:1859,0
DA:1860,0
DA:1861,0
DA:1862,0
DA:1863,0
DA:1864,0
DA:1865,0
DA:1866,0
DA:1867,0
DA:1868,0
DA:1871,0
DA:1872,0
DA:1873,0
DA:1875,0
DA:1876,0
DA:1877,0
DA:1879,0
DA:1880,0
DA:1881,0
DA:1882,0
DA:1883,0
DA:1886,0
DA:1887,0
DA:1888,0
DA:1889,0
DA:1890,0
DA:1891,0
DA:1892,0
DA:1893,0
DA:1894,0
DA:1895,0
DA:1896,0
DA:1897,0
DA:1898,0
DA:1899,0
DA:1900,0
DA:1902,0
DA:1903,0
DA:1904,0
DA:1905,0
DA:1906,0
DA:1908,0
DA:1909,0
DA:1910,0
DA:1912,0
DA:1913,0
DA:1914,0
DA:1915,0
DA:1916,0
DA:1919,0
DA:1920,0
DA:1921,0
DA:1922,0
DA:1924,0
DA:1925,0
DA:1926,0
DA:1927,0
DA:1929,0
DA:1931,0
DA:1932,0
DA:1933,0
DA:1935,0
DA:1936,0
DA:1937,0
DA:1938,0
DA:1939,0
DA:1941,0
DA:1943,0
DA:1944,0
DA:1947,0
DA:1949,0
DA:1950,0
DA:1951,0
DA:1952,0
DA:1953,0
DA:1954,0
DA:1956,0
DA:1958,0
DA:1959,0
DA:1961,0
DA:1962,0
DA:1963,0
DA:1964,0
DA:1965,0
DA:1966,0
DA:1967,0
DA:1969,0
DA:1970,0
DA:1971,0
DA:1972,0
DA:1973,0
DA:1976,0
DA:1977,0
DA:1978,0
DA:1979,0
DA:1981,0
DA:1982,0
DA:1983,0
DA:1984,0
DA:1986,0
DA:1988,0
DA:1989,0
DA:1990,0
DA:1991,0
DA:1992,0
DA:1993,0
DA:1995,0
DA:1997,0
DA:1998,0
DA:1999,0
DA:2000,0
DA:2001,0
DA:2002,0
DA:2003,0
DA:2004,0
DA:2005,0
DA:2006,0
DA:2008,0
DA:2009,0
DA:2010,0
DA:2012,0
DA:2014,0
DA:2015,0
DA:2016,0
DA:2017,0
DA:2018,0
DA:2019,0
DA:2020,0
DA:2021,0
DA:2022,0
DA:2023,0
DA:2025,0
DA:2026,0
DA:2027,0
DA:2028,0
DA:2029,0
DA:2032,0
DA:2033,0
DA:2034,0
DA:2035,0
DA:2036,0
DA:2037,0
DA:2038,0
DA:2039,0
DA:2040,0
DA:2041,0
DA:2044,0
DA:2046,0
DA:2049,0
DA:2050,0
DA:2051,0
DA:2052,0
DA:2053,0
DA:2054,0
DA:2055,0
DA:2056,0
DA:2057,0
DA:2058,0
DA:2059,0
DA:2061,0
DA:2064,0
DA:2066,0
DA:2069,0
DA:2070,0
DA:2071,0
DA:2072,0
DA:2073,0
DA:2074,0
DA:2075,0
DA:2076,0
DA:2077,0
DA:2078,0
DA:2079,0
DA:2080,0
DA:2081,0
DA:2082,0
DA:2083,0
DA:2085,0
DA:2088,0
DA:2089,0
DA:2090,0
DA:2091,0
DA:2093,0
DA:2094,0
DA:2095,0
DA:2097,0
DA:2100,0
DA:2102,0
DA:2105,0
DA:2106,0
DA:2107,0
DA:2108,0
DA:2109,0
DA:2110,0
DA:2111,0
DA:2112,0
DA:2113,0
DA:2114,0
DA:2116,0
DA:2118,0
DA:2121,0
DA:2122,0
DA:2123,0
DA:2124,0
DA:2125,0
DA:2126,0
DA:2127,0
DA:2128,0
DA:2129,0
DA:2131,0
DA:2132,0
DA:2133,0
DA:2135,0
DA:2136,0
DA:2137,0
DA:2139,0
DA:2140,0
DA:2141,0
DA:2143,0
DA:2144,0
DA:2145,0
DA:2147,0
DA:2148,0
DA:2149,0
DA:2150,0
DA:2152,0
DA:2154,0
DA:2155,0
DA:2156,0
DA:2158,0
DA:2159,0
DA:2160,0
DA:2162,0
DA:2163,0
DA:2164,0
DA:2166,0
DA:2167,0
DA:2168,0
DA:2170,0
DA:2171,0
DA:2172,0
DA:2173,0
DA:2175,0
DA:2177,0
DA:2180,0
DA:2181,0
DA:2182,0
DA:2183,0
DA:2184,0
DA:2185,0
DA:2186,0
DA:2187,0
DA:2188,0
DA:2189,0
DA:2190,0
DA:2192,0
DA:2193,0
DA:2195,0
DA:2196,0
DA:2198,0
DA:2199,0
DA:2201,0
DA:2204,0
DA:2206,0
DA:2207,0
DA:2208,0
DA:2209,0
DA:2210,0
DA:2211,0
DA:2213,0
DA:2214,0
DA:2215,0
DA:2216,0
DA:2217,0
DA:2218,0
DA:2219,0
DA:2220,0
DA:2221,0
DA:2222,0
DA:2223,0
DA:2224,0
DA:2226,0
DA:2227,0
DA:2230,0
DA:2231,0
DA:2232,0
DA:2233,0
DA:2234,0
DA:2239,0
DA:2240,0
DA:2243,0
DA:2244,0
DA:2245,0
DA:2247,0
DA:2249,0
DA:2250,0
DA:2251,0
DA:2253,0
DA:2257,0
DA:2258,0
DA:2260,0
DA:2264,0
DA:2265,0
DA:2266,0
DA:2267,0
DA:2268,0
DA:2269,0
DA:2270,0
DA:2271,0
DA:2272,0
DA:2274,0
DA:2275,0
DA:2276,0
DA:2277,0
DA:2278,0
DA:2280,0
DA:2281,0
DA:2282,0
DA:2284,0
DA:2285,0
DA:2286,0
DA:2287,0
DA:2288,0
DA:2289,0
DA:2290,0
DA:2291,0
DA:2292,0
DA:2293,0
DA:2294,0
DA:2295,0
DA:2296,0
DA:2297,0
DA:2298,0
DA:2299,0
DA:2300,0
DA:2301,0
DA:2302,0
DA:2303,0
DA:2304,0
DA:2307,0
DA:2309,0
DA:2310,0
DA:2311,0
DA:2312,0
DA:2313,0
DA:2314,0
DA:2315,0
DA:2316,0
DA:2317,0
DA:2318,0
DA:2319,0
DA:2320,0
DA:2321,0
DA:2322,0
DA:2323,0
DA:2324,0
DA:2325,0
DA:2327,0
DA:2328,0
DA:2329,0
DA:2330,0
DA:2331,0
DA:2332,0
DA:2333,0
DA:2334,0
DA:2335,0
DA:2336,0
DA:2337,0
DA:2339,0
DA:2340,0
DA:2341,0
DA:2342,0
DA:2343,0
DA:2345,0
DA:2346,0
DA:2347,0
DA:2348,0
DA:2349,0
DA:2350,0
DA:2351,0
DA:2352,0
DA:2353,0
DA:2354,0
DA:2356,0
DA:2357,0
DA:2358,0
DA:2359,0
DA:2360,0
DA:2362,0
DA:2363,0
DA:2364,0
DA:2365,0
DA:2366,0
DA:2367,0
DA:2369,0
DA:2370,0
DA:2371,0
DA:2372,0
DA:2373,0
DA:2375,0
DA:2376,0
DA:2377,0
DA:2378,0
DA:2379,0
DA:2381,0
DA:2383,0
DA:2384,0
DA:2386,0
DA:2389,0
DA:2390,0
DA:2393,0
DA:2394,0
DA:2396,0
DA:2397,0
DA:2398,0
DA:2399,0
DA:2400,0
DA:2401,0
DA:2402,0
DA:2403,0
DA:2404,0
DA:2405,0
DA:2406,0
DA:2407,0
DA:2408,0
DA:2409,0
DA:2410,0
DA:2411,0
DA:2412,0
DA:2413,0
DA:2414,0
DA:2415,0
DA:2416,0
DA:2418,0
DA:2419,0
DA:2420,0
DA:2421,0
DA:2422,0
DA:2423,0
DA:2424,0
DA:2426,0
DA:2427,0
DA:2428,0
DA:2429,0
DA:2430,0
DA:2431,0
DA:2432,0
DA:2435,0
DA:2436,0
DA:2437,0
DA:2438,0
DA:2439,0
DA:2441,0
DA:2442,0
DA:2443,0
DA:2444,0
DA:2445,0
DA:2446,0
DA:2447,0
DA:2448,0
DA:2449,0
DA:2450,0
DA:2451,0
DA:2452,0
DA:2453,0
DA:2457,0
DA:2458,0
DA:2459,0
DA:2460,0
DA:2462,0
DA:2465,0
DA:2466,0
DA:2467,0
DA:2468,0
DA:2469,0
DA:2470,0
DA:2471,0
DA:2472,0
DA:2474,0
DA:2475,0
DA:2476,0
DA:2477,0
DA:2478,0
DA:2485,1
DA:2486,1
DA:2487,1
DA:2488,1
DA:2489,1
DA:2490,1
DA:2493,1
DA:2494,1
DA:2495,1
DA:2496,1
DA:2497,1
DA:2498,1
DA:2499,1
DA:2502,1
DA:2503,1
DA:2504,1
DA:2505,1
DA:2506,1
DA:2509,1
DA:2510,1
DA:2511,1
DA:2512,1
DA:2513,1
DA:2514,1
DA:2517,1
DA:2518,1
DA:2519,1
DA:2520,1
DA:2521,1
DA:2522,1
DA:2523,1
DA:2524,1
DA:2525,1
DA:2526,1
DA:2527,1
DA:2530,1
DA:2531,1
DA:2532,1
DA:2533,1
DA:2534,1
DA:2535,1
DA:2536,1
DA:2537,1
DA:2538,1
DA:2539,1
DA:2540,1
DA:2541,1
DA:2542,1
DA:2543,1
DA:2544,1
DA:2545,1
DA:2546,1
DA:2547,1
DA:2548,1
DA:2549,1
DA:2550,1
DA:2551,1
BRF:0
BRH:0
LF:1541
LH:66
end_of_record
SF:/home/openclaw/dev/yinglichina8848/sqlrustgo/crates/server/src/scheduler.rs
FN:447,_RNvNtNtCsdnEyc0opWLd_16sqlrustgo_server9scheduler5testss_18test_task_creation
FN:567,_RNvNtNtCsdnEyc0opWLd_16sqlrustgo_server9scheduler5testss_22test_execution_history
FN:461,_RNvNtNtCsdnEyc0opWLd_16sqlrustgo_server9scheduler5testss_22test_workflow_creation
FN:551,_RNvNtNtCsdnEyc0opWLd_16sqlrustgo_server9scheduler5testss_23test_agent_registration
FN:455,_RNvNtNtCsdnEyc0opWLd_16sqlrustgo_server9scheduler5testss_24test_task_status_default
FN:578,_RNvNtNtCsdnEyc0opWLd_16sqlrustgo_server9scheduler5testss_27test_parallel_workflow_step
FN:500,_RNvNtNtCsdnEyc0opWLd_16sqlrustgo_server9scheduler5testss_29test_workflow_sequential_step
FN:526,_RNvNtNtCsdnEyc0opWLd_16sqlrustgo_server9scheduler5testss_30test_execution_record_creation
FN:519,_RNvNtNtCsdnEyc0opWLd_16sqlrustgo_server9scheduler5testss_31test_agent_status_serialization
FN:481,_RNvNtNtCsdnEyc0opWLd_16sqlrustgo_server9scheduler5testss_31test_scheduler_state_list_tasks
FN:472,_RNvNtNtCsdnEyc0opWLd_16sqlrustgo_server9scheduler5testss_32test_scheduler_state_create_task
FN:491,_RNvNtNtCsdnEyc0opWLd_16sqlrustgo_server9scheduler5testss_32test_scheduler_state_delete_task
FN:534,_RNvNtNtCsdnEyc0opWLd_16sqlrustgo_server9scheduler5testss_40test_create_task_request_deserialization
FN:541,_RNvNtNtCsdnEyc0opWLd_16sqlrustgo_server9scheduler5testss_44test_create_workflow_request_deserialization
FN:57,_RNvMNtCsdnEyc0opWLd_16sqlrustgo_server9schedulerNtB2_4Task3new
FN:210,_RNvMs1_NtCsdnEyc0opWLd_16sqlrustgo_server9schedulerNtB5_14SchedulerState10list_tasks
FN:188,_RNvMs1_NtCsdnEyc0opWLd_16sqlrustgo_server9schedulerNtB5_14SchedulerState11create_task
FN:214,_RNvMs1_NtCsdnEyc0opWLd_16sqlrustgo_server9schedulerNtB5_14SchedulerState11delete_task
FN:238,_RNvMs1_NtCsdnEyc0opWLd_16sqlrustgo_server9schedulerNtB5_14SchedulerState14register_agent
FN:268,_RNvMs1_NtCsdnEyc0opWLd_16sqlrustgo_server9schedulerNtB5_14SchedulerState16record_execution
FN:272,_RNvMs1_NtCsdnEyc0opWLd_16sqlrustgo_server9schedulerNtB5_14SchedulerState21get_execution_history
FN:178,_RNvMs1_NtCsdnEyc0opWLd_16sqlrustgo_server9schedulerNtB5_14SchedulerState3new
FN:194,_RNvMs1_NtCsdnEyc0opWLd_16sqlrustgo_server9schedulerNtB5_14SchedulerState8get_task
FN:306,_RNvMs2_NtCsdnEyc0opWLd_16sqlrustgo_server9schedulerNtB5_15ExecutionRecord3new
FN:117,_RNvMs_NtCsdnEyc0opWLd_16sqlrustgo_server9schedulerNtB4_8Workflow3new
FN:248,_RNvMs1_NtCsdnEyc0opWLd_16sqlrustgo_server9schedulerNtB5_14SchedulerState11list_agents
FN:198,_RNvMs1_NtCsdnEyc0opWLd_16sqlrustgo_server9schedulerNtB5_14SchedulerState11update_task
FN:225,_RNvMs1_NtCsdnEyc0opWLd_16sqlrustgo_server9schedulerNtB5_14SchedulerState12get_workflow
FN:229,_RNvMs1_NtCsdnEyc0opWLd_16sqlrustgo_server9schedulerNtB5_14SchedulerState14list_workflows
FN:219,_RNvMs1_NtCsdnEyc0opWLd_16sqlrustgo_server9schedulerNtB5_14SchedulerState15create_workflow
FN:233,_RNvMs1_NtCsdnEyc0opWLd_16sqlrustgo_server9schedulerNtB5_14SchedulerState15delete_workflow
FN:252,_RNvMs1_NtCsdnEyc0opWLd_16sqlrustgo_server9schedulerNtB5_14SchedulerState19update_agent_status
FN:244,_RNvMs1_NtCsdnEyc0opWLd_16sqlrustgo_server9schedulerNtB5_14SchedulerState9get_agent
FN:172,_RNvXs0_NtCsdnEyc0opWLd_16sqlrustgo_server9schedulerNtB5_14SchedulerStateNtNtCs8nPosuWgJFh_4core7default7Default7default
FNDA:1,_RNvNtNtCsdnEyc0opWLd_16sqlrustgo_server9scheduler5testss_18test_task_creation
FNDA:1,_RNvNtNtCsdnEyc0opWLd_16sqlrustgo_server9scheduler5testss_22test_execution_history
FNDA:1,_RNvNtNtCsdnEyc0opWLd_16sqlrustgo_server9scheduler5testss_22test_workflow_creation
FNDA:1,_RNvNtNtCsdnEyc0opWLd_16sqlrustgo_server9scheduler5testss_23test_agent_registration
FNDA:1,_RNvNtNtCsdnEyc0opWLd_16sqlrustgo_server9scheduler5testss_24test_task_status_default
FNDA:1,_RNvNtNtCsdnEyc0opWLd_16sqlrustgo_server9scheduler5testss_27test_parallel_workflow_step
FNDA:1,_RNvNtNtCsdnEyc0opWLd_16sqlrustgo_server9scheduler5testss_29test_workflow_sequential_step
FNDA:1,_RNvNtNtCsdnEyc0opWLd_16sqlrustgo_server9scheduler5testss_30test_execution_record_creation
FNDA:1,_RNvNtNtCsdnEyc0opWLd_16sqlrustgo_server9scheduler5testss_31test_agent_status_serialization
FNDA:1,_RNvNtNtCsdnEyc0opWLd_16sqlrustgo_server9scheduler5testss_31test_scheduler_state_list_tasks
FNDA:1,_RNvNtNtCsdnEyc0opWLd_16sqlrustgo_server9scheduler5testss_32test_scheduler_state_create_task
FNDA:1,_RNvNtNtCsdnEyc0opWLd_16sqlrustgo_server9scheduler5testss_32test_scheduler_state_delete_task
FNDA:1,_RNvNtNtCsdnEyc0opWLd_16sqlrustgo_server9scheduler5testss_40test_create_task_request_deserialization
FNDA:1,_RNvNtNtCsdnEyc0opWLd_16sqlrustgo_server9scheduler5testss_44test_create_workflow_request_deserialization
FNDA:5,_RNvMNtCsdnEyc0opWLd_16sqlrustgo_server9schedulerNtB2_4Task3new
FNDA:1,_RNvMs1_NtCsdnEyc0opWLd_16sqlrustgo_server9schedulerNtB5_14SchedulerState10list_tasks
FNDA:4,_RNvMs1_NtCsdnEyc0opWLd_16sqlrustgo_server9schedulerNtB5_14SchedulerState11create_task
FNDA:1,_RNvMs1_NtCsdnEyc0opWLd_16sqlrustgo_server9schedulerNtB5_14SchedulerState11delete_task
FNDA:1,_RNvMs1_NtCsdnEyc0opWLd_16sqlrustgo_server9schedulerNtB5_14SchedulerState14register_agent
FNDA:2,_RNvMs1_NtCsdnEyc0opWLd_16sqlrustgo_server9schedulerNtB5_14SchedulerState16record_execution
FNDA:1,_RNvMs1_NtCsdnEyc0opWLd_16sqlrustgo_server9schedulerNtB5_14SchedulerState21get_execution_history
FNDA:5,_RNvMs1_NtCsdnEyc0opWLd_16sqlrustgo_server9schedulerNtB5_14SchedulerState3new
FNDA:2,_RNvMs1_NtCsdnEyc0opWLd_16sqlrustgo_server9schedulerNtB5_14SchedulerState8get_task
FNDA:3,_RNvMs2_NtCsdnEyc0opWLd_16sqlrustgo_server9schedulerNtB5_15ExecutionRecord3new
FNDA:3,_RNvMs_NtCsdnEyc0opWLd_16sqlrustgo_server9schedulerNtB4_8Workflow3new
FNDA:0,_RNvMs1_NtCsdnEyc0opWLd_16sqlrustgo_server9schedulerNtB5_14SchedulerState11list_agents
FNDA:0,_RNvMs1_NtCsdnEyc0opWLd_16sqlrustgo_server9schedulerNtB5_14SchedulerState11update_task
FNDA:0,_RNvMs1_NtCsdnEyc0opWLd_16sqlrustgo_server9schedulerNtB5_14SchedulerState12get_workflow
FNDA:0,_RNvMs1_NtCsdnEyc0opWLd_16sqlrustgo_server9schedulerNtB5_14SchedulerState14list_workflows
FNDA:0,_RNvMs1_NtCsdnEyc0opWLd_16sqlrustgo_server9schedulerNtB5_14SchedulerState15create_workflow
FNDA:0,_RNvMs1_NtCsdnEyc0opWLd_16sqlrustgo_server9schedulerNtB5_14SchedulerState15delete_workflow
FNDA:0,_RNvMs1_NtCsdnEyc0opWLd_16sqlrustgo_server9schedulerNtB5_14SchedulerState19update_agent_status
FNDA:0,_RNvMs1_NtCsdnEyc0opWLd_16sqlrustgo_server9schedulerNtB5_14SchedulerState9get_agent
FNDA:0,_RNvXs0_NtCsdnEyc0opWLd_16sqlrustgo_server9schedulerNtB5_14SchedulerStateNtNtCs8nPosuWgJFh_4core7default7Default7default
FNF:34
FNH:25
DA:57,5
DA:58,5
DA:59,5
DA:60,5
DA:61,5
DA:62,5
DA:63,5
DA:64,5
DA:65,5
DA:66,5
DA:67,5
DA:68,5
DA:69,5
DA:70,5
DA:71,5
DA:72,5
DA:73,5
DA:74,5
DA:75,5
DA:76,5
DA:77,5
DA:117,3
DA:118,3
DA:119,3
DA:120,3
DA:121,3
DA:122,3
DA:123,3
DA:124,3
DA:125,3
DA:126,3
DA:127,3
DA:128,3
DA:129,3
DA:130,3
DA:172,0
DA:173,0
DA:174,0
DA:178,5
DA:179,5
DA:180,5
DA:181,5
DA:182,5
DA:183,5
DA:184,5
DA:185,5
DA:188,4
DA:189,4
DA:190,4
DA:191,4
DA:192,4
DA:194,2
DA:195,2
DA:196,2
DA:198,0
DA:199,0
DA:200,0
DA:201,0
DA:202,0
DA:203,0
DA:204,0
DA:205,0
DA:206,0
DA:207,0
DA:208,0
DA:210,1
DA:211,1
DA:212,1
DA:214,1
DA:215,1
DA:216,1
DA:219,0
DA:220,0
DA:221,0
DA:222,0
DA:223,0
DA:225,0
DA:226,0
DA:227,0
DA:229,0
DA:230,0
DA:231,0
DA:233,0
DA:234,0
DA:235,0
DA:238,1
DA:239,1
DA:240,1
DA:241,1
DA:242,1
DA:244,0
DA:245,0
DA:246,0
DA:248,0
DA:249,0
DA:250,0
DA:252,0
DA:253,0
DA:254,0
DA:255,0
DA:256,0
DA:257,0
DA:258,0
DA:259,0
DA:260,0
DA:261,0
DA:263,0
DA:265,0
DA:268,2
DA:269,2
DA:270,2
DA:272,1
DA:273,1
DA:274,1
DA:275,1
DA:306,3
DA:307,3
DA:308,3
DA:309,3
DA:310,3
DA:311,3
DA:312,3
DA:313,3
DA:314,3
DA:315,3
DA:316,3
DA:317,3
DA:318,3
DA:319,3
DA:447,1
DA:448,1
DA:449,1
DA:450,1
DA:451,1
DA:452,1
DA:455,1
DA:456,1
DA:457,1
DA:458,1
DA:461,1
DA:462,1
DA:463,1
DA:464,1
DA:465,1
DA:466,1
DA:467,1
DA:468,1
DA:469,1
DA:472,1
DA:473,1
DA:474,1
DA:475,1
DA:476,1
DA:477,1
DA:478,1
DA:481,1
DA:482,1
DA:483,1
DA:484,1
DA:485,1
DA:486,1
DA:487,1
DA:488,1
DA:491,1
DA:492,1
DA:493,1
DA:494,1
DA:495,1
DA:496,1
DA:497,1
DA:500,1
DA:501,1
DA:502,1
DA:503,1
DA:504,1
DA:505,1
DA:506,1
DA:507,1
DA:508,1
DA:509,1
DA:511,1
DA:512,1
DA:513,1
DA:515,1
DA:516,1
DA:519,1
DA:520,1
DA:521,1
DA:522,1
DA:523,1
DA:526,1
DA:527,1
DA:528,1
DA:529,1
DA:530,1
DA:531,1
DA:534,1
DA:535,1
DA:536,1
DA:537,1
DA:538,1
DA:541,1
DA:542,1
DA:543,1
DA:544,1
DA:545,1
DA:546,1
DA:547,1
DA:548,1
DA:551,1
DA:552,1
DA:553,1
DA:554,1
DA:555,1
DA:556,1
DA:557,1
DA:558,1
DA:559,1
DA:560,1
DA:561,1
DA:562,1
DA:563,1
DA:564,1
DA:567,1
DA:568,1
DA:569,1
DA:570,1
DA:571,1
DA:572,1
DA:573,1
DA:574,1
DA:575,1
DA:578,1
DA:579,1
DA:580,1
DA:581,1
DA:582,1
DA:583,1
DA:584,1
DA:585,1
DA:586,1
DA:587,1
DA:589,1
DA:590,1
DA:591,1
DA:593,1
DA:594,1
BRF:0
BRH:0
LF:247
LH:201
end_of_record
SF:/home/openclaw/dev/yinglichina8848/sqlrustgo/crates/server/src/security_integration.rs
FN:65,_RNvMNtCsdnEyc0opWLd_16sqlrustgo_server20security_integrationNtB2_19SecurityIntegration17log_sql_execution
FN:26,_RNvMNtCsdnEyc0opWLd_16sqlrustgo_server20security_integrationNtB2_19SecurityIntegration17with_audit_config
FN:107,_RNvMNtCsdnEyc0opWLd_16sqlrustgo_server20security_integrationNtB2_19SecurityIntegration18get_security_stats
FN:57,_RNvMNtCsdnEyc0opWLd_16sqlrustgo_server20security_integrationNtB2_19SecurityIntegration20close_secure_session
FN:41,_RNvMNtCsdnEyc0opWLd_16sqlrustgo_server20security_integrationNtB2_19SecurityIntegration21create_secure_session
FN:78,_RNvMNtCsdnEyc0opWLd_16sqlrustgo_server20security_integrationNtB2_19SecurityIntegration7log_ddl
FN:83,_RNvMNtCsdnEyc0opWLd_16sqlrustgo_server20security_integrationNtB2_19SecurityIntegration9log_grant
FN:185,_RNvMs0_NtCsdnEyc0opWLd_16sqlrustgo_server20security_integrationNtB5_13SecurityGuard3new
FN:194,_RNvMs0_NtCsdnEyc0opWLd_16sqlrustgo_server20security_integrationNtB5_13SecurityGuard9log_query
FN:215,_RNvNtNtCsdnEyc0opWLd_16sqlrustgo_server20security_integration5tests23create_test_integration
FN:259,_RNvNtNtCsdnEyc0opWLd_16sqlrustgo_server20security_integration5testss_16test_ddl_logging
FN:235,_RNvNtNtCsdnEyc0opWLd_16sqlrustgo_server20security_integration5testss_18test_close_session
FN:271,_RNvNtNtCsdnEyc0opWLd_16sqlrustgo_server20security_integration5testss_18test_grant_logging
FN:225,_RNvNtNtCsdnEyc0opWLd_16sqlrustgo_server20security_integration5testss_19test_create_session
FN:293,_RNvNtNtCsdnEyc0opWLd_16sqlrustgo_server20security_integration5testss_19test_security_guard
FN:283,_RNvNtNtCsdnEyc0opWLd_16sqlrustgo_server20security_integration5testss_19test_security_stats
FN:247,_RNvNtNtCsdnEyc0opWLd_16sqlrustgo_server20security_integration5testss_26test_sql_execution_logging
FN:97,_RNCNvMNtCsdnEyc0opWLd_16sqlrustgo_server20security_integrationNtB4_19SecurityIntegration21cleanup_idle_sessions0B6_
FN:150,_RNCNvMNtCsdnEyc0opWLd_16sqlrustgo_server20security_integrationNtB4_19SecurityIntegration23get_session_cancel_flag0B6_
FN:120,_RNvMNtCsdnEyc0opWLd_16sqlrustgo_server20security_integrationNtB2_19SecurityIntegration20is_session_cancelled
FN:92,_RNvMNtCsdnEyc0opWLd_16sqlrustgo_server20security_integrationNtB2_19SecurityIntegration21cleanup_idle_sessions
FN:128,_RNvMNtCsdnEyc0opWLd_16sqlrustgo_server20security_integrationNtB2_19SecurityIntegration23check_session_and_reset
FN:144,_RNvMNtCsdnEyc0opWLd_16sqlrustgo_server20security_integrationNtB2_19SecurityIntegration23get_session_cancel_flag
FN:153,_RNvMNtCsdnEyc0opWLd_16sqlrustgo_server20security_integrationNtB2_19SecurityIntegration25reset_session_query_state
FN:19,_RNvMNtCsdnEyc0opWLd_16sqlrustgo_server20security_integrationNtB2_19SecurityIntegration3new
FN:33,_RNvMNtCsdnEyc0opWLd_16sqlrustgo_server20security_integrationNtB2_19SecurityIntegration5audit
FN:37,_RNvMNtCsdnEyc0opWLd_16sqlrustgo_server20security_integrationNtB2_19SecurityIntegration8sessions
FN:88,_RNvMNtCsdnEyc0opWLd_16sqlrustgo_server20security_integrationNtB2_19SecurityIntegration9log_error
FN:200,_RNvMs0_NtCsdnEyc0opWLd_16sqlrustgo_server20security_integrationNtB5_13SecurityGuard7log_ddl
FN:204,_RNvMs0_NtCsdnEyc0opWLd_16sqlrustgo_server20security_integrationNtB5_13SecurityGuard9log_error
FN:161,_RNvXs_NtCsdnEyc0opWLd_16sqlrustgo_server20security_integrationNtB4_19SecurityIntegrationNtNtCs8nPosuWgJFh_4core7default7Default7default
FNDA:2,_RNvMNtCsdnEyc0opWLd_16sqlrustgo_server20security_integrationNtB2_19SecurityIntegration17log_sql_execution
FNDA:7,_RNvMNtCsdnEyc0opWLd_16sqlrustgo_server20security_integrationNtB2_19SecurityIntegration17with_audit_config
FNDA:4,_RNvMNtCsdnEyc0opWLd_16sqlrustgo_server20security_integrationNtB2_19SecurityIntegration18get_security_stats
FNDA:1,_RNvMNtCsdnEyc0opWLd_16sqlrustgo_server20security_integrationNtB2_19SecurityIntegration20close_secure_session
FNDA:7,_RNvMNtCsdnEyc0opWLd_16sqlrustgo_server20security_integrationNtB2_19SecurityIntegration21create_secure_session
FNDA:1,_RNvMNtCsdnEyc0opWLd_16sqlrustgo_server20security_integrationNtB2_19SecurityIntegration7log_ddl
FNDA:1,_RNvMNtCsdnEyc0opWLd_16sqlrustgo_server20security_integrationNtB2_19SecurityIntegration9log_grant
FNDA:1,_RNvMs0_NtCsdnEyc0opWLd_16sqlrustgo_server20security_integrationNtB5_13SecurityGuard3new
FNDA:1,_RNvMs0_NtCsdnEyc0opWLd_16sqlrustgo_server20security_integrationNtB5_13SecurityGuard9log_query
FNDA:7,_RNvNtNtCsdnEyc0opWLd_16sqlrustgo_server20security_integration5tests23create_test_integration
FNDA:1,_RNvNtNtCsdnEyc0opWLd_16sqlrustgo_server20security_integration5testss_16test_ddl_logging
FNDA:1,_RNvNtNtCsdnEyc0opWLd_16sqlrustgo_server20security_integration5testss_18test_close_session
FNDA:1,_RNvNtNtCsdnEyc0opWLd_16sqlrustgo_server20security_integration5testss_18test_grant_logging
FNDA:1,_RNvNtNtCsdnEyc0opWLd_16sqlrustgo_server20security_integration5testss_19test_create_session
FNDA:1,_RNvNtNtCsdnEyc0opWLd_16sqlrustgo_server20security_integration5testss_19test_security_guard
FNDA:1,_RNvNtNtCsdnEyc0opWLd_16sqlrustgo_server20security_integration5testss_19test_security_stats
FNDA:1,_RNvNtNtCsdnEyc0opWLd_16sqlrustgo_server20security_integration5testss_26test_sql_execution_logging
FNDA:0,_RNCNvMNtCsdnEyc0opWLd_16sqlrustgo_server20security_integrationNtB4_19SecurityIntegration21cleanup_idle_sessions0B6_
FNDA:0,_RNCNvMNtCsdnEyc0opWLd_16sqlrustgo_server20security_integrationNtB4_19SecurityIntegration23get_session_cancel_flag0B6_
FNDA:0,_RNvMNtCsdnEyc0opWLd_16sqlrustgo_server20security_integrationNtB2_19SecurityIntegration20is_session_cancelled
FNDA:0,_RNvMNtCsdnEyc0opWLd_16sqlrustgo_server20security_integrationNtB2_19SecurityIntegration21cleanup_idle_sessions
FNDA:0,_RNvMNtCsdnEyc0opWLd_16sqlrustgo_server20security_integrationNtB2_19SecurityIntegration23check_session_and_reset
FNDA:0,_RNvMNtCsdnEyc0opWLd_16sqlrustgo_server20security_integrationNtB2_19SecurityIntegration23get_session_cancel_flag
FNDA:0,_RNvMNtCsdnEyc0opWLd_16sqlrustgo_server20security_integrationNtB2_19SecurityIntegration25reset_session_query_state
FNDA:0,_RNvMNtCsdnEyc0opWLd_16sqlrustgo_server20security_integrationNtB2_19SecurityIntegration3new
FNDA:0,_RNvMNtCsdnEyc0opWLd_16sqlrustgo_server20security_integrationNtB2_19SecurityIntegration5audit
FNDA:0,_RNvMNtCsdnEyc0opWLd_16sqlrustgo_server20security_integrationNtB2_19SecurityIntegration8sessions
FNDA:0,_RNvMNtCsdnEyc0opWLd_16sqlrustgo_server20security_integrationNtB2_19SecurityIntegration9log_error
FNDA:0,_RNvMs0_NtCsdnEyc0opWLd_16sqlrustgo_server20security_integrationNtB5_13SecurityGuard7log_ddl
FNDA:0,_RNvMs0_NtCsdnEyc0opWLd_16sqlrustgo_server20security_integrationNtB5_13SecurityGuard9log_error
FNDA:0,_RNvXs_NtCsdnEyc0opWLd_16sqlrustgo_server20security_integrationNtB4_19SecurityIntegrationNtNtCs8nPosuWgJFh_4core7default7Default7default
FNF:31
FNH:17
DA:19,0
DA:20,0
DA:21,0
DA:22,0
DA:23,0
DA:24,0
DA:26,7
DA:27,7
DA:28,7
DA:29,7
DA:30,7
DA:31,7
DA:33,0
DA:34,0
DA:35,0
DA:37,0
DA:38,0
DA:39,0
DA:41,7
DA:42,7
DA:43,7
DA:44,7
DA:45,7
DA:46,7
DA:47,7
DA:48,7
DA:49,7
DA:50,7
DA:51,7
DA:52,7
DA:53,7
DA:54,7
DA:55,7
DA:57,1
DA:58,1
DA:59,1
DA:60,1
DA:61,1
DA:62,1
DA:63,1
DA:65,2
DA:66,2
DA:67,2
DA:68,2
DA:69,2
DA:70,2
DA:71,2
DA:72,2
DA:73,2
DA:74,2
DA:75,2
DA:76,2
DA:78,1
DA:79,1
DA:80,1
DA:81,1
DA:83,1
DA:84,1
DA:85,1
DA:86,1
DA:88,0
DA:89,0
DA:90,0
DA:92,0
DA:93,0
DA:94,0
DA:95,0
DA:96,0
DA:97,0
DA:98,0
DA:99,0
DA:100,0
DA:101,0
DA:102,0
DA:104,0
DA:105,0
DA:107,4
DA:108,4
DA:109,4
DA:110,4
DA:111,4
DA:112,4
DA:113,4
DA:114,4
DA:115,4
DA:116,4
DA:117,4
DA:118,4
DA:120,0
DA:121,0
DA:122,0
DA:124,0
DA:126,0
DA:128,0
DA:129,0
DA:130,0
DA:131,0
DA:132,0
DA:133,0
DA:134,0
DA:135,0
DA:136,0
DA:137,0
DA:138,0
DA:139,0
DA:140,0
DA:141,0
DA:142,0
DA:144,0
DA:145,0
DA:146,0
DA:147,0
DA:148,0
DA:149,0
DA:150,0
DA:151,0
DA:153,0
DA:154,0
DA:155,0
DA:156,0
DA:157,0
DA:161,0
DA:162,0
DA:163,0
DA:185,1
DA:186,1
DA:187,1
DA:188,1
DA:189,1
DA:190,1
DA:191,1
DA:192,1
DA:194,1
DA:195,1
DA:196,1
DA:197,1
DA:198,1
DA:200,0
DA:201,0
DA:202,0
DA:204,0
DA:205,0
DA:206,0
DA:207,0
DA:215,7
DA:216,7
DA:217,7
DA:218,7
DA:219,7
DA:220,7
DA:221,7
DA:222,7
DA:225,1
DA:226,1
DA:227,1
DA:228,1
DA:230,1
DA:231,1
DA:232,1
DA:235,1
DA:236,1
DA:237,1
DA:238,1
DA:240,1
DA:242,1
DA:243,1
DA:244,1
DA:247,1
DA:248,1
DA:249,1
DA:250,1
DA:252,1
DA:254,1
DA:255,1
DA:256,1
DA:259,1
DA:260,1
DA:261,1
DA:262,1
DA:264,1
DA:266,1
DA:267,1
DA:268,1
DA:271,1
DA:272,1
DA:273,1
DA:275,1
DA:277,1
DA:278,1
DA:279,1
DA:280,1
DA:283,1
DA:284,1
DA:285,1
DA:287,1
DA:288,1
DA:289,1
DA:290,1
DA:293,1
DA:294,1
DA:295,1
DA:296,1
DA:298,1
DA:299,1
DA:301,1
DA:302,1
DA:303,1
BRF:0
BRH:0
LF:209
LH:136
end_of_record
SF:/home/openclaw/dev/yinglichina8848/sqlrustgo/crates/server/src/teaching_endpoints.rs
FN:1563,_RNvNtNtCsdnEyc0opWLd_16sqlrustgo_server18teaching_endpoints5testss_20test_format_duration
FN:1550,_RNvNtNtCsdnEyc0opWLd_16sqlrustgo_server18teaching_endpoints5testss_20test_truncate_string
FN:1570,_RNvNtNtCsdnEyc0opWLd_16sqlrustgo_server18teaching_endpoints5testss_28test_format_duration_seconds
FN:1493,_RNvNtNtCsdnEyc0opWLd_16sqlrustgo_server18teaching_endpoints5testss_29test_teaching_endpoints_clone
FN:1477,_RNvNtNtCsdnEyc0opWLd_16sqlrustgo_server18teaching_endpoints5testss_30test_teaching_endpoints_custom
FN:1467,_RNvNtNtCsdnEyc0opWLd_16sqlrustgo_server18teaching_endpoints5testss_31test_teaching_endpoints_default
FN:1558,_RNvNtNtCsdnEyc0opWLd_16sqlrustgo_server18teaching_endpoints5testss_33test_truncate_string_exact_length
FN:1504,_RNvNtNtCsdnEyc0opWLd_16sqlrustgo_server18teaching_endpoints5testss_34test_teaching_http_server_creation
FN:1530,_RNvNtNtCsdnEyc0opWLd_16sqlrustgo_server18teaching_endpoints5testss_34test_teaching_http_server_get_port
FN:1524,_RNvNtNtCsdnEyc0opWLd_16sqlrustgo_server18teaching_endpoints5testss_38test_teaching_http_server_with_version
FN:1511,_RNvNtNtCsdnEyc0opWLd_16sqlrustgo_server18teaching_endpoints5testss_40test_teaching_http_server_with_endpoints
FN:1580,_RNvNtNtCsdnEyc0opWLd_16sqlrustgo_server18teaching_endpoints5testss_41test_teaching_http_server_builder_pattern
FN:1536,_RNvNtNtCsdnEyc0opWLd_16sqlrustgo_server18teaching_endpoints5testss_48test_teaching_http_server_bind_to_available_port
FN:1543,_RNvNtNtCsdnEyc0opWLd_16sqlrustgo_server18teaching_endpoints5testss_56test_teaching_http_server_bind_preserves_configured_port
FN:80,_RINvMs_NtCsdnEyc0opWLd_16sqlrustgo_server18teaching_endpointsNtB5_18TeachingHttpServer12with_versionReEB7_
FN:58,_RINvMs_NtCsdnEyc0opWLd_16sqlrustgo_server18teaching_endpointsNtB5_18TeachingHttpServer3newReEB7_
FN:91,_RNvMs_NtCsdnEyc0opWLd_16sqlrustgo_server18teaching_endpointsNtB4_18TeachingHttpServer11get_version
FN:101,_RNvMs_NtCsdnEyc0opWLd_16sqlrustgo_server18teaching_endpointsNtB4_18TeachingHttpServer22bind_to_available_port
FN:75,_RNvMs_NtCsdnEyc0opWLd_16sqlrustgo_server18teaching_endpointsNtB4_18TeachingHttpServer23with_teaching_endpoints
FN:96,_RNvMs_NtCsdnEyc0opWLd_16sqlrustgo_server18teaching_endpointsNtB4_18TeachingHttpServer8get_port
FN:1450,_RNvNtCsdnEyc0opWLd_16sqlrustgo_server18teaching_endpoints15format_duration
FN:1442,_RNvNtCsdnEyc0opWLd_16sqlrustgo_server18teaching_endpoints15truncate_string
FN:34,_RNvXNtCsdnEyc0opWLd_16sqlrustgo_server18teaching_endpointsNtB2_17TeachingEndpointsNtNtCs8nPosuWgJFh_4core7default7Default7default
FN:196,_RINvNtCsdnEyc0opWLd_16sqlrustgo_server18teaching_endpoints23handle_teaching_requestpEB4_
FN:242,_RNCINvNtCsdnEyc0opWLd_16sqlrustgo_server18teaching_endpoints23handle_teaching_requestpE0B6_
FN:490,_RNCNCNvNtCsdnEyc0opWLd_16sqlrustgo_server18teaching_endpoints11execute_sqls6_00B7_
FN:606,_RNCNCNvNtCsdnEyc0opWLd_16sqlrustgo_server18teaching_endpoints11execute_sqlsg_00B7_
FN:702,_RNCNCNvNtCsdnEyc0opWLd_16sqlrustgo_server18teaching_endpoints11execute_sqlsn_00B7_
FN:160,_RNCNvMs_NtCsdnEyc0opWLd_16sqlrustgo_server18teaching_endpointsNtB6_18TeachingHttpServer5start0B8_
FN:413,_RNCNvNtCsdnEyc0opWLd_16sqlrustgo_server18teaching_endpoints11execute_sql0B5_
FN:420,_RNCNvNtCsdnEyc0opWLd_16sqlrustgo_server18teaching_endpoints11execute_sqls0_0B5_
FN:428,_RNCNvNtCsdnEyc0opWLd_16sqlrustgo_server18teaching_endpoints11execute_sqls1_0B5_
FN:436,_RNCNvNtCsdnEyc0opWLd_16sqlrustgo_server18teaching_endpoints11execute_sqls2_0B5_
FN:455,_RNCNvNtCsdnEyc0opWLd_16sqlrustgo_server18teaching_endpoints11execute_sqls3_0B5_
FN:467,_RNCNvNtCsdnEyc0opWLd_16sqlrustgo_server18teaching_endpoints11execute_sqls4_0B5_
FN:468,_RNCNvNtCsdnEyc0opWLd_16sqlrustgo_server18teaching_endpoints11execute_sqls5_0B5_
FN:473,_RNCNvNtCsdnEyc0opWLd_16sqlrustgo_server18teaching_endpoints11execute_sqls6_0B5_
FN:505,_RNCNvNtCsdnEyc0opWLd_16sqlrustgo_server18teaching_endpoints11execute_sqls7_0B5_
FN:518,_RNCNvNtCsdnEyc0opWLd_16sqlrustgo_server18teaching_endpoints11execute_sqls8_0B5_
FN:537,_RNCNvNtCsdnEyc0opWLd_16sqlrustgo_server18teaching_endpoints11execute_sqls9_0B5_
FN:417,_RNCNvNtCsdnEyc0opWLd_16sqlrustgo_server18teaching_endpoints11execute_sqls_0B5_
FN:556,_RNCNvNtCsdnEyc0opWLd_16sqlrustgo_server18teaching_endpoints11execute_sqlsa_0B5_
FN:579,_RNCNvNtCsdnEyc0opWLd_16sqlrustgo_server18teaching_endpoints11execute_sqlsb_0B5_
FN:582,_RNCNvNtCsdnEyc0opWLd_16sqlrustgo_server18teaching_endpoints11execute_sqlsc_0B5_
FN:588,_RNCNvNtCsdnEyc0opWLd_16sqlrustgo_server18teaching_endpoints11execute_sqlsd_0B5_
FN:597,_RNCNvNtCsdnEyc0opWLd_16sqlrustgo_server18teaching_endpoints11execute_sqlse_0B5_
FN:599,_RNCNvNtCsdnEyc0opWLd_16sqlrustgo_server18teaching_endpoints11execute_sqlsf_0B5_
FN:604,_RNCNvNtCsdnEyc0opWLd_16sqlrustgo_server18teaching_endpoints11execute_sqlsg_0B5_
FN:625,_RNCNvNtCsdnEyc0opWLd_16sqlrustgo_server18teaching_endpoints11execute_sqlsh_0B5_
FN:636,_RNCNvNtCsdnEyc0opWLd_16sqlrustgo_server18teaching_endpoints11execute_sqlsi_0B5_
FN:651,_RNCNvNtCsdnEyc0opWLd_16sqlrustgo_server18teaching_endpoints11execute_sqlsj_0B5_
FN:664,_RNCNvNtCsdnEyc0opWLd_16sqlrustgo_server18teaching_endpoints11execute_sqlsk_0B5_
FN:682,_RNCNvNtCsdnEyc0opWLd_16sqlrustgo_server18teaching_endpoints11execute_sqlsl_0B5_
FN:690,_RNCNvNtCsdnEyc0opWLd_16sqlrustgo_server18teaching_endpoints11execute_sqlsm_0B5_
FN:697,_RNCNvNtCsdnEyc0opWLd_16sqlrustgo_server18teaching_endpoints11execute_sqlsn_0B5_
FN:721,_RNCNvNtCsdnEyc0opWLd_16sqlrustgo_server18teaching_endpoints11execute_sqlso_0B5_
FN:735,_RNCNvNtCsdnEyc0opWLd_16sqlrustgo_server18teaching_endpoints11execute_sqlsp_0B5_
FN:790,_RNCNvNtCsdnEyc0opWLd_16sqlrustgo_server18teaching_endpoints13evaluate_expr0B5_
FN:70,_RNvMs_NtCsdnEyc0opWLd_16sqlrustgo_server18teaching_endpointsNtB4_18TeachingHttpServer12with_storage
FN:85,_RNvMs_NtCsdnEyc0opWLd_16sqlrustgo_server18teaching_endpointsNtB4_18TeachingHttpServer21with_metrics_registry
FN:113,_RNvMs_NtCsdnEyc0opWLd_16sqlrustgo_server18teaching_endpointsNtB4_18TeachingHttpServer5start
FN:408,_RNvNtCsdnEyc0opWLd_16sqlrustgo_server18teaching_endpoints11execute_sql
FN:929,_RNvNtCsdnEyc0opWLd_16sqlrustgo_server18teaching_endpoints13base64_encode
FN:768,_RNvNtCsdnEyc0opWLd_16sqlrustgo_server18teaching_endpoints13evaluate_expr
FN:909,_RNvNtCsdnEyc0opWLd_16sqlrustgo_server18teaching_endpoints13value_to_json
FN:820,_RNvNtCsdnEyc0opWLd_16sqlrustgo_server18teaching_endpoints14compare_values
FN:1225,_RNvNtCsdnEyc0opWLd_16sqlrustgo_server18teaching_endpoints19generate_trace_html
FN:748,_RNvNtCsdnEyc0opWLd_16sqlrustgo_server18teaching_endpoints21evaluate_literal_expr
FN:804,_RNvNtCsdnEyc0opWLd_16sqlrustgo_server18teaching_endpoints21evaluate_where_clause
FN:1303,_RNvNtCsdnEyc0opWLd_16sqlrustgo_server18teaching_endpoints21generate_profile_html
FN:1059,_RNvNtCsdnEyc0opWLd_16sqlrustgo_server18teaching_endpoints22generate_pipeline_html
FN:1351,_RNvNtCsdnEyc0opWLd_16sqlrustgo_server18teaching_endpoints23generate_operators_html
FN:956,_RNvNtCsdnEyc0opWLd_16sqlrustgo_server18teaching_endpoints28generate_teaching_index_html
FN:1151,_RNvNtCsdnEyc0opWLd_16sqlrustgo_server18teaching_endpoints29generate_pipeline_detail_html
FNDA:1,_RNvNtNtCsdnEyc0opWLd_16sqlrustgo_server18teaching_endpoints5testss_20test_format_duration
FNDA:1,_RNvNtNtCsdnEyc0opWLd_16sqlrustgo_server18teaching_endpoints5testss_20test_truncate_string
FNDA:1,_RNvNtNtCsdnEyc0opWLd_16sqlrustgo_server18teaching_endpoints5testss_28test_format_duration_seconds
FNDA:1,_RNvNtNtCsdnEyc0opWLd_16sqlrustgo_server18teaching_endpoints5testss_29test_teaching_endpoints_clone
FNDA:1,_RNvNtNtCsdnEyc0opWLd_16sqlrustgo_server18teaching_endpoints5testss_30test_teaching_endpoints_custom
FNDA:1,_RNvNtNtCsdnEyc0opWLd_16sqlrustgo_server18teaching_endpoints5testss_31test_teaching_endpoints_default
FNDA:1,_RNvNtNtCsdnEyc0opWLd_16sqlrustgo_server18teaching_endpoints5testss_33test_truncate_string_exact_length
FNDA:1,_RNvNtNtCsdnEyc0opWLd_16sqlrustgo_server18teaching_endpoints5testss_34test_teaching_http_server_creation
FNDA:1,_RNvNtNtCsdnEyc0opWLd_16sqlrustgo_server18teaching_endpoints5testss_34test_teaching_http_server_get_port
FNDA:1,_RNvNtNtCsdnEyc0opWLd_16sqlrustgo_server18teaching_endpoints5testss_38test_teaching_http_server_with_version
FNDA:1,_RNvNtNtCsdnEyc0opWLd_16sqlrustgo_server18teaching_endpoints5testss_40test_teaching_http_server_with_endpoints
FNDA:1,_RNvNtNtCsdnEyc0opWLd_16sqlrustgo_server18teaching_endpoints5testss_41test_teaching_http_server_builder_pattern
FNDA:1,_RNvNtNtCsdnEyc0opWLd_16sqlrustgo_server18teaching_endpoints5testss_48test_teaching_http_server_bind_to_available_port
FNDA:1,_RNvNtNtCsdnEyc0opWLd_16sqlrustgo_server18teaching_endpoints5testss_56test_teaching_http_server_bind_preserves_configured_port
FNDA:2,_RINvMs_NtCsdnEyc0opWLd_16sqlrustgo_server18teaching_endpointsNtB5_18TeachingHttpServer12with_versionReEB7_
FNDA:7,_RINvMs_NtCsdnEyc0opWLd_16sqlrustgo_server18teaching_endpointsNtB5_18TeachingHttpServer3newReEB7_
FNDA:2,_RNvMs_NtCsdnEyc0opWLd_16sqlrustgo_server18teaching_endpointsNtB4_18TeachingHttpServer11get_version
FNDA:2,_RNvMs_NtCsdnEyc0opWLd_16sqlrustgo_server18teaching_endpointsNtB4_18TeachingHttpServer22bind_to_available_port
FNDA:2,_RNvMs_NtCsdnEyc0opWLd_16sqlrustgo_server18teaching_endpointsNtB4_18TeachingHttpServer23with_teaching_endpoints
FNDA:2,_RNvMs_NtCsdnEyc0opWLd_16sqlrustgo_server18teaching_endpointsNtB4_18TeachingHttpServer8get_port
FNDA:4,_RNvNtCsdnEyc0opWLd_16sqlrustgo_server18teaching_endpoints15format_duration
FNDA:5,_RNvNtCsdnEyc0opWLd_16sqlrustgo_server18teaching_endpoints15truncate_string
FNDA:10,_RNvXNtCsdnEyc0opWLd_16sqlrustgo_server18teaching_endpointsNtB2_17TeachingEndpointsNtNtCs8nPosuWgJFh_4core7default7Default7default
FNDA:0,_RINvNtCsdnEyc0opWLd_16sqlrustgo_server18teaching_endpoints23handle_teaching_requestpEB4_
FNDA:0,_RNCINvNtCsdnEyc0opWLd_16sqlrustgo_server18teaching_endpoints23handle_teaching_requestpE0B6_
FNDA:0,_RNCNCNvNtCsdnEyc0opWLd_16sqlrustgo_server18teaching_endpoints11execute_sqls6_00B7_
FNDA:0,_RNCNCNvNtCsdnEyc0opWLd_16sqlrustgo_server18teaching_endpoints11execute_sqlsg_00B7_
FNDA:0,_RNCNCNvNtCsdnEyc0opWLd_16sqlrustgo_server18teaching_endpoints11execute_sqlsn_00B7_
FNDA:0,_RNCNvMs_NtCsdnEyc0opWLd_16sqlrustgo_server18teaching_endpointsNtB6_18TeachingHttpServer5start0B8_
FNDA:0,_RNCNvNtCsdnEyc0opWLd_16sqlrustgo_server18teaching_endpoints11execute_sql0B5_
FNDA:0,_RNCNvNtCsdnEyc0opWLd_16sqlrustgo_server18teaching_endpoints11execute_sqls0_0B5_
FNDA:0,_RNCNvNtCsdnEyc0opWLd_16sqlrustgo_server18teaching_endpoints11execute_sqls1_0B5_
FNDA:0,_RNCNvNtCsdnEyc0opWLd_16sqlrustgo_server18teaching_endpoints11execute_sqls2_0B5_
FNDA:0,_RNCNvNtCsdnEyc0opWLd_16sqlrustgo_server18teaching_endpoints11execute_sqls3_0B5_
FNDA:0,_RNCNvNtCsdnEyc0opWLd_16sqlrustgo_server18teaching_endpoints11execute_sqls4_0B5_
FNDA:0,_RNCNvNtCsdnEyc0opWLd_16sqlrustgo_server18teaching_endpoints11execute_sqls5_0B5_
FNDA:0,_RNCNvNtCsdnEyc0opWLd_16sqlrustgo_server18teaching_endpoints11execute_sqls6_0B5_
FNDA:0,_RNCNvNtCsdnEyc0opWLd_16sqlrustgo_server18teaching_endpoints11execute_sqls7_0B5_
FNDA:0,_RNCNvNtCsdnEyc0opWLd_16sqlrustgo_server18teaching_endpoints11execute_sqls8_0B5_
FNDA:0,_RNCNvNtCsdnEyc0opWLd_16sqlrustgo_server18teaching_endpoints11execute_sqls9_0B5_
FNDA:0,_RNCNvNtCsdnEyc0opWLd_16sqlrustgo_server18teaching_endpoints11execute_sqls_0B5_
FNDA:0,_RNCNvNtCsdnEyc0opWLd_16sqlrustgo_server18teaching_endpoints11execute_sqlsa_0B5_
FNDA:0,_RNCNvNtCsdnEyc0opWLd_16sqlrustgo_server18teaching_endpoints11execute_sqlsb_0B5_
FNDA:0,_RNCNvNtCsdnEyc0opWLd_16sqlrustgo_server18teaching_endpoints11execute_sqlsc_0B5_
FNDA:0,_RNCNvNtCsdnEyc0opWLd_16sqlrustgo_server18teaching_endpoints11execute_sqlsd_0B5_
FNDA:0,_RNCNvNtCsdnEyc0opWLd_16sqlrustgo_server18teaching_endpoints11execute_sqlse_0B5_
FNDA:0,_RNCNvNtCsdnEyc0opWLd_16sqlrustgo_server18teaching_endpoints11execute_sqlsf_0B5_
FNDA:0,_RNCNvNtCsdnEyc0opWLd_16sqlrustgo_server18teaching_endpoints11execute_sqlsg_0B5_
FNDA:0,_RNCNvNtCsdnEyc0opWLd_16sqlrustgo_server18teaching_endpoints11execute_sqlsh_0B5_
FNDA:0,_RNCNvNtCsdnEyc0opWLd_16sqlrustgo_server18teaching_endpoints11execute_sqlsi_0B5_
FNDA:0,_RNCNvNtCsdnEyc0opWLd_16sqlrustgo_server18teaching_endpoints11execute_sqlsj_0B5_
FNDA:0,_RNCNvNtCsdnEyc0opWLd_16sqlrustgo_server18teaching_endpoints11execute_sqlsk_0B5_
FNDA:0,_RNCNvNtCsdnEyc0opWLd_16sqlrustgo_server18teaching_endpoints11execute_sqlsl_0B5_
FNDA:0,_RNCNvNtCsdnEyc0opWLd_16sqlrustgo_server18teaching_endpoints11execute_sqlsm_0B5_
FNDA:0,_RNCNvNtCsdnEyc0opWLd_16sqlrustgo_server18teaching_endpoints11execute_sqlsn_0B5_
FNDA:0,_RNCNvNtCsdnEyc0opWLd_16sqlrustgo_server18teaching_endpoints11execute_sqlso_0B5_
FNDA:0,_RNCNvNtCsdnEyc0opWLd_16sqlrustgo_server18teaching_endpoints11execute_sqlsp_0B5_
FNDA:0,_RNCNvNtCsdnEyc0opWLd_16sqlrustgo_server18teaching_endpoints13evaluate_expr0B5_
FNDA:0,_RNvMs_NtCsdnEyc0opWLd_16sqlrustgo_server18teaching_endpointsNtB4_18TeachingHttpServer12with_storage
FNDA:0,_RNvMs_NtCsdnEyc0opWLd_16sqlrustgo_server18teaching_endpointsNtB4_18TeachingHttpServer21with_metrics_registry
FNDA:0,_RNvMs_NtCsdnEyc0opWLd_16sqlrustgo_server18teaching_endpointsNtB4_18TeachingHttpServer5start
FNDA:0,_RNvNtCsdnEyc0opWLd_16sqlrustgo_server18teaching_endpoints11execute_sql
FNDA:0,_RNvNtCsdnEyc0opWLd_16sqlrustgo_server18teaching_endpoints13base64_encode
FNDA:0,_RNvNtCsdnEyc0opWLd_16sqlrustgo_server18teaching_endpoints13evaluate_expr
FNDA:0,_RNvNtCsdnEyc0opWLd_16sqlrustgo_server18teaching_endpoints13value_to_json
FNDA:0,_RNvNtCsdnEyc0opWLd_16sqlrustgo_server18teaching_endpoints14compare_values
FNDA:0,_RNvNtCsdnEyc0opWLd_16sqlrustgo_server18teaching_endpoints19generate_trace_html
FNDA:0,_RNvNtCsdnEyc0opWLd_16sqlrustgo_server18teaching_endpoints21evaluate_literal_expr
FNDA:0,_RNvNtCsdnEyc0opWLd_16sqlrustgo_server18teaching_endpoints21evaluate_where_clause
FNDA:0,_RNvNtCsdnEyc0opWLd_16sqlrustgo_server18teaching_endpoints21generate_profile_html
FNDA:0,_RNvNtCsdnEyc0opWLd_16sqlrustgo_server18teaching_endpoints22generate_pipeline_html
FNDA:0,_RNvNtCsdnEyc0opWLd_16sqlrustgo_server18teaching_endpoints23generate_operators_html
FNDA:0,_RNvNtCsdnEyc0opWLd_16sqlrustgo_server18teaching_endpoints28generate_teaching_index_html
FNDA:0,_RNvNtCsdnEyc0opWLd_16sqlrustgo_server18teaching_endpoints29generate_pipeline_detail_html
FNF:74
FNH:23
DA:34,10
DA:35,10
DA:36,10
DA:37,10
DA:38,10
DA:39,10
DA:40,10
DA:41,10
DA:42,10
DA:58,7
DA:59,7
DA:60,7
DA:61,7
DA:62,7
DA:63,7
DA:64,7
DA:65,7
DA:66,7
DA:67,7
DA:68,7
DA:70,0
DA:71,0
DA:72,0
DA:73,0
DA:75,2
DA:76,2
DA:77,2
DA:78,2
DA:80,2
DA:81,2
DA:82,2
DA:83,2
DA:85,0
DA:86,0
DA:87,0
DA:88,0
DA:91,2
DA:92,2
DA:93,2
DA:96,2
DA:97,2
DA:98,2
DA:101,2
DA:102,2
DA:103,1
DA:104,1
DA:105,1
DA:106,0
DA:107,0
DA:108,1
DA:109,1
DA:110,2
DA:113,0
DA:114,0
DA:115,0
DA:118,0
DA:119,0
DA:120,0
DA:122,0
DA:123,0
DA:124,0
DA:125,0
DA:126,0
DA:130,0
DA:131,0
DA:132,0
DA:133,0
DA:134,0
DA:136,0
DA:137,0
DA:138,0
DA:139,0
DA:140,0
DA:141,0
DA:142,0
DA:144,0
DA:145,0
DA:146,0
DA:147,0
DA:148,0
DA:150,0
DA:152,0
DA:153,0
DA:154,0
DA:155,0
DA:156,0
DA:157,0
DA:158,0
DA:160,0
DA:161,0
DA:162,0
DA:163,0
DA:164,0
DA:165,0
DA:166,0
DA:167,0
DA:168,0
DA:170,0
DA:171,0
DA:176,0
DA:177,0
DA:196,0
DA:197,0
DA:198,0
DA:199,0
DA:200,0
DA:201,0
DA:202,0
DA:203,0
DA:204,0
DA:206,0
DA:207,0
DA:208,0
DA:210,0
DA:211,0
DA:213,0
DA:214,0
DA:215,0
DA:216,0
DA:217,0
DA:220,0
DA:222,0
DA:223,0
DA:224,0
DA:225,0
DA:226,0
DA:227,0
DA:228,0
DA:229,0
DA:230,0
DA:231,0
DA:232,0
DA:233,0
DA:234,0
DA:235,0
DA:236,0
DA:237,0
DA:238,0
DA:239,0
DA:240,0
DA:242,0
DA:243,0
DA:244,0
DA:245,0
DA:247,0
DA:248,0
DA:249,0
DA:250,0
DA:251,0
DA:252,0
DA:253,0
DA:254,0
DA:257,0
DA:258,0
DA:259,0
DA:261,0
DA:262,0
DA:266,0
DA:267,0
DA:269,0
DA:270,0
DA:274,0
DA:276,0
DA:277,0
DA:278,0
DA:279,0
DA:281,0
DA:282,0
DA:284,0
DA:285,0
DA:286,0
DA:287,0
DA:288,0
DA:290,0
DA:291,0
DA:293,0
DA:294,0
DA:295,0
DA:296,0
DA:297,0
DA:298,0
DA:299,0
DA:300,0
DA:304,0
DA:305,0
DA:306,0
DA:309,0
DA:310,0
DA:311,0
DA:312,0
DA:315,0
DA:316,0
DA:317,0
DA:318,0
DA:319,0
DA:320,0
DA:323,0
DA:324,0
DA:325,0
DA:327,0
DA:328,0
DA:333,0
DA:334,0
DA:335,0
DA:336,0
DA:339,0
DA:340,0
DA:341,0
DA:342,0
DA:345,0
DA:346,0
DA:347,0
DA:348,0
DA:351,0
DA:352,0
DA:353,0
DA:356,0
DA:357,0
DA:358,0
DA:359,0
DA:362,0
DA:363,0
DA:364,0
DA:367,0
DA:368,0
DA:369,0
DA:370,0
DA:371,0
DA:372,0
DA:373,0
DA:374,0
DA:375,0
DA:379,0
DA:380,0
DA:381,0
DA:382,0
DA:383,0
DA:386,0
DA:387,0
DA:388,0
DA:389,0
DA:390,0
DA:393,0
DA:397,0
DA:401,0
DA:402,0
DA:404,0
DA:405,0
DA:408,0
DA:409,0
DA:410,0
DA:411,0
DA:413,0
DA:416,0
DA:417,0
DA:418,0
DA:420,0
DA:421,0
DA:422,0
DA:423,0
DA:424,0
DA:425,0
DA:428,0
DA:429,0
DA:430,0
DA:431,0
DA:432,0
DA:433,0
DA:436,0
DA:437,0
DA:438,0
DA:439,0
DA:440,0
DA:441,0
DA:444,0
DA:445,0
DA:446,0
DA:447,0
DA:448,0
DA:451,0
DA:453,0
DA:454,0
DA:455,0
DA:457,0
DA:458,0
DA:459,0
DA:460,0
DA:461,0
DA:462,0
DA:464,0
DA:465,0
DA:466,0
DA:467,0
DA:468,0
DA:470,0
DA:471,0
DA:472,0
DA:473,0
DA:474,0
DA:475,0
DA:477,0
DA:478,0
DA:479,0
DA:480,0
DA:481,0
DA:484,0
DA:485,0
DA:486,0
DA:487,0
DA:488,0
DA:489,0
DA:490,0
DA:491,0
DA:492,0
DA:493,0
DA:494,0
DA:495,0
DA:496,0
DA:499,0
DA:500,0
DA:501,0
DA:503,0
DA:504,0
DA:505,0
DA:506,0
DA:507,0
DA:508,0
DA:509,0
DA:510,0
DA:513,0
DA:514,0
DA:515,0
DA:516,0
DA:517,0
DA:518,0
DA:519,0
DA:520,0
DA:521,0
DA:522,0
DA:523,0
DA:524,0
DA:525,0
DA:526,0
DA:527,0
DA:529,0
DA:530,0
DA:531,0
DA:532,0
DA:533,0
DA:535,0
DA:536,0
DA:537,0
DA:538,0
DA:539,0
DA:540,0
DA:541,0
DA:542,0
DA:545,0
DA:546,0
DA:547,0
DA:548,0
DA:551,0
DA:552,0
DA:553,0
DA:554,0
DA:555,0
DA:556,0
DA:558,0
DA:561,0
DA:564,0
DA:567,0
DA:568,0
DA:569,0
DA:573,0
DA:574,0
DA:575,0
DA:577,0
DA:578,0
DA:579,0
DA:580,0
DA:582,0
DA:585,0
DA:586,0
DA:587,0
DA:588,0
DA:589,0
DA:591,0
DA:594,0
DA:595,0
DA:597,0
DA:599,0
DA:602,0
DA:603,0
DA:604,0
DA:605,0
DA:606,0
DA:607,0
DA:608,0
DA:609,0
DA:611,0
DA:612,0
DA:613,0
DA:614,0
DA:615,0
DA:618,0
DA:619,0
DA:620,0
DA:621,0
DA:623,0
DA:624,0
DA:625,0
DA:626,0
DA:628,0
DA:630,0
DA:631,0
DA:632,0
DA:634,0
DA:635,0
DA:636,0
DA:637,0
DA:638,0
DA:640,0
DA:642,0
DA:643,0
DA:646,0
DA:648,0
DA:649,0
DA:650,0
DA:651,0
DA:652,0
DA:653,0
DA:655,0
DA:657,0
DA:658,0
DA:660,0
DA:661,0
DA:662,0
DA:663,0
DA:664,0
DA:665,0
DA:666,0
DA:668,0
DA:669,0
DA:670,0
DA:671,0
DA:672,0
DA:675,0
DA:676,0
DA:677,0
DA:678,0
DA:680,0
DA:681,0
DA:682,0
DA:683,0
DA:685,0
DA:687,0
DA:688,0
DA:689,0
DA:690,0
DA:691,0
DA:692,0
DA:694,0
DA:696,0
DA:697,0
DA:698,0
DA:699,0
DA:700,0
DA:701,0
DA:702,0
DA:703,0
DA:704,0
DA:705,0
DA:707,0
DA:708,0
DA:709,0
DA:711,0
DA:713,0
DA:714,0
DA:715,0
DA:716,0
DA:717,0
DA:718,0
DA:719,0
DA:720,0
DA:721,0
DA:722,0
DA:724,0
DA:725,0
DA:726,0
DA:727,0
DA:728,0
DA:731,0
DA:732,0
DA:733,0
DA:734,0
DA:735,0
DA:736,0
DA:737,0
DA:738,0
DA:739,0
DA:740,0
DA:743,0
DA:745,0
DA:748,0
DA:749,0
DA:750,0
DA:751,0
DA:752,0
DA:753,0
DA:754,0
DA:755,0
DA:756,0
DA:757,0
DA:758,0
DA:760,0
DA:763,0
DA:765,0
DA:768,0
DA:769,0
DA:770,0
DA:771,0
DA:772,0
DA:773,0
DA:774,0
DA:775,0
DA:776,0
DA:777,0
DA:778,0
DA:779,0
DA:780,0
DA:781,0
DA:782,0
DA:784,0
DA:787,0
DA:788,0
DA:789,0
DA:790,0
DA:792,0
DA:793,0
DA:794,0
DA:796,0
DA:799,0
DA:801,0
DA:804,0
DA:805,0
DA:806,0
DA:807,0
DA:808,0
DA:809,0
DA:810,0
DA:811,0
DA:812,0
DA:813,0
DA:815,0
DA:817,0
DA:820,0
DA:821,0
DA:822,0
DA:823,0
DA:824,0
DA:825,0
DA:826,0
DA:827,0
DA:828,0
DA:830,0
DA:831,0
DA:832,0
DA:834,0
DA:835,0
DA:836,0
DA:838,0
DA:839,0
DA:840,0
DA:842,0
DA:843,0
DA:844,0
DA:846,0
DA:847,0
DA:848,0
DA:849,0
DA:851,0
DA:853,0
DA:854,0
DA:855,0
DA:857,0
DA:858,0
DA:859,0
DA:861,0
DA:862,0
DA:863,0
DA:865,0
DA:866,0
DA:867,0
DA:869,0
DA:870,0
DA:871,0
DA:872,0
DA:874,0
DA:876,0
DA:877,0
DA:878,0
DA:880,0
DA:881,0
DA:882,0
DA:883,0
DA:885,0
DA:887,0
DA:888,0
DA:889,0
DA:891,0
DA:892,0
DA:893,0
DA:894,0
DA:896,0
DA:898,0
DA:909,0
DA:910,0
DA:911,0
DA:912,0
DA:913,0
DA:914,0
DA:915,0
DA:916,0
DA:917,0
DA:918,0
DA:919,0
DA:920,0
DA:921,0
DA:923,0
DA:924,0
DA:926,0
DA:929,0
DA:931,0
DA:932,0
DA:933,0
DA:934,0
DA:935,0
DA:936,0
DA:938,0
DA:939,0
DA:940,0
DA:941,0
DA:942,0
DA:943,0
DA:944,0
DA:945,0
DA:946,0
DA:947,0
DA:948,0
DA:949,0
DA:951,0
DA:952,0
DA:956,0
DA:957,0
DA:1056,0
DA:1059,0
DA:1060,0
DA:1062,0
DA:1063,0
DA:1064,0
DA:1065,0
DA:1066,0
DA:1067,0
DA:1068,0
DA:1069,0
DA:1070,0
DA:1071,0
DA:1072,0
DA:1073,0
DA:1074,0
DA:1075,0
DA:1076,0
DA:1077,0
DA:1079,0
DA:1141,0
DA:1142,0
DA:1144,0
DA:1148,0
DA:1151,0
DA:1152,0
DA:1153,0
DA:1155,0
DA:1217,0
DA:1222,0
DA:1225,0
DA:1226,0
DA:1227,0
DA:1228,0
DA:1229,0
DA:1230,0
DA:1231,0
DA:1232,0
DA:1233,0
DA:1234,0
DA:1235,0
DA:1236,0
DA:1237,0
DA:1238,0
DA:1239,0
DA:1240,0
DA:1242,0
DA:1292,0
DA:1293,0
DA:1294,0
DA:1296,0
DA:1300,0
DA:1303,0
DA:1304,0
DA:1306,0
DA:1347,0
DA:1351,0
DA:1352,0
DA:1353,0
DA:1354,0
DA:1355,0
DA:1356,0
DA:1357,0
DA:1358,0
DA:1359,0
DA:1360,0
DA:1361,0
DA:1362,0
DA:1363,0
DA:1364,0
DA:1365,0
DA:1366,0
DA:1367,0
DA:1368,0
DA:1369,0
DA:1370,0
DA:1371,0
DA:1372,0
DA:1373,0
DA:1374,0
DA:1376,0
DA:1432,0
DA:1433,0
DA:1434,0
DA:1436,0
DA:1440,0
DA:1442,5
DA:1443,5
DA:1444,4
DA:1446,1
DA:1448,5
DA:1450,4
DA:1451,4
DA:1452,1
DA:1453,3
DA:1454,1
DA:1455,2
DA:1456,1
DA:1458,1
DA:1460,4
DA:1467,1
DA:1468,1
DA:1469,1
DA:1470,1
DA:1471,1
DA:1472,1
DA:1473,1
DA:1474,1
DA:1477,1
DA:1478,1
DA:1479,1
DA:1480,1
DA:1481,1
DA:1482,1
DA:1483,1
DA:1484,1
DA:1485,1
DA:1486,1
DA:1487,1
DA:1488,1
DA:1489,1
DA:1490,1
DA:1493,1
DA:1494,1
DA:1495,1
DA:1496,1
DA:1497,1
DA:1498,1
DA:1499,1
DA:1500,1
DA:1501,1
DA:1504,1
DA:1505,1
DA:1506,1
DA:1507,1
DA:1508,1
DA:1511,1
DA:1512,1
DA:1513,1
DA:1514,1
DA:1515,1
DA:1516,1
DA:1517,1
DA:1518,1
DA:1519,1
DA:1520,1
DA:1521,1
DA:1524,1
DA:1525,1
DA:1526,1
DA:1527,1
DA:1530,1
DA:1531,1
DA:1532,1
DA:1533,1
DA:1536,1
DA:1537,1
DA:1538,1
DA:1539,1
DA:1540,1
DA:1543,1
DA:1544,1
DA:1545,1
DA:1546,1
DA:1547,1
DA:1550,1
DA:1551,1
DA:1552,1
DA:1553,1
DA:1554,1
DA:1555,1
DA:1558,1
DA:1559,1
DA:1560,1
DA:1563,1
DA:1564,1
DA:1565,1
DA:1566,1
DA:1567,1
DA:1570,1
DA:1571,1
DA:1572,1
DA:1573,1
DA:1577,1
DA:1580,1
DA:1581,1
DA:1582,1
DA:1583,1
DA:1584,1
DA:1585,1
DA:1586,1
DA:1587,1
DA:1588,1
DA:1589,1
DA:1591,1
DA:1592,1
DA:1593,1
BRF:0
BRH:0
LF:883
LH:153
end_of_record