SF:/home/openclaw/dev/yinglichina8848/sqlrustgo/crates/optimizer/src/context.rs
FN:18,_RNvMNtCs3mqqzCYtP3U_19sqlrustgo_optimizer7contextNtB2_16OptimizerContext18with_default_stats
FN:14,_RNvMNtCs3mqqzCYtP3U_19sqlrustgo_optimizer7contextNtB2_16OptimizerContext3new
FN:24,_RNvXs_NtCs3mqqzCYtP3U_19sqlrustgo_optimizer7contextNtB4_16OptimizerContextNtNtCs8nPosuWgJFh_4core7default7Default7default
FNDA:0,_RNvMNtCs3mqqzCYtP3U_19sqlrustgo_optimizer7contextNtB2_16OptimizerContext18with_default_stats
FNDA:0,_RNvMNtCs3mqqzCYtP3U_19sqlrustgo_optimizer7contextNtB2_16OptimizerContext3new
FNDA:0,_RNvXs_NtCs3mqqzCYtP3U_19sqlrustgo_optimizer7contextNtB4_16OptimizerContextNtNtCs8nPosuWgJFh_4core7default7Default7default
FNF:3
FNH:0
DA:14,0
DA:15,0
DA:16,0
DA:18,0
DA:19,0
DA:20,0
DA:24,0
DA:25,0
DA:26,0
BRF:0
BRH:0
LF:9
LH:0
end_of_record
SF:/home/openclaw/dev/yinglichina8848/sqlrustgo/crates/optimizer/src/cost.rs
FN:27,_RNvMNtCs3mqqzCYtP3U_19sqlrustgo_optimizer4costNtB2_15SimpleCostModel13default_model
FN:32,_RNvMNtCs3mqqzCYtP3U_19sqlrustgo_optimizer4costNtB2_15SimpleCostModel13seq_scan_cost
FN:37,_RNvMNtCs3mqqzCYtP3U_19sqlrustgo_optimizer4costNtB2_15SimpleCostModel15index_scan_cost
FN:86,_RNvMNtCs3mqqzCYtP3U_19sqlrustgo_optimizer4costNtB2_15SimpleCostModel19estimate_with_stats
FN:113,_RNvMNtCs3mqqzCYtP3U_19sqlrustgo_optimizer4costNtB2_15SimpleCostModel24estimate_join_with_stats
FN:93,_RNvMNtCs3mqqzCYtP3U_19sqlrustgo_optimizer4costNtB2_15SimpleCostModel30estimate_index_scan_with_stats
FN:18,_RNvMNtCs3mqqzCYtP3U_19sqlrustgo_optimizer4costNtB2_15SimpleCostModel3new
FN:63,_RNvMNtCs3mqqzCYtP3U_19sqlrustgo_optimizer4costNtB2_15SimpleCostModel8agg_cost
FN:45,_RNvMNtCs3mqqzCYtP3U_19sqlrustgo_optimizer4costNtB2_15SimpleCostModel9join_cost
FN:74,_RNvMNtCs3mqqzCYtP3U_19sqlrustgo_optimizer4costNtB2_15SimpleCostModel9sort_cost
FN:291,_RNvMs0_NtCs3mqqzCYtP3U_19sqlrustgo_optimizer4costNtB5_12CboOptimizer18estimate_scan_cost
FN:311,_RNvMs0_NtCs3mqqzCYtP3U_19sqlrustgo_optimizer4costNtB5_12CboOptimizer20select_access_method
FN:300,_RNvMs0_NtCs3mqqzCYtP3U_19sqlrustgo_optimizer4costNtB5_12CboOptimizer24estimate_index_scan_cost
FN:276,_RNvMs0_NtCs3mqqzCYtP3U_19sqlrustgo_optimizer4costNtB5_12CboOptimizer3new
FN:389,_RNvMs4_NtCs3mqqzCYtP3U_19sqlrustgo_optimizer4costNtB5_12CboOptimizer24estimate_range_scan_cost
FN:408,_RNvMs4_NtCs3mqqzCYtP3U_19sqlrustgo_optimizer4costNtB5_12CboOptimizer25select_best_access_method
FN:103,_RNCNvMNtCs3mqqzCYtP3U_19sqlrustgo_optimizer4costNtB4_15SimpleCostModel30estimate_index_scan_with_stats0B6_
FN:417,_RNCNvMs4_NtCs3mqqzCYtP3U_19sqlrustgo_optimizer4costNtB7_12CboOptimizer25select_best_access_method0B9_
FN:187,_RINvNvNtNtCs3mqqzCYtP3U_19sqlrustgo_optimizer4cost5testss_21test_cost_model_trait17__check_cost_modelNtB6_15SimpleCostModelEB8_
FN:172,_RNvNtNtCs3mqqzCYtP3U_19sqlrustgo_optimizer4cost5testss_13test_agg_cost
FN:144,_RNvNtNtCs3mqqzCYtP3U_19sqlrustgo_optimizer4cost5testss_18test_seq_scan_cost
FN:151,_RNvNtNtCs3mqqzCYtP3U_19sqlrustgo_optimizer4cost5testss_20test_index_scan_cost
FN:186,_RNvNtNtCs3mqqzCYtP3U_19sqlrustgo_optimizer4cost5testss_21test_cost_model_trait
FN:199,_RNvNtNtCs3mqqzCYtP3U_19sqlrustgo_optimizer4cost5testss_22test_join_cost_default
FN:206,_RNvNtNtCs3mqqzCYtP3U_19sqlrustgo_optimizer4cost5testss_23test_sort_cost_external
FN:227,_RNvNtNtCs3mqqzCYtP3U_19sqlrustgo_optimizer4cost5testss_24test_estimate_with_stats
FN:165,_RNvNtNtCs3mqqzCYtP3U_19sqlrustgo_optimizer4cost5testss_24test_join_cost_hash_join
FN:179,_RNvNtNtCs3mqqzCYtP3U_19sqlrustgo_optimizer4cost5testss_24test_sort_cost_in_memory
FN:220,_RNvNtNtCs3mqqzCYtP3U_19sqlrustgo_optimizer4cost5testss_25test_agg_cost_no_group_by
FN:192,_RNvNtNtCs3mqqzCYtP3U_19sqlrustgo_optimizer4cost5testss_25test_join_cost_sort_merge
FN:158,_RNvNtNtCs3mqqzCYtP3U_19sqlrustgo_optimizer4cost5testss_26test_join_cost_nested_loop
FN:254,_RNvNtNtCs3mqqzCYtP3U_19sqlrustgo_optimizer4cost5testss_29test_estimate_join_with_stats
FN:213,_RNvNtNtCs3mqqzCYtP3U_19sqlrustgo_optimizer4cost5testss_29test_simple_cost_model_custom
FN:137,_RNvNtNtCs3mqqzCYtP3U_19sqlrustgo_optimizer4cost5testss_30test_simple_cost_model_default
FN:240,_RNvNtNtCs3mqqzCYtP3U_19sqlrustgo_optimizer4cost5testss_35test_estimate_index_scan_with_stats
FN:283,_RNvMs0_NtCs3mqqzCYtP3U_19sqlrustgo_optimizer4costNtB5_12CboOptimizer19with_stats_provider
FN:355,_RNvMs2_NtCs3mqqzCYtP3U_19sqlrustgo_optimizer4costNtB5_13PredicateType7from_op
FN:452,_RNvMs4_NtCs3mqqzCYtP3U_19sqlrustgo_optimizer4costNtB5_12CboOptimizer27select_access_method_simple
FN:335,_RNvXs1_NtCs3mqqzCYtP3U_19sqlrustgo_optimizer4costNtB5_12CboOptimizerNtNtCs8nPosuWgJFh_4core7default7Default7default
FN:378,_RNvXs3_NtCs3mqqzCYtP3U_19sqlrustgo_optimizer4costNtB5_12AccessMethodNtNtCs8nPosuWgJFh_4core3fmt7Display3fmt
FN:126,_RNvXs_NtCs3mqqzCYtP3U_19sqlrustgo_optimizer4costNtB4_15SimpleCostModelNtB6_9CostModel13estimate_cost
FNDA:72,_RNvMNtCs3mqqzCYtP3U_19sqlrustgo_optimizer4costNtB2_15SimpleCostModel13default_model
FNDA:12,_RNvMNtCs3mqqzCYtP3U_19sqlrustgo_optimizer4costNtB2_15SimpleCostModel13seq_scan_cost
FNDA:3,_RNvMNtCs3mqqzCYtP3U_19sqlrustgo_optimizer4costNtB2_15SimpleCostModel15index_scan_cost
FNDA:1,_RNvMNtCs3mqqzCYtP3U_19sqlrustgo_optimizer4costNtB2_15SimpleCostModel19estimate_with_stats
FNDA:1,_RNvMNtCs3mqqzCYtP3U_19sqlrustgo_optimizer4costNtB2_15SimpleCostModel24estimate_join_with_stats
FNDA:1,_RNvMNtCs3mqqzCYtP3U_19sqlrustgo_optimizer4costNtB2_15SimpleCostModel30estimate_index_scan_with_stats
FNDA:73,_RNvMNtCs3mqqzCYtP3U_19sqlrustgo_optimizer4costNtB2_15SimpleCostModel3new
FNDA:2,_RNvMNtCs3mqqzCYtP3U_19sqlrustgo_optimizer4costNtB2_15SimpleCostModel8agg_cost
FNDA:8,_RNvMNtCs3mqqzCYtP3U_19sqlrustgo_optimizer4costNtB2_15SimpleCostModel9join_cost
FNDA:2,_RNvMNtCs3mqqzCYtP3U_19sqlrustgo_optimizer4costNtB2_15SimpleCostModel9sort_cost
FNDA:2,_RNvMs0_NtCs3mqqzCYtP3U_19sqlrustgo_optimizer4costNtB5_12CboOptimizer18estimate_scan_cost
FNDA:1,_RNvMs0_NtCs3mqqzCYtP3U_19sqlrustgo_optimizer4costNtB5_12CboOptimizer20select_access_method
FNDA:1,_RNvMs0_NtCs3mqqzCYtP3U_19sqlrustgo_optimizer4costNtB5_12CboOptimizer24estimate_index_scan_cost
FNDA:3,_RNvMs0_NtCs3mqqzCYtP3U_19sqlrustgo_optimizer4costNtB5_12CboOptimizer3new
FNDA:0,_RNvMs4_NtCs3mqqzCYtP3U_19sqlrustgo_optimizer4costNtB5_12CboOptimizer24estimate_range_scan_cost
FNDA:0,_RNvMs4_NtCs3mqqzCYtP3U_19sqlrustgo_optimizer4costNtB5_12CboOptimizer25select_best_access_method
FNDA:1,_RNCNvMNtCs3mqqzCYtP3U_19sqlrustgo_optimizer4costNtB4_15SimpleCostModel30estimate_index_scan_with_stats0B6_
FNDA:0,_RNCNvMs4_NtCs3mqqzCYtP3U_19sqlrustgo_optimizer4costNtB7_12CboOptimizer25select_best_access_method0B9_
FNDA:1,_RINvNvNtNtCs3mqqzCYtP3U_19sqlrustgo_optimizer4cost5testss_21test_cost_model_trait17__check_cost_modelNtB6_15SimpleCostModelEB8_
FNDA:1,_RNvNtNtCs3mqqzCYtP3U_19sqlrustgo_optimizer4cost5testss_13test_agg_cost
FNDA:1,_RNvNtNtCs3mqqzCYtP3U_19sqlrustgo_optimizer4cost5testss_18test_seq_scan_cost
FNDA:1,_RNvNtNtCs3mqqzCYtP3U_19sqlrustgo_optimizer4cost5testss_20test_index_scan_cost
FNDA:1,_RNvNtNtCs3mqqzCYtP3U_19sqlrustgo_optimizer4cost5testss_21test_cost_model_trait
FNDA:1,_RNvNtNtCs3mqqzCYtP3U_19sqlrustgo_optimizer4cost5testss_22test_join_cost_default
FNDA:1,_RNvNtNtCs3mqqzCYtP3U_19sqlrustgo_optimizer4cost5testss_23test_sort_cost_external
FNDA:1,_RNvNtNtCs3mqqzCYtP3U_19sqlrustgo_optimizer4cost5testss_24test_estimate_with_stats
FNDA:1,_RNvNtNtCs3mqqzCYtP3U_19sqlrustgo_optimizer4cost5testss_24test_join_cost_hash_join
FNDA:1,_RNvNtNtCs3mqqzCYtP3U_19sqlrustgo_optimizer4cost5testss_24test_sort_cost_in_memory
FNDA:1,_RNvNtNtCs3mqqzCYtP3U_19sqlrustgo_optimizer4cost5testss_25test_agg_cost_no_group_by
FNDA:1,_RNvNtNtCs3mqqzCYtP3U_19sqlrustgo_optimizer4cost5testss_25test_join_cost_sort_merge
FNDA:1,_RNvNtNtCs3mqqzCYtP3U_19sqlrustgo_optimizer4cost5testss_26test_join_cost_nested_loop
FNDA:1,_RNvNtNtCs3mqqzCYtP3U_19sqlrustgo_optimizer4cost5testss_29test_estimate_join_with_stats
FNDA:1,_RNvNtNtCs3mqqzCYtP3U_19sqlrustgo_optimizer4cost5testss_29test_simple_cost_model_custom
FNDA:1,_RNvNtNtCs3mqqzCYtP3U_19sqlrustgo_optimizer4cost5testss_30test_simple_cost_model_default
FNDA:1,_RNvNtNtCs3mqqzCYtP3U_19sqlrustgo_optimizer4cost5testss_35test_estimate_index_scan_with_stats
FNDA:0,_RNvMs0_NtCs3mqqzCYtP3U_19sqlrustgo_optimizer4costNtB5_12CboOptimizer19with_stats_provider
FNDA:0,_RNvMs2_NtCs3mqqzCYtP3U_19sqlrustgo_optimizer4costNtB5_13PredicateType7from_op
FNDA:0,_RNvMs4_NtCs3mqqzCYtP3U_19sqlrustgo_optimizer4costNtB5_12CboOptimizer27select_access_method_simple
FNDA:0,_RNvXs1_NtCs3mqqzCYtP3U_19sqlrustgo_optimizer4costNtB5_12CboOptimizerNtNtCs8nPosuWgJFh_4core7default7Default7default
FNDA:0,_RNvXs3_NtCs3mqqzCYtP3U_19sqlrustgo_optimizer4costNtB5_12AccessMethodNtNtCs8nPosuWgJFh_4core3fmt7Display3fmt
FNDA:0,_RNvXs_NtCs3mqqzCYtP3U_19sqlrustgo_optimizer4costNtB4_15SimpleCostModelNtB6_9CostModel13estimate_cost
FNF:41
FNH:32
DA:18,73
DA:19,73
DA:20,73
DA:21,73
DA:22,73
DA:23,73
DA:24,73
DA:27,72
DA:28,72
DA:29,72
DA:32,12
DA:33,12
DA:34,12
DA:37,3
DA:38,3
DA:39,3
DA:40,3
DA:41,3
DA:42,3
DA:45,8
DA:46,8
DA:47,8
DA:48,7
DA:49,5
DA:50,5
DA:51,5
DA:53,2
DA:54,1
DA:55,1
DA:56,1
DA:58,1
DA:60,8
DA:63,2
DA:64,2
DA:65,2
DA:66,1
DA:68,1
DA:70,2
DA:71,2
DA:74,2
DA:75,2
DA:76,2
DA:77,1
DA:80,1
DA:81,1
DA:83,2
DA:86,1
DA:87,1
DA:88,1
DA:89,1
DA:90,1
DA:93,1
DA:94,1
DA:95,1
DA:96,1
DA:97,1
DA:98,1
DA:99,1
DA:101,1
DA:102,1
DA:103,1
DA:104,1
DA:106,1
DA:107,1
DA:109,1
DA:110,1
DA:113,1
DA:114,1
DA:115,1
DA:116,1
DA:117,1
DA:118,1
DA:119,1
DA:120,1
DA:121,1
DA:122,1
DA:126,0
DA:128,0
DA:129,0
DA:137,1
DA:138,1
DA:139,1
DA:140,1
DA:141,1
DA:144,1
DA:145,1
DA:146,1
DA:147,1
DA:148,1
DA:151,1
DA:152,1
DA:153,1
DA:154,1
DA:155,1
DA:158,1
DA:159,1
DA:160,1
DA:161,1
DA:162,1
DA:165,1
DA:166,1
DA:167,1
DA:168,1
DA:169,1
DA:172,1
DA:173,1
DA:174,1
DA:175,1
DA:176,1
DA:179,1
DA:180,1
DA:181,1
DA:182,1
DA:183,1
DA:186,1
DA:187,1
DA:188,1
DA:189,1
DA:192,1
DA:193,1
DA:194,1
DA:195,1
DA:196,1
DA:199,1
DA:200,1
DA:201,1
DA:202,1
DA:203,1
DA:206,1
DA:207,1
DA:208,1
DA:209,1
DA:210,1
DA:213,1
DA:214,1
DA:215,1
DA:216,1
DA:217,1
DA:220,1
DA:221,1
DA:222,1
DA:223,1
DA:224,1
DA:227,1
DA:230,1
DA:231,1
DA:232,1
DA:233,1
DA:235,1
DA:236,1
DA:237,1
DA:240,1
DA:243,1
DA:244,1
DA:245,1
DA:246,1
DA:247,1
DA:249,1
DA:250,1
DA:251,1
DA:254,1
DA:257,1
DA:258,1
DA:259,1
DA:260,1
DA:261,1
DA:262,1
DA:263,1
DA:265,1
DA:266,1
DA:267,1
DA:276,3
DA:277,3
DA:278,3
DA:279,3
DA:280,3
DA:281,3
DA:283,0
DA:284,0
DA:285,0
DA:286,0
DA:287,0
DA:288,0
DA:289,0
DA:291,2
DA:292,2
DA:293,0
DA:294,0
DA:295,0
DA:296,2
DA:297,2
DA:298,2
DA:300,1
DA:301,1
DA:302,0
DA:303,0
DA:304,0
DA:305,0
DA:306,0
DA:307,1
DA:308,1
DA:309,1
DA:311,1
DA:312,1
DA:313,1
DA:314,1
DA:315,1
DA:316,1
DA:317,1
DA:318,1
DA:320,1
DA:321,0
DA:323,1
DA:326,1
DA:327,0
DA:329,1
DA:331,1
DA:335,0
DA:336,0
DA:337,0
DA:355,0
DA:356,0
DA:357,0
DA:358,0
DA:359,0
DA:360,0
DA:361,0
DA:363,0
DA:378,0
DA:379,0
DA:380,0
DA:381,0
DA:382,0
DA:384,0
DA:389,0
DA:390,0
DA:391,0
DA:392,0
DA:393,0
DA:394,0
DA:396,0
DA:397,0
DA:398,0
DA:399,0
DA:401,0
DA:402,0
DA:404,0
DA:405,0
DA:408,0
DA:409,0
DA:410,0
DA:411,0
DA:412,0
DA:413,0
DA:414,0
DA:415,0
DA:416,0
DA:417,0
DA:418,0
DA:420,0
DA:423,0
DA:424,0
DA:425,0
DA:427,0
DA:432,0
DA:433,0
DA:434,0
DA:435,0
DA:437,0
DA:442,0
DA:446,0
DA:449,0
DA:452,0
DA:453,0
DA:454,0
DA:455,0
DA:456,0
DA:457,0
DA:458,0
DA:459,0
DA:460,0
DA:461,0
DA:463,0
BRF:0
BRH:0
LF:285
LH:198
end_of_record
SF:/home/openclaw/dev/yinglichina8848/sqlrustgo/crates/optimizer/src/graph_cost.rs
FN:252,_RNvNtNtCs3mqqzCYtP3U_19sqlrustgo_optimizer10graph_cost5testss_19test_traversal_cost
FN:271,_RNvNtNtCs3mqqzCYtP3U_19sqlrustgo_optimizer10graph_cost5testss_22test_reachability_cost
FN:285,_RNvNtNtCs3mqqzCYtP3U_19sqlrustgo_optimizer10graph_cost5testss_23test_estimate_plan_cost
FN:259,_RNvNtNtCs3mqqzCYtP3U_19sqlrustgo_optimizer10graph_cost5testss_23test_pattern_match_cost
FN:278,_RNvNtNtCs3mqqzCYtP3U_19sqlrustgo_optimizer10graph_cost5testss_23test_shortest_path_cost
FN:305,_RNvNtNtCs3mqqzCYtP3U_19sqlrustgo_optimizer10graph_cost5testss_29test_graph_index_type_default
FN:242,_RNvNtNtCs3mqqzCYtP3U_19sqlrustgo_optimizer10graph_cost5testss_31test_graph_cost_factors_default
FN:297,_RNvNtNtCs3mqqzCYtP3U_19sqlrustgo_optimizer10graph_cost5testss_42test_graph_scan_cheaper_than_sql_traversal
FN:82,_RNvMs0_NtCs3mqqzCYtP3U_19sqlrustgo_optimizer10graph_costNtB5_14GraphCostModel13default_model
FN:94,_RNvMs0_NtCs3mqqzCYtP3U_19sqlrustgo_optimizer10graph_costNtB5_14GraphCostModel14traversal_cost
FN:137,_RNvMs0_NtCs3mqqzCYtP3U_19sqlrustgo_optimizer10graph_costNtB5_14GraphCostModel17reachability_cost
FN:164,_RNvMs0_NtCs3mqqzCYtP3U_19sqlrustgo_optimizer10graph_costNtB5_14GraphCostModel18estimate_plan_cost
FN:118,_RNvMs0_NtCs3mqqzCYtP3U_19sqlrustgo_optimizer10graph_costNtB5_14GraphCostModel18pattern_match_cost
FN:150,_RNvMs0_NtCs3mqqzCYtP3U_19sqlrustgo_optimizer10graph_costNtB5_14GraphCostModel18shortest_path_cost
FN:216,_RNvMs0_NtCs3mqqzCYtP3U_19sqlrustgo_optimizer10graph_costNtB5_14GraphCostModel27graph_scan_cheaper_than_sql
FN:61,_RNvMs_NtCs3mqqzCYtP3U_19sqlrustgo_optimizer10graph_costNtB4_16GraphCostFactors20get_index_multiplier
FN:41,_RNvXNtCs3mqqzCYtP3U_19sqlrustgo_optimizer10graph_costNtB2_16GraphCostFactorsNtNtCs8nPosuWgJFh_4core7default7Default7default
FN:77,_RNvMs0_NtCs3mqqzCYtP3U_19sqlrustgo_optimizer10graph_costNtB5_14GraphCostModel3new
FNDA:1,_RNvNtNtCs3mqqzCYtP3U_19sqlrustgo_optimizer10graph_cost5testss_19test_traversal_cost
FNDA:1,_RNvNtNtCs3mqqzCYtP3U_19sqlrustgo_optimizer10graph_cost5testss_22test_reachability_cost
FNDA:1,_RNvNtNtCs3mqqzCYtP3U_19sqlrustgo_optimizer10graph_cost5testss_23test_estimate_plan_cost
FNDA:1,_RNvNtNtCs3mqqzCYtP3U_19sqlrustgo_optimizer10graph_cost5testss_23test_pattern_match_cost
FNDA:1,_RNvNtNtCs3mqqzCYtP3U_19sqlrustgo_optimizer10graph_cost5testss_23test_shortest_path_cost
FNDA:1,_RNvNtNtCs3mqqzCYtP3U_19sqlrustgo_optimizer10graph_cost5testss_29test_graph_index_type_default
FNDA:1,_RNvNtNtCs3mqqzCYtP3U_19sqlrustgo_optimizer10graph_cost5testss_31test_graph_cost_factors_default
FNDA:1,_RNvNtNtCs3mqqzCYtP3U_19sqlrustgo_optimizer10graph_cost5testss_42test_graph_scan_cheaper_than_sql_traversal
FNDA:24,_RNvMs0_NtCs3mqqzCYtP3U_19sqlrustgo_optimizer10graph_costNtB5_14GraphCostModel13default_model
FNDA:8,_RNvMs0_NtCs3mqqzCYtP3U_19sqlrustgo_optimizer10graph_costNtB5_14GraphCostModel14traversal_cost
FNDA:1,_RNvMs0_NtCs3mqqzCYtP3U_19sqlrustgo_optimizer10graph_costNtB5_14GraphCostModel17reachability_cost
FNDA:6,_RNvMs0_NtCs3mqqzCYtP3U_19sqlrustgo_optimizer10graph_costNtB5_14GraphCostModel18estimate_plan_cost
FNDA:1,_RNvMs0_NtCs3mqqzCYtP3U_19sqlrustgo_optimizer10graph_costNtB5_14GraphCostModel18pattern_match_cost
FNDA:1,_RNvMs0_NtCs3mqqzCYtP3U_19sqlrustgo_optimizer10graph_costNtB5_14GraphCostModel18shortest_path_cost
FNDA:1,_RNvMs0_NtCs3mqqzCYtP3U_19sqlrustgo_optimizer10graph_costNtB5_14GraphCostModel27graph_scan_cheaper_than_sql
FNDA:13,_RNvMs_NtCs3mqqzCYtP3U_19sqlrustgo_optimizer10graph_costNtB4_16GraphCostFactors20get_index_multiplier
FNDA:25,_RNvXNtCs3mqqzCYtP3U_19sqlrustgo_optimizer10graph_costNtB2_16GraphCostFactorsNtNtCs8nPosuWgJFh_4core7default7Default7default
FNDA:0,_RNvMs0_NtCs3mqqzCYtP3U_19sqlrustgo_optimizer10graph_costNtB5_14GraphCostModel3new
FNF:18
FNH:17
DA:41,25
DA:42,25
DA:43,25
DA:44,25
DA:45,25
DA:46,25
DA:48,25
DA:49,25
DA:50,25
DA:51,25
DA:52,25
DA:53,25
DA:54,25
DA:55,25
DA:56,25
DA:61,13
DA:62,13
DA:63,13
DA:64,13
DA:65,13
DA:66,13
DA:77,0
DA:78,0
DA:79,0
DA:82,24
DA:83,24
DA:84,24
DA:85,24
DA:86,24
DA:94,8
DA:95,8
DA:96,8
DA:97,8
DA:98,8
DA:99,8
DA:102,8
DA:103,8
DA:105,8
DA:106,8
DA:107,8
DA:109,8
DA:110,8
DA:118,1
DA:119,1
DA:120,1
DA:121,1
DA:122,1
DA:123,1
DA:125,1
DA:126,1
DA:127,1
DA:128,1
DA:129,1
DA:130,1
DA:137,1
DA:139,1
DA:140,1
DA:141,1
DA:142,1
DA:150,1
DA:151,1
DA:152,1
DA:153,1
DA:154,1
DA:155,1
DA:157,1
DA:158,1
DA:159,1
DA:160,1
DA:161,1
DA:164,6
DA:165,0
DA:166,6
DA:167,6
DA:168,6
DA:169,6
DA:170,6
DA:172,0
DA:173,0
DA:176,0
DA:178,0
DA:179,0
DA:180,0
DA:181,0
DA:187,0
DA:191,0
DA:192,0
DA:193,0
DA:194,0
DA:196,0
DA:197,0
DA:200,0
DA:202,0
DA:203,0
DA:204,0
DA:205,0
DA:208,0
DA:210,0
DA:212,6
DA:216,1
DA:217,1
DA:218,1
DA:219,1
DA:220,1
DA:221,1
DA:222,1
DA:223,1
DA:224,1
DA:225,1
DA:228,0
DA:230,0
DA:232,1
DA:233,1
DA:234,1
DA:242,1
DA:243,1
DA:244,1
DA:245,1
DA:246,1
DA:247,1
DA:249,1
DA:252,1
DA:253,1
DA:254,1
DA:255,1
DA:256,1
DA:259,1
DA:260,1
DA:261,1
DA:262,1
DA:263,1
DA:264,1
DA:265,1
DA:266,1
DA:267,1
DA:268,1
DA:271,1
DA:272,1
DA:273,1
DA:274,1
DA:275,1
DA:278,1
DA:279,1
DA:280,1
DA:281,1
DA:282,1
DA:285,1
DA:286,1
DA:287,1
DA:288,1
DA:289,1
DA:290,1
DA:291,1
DA:292,1
DA:293,1
DA:294,1
DA:297,1
DA:298,1
DA:299,1
DA:300,1
DA:301,1
DA:302,1
DA:305,1
DA:306,1
DA:307,1
DA:308,1
BRF:0
BRH:0
LF:166
LH:139
end_of_record
SF:/home/openclaw/dev/yinglichina8848/sqlrustgo/crates/optimizer/src/index_selector.rs
FN:14,_RNvNtCs3mqqzCYtP3U_19sqlrustgo_optimizer14index_selector27analyze_predicate_for_index
FN:68,_RNvNtNtCs3mqqzCYtP3U_19sqlrustgo_optimizer14index_selector5testss_25test_analyze_eq_predicate
FN:77,_RNvNtNtCs3mqqzCYtP3U_19sqlrustgo_optimizer14index_selector5testss_26test_analyze_and_predicate
FN:56,_RNvNtCs3mqqzCYtP3U_19sqlrustgo_optimizer14index_selector22estimate_index_benefit
FNDA:3,_RNvNtCs3mqqzCYtP3U_19sqlrustgo_optimizer14index_selector27analyze_predicate_for_index
FNDA:1,_RNvNtNtCs3mqqzCYtP3U_19sqlrustgo_optimizer14index_selector5testss_25test_analyze_eq_predicate
FNDA:1,_RNvNtNtCs3mqqzCYtP3U_19sqlrustgo_optimizer14index_selector5testss_26test_analyze_and_predicate
FNDA:0,_RNvNtCs3mqqzCYtP3U_19sqlrustgo_optimizer14index_selector22estimate_index_benefit
FNF:4
FNH:3
DA:14,3
DA:15,3
DA:16,2
DA:17,2
DA:18,2
DA:19,0
DA:20,0
DA:22,0
DA:23,0
DA:24,0
DA:25,0
DA:26,0
DA:28,0
DA:29,0
DA:30,0
DA:31,0
DA:32,0
DA:34,0
DA:35,0
DA:36,0
DA:37,0
DA:38,0
DA:40,0
DA:41,0
DA:42,0
DA:43,0
DA:44,0
DA:46,1
DA:47,1
DA:48,1
DA:49,0
DA:50,0
DA:52,0
DA:54,3
DA:56,0
DA:57,0
DA:58,0
DA:59,0
DA:60,0
DA:68,1
DA:69,1
DA:70,1
DA:71,1
DA:72,1
DA:73,1
DA:74,1
DA:77,1
DA:78,1
DA:79,1
DA:80,1
DA:82,1
DA:83,1
DA:84,1
BRF:0
BRH:0
LF:53
LH:23
end_of_record
SF:/home/openclaw/dev/yinglichina8848/sqlrustgo/crates/optimizer/src/lib.rs
FN:157,_RNvMs1_Cs3mqqzCYtP3U_19sqlrustgo_optimizerNtB5_16DefaultOptimizer17add_default_rules
FN:146,_RNvMs1_Cs3mqqzCYtP3U_19sqlrustgo_optimizerNtB5_16DefaultOptimizer3new
FN:166,_RNvMs1_Cs3mqqzCYtP3U_19sqlrustgo_optimizerNtB5_16DefaultOptimizer8with_cbo
FN:110,_RNvMs_Cs3mqqzCYtP3U_19sqlrustgo_optimizerNtB4_7RuleSet3new
FN:121,_RNvMs_Cs3mqqzCYtP3U_19sqlrustgo_optimizerNtB4_7RuleSet5apply
FN:94,_RNvXCs3mqqzCYtP3U_19sqlrustgo_optimizerNtB2_13NoOpOptimizerNtB2_9Optimizer8optimize
FN:133,_RNvXs0_Cs3mqqzCYtP3U_19sqlrustgo_optimizerNtB5_7RuleSetNtNtCs8nPosuWgJFh_4core7default7Default7default
FN:186,_RNvXs2_Cs3mqqzCYtP3U_19sqlrustgo_optimizerNtB5_16DefaultOptimizerNtB5_9Optimizer8optimize
FN:78,_RNvYNtNtCs3mqqzCYtP3U_19sqlrustgo_optimizer5rules11IndexSelectINtB6_4RuleNtB4_4PlanE21apply_without_contextB6_
FN:78,_RNvYNtNtCs3mqqzCYtP3U_19sqlrustgo_optimizer5rules14JoinReorderingINtB6_4RuleNtB4_4PlanE21apply_without_contextB6_
FN:78,_RNvYNtNtCs3mqqzCYtP3U_19sqlrustgo_optimizer5rules15ConstantFoldingINtB6_4RuleNtB4_4PlanE21apply_without_contextB6_
FN:78,_RNvYNtNtCs3mqqzCYtP3U_19sqlrustgo_optimizer5rules17PredicatePushdownINtB6_4RuleNtB4_4PlanE21apply_without_contextB6_
FN:78,_RNvYNtNtCs3mqqzCYtP3U_19sqlrustgo_optimizer5rules17ProjectionPruningINtB6_4RuleNtB4_4PlanE21apply_without_contextB6_
FN:78,_RNvYNtNtCs3mqqzCYtP3U_19sqlrustgo_optimizer5rules24ExpressionSimplificationINtB6_4RuleNtB4_4PlanE21apply_without_contextB6_
FN:303,_RNvNtCs3mqqzCYtP3U_19sqlrustgo_optimizer5testss_15test_rule_trait
FN:230,_RNvNtCs3mqqzCYtP3U_19sqlrustgo_optimizer5testss_16test_ruleset_new
FN:250,_RNvNtCs3mqqzCYtP3U_19sqlrustgo_optimizer5testss_18test_ruleset_apply
FN:221,_RNvNtCs3mqqzCYtP3U_19sqlrustgo_optimizer5testss_19test_noop_optimizer
FN:348,_RNvNtCs3mqqzCYtP3U_19sqlrustgo_optimizer5testss_20test_ruleset_default
FN:328,_RNvNtCs3mqqzCYtP3U_19sqlrustgo_optimizer5testss_21test_cost_model_trait
FN:236,_RNvNtCs3mqqzCYtP3U_19sqlrustgo_optimizer5testss_21test_ruleset_add_rule
FN:373,_RNvNtCs3mqqzCYtP3U_19sqlrustgo_optimizer5testss_22test_cbo_optimizer_new
FN:354,_RNvNtCs3mqqzCYtP3U_19sqlrustgo_optimizer5testss_26test_default_optimizer_new
FN:277,_RNvNtCs3mqqzCYtP3U_19sqlrustgo_optimizer5testss_27test_optimizer_trait_object
FN:265,_RNvNtCs3mqqzCYtP3U_19sqlrustgo_optimizer5testss_29test_ruleset_apply_no_changes
FN:363,_RNvNtCs3mqqzCYtP3U_19sqlrustgo_optimizer5testss_31test_default_optimizer_with_cbo
FN:380,_RNvNtCs3mqqzCYtP3U_19sqlrustgo_optimizer5testss_39test_cbo_optimizer_select_access_method
FN:307,_RNvXNvNtCs3mqqzCYtP3U_19sqlrustgo_optimizer5testss_15test_rule_traitNtB2_8TestRuleINtB6_4RuleNtNtCsj0gLuUEfogP_5alloc6string6StringE4name
FN:311,_RNvXNvNtCs3mqqzCYtP3U_19sqlrustgo_optimizer5testss_15test_rule_traitNtB2_8TestRuleINtB6_4RuleNtNtCsj0gLuUEfogP_5alloc6string6StringE5apply
FN:332,_RNvXNvNtCs3mqqzCYtP3U_19sqlrustgo_optimizer5testss_21test_cost_model_traitNtB2_13TestCostModelNtB6_9CostModel13estimate_cost
FN:283,_RNvXNvNtCs3mqqzCYtP3U_19sqlrustgo_optimizer5testss_27test_optimizer_trait_objectNtB2_13TestOptimizerNtB6_9Optimizer8optimize
FN:114,_RINvMs_Cs3mqqzCYtP3U_19sqlrustgo_optimizerNtB5_7RuleSet8add_ruleNCNvNtB5_5testss_18test_ruleset_apply0EB5_
FN:114,_RINvMs_Cs3mqqzCYtP3U_19sqlrustgo_optimizerNtB5_7RuleSet8add_ruleNCNvNtB5_5testss_18test_ruleset_applys_0EB5_
FN:114,_RINvMs_Cs3mqqzCYtP3U_19sqlrustgo_optimizerNtB5_7RuleSet8add_ruleNCNvNtB5_5testss_21test_ruleset_add_rule0EB5_
FN:114,_RINvMs_Cs3mqqzCYtP3U_19sqlrustgo_optimizerNtB5_7RuleSet8add_ruleNCNvNtB5_5testss_29test_ruleset_apply_no_changes0EB5_
FN:172,_RNvMs1_Cs3mqqzCYtP3U_19sqlrustgo_optimizerNtB5_16DefaultOptimizer11enable_rule
FN:176,_RNvMs1_Cs3mqqzCYtP3U_19sqlrustgo_optimizerNtB5_16DefaultOptimizer12disable_rule
FN:180,_RNvMs1_Cs3mqqzCYtP3U_19sqlrustgo_optimizerNtB5_16DefaultOptimizer8add_rule
FN:211,_RNvXs3_Cs3mqqzCYtP3U_19sqlrustgo_optimizerNtB5_16DefaultOptimizerNtNtCs8nPosuWgJFh_4core7default7Default7default
FN:63,_RNvYpNtCs3mqqzCYtP3U_19sqlrustgo_optimizer9Optimizer24optimize_without_contextB5_
FN:253,_RNCNvNtCs3mqqzCYtP3U_19sqlrustgo_optimizer5testss_18test_ruleset_apply0B5_
FN:254,_RNCNvNtCs3mqqzCYtP3U_19sqlrustgo_optimizer5testss_18test_ruleset_applys_0B5_
FN:240,_RNCNvNtCs3mqqzCYtP3U_19sqlrustgo_optimizer5testss_21test_ruleset_add_rule0B5_
FN:268,_RNCNvNtCs3mqqzCYtP3U_19sqlrustgo_optimizer5testss_29test_ruleset_apply_no_changes0B5_
FNDA:2,_RNvMs1_Cs3mqqzCYtP3U_19sqlrustgo_optimizerNtB5_16DefaultOptimizer17add_default_rules
FNDA:2,_RNvMs1_Cs3mqqzCYtP3U_19sqlrustgo_optimizerNtB5_16DefaultOptimizer3new
FNDA:1,_RNvMs1_Cs3mqqzCYtP3U_19sqlrustgo_optimizerNtB5_16DefaultOptimizer8with_cbo
FNDA:5,_RNvMs_Cs3mqqzCYtP3U_19sqlrustgo_optimizerNtB4_7RuleSet3new
FNDA:2,_RNvMs_Cs3mqqzCYtP3U_19sqlrustgo_optimizerNtB4_7RuleSet5apply
FNDA:1,_RNvXCs3mqqzCYtP3U_19sqlrustgo_optimizerNtB2_13NoOpOptimizerNtB2_9Optimizer8optimize
FNDA:1,_RNvXs0_Cs3mqqzCYtP3U_19sqlrustgo_optimizerNtB5_7RuleSetNtNtCs8nPosuWgJFh_4core7default7Default7default
FNDA:2,_RNvXs2_Cs3mqqzCYtP3U_19sqlrustgo_optimizerNtB5_16DefaultOptimizerNtB5_9Optimizer8optimize
FNDA:4,_RNvYNtNtCs3mqqzCYtP3U_19sqlrustgo_optimizer5rules11IndexSelectINtB6_4RuleNtB4_4PlanE21apply_without_contextB6_
FNDA:0,_RNvYNtNtCs3mqqzCYtP3U_19sqlrustgo_optimizer5rules14JoinReorderingINtB6_4RuleNtB4_4PlanE21apply_without_contextB6_
FNDA:2,_RNvYNtNtCs3mqqzCYtP3U_19sqlrustgo_optimizer5rules15ConstantFoldingINtB6_4RuleNtB4_4PlanE21apply_without_contextB6_
FNDA:4,_RNvYNtNtCs3mqqzCYtP3U_19sqlrustgo_optimizer5rules17PredicatePushdownINtB6_4RuleNtB4_4PlanE21apply_without_contextB6_
FNDA:2,_RNvYNtNtCs3mqqzCYtP3U_19sqlrustgo_optimizer5rules17ProjectionPruningINtB6_4RuleNtB4_4PlanE21apply_without_contextB6_
FNDA:0,_RNvYNtNtCs3mqqzCYtP3U_19sqlrustgo_optimizer5rules24ExpressionSimplificationINtB6_4RuleNtB4_4PlanE21apply_without_contextB6_
FNDA:1,_RNvNtCs3mqqzCYtP3U_19sqlrustgo_optimizer5testss_15test_rule_trait
FNDA:1,_RNvNtCs3mqqzCYtP3U_19sqlrustgo_optimizer5testss_16test_ruleset_new
FNDA:1,_RNvNtCs3mqqzCYtP3U_19sqlrustgo_optimizer5testss_18test_ruleset_apply
FNDA:1,_RNvNtCs3mqqzCYtP3U_19sqlrustgo_optimizer5testss_19test_noop_optimizer
FNDA:1,_RNvNtCs3mqqzCYtP3U_19sqlrustgo_optimizer5testss_20test_ruleset_default
FNDA:1,_RNvNtCs3mqqzCYtP3U_19sqlrustgo_optimizer5testss_21test_cost_model_trait
FNDA:1,_RNvNtCs3mqqzCYtP3U_19sqlrustgo_optimizer5testss_21test_ruleset_add_rule
FNDA:1,_RNvNtCs3mqqzCYtP3U_19sqlrustgo_optimizer5testss_22test_cbo_optimizer_new
FNDA:1,_RNvNtCs3mqqzCYtP3U_19sqlrustgo_optimizer5testss_26test_default_optimizer_new
FNDA:1,_RNvNtCs3mqqzCYtP3U_19sqlrustgo_optimizer5testss_27test_optimizer_trait_object
FNDA:1,_RNvNtCs3mqqzCYtP3U_19sqlrustgo_optimizer5testss_29test_ruleset_apply_no_changes
FNDA:1,_RNvNtCs3mqqzCYtP3U_19sqlrustgo_optimizer5testss_31test_default_optimizer_with_cbo
FNDA:1,_RNvNtCs3mqqzCYtP3U_19sqlrustgo_optimizer5testss_39test_cbo_optimizer_select_access_method
FNDA:1,_RNvXNvNtCs3mqqzCYtP3U_19sqlrustgo_optimizer5testss_15test_rule_traitNtB2_8TestRuleINtB6_4RuleNtNtCsj0gLuUEfogP_5alloc6string6StringE4name
FNDA:1,_RNvXNvNtCs3mqqzCYtP3U_19sqlrustgo_optimizer5testss_15test_rule_traitNtB2_8TestRuleINtB6_4RuleNtNtCsj0gLuUEfogP_5alloc6string6StringE5apply
FNDA:1,_RNvXNvNtCs3mqqzCYtP3U_19sqlrustgo_optimizer5testss_21test_cost_model_traitNtB2_13TestCostModelNtB6_9CostModel13estimate_cost
FNDA:1,_RNvXNvNtCs3mqqzCYtP3U_19sqlrustgo_optimizer5testss_27test_optimizer_trait_objectNtB2_13TestOptimizerNtB6_9Optimizer8optimize
FNDA:1,_RINvMs_Cs3mqqzCYtP3U_19sqlrustgo_optimizerNtB5_7RuleSet8add_ruleNCNvNtB5_5testss_18test_ruleset_apply0EB5_
FNDA:1,_RINvMs_Cs3mqqzCYtP3U_19sqlrustgo_optimizerNtB5_7RuleSet8add_ruleNCNvNtB5_5testss_18test_ruleset_applys_0EB5_
FNDA:1,_RINvMs_Cs3mqqzCYtP3U_19sqlrustgo_optimizerNtB5_7RuleSet8add_ruleNCNvNtB5_5testss_21test_ruleset_add_rule0EB5_
FNDA:1,_RINvMs_Cs3mqqzCYtP3U_19sqlrustgo_optimizerNtB5_7RuleSet8add_ruleNCNvNtB5_5testss_29test_ruleset_apply_no_changes0EB5_
FNDA:0,_RNvMs1_Cs3mqqzCYtP3U_19sqlrustgo_optimizerNtB5_16DefaultOptimizer11enable_rule
FNDA:0,_RNvMs1_Cs3mqqzCYtP3U_19sqlrustgo_optimizerNtB5_16DefaultOptimizer12disable_rule
FNDA:0,_RNvMs1_Cs3mqqzCYtP3U_19sqlrustgo_optimizerNtB5_16DefaultOptimizer8add_rule
FNDA:0,_RNvXs3_Cs3mqqzCYtP3U_19sqlrustgo_optimizerNtB5_16DefaultOptimizerNtNtCs8nPosuWgJFh_4core7default7Default7default
FNDA:0,_RNvYpNtCs3mqqzCYtP3U_19sqlrustgo_optimizer9Optimizer24optimize_without_contextB5_
FNDA:1,_RNCNvNtCs3mqqzCYtP3U_19sqlrustgo_optimizer5testss_18test_ruleset_apply0B5_
FNDA:1,_RNCNvNtCs3mqqzCYtP3U_19sqlrustgo_optimizer5testss_18test_ruleset_applys_0B5_
FNDA:0,_RNCNvNtCs3mqqzCYtP3U_19sqlrustgo_optimizer5testss_21test_ruleset_add_rule0B5_
FNDA:1,_RNCNvNtCs3mqqzCYtP3U_19sqlrustgo_optimizer5testss_29test_ruleset_apply_no_changes0B5_
FNF:36
FNH:30
DA:63,0
DA:64,0
DA:65,0
DA:66,0
DA:78,12
DA:79,12
DA:80,12
DA:81,12
DA:94,1
DA:95,1
DA:96,1
DA:97,1
DA:98,1
DA:99,1
DA:100,1
DA:110,5
DA:111,5
DA:112,5
DA:114,4
DA:115,4
DA:116,4
DA:118,4
DA:119,4
DA:121,2
DA:122,2
DA:123,3
DA:124,3
DA:125,1
DA:126,2
DA:128,2
DA:129,2
DA:133,1
DA:134,1
DA:135,1
DA:146,2
DA:147,2
DA:148,2
DA:149,2
DA:150,2
DA:151,2
DA:152,2
DA:153,2
DA:154,2
DA:155,2
DA:157,2
DA:158,2
DA:159,2
DA:160,2
DA:161,2
DA:162,2
DA:163,2
DA:164,2
DA:166,1
DA:167,1
DA:168,1
DA:169,1
DA:170,1
DA:172,0
DA:173,0
DA:174,0
DA:176,0
DA:177,0
DA:178,0
DA:180,0
DA:181,0
DA:182,0
DA:186,2
DA:187,2
DA:188,2
DA:189,2
DA:190,2
DA:191,2
DA:192,0
DA:193,0
DA:195,0
DA:196,0
DA:197,0
DA:198,0
DA:199,0
DA:200,0
DA:201,0
DA:202,0
DA:205,2
DA:206,2
DA:207,2
DA:211,0
DA:212,0
DA:213,0
DA:221,1
DA:222,1
DA:223,1
DA:224,1
DA:225,1
DA:226,1
DA:227,1
DA:230,1
DA:231,1
DA:232,1
DA:233,1
DA:236,1
DA:237,1
DA:238,1
DA:240,1
DA:241,0
DA:242,0
DA:243,0
DA:245,1
DA:246,1
DA:247,1
DA:250,1
DA:251,1
DA:253,1
DA:254,1
DA:256,1
DA:257,1
DA:259,1
DA:260,1
DA:261,1
DA:262,1
DA:265,1
DA:266,1
DA:268,1
DA:269,1
DA:271,1
DA:272,1
DA:273,1
DA:274,1
DA:277,1
DA:283,1
DA:284,1
DA:285,1
DA:286,1
DA:287,1
DA:288,1
DA:289,1
DA:290,1
DA:293,1
DA:294,1
DA:295,1
DA:296,1
DA:297,1
DA:298,1
DA:299,1
DA:300,1
DA:303,1
DA:307,1
DA:308,1
DA:309,1
DA:311,1
DA:312,1
DA:313,1
DA:314,1
DA:317,1
DA:318,1
DA:320,1
DA:321,1
DA:322,1
DA:323,1
DA:324,1
DA:325,1
DA:328,1
DA:332,1
DA:333,1
DA:334,1
DA:336,0
DA:338,1
DA:341,1
DA:342,1
DA:343,1
DA:344,1
DA:345,1
DA:348,1
DA:349,1
DA:350,1
DA:351,1
DA:354,1
DA:355,1
DA:356,1
DA:357,1
DA:358,1
DA:359,1
DA:360,1
DA:363,1
DA:364,1
DA:365,1
DA:366,1
DA:367,1
DA:368,1
DA:369,1
DA:370,1
DA:373,1
DA:374,1
DA:375,1
DA:376,1
DA:377,1
DA:380,1
DA:381,1
DA:382,1
DA:383,1
DA:384,1
BRF:0
BRH:0
LF:204
LH:173
end_of_record
SF:/home/openclaw/dev/yinglichina8848/sqlrustgo/crates/optimizer/src/network_cost.rs
FN:21,_RNvMNtCs3mqqzCYtP3U_19sqlrustgo_optimizer12network_costNtB2_11NetworkCost3new
FN:31,_RNvMNtCs3mqqzCYtP3U_19sqlrustgo_optimizer12network_costNtB2_11NetworkCost9calculate
FN:82,_RNvMs_NtCs3mqqzCYtP3U_19sqlrustgo_optimizer12network_costNtB4_26SimpleNetworkCostEstimator17default_estimator
FN:72,_RNvMs_NtCs3mqqzCYtP3U_19sqlrustgo_optimizer12network_costNtB4_26SimpleNetworkCostEstimator3new
FN:89,_RNvXs0_NtCs3mqqzCYtP3U_19sqlrustgo_optimizer12network_costNtB5_26SimpleNetworkCostEstimatorNtB5_20NetworkCostEstimator13estimate_cost
FN:107,_RNvNtNtCs3mqqzCYtP3U_19sqlrustgo_optimizer12network_cost5testss_21test_network_cost_new
FN:115,_RNvNtNtCs3mqqzCYtP3U_19sqlrustgo_optimizer12network_cost5testss_27test_network_cost_calculate
FN:140,_RNvNtNtCs3mqqzCYtP3U_19sqlrustgo_optimizer12network_cost5testss_28test_simple_estimator_custom
FN:125,_RNvNtNtCs3mqqzCYtP3U_19sqlrustgo_optimizer12network_cost5testss_29test_simple_estimator_default
FN:132,_RNvNtNtCs3mqqzCYtP3U_19sqlrustgo_optimizer12network_cost5testss_31test_simple_estimator_same_node
FNDA:5,_RNvMNtCs3mqqzCYtP3U_19sqlrustgo_optimizer12network_costNtB2_11NetworkCost3new
FNDA:1,_RNvMNtCs3mqqzCYtP3U_19sqlrustgo_optimizer12network_costNtB2_11NetworkCost9calculate
FNDA:2,_RNvMs_NtCs3mqqzCYtP3U_19sqlrustgo_optimizer12network_costNtB4_26SimpleNetworkCostEstimator17default_estimator
FNDA:3,_RNvMs_NtCs3mqqzCYtP3U_19sqlrustgo_optimizer12network_costNtB4_26SimpleNetworkCostEstimator3new
FNDA:3,_RNvXs0_NtCs3mqqzCYtP3U_19sqlrustgo_optimizer12network_costNtB5_26SimpleNetworkCostEstimatorNtB5_20NetworkCostEstimator13estimate_cost
FNDA:1,_RNvNtNtCs3mqqzCYtP3U_19sqlrustgo_optimizer12network_cost5testss_21test_network_cost_new
FNDA:1,_RNvNtNtCs3mqqzCYtP3U_19sqlrustgo_optimizer12network_cost5testss_27test_network_cost_calculate
FNDA:1,_RNvNtNtCs3mqqzCYtP3U_19sqlrustgo_optimizer12network_cost5testss_28test_simple_estimator_custom
FNDA:1,_RNvNtNtCs3mqqzCYtP3U_19sqlrustgo_optimizer12network_cost5testss_29test_simple_estimator_default
FNDA:1,_RNvNtNtCs3mqqzCYtP3U_19sqlrustgo_optimizer12network_cost5testss_31test_simple_estimator_same_node
FNF:10
FNH:10
DA:21,5
DA:22,5
DA:23,5
DA:24,5
DA:25,5
DA:26,5
DA:27,5
DA:31,1
DA:33,1
DA:34,1
DA:35,1
DA:72,3
DA:74,3
DA:75,3
DA:76,3
DA:77,3
DA:78,3
DA:79,3
DA:82,2
DA:84,2
DA:85,2
DA:89,3
DA:90,3
DA:91,3
DA:92,3
DA:93,3
DA:94,3
DA:95,3
DA:96,3
DA:98,3
DA:99,3
DA:107,1
DA:108,1
DA:109,1
DA:110,1
DA:111,1
DA:112,1
DA:115,1
DA:119,1
DA:120,1
DA:121,1
DA:122,1
DA:125,1
DA:126,1
DA:127,1
DA:128,1
DA:129,1
DA:132,1
DA:133,1
DA:134,1
DA:135,1
DA:136,1
DA:137,1
DA:140,1
DA:142,1
DA:143,1
DA:144,1
DA:145,1
DA:146,1
BRF:0
BRH:0
LF:59
LH:59
end_of_record
SF:/home/openclaw/dev/yinglichina8848/sqlrustgo/crates/optimizer/src/path_selector.rs
FN:258,_RNvMs0_NtCs3mqqzCYtP3U_19sqlrustgo_optimizer13path_selectorNtB5_13PathSelection16should_use_graph
FN:263,_RNvMs0_NtCs3mqqzCYtP3U_19sqlrustgo_optimizer13path_selectorNtB5_13PathSelection17should_use_hybrid
FN:253,_RNvMs0_NtCs3mqqzCYtP3U_19sqlrustgo_optimizer13path_selectorNtB5_13PathSelection17should_use_vector
FN:56,_RNvMs_NtCs3mqqzCYtP3U_19sqlrustgo_optimizer13path_selectorNtB4_12PathSelector13with_defaults
FN:149,_RNvMs_NtCs3mqqzCYtP3U_19sqlrustgo_optimizer13path_selectorNtB4_12PathSelector16extract_sql_plan
FN:93,_RNvMs_NtCs3mqqzCYtP3U_19sqlrustgo_optimizer13path_selectorNtB4_12PathSelector17estimate_sql_cost
FN:181,_RNvMs_NtCs3mqqzCYtP3U_19sqlrustgo_optimizer13path_selectorNtB4_12PathSelector18generate_reasoning
FN:118,_RNvMs_NtCs3mqqzCYtP3U_19sqlrustgo_optimizer13path_selectorNtB4_12PathSelector19estimate_graph_cost
FN:110,_RNvMs_NtCs3mqqzCYtP3U_19sqlrustgo_optimizer13path_selectorNtB4_12PathSelector20estimate_vector_cost
FN:138,_RNvMs_NtCs3mqqzCYtP3U_19sqlrustgo_optimizer13path_selectorNtB4_12PathSelector30estimate_hybrid_sql_graph_cost
FN:126,_RNvMs_NtCs3mqqzCYtP3U_19sqlrustgo_optimizer13path_selectorNtB4_12PathSelector31estimate_hybrid_sql_vector_cost
FN:48,_RNvMs_NtCs3mqqzCYtP3U_19sqlrustgo_optimizer13path_selectorNtB4_12PathSelector3new
FN:64,_RNvMs_NtCs3mqqzCYtP3U_19sqlrustgo_optimizer13path_selectorNtB4_12PathSelector7analyze
FN:27,_RNvXNtCs3mqqzCYtP3U_19sqlrustgo_optimizer13path_selectorNtB2_18PathSelectorConfigNtNtCs8nPosuWgJFh_4core7default7Default7default
FN:305,_RNvNtNtCs3mqqzCYtP3U_19sqlrustgo_optimizer13path_selector5testss_23test_analyze_graph_scan
FN:292,_RNvNtNtCs3mqqzCYtP3U_19sqlrustgo_optimizer13path_selector5testss_24test_analyze_vector_scan
FN:334,_RNvNtNtCs3mqqzCYtP3U_19sqlrustgo_optimizer13path_selector5testss_29test_path_selection_reasoning
FN:281,_RNvNtNtCs3mqqzCYtP3U_19sqlrustgo_optimizer13path_selector5testss_32test_path_selector_with_defaults
FN:274,_RNvNtNtCs3mqqzCYtP3U_19sqlrustgo_optimizer13path_selector5testss_33test_path_selector_config_default
FN:317,_RNvNtNtCs3mqqzCYtP3U_19sqlrustgo_optimizer13path_selector5testss_37test_path_selection_should_use_hybrid
FNDA:3,_RNvMs0_NtCs3mqqzCYtP3U_19sqlrustgo_optimizer13path_selectorNtB5_13PathSelection16should_use_graph
FNDA:1,_RNvMs0_NtCs3mqqzCYtP3U_19sqlrustgo_optimizer13path_selectorNtB5_13PathSelection17should_use_hybrid
FNDA:3,_RNvMs0_NtCs3mqqzCYtP3U_19sqlrustgo_optimizer13path_selectorNtB5_13PathSelection17should_use_vector
FNDA:3,_RNvMs_NtCs3mqqzCYtP3U_19sqlrustgo_optimizer13path_selectorNtB4_12PathSelector13with_defaults
FNDA:10,_RNvMs_NtCs3mqqzCYtP3U_19sqlrustgo_optimizer13path_selectorNtB4_12PathSelector16extract_sql_plan
FNDA:10,_RNvMs_NtCs3mqqzCYtP3U_19sqlrustgo_optimizer13path_selectorNtB4_12PathSelector17estimate_sql_cost
FNDA:10,_RNvMs_NtCs3mqqzCYtP3U_19sqlrustgo_optimizer13path_selectorNtB4_12PathSelector18generate_reasoning
FNDA:10,_RNvMs_NtCs3mqqzCYtP3U_19sqlrustgo_optimizer13path_selectorNtB4_12PathSelector19estimate_graph_cost
FNDA:10,_RNvMs_NtCs3mqqzCYtP3U_19sqlrustgo_optimizer13path_selectorNtB4_12PathSelector20estimate_vector_cost
FNDA:10,_RNvMs_NtCs3mqqzCYtP3U_19sqlrustgo_optimizer13path_selectorNtB4_12PathSelector30estimate_hybrid_sql_graph_cost
FNDA:10,_RNvMs_NtCs3mqqzCYtP3U_19sqlrustgo_optimizer13path_selectorNtB4_12PathSelector31estimate_hybrid_sql_vector_cost
FNDA:11,_RNvMs_NtCs3mqqzCYtP3U_19sqlrustgo_optimizer13path_selectorNtB4_12PathSelector3new
FNDA:10,_RNvMs_NtCs3mqqzCYtP3U_19sqlrustgo_optimizer13path_selectorNtB4_12PathSelector7analyze
FNDA:12,_RNvXNtCs3mqqzCYtP3U_19sqlrustgo_optimizer13path_selectorNtB2_18PathSelectorConfigNtNtCs8nPosuWgJFh_4core7default7Default7default
FNDA:1,_RNvNtNtCs3mqqzCYtP3U_19sqlrustgo_optimizer13path_selector5testss_23test_analyze_graph_scan
FNDA:1,_RNvNtNtCs3mqqzCYtP3U_19sqlrustgo_optimizer13path_selector5testss_24test_analyze_vector_scan
FNDA:1,_RNvNtNtCs3mqqzCYtP3U_19sqlrustgo_optimizer13path_selector5testss_29test_path_selection_reasoning
FNDA:1,_RNvNtNtCs3mqqzCYtP3U_19sqlrustgo_optimizer13path_selector5testss_32test_path_selector_with_defaults
FNDA:1,_RNvNtNtCs3mqqzCYtP3U_19sqlrustgo_optimizer13path_selector5testss_33test_path_selector_config_default
FNDA:1,_RNvNtNtCs3mqqzCYtP3U_19sqlrustgo_optimizer13path_selector5testss_37test_path_selection_should_use_hybrid
FNF:20
FNH:20
DA:27,12
DA:28,12
DA:29,12
DA:30,12
DA:31,12
DA:32,12
DA:33,12
DA:34,12
DA:35,12
DA:36,12
DA:48,11
DA:49,11
DA:50,11
DA:51,11
DA:52,11
DA:53,11
DA:56,3
DA:57,3
DA:58,3
DA:59,3
DA:61,3
DA:64,10
DA:65,10
DA:66,10
DA:67,10
DA:70,10
DA:71,10
DA:73,10
DA:74,10
DA:75,10
DA:76,10
DA:77,10
DA:78,10
DA:79,10
DA:81,10
DA:82,10
DA:83,10
DA:84,10
DA:85,10
DA:86,10
DA:87,10
DA:88,10
DA:89,10
DA:90,10
DA:91,10
DA:93,10
DA:95,10
DA:97,10
DA:98,2
DA:99,8
DA:100,8
DA:101,2
DA:102,6
DA:103,6
DA:105,0
DA:106,6
DA:107,6
DA:108,10
DA:110,10
DA:111,10
DA:112,2
DA:114,8
DA:116,10
DA:118,10
DA:119,10
DA:120,2
DA:122,8
DA:124,10
DA:126,10
DA:127,10
DA:129,2
DA:130,8
DA:132,0
DA:134,8
DA:136,10
DA:138,10
DA:139,10
DA:140,2
DA:141,8
DA:142,0
DA:144,8
DA:146,10
DA:149,10
DA:150,10
DA:151,0
DA:152,0
DA:153,0
DA:154,0
DA:155,0
DA:156,0
DA:157,0
DA:158,0
DA:159,0
DA:161,0
DA:164,0
DA:165,0
DA:166,0
DA:167,0
DA:168,0
DA:169,0
DA:171,0
DA:175,10
DA:177,6
DA:179,10
DA:181,10
DA:182,10
DA:183,10
DA:184,10
DA:185,10
DA:186,10
DA:187,10
DA:188,10
DA:189,10
DA:191,10
DA:193,6
DA:199,2
DA:203,2
DA:204,2
DA:206,0
DA:211,2
DA:217,0
DA:220,0
DA:223,0
DA:225,0
DA:227,10
DA:253,3
DA:254,3
DA:255,3
DA:258,3
DA:259,3
DA:260,3
DA:263,1
DA:264,1
DA:265,1
DA:274,1
DA:275,1
DA:276,1
DA:277,1
DA:278,1
DA:281,1
DA:282,1
DA:283,1
DA:284,1
DA:285,1
DA:286,1
DA:287,1
DA:288,1
DA:289,1
DA:292,1
DA:293,1
DA:294,1
DA:295,1
DA:296,1
DA:297,1
DA:298,1
DA:299,1
DA:300,1
DA:301,1
DA:302,1
DA:305,1
DA:306,1
DA:307,1
DA:308,1
DA:309,1
DA:310,1
DA:311,1
DA:312,1
DA:313,1
DA:314,1
DA:317,1
DA:318,1
DA:319,1
DA:320,1
DA:321,1
DA:322,1
DA:323,1
DA:324,1
DA:325,1
DA:326,1
DA:327,1
DA:328,1
DA:329,1
DA:330,1
DA:331,1
DA:334,1
DA:335,1
DA:336,1
DA:337,1
DA:338,1
DA:339,1
DA:340,1
DA:341,1
DA:342,1
DA:343,1
DA:344,1
DA:345,1
DA:346,1
BRF:0
BRH:0
LF:197
LH:172
end_of_record
SF:/home/openclaw/dev/yinglichina8848/sqlrustgo/crates/optimizer/src/plan.rs
FN:63,_RNvNtNtCs3mqqzCYtP3U_19sqlrustgo_optimizer4plan5testss_24test_optimizer_result_ok
FN:70,_RNvNtNtCs3mqqzCYtP3U_19sqlrustgo_optimizer4plan5testss_25test_optimizer_result_err
FN:56,_RNvNtNtCs3mqqzCYtP3U_19sqlrustgo_optimizer4plan5testss_26test_optimizer_error_debug
FN:47,_RNvNtNtCs3mqqzCYtP3U_19sqlrustgo_optimizer4plan5testss_32test_optimizer_error_rule_failed
FN:41,_RNvNtNtCs3mqqzCYtP3U_19sqlrustgo_optimizer4plan5testss_33test_optimizer_error_invalid_plan
FN:35,_RNvNtNtCs3mqqzCYtP3U_19sqlrustgo_optimizer4plan5testss_40test_optimizer_error_optimization_failed
FNDA:1,_RNvNtNtCs3mqqzCYtP3U_19sqlrustgo_optimizer4plan5testss_24test_optimizer_result_ok
FNDA:1,_RNvNtNtCs3mqqzCYtP3U_19sqlrustgo_optimizer4plan5testss_25test_optimizer_result_err
FNDA:1,_RNvNtNtCs3mqqzCYtP3U_19sqlrustgo_optimizer4plan5testss_26test_optimizer_error_debug
FNDA:1,_RNvNtNtCs3mqqzCYtP3U_19sqlrustgo_optimizer4plan5testss_32test_optimizer_error_rule_failed
FNDA:1,_RNvNtNtCs3mqqzCYtP3U_19sqlrustgo_optimizer4plan5testss_33test_optimizer_error_invalid_plan
FNDA:1,_RNvNtNtCs3mqqzCYtP3U_19sqlrustgo_optimizer4plan5testss_40test_optimizer_error_optimization_failed
FNF:6
FNH:6
DA:35,1
DA:36,1
DA:37,1
DA:38,1
DA:41,1
DA:42,1
DA:43,1
DA:44,1
DA:47,1
DA:48,1
DA:49,1
DA:50,1
DA:53,1
DA:56,1
DA:57,1
DA:58,1
DA:59,1
DA:60,1
DA:63,1
DA:64,1
DA:65,1
DA:66,1
DA:67,1
DA:70,1
DA:71,1
DA:72,1
DA:73,1
DA:74,1
DA:75,1
BRF:0
BRH:0
LF:29
LH:29
end_of_record
SF:/home/openclaw/dev/yinglichina8848/sqlrustgo/crates/optimizer/src/projection_pushdown.rs
FN:443,_RNvNtNtCs3mqqzCYtP3U_19sqlrustgo_optimizer19projection_pushdown5testss_18test_is_beneficial
FN:454,_RNvNtNtCs3mqqzCYtP3U_19sqlrustgo_optimizer19projection_pushdown5testss_22test_merge_projections
FN:505,_RNvNtNtCs3mqqzCYtP3U_19sqlrustgo_optimizer19projection_pushdown5testss_23test_disabled_optimizer
FN:410,_RNvNtNtCs3mqqzCYtP3U_19sqlrustgo_optimizer19projection_pushdown5testss_25test_column_pruner_nested
FN:398,_RNvNtNtCs3mqqzCYtP3U_19sqlrustgo_optimizer19projection_pushdown5testss_26test_column_pruner_collect
FN:483,_RNvNtNtCs3mqqzCYtP3U_19sqlrustgo_optimizer19projection_pushdown5testss_28test_required_columns_nested
FN:465,_RNvNtNtCs3mqqzCYtP3U_19sqlrustgo_optimizer19projection_pushdown5testss_32test_required_columns_projection
FN:392,_RNvNtNtCs3mqqzCYtP3U_19sqlrustgo_optimizer19projection_pushdown5testss_34test_projection_pushdown_rule_name
FN:423,_RNvNtNtCs3mqqzCYtP3U_19sqlrustgo_optimizer19projection_pushdown5testss_39test_projection_pushdown_config_default
FN:431,_RNvNtNtCs3mqqzCYtP3U_19sqlrustgo_optimizer19projection_pushdown5testss_42test_projection_pushdown_optimizer_default
FN:33,_RNvMNtCs3mqqzCYtP3U_19sqlrustgo_optimizer19projection_pushdownNtB2_9ColumnSet3add
FN:24,_RNvMNtCs3mqqzCYtP3U_19sqlrustgo_optimizer19projection_pushdownNtB2_9ColumnSet3new
FN:51,_RNvMs0_NtCs3mqqzCYtP3U_19sqlrustgo_optimizer19projection_pushdownNtB5_22ProjectionPushdownRule3new
FN:180,_RNvMs3_NtCs3mqqzCYtP3U_19sqlrustgo_optimizer19projection_pushdownNtB5_22ProjectionPushdownRule15collect_columns
FN:188,_RNvMs3_NtCs3mqqzCYtP3U_19sqlrustgo_optimizer19projection_pushdownNtB5_22ProjectionPushdownRule17collect_from_expr
FN:206,_RNvMs3_NtCs3mqqzCYtP3U_19sqlrustgo_optimizer19projection_pushdownNtB5_22ProjectionPushdownRule17merge_projections
FN:74,_RNvMs3_NtCs3mqqzCYtP3U_19sqlrustgo_optimizer19projection_pushdownNtB5_22ProjectionPushdownRule8optimize
FN:148,_RNvMs3_NtCs3mqqzCYtP3U_19sqlrustgo_optimizer19projection_pushdownNtB5_22ProjectionPushdownRule8pushdown
FN:233,_RNvMs4_NtCs3mqqzCYtP3U_19sqlrustgo_optimizer19projection_pushdownNtB5_12ColumnPruner15collect_columns
FN:262,_RNvMs4_NtCs3mqqzCYtP3U_19sqlrustgo_optimizer19projection_pushdownNtB5_12ColumnPruner16required_columns
FN:245,_RNvMs4_NtCs3mqqzCYtP3U_19sqlrustgo_optimizer19projection_pushdownNtB5_12ColumnPruner17collect_from_expr
FN:268,_RNvMs4_NtCs3mqqzCYtP3U_19sqlrustgo_optimizer19projection_pushdownNtB5_12ColumnPruner17collect_from_plan
FN:239,_RNvMs4_NtCs3mqqzCYtP3U_19sqlrustgo_optimizer19projection_pushdownNtB5_12ColumnPruner18collect_from_exprs
FN:228,_RNvMs4_NtCs3mqqzCYtP3U_19sqlrustgo_optimizer19projection_pushdownNtB5_12ColumnPruner3new
FN:343,_RNvMs6_NtCs3mqqzCYtP3U_19sqlrustgo_optimizer19projection_pushdownNtB5_27ProjectionPushdownOptimizer11with_config
FN:368,_RNvMs6_NtCs3mqqzCYtP3U_19sqlrustgo_optimizer19projection_pushdownNtB5_27ProjectionPushdownOptimizer13is_beneficial
FN:336,_RNvMs6_NtCs3mqqzCYtP3U_19sqlrustgo_optimizer19projection_pushdownNtB5_27ProjectionPushdownOptimizer3new
FN:348,_RNvMs6_NtCs3mqqzCYtP3U_19sqlrustgo_optimizer19projection_pushdownNtB5_27ProjectionPushdownOptimizer8optimize
FN:63,_RNvXs2_NtCs3mqqzCYtP3U_19sqlrustgo_optimizer19projection_pushdownNtB5_22ProjectionPushdownRuleINtB7_4RuleNtNtB7_5rules4PlanE4name
FN:67,_RNvXs2_NtCs3mqqzCYtP3U_19sqlrustgo_optimizer19projection_pushdownNtB5_22ProjectionPushdownRuleINtB7_4RuleNtNtB7_5rules4PlanE5apply
FN:320,_RNvXs5_NtCs3mqqzCYtP3U_19sqlrustgo_optimizer19projection_pushdownNtB5_24ProjectionPushdownConfigNtNtCs8nPosuWgJFh_4core7default7Default7default
FN:57,_RNvXs1_NtCs3mqqzCYtP3U_19sqlrustgo_optimizer19projection_pushdownNtB5_22ProjectionPushdownRuleNtNtCs8nPosuWgJFh_4core7default7Default7default
FN:381,_RNvXs7_NtCs3mqqzCYtP3U_19sqlrustgo_optimizer19projection_pushdownNtB5_27ProjectionPushdownOptimizerNtNtCs8nPosuWgJFh_4core7default7Default7default
FN:40,_RNvXs_NtCs3mqqzCYtP3U_19sqlrustgo_optimizer19projection_pushdownNtB4_9ColumnSetNtNtCs8nPosuWgJFh_4core7default7Default7default
FNDA:1,_RNvNtNtCs3mqqzCYtP3U_19sqlrustgo_optimizer19projection_pushdown5testss_18test_is_beneficial
FNDA:1,_RNvNtNtCs3mqqzCYtP3U_19sqlrustgo_optimizer19projection_pushdown5testss_22test_merge_projections
FNDA:1,_RNvNtNtCs3mqqzCYtP3U_19sqlrustgo_optimizer19projection_pushdown5testss_23test_disabled_optimizer
FNDA:1,_RNvNtNtCs3mqqzCYtP3U_19sqlrustgo_optimizer19projection_pushdown5testss_25test_column_pruner_nested
FNDA:1,_RNvNtNtCs3mqqzCYtP3U_19sqlrustgo_optimizer19projection_pushdown5testss_26test_column_pruner_collect
FNDA:1,_RNvNtNtCs3mqqzCYtP3U_19sqlrustgo_optimizer19projection_pushdown5testss_28test_required_columns_nested
FNDA:1,_RNvNtNtCs3mqqzCYtP3U_19sqlrustgo_optimizer19projection_pushdown5testss_32test_required_columns_projection
FNDA:1,_RNvNtNtCs3mqqzCYtP3U_19sqlrustgo_optimizer19projection_pushdown5testss_34test_projection_pushdown_rule_name
FNDA:1,_RNvNtNtCs3mqqzCYtP3U_19sqlrustgo_optimizer19projection_pushdown5testss_39test_projection_pushdown_config_default
FNDA:1,_RNvNtNtCs3mqqzCYtP3U_19sqlrustgo_optimizer19projection_pushdown5testss_42test_projection_pushdown_optimizer_default
FNDA:0,_RNvMNtCs3mqqzCYtP3U_19sqlrustgo_optimizer19projection_pushdownNtB2_9ColumnSet3add
FNDA:0,_RNvMNtCs3mqqzCYtP3U_19sqlrustgo_optimizer19projection_pushdownNtB2_9ColumnSet3new
FNDA:3,_RNvMs0_NtCs3mqqzCYtP3U_19sqlrustgo_optimizer19projection_pushdownNtB5_22ProjectionPushdownRule3new
FNDA:0,_RNvMs3_NtCs3mqqzCYtP3U_19sqlrustgo_optimizer19projection_pushdownNtB5_22ProjectionPushdownRule15collect_columns
FNDA:0,_RNvMs3_NtCs3mqqzCYtP3U_19sqlrustgo_optimizer19projection_pushdownNtB5_22ProjectionPushdownRule17collect_from_expr
FNDA:1,_RNvMs3_NtCs3mqqzCYtP3U_19sqlrustgo_optimizer19projection_pushdownNtB5_22ProjectionPushdownRule17merge_projections
FNDA:1,_RNvMs3_NtCs3mqqzCYtP3U_19sqlrustgo_optimizer19projection_pushdownNtB5_22ProjectionPushdownRule8optimize
FNDA:0,_RNvMs3_NtCs3mqqzCYtP3U_19sqlrustgo_optimizer19projection_pushdownNtB5_22ProjectionPushdownRule8pushdown
FNDA:2,_RNvMs4_NtCs3mqqzCYtP3U_19sqlrustgo_optimizer19projection_pushdownNtB5_12ColumnPruner15collect_columns
FNDA:2,_RNvMs4_NtCs3mqqzCYtP3U_19sqlrustgo_optimizer19projection_pushdownNtB5_12ColumnPruner16required_columns
FNDA:11,_RNvMs4_NtCs3mqqzCYtP3U_19sqlrustgo_optimizer19projection_pushdownNtB5_12ColumnPruner17collect_from_expr
FNDA:5,_RNvMs4_NtCs3mqqzCYtP3U_19sqlrustgo_optimizer19projection_pushdownNtB5_12ColumnPruner17collect_from_plan
FNDA:4,_RNvMs4_NtCs3mqqzCYtP3U_19sqlrustgo_optimizer19projection_pushdownNtB5_12ColumnPruner18collect_from_exprs
FNDA:4,_RNvMs4_NtCs3mqqzCYtP3U_19sqlrustgo_optimizer19projection_pushdownNtB5_12ColumnPruner3new
FNDA:1,_RNvMs6_NtCs3mqqzCYtP3U_19sqlrustgo_optimizer19projection_pushdownNtB5_27ProjectionPushdownOptimizer11with_config
FNDA:3,_RNvMs6_NtCs3mqqzCYtP3U_19sqlrustgo_optimizer19projection_pushdownNtB5_27ProjectionPushdownOptimizer13is_beneficial
FNDA:2,_RNvMs6_NtCs3mqqzCYtP3U_19sqlrustgo_optimizer19projection_pushdownNtB5_27ProjectionPushdownOptimizer3new
FNDA:2,_RNvMs6_NtCs3mqqzCYtP3U_19sqlrustgo_optimizer19projection_pushdownNtB5_27ProjectionPushdownOptimizer8optimize
FNDA:1,_RNvXs2_NtCs3mqqzCYtP3U_19sqlrustgo_optimizer19projection_pushdownNtB5_22ProjectionPushdownRuleINtB7_4RuleNtNtB7_5rules4PlanE4name
FNDA:1,_RNvXs2_NtCs3mqqzCYtP3U_19sqlrustgo_optimizer19projection_pushdownNtB5_22ProjectionPushdownRuleINtB7_4RuleNtNtB7_5rules4PlanE5apply
FNDA:4,_RNvXs5_NtCs3mqqzCYtP3U_19sqlrustgo_optimizer19projection_pushdownNtB5_24ProjectionPushdownConfigNtNtCs8nPosuWgJFh_4core7default7Default7default
FNDA:0,_RNvXs1_NtCs3mqqzCYtP3U_19sqlrustgo_optimizer19projection_pushdownNtB5_22ProjectionPushdownRuleNtNtCs8nPosuWgJFh_4core7default7Default7default
FNDA:0,_RNvXs7_NtCs3mqqzCYtP3U_19sqlrustgo_optimizer19projection_pushdownNtB5_27ProjectionPushdownOptimizerNtNtCs8nPosuWgJFh_4core7default7Default7default
FNDA:0,_RNvXs_NtCs3mqqzCYtP3U_19sqlrustgo_optimizer19projection_pushdownNtB4_9ColumnSetNtNtCs8nPosuWgJFh_4core7default7Default7default
FNF:34
FNH:26
DA:24,0
DA:25,0
DA:26,0
DA:27,0
DA:28,0
DA:29,0
DA:30,0
DA:33,0
DA:34,0
DA:35,0
DA:36,0
DA:40,0
DA:41,0
DA:42,0
DA:51,3
DA:52,3
DA:53,3
DA:57,0
DA:58,0
DA:59,0
DA:63,1
DA:64,1
DA:65,1
DA:67,1
DA:68,1
DA:69,1
DA:74,1
DA:75,1
DA:77,0
DA:81,0
DA:84,0
DA:87,0
DA:88,0
DA:90,0
DA:91,0
DA:92,0
DA:93,0
DA:94,0
DA:95,0
DA:99,0
DA:101,0
DA:105,0
DA:108,0
DA:110,0
DA:111,0
DA:112,0
DA:113,0
DA:114,0
DA:115,0
DA:116,0
DA:117,0
DA:118,0
DA:121,0
DA:125,0
DA:128,0
DA:131,0
DA:132,0
DA:133,0
DA:134,0
DA:138,0
DA:141,0
DA:143,1
DA:145,1
DA:148,0
DA:149,0
DA:150,0
DA:153,0
DA:155,0
DA:156,0
DA:157,0
DA:158,0
DA:159,0
DA:160,0
DA:161,0
DA:162,0
DA:163,0
DA:164,0
DA:166,0
DA:167,0
DA:168,0
DA:169,0
DA:170,0
DA:172,0
DA:173,0
DA:174,0
DA:175,0
DA:177,0
DA:180,0
DA:181,0
DA:182,0
DA:183,0
DA:184,0
DA:185,0
DA:186,0
DA:188,0
DA:189,0
DA:190,0
DA:191,0
DA:192,0
DA:193,0
DA:194,0
DA:195,0
DA:196,0
DA:197,0
DA:198,0
DA:199,0
DA:200,0
DA:202,0
DA:206,1
DA:208,1
DA:209,2
DA:210,2
DA:211,2
DA:212,2
DA:214,1
DA:215,0
DA:217,1
DA:219,1
DA:228,4
DA:229,4
DA:230,4
DA:233,2
DA:234,2
DA:235,2
DA:236,2
DA:237,2
DA:239,4
DA:240,6
DA:241,6
DA:242,6
DA:243,4
DA:245,11
DA:246,11
DA:247,8
DA:248,8
DA:249,8
DA:250,2
DA:251,2
DA:252,2
DA:253,2
DA:254,0
DA:255,0
DA:256,0
DA:257,1
DA:259,11
DA:262,2
DA:263,2
DA:264,2
DA:265,2
DA:266,2
DA:268,5
DA:269,5
DA:270,2
DA:271,2
DA:272,2
DA:273,2
DA:274,1
DA:275,1
DA:276,1
DA:277,1
DA:279,0
DA:280,0
DA:281,0
DA:282,0
DA:283,0
DA:284,0
DA:285,0
DA:286,0
DA:287,0
DA:288,0
DA:289,0
DA:290,0
DA:292,0
DA:293,0
DA:294,0
DA:297,0
DA:298,0
DA:299,0
DA:300,0
DA:301,0
DA:303,2
DA:305,5
DA:320,4
DA:321,4
DA:322,4
DA:323,4
DA:324,4
DA:325,4
DA:326,4
DA:336,2
DA:337,2
DA:338,2
DA:339,2
DA:340,2
DA:343,1
DA:344,1
DA:345,1
DA:348,2
DA:349,2
DA:350,1
DA:351,1
DA:353,1
DA:354,1
DA:357,1
DA:358,1
DA:359,2
DA:360,1
DA:361,1
DA:362,1
DA:364,1
DA:365,2
DA:368,3
DA:369,3
DA:370,0
DA:371,3
DA:372,3
DA:373,0
DA:374,3
DA:376,3
DA:377,3
DA:381,0
DA:382,0
DA:383,0
DA:392,1
DA:393,1
DA:394,1
DA:395,1
DA:398,1
DA:399,1
DA:400,1
DA:401,1
DA:402,1
DA:403,1
DA:404,1
DA:405,1
DA:406,1
DA:407,1
DA:410,1
DA:411,1
DA:412,1
DA:413,1
DA:414,1
DA:415,1
DA:416,1
DA:417,1
DA:418,1
DA:419,1
DA:420,1
DA:423,1
DA:424,1
DA:425,1
DA:426,1
DA:427,1
DA:428,1
DA:431,1
DA:432,1
DA:433,1
DA:434,1
DA:435,1
DA:436,1
DA:437,1
DA:438,1
DA:439,1
DA:440,1
DA:443,1
DA:444,1
DA:446,1
DA:448,1
DA:450,1
DA:451,1
DA:454,1
DA:455,1
DA:456,1
DA:457,1
DA:458,1
DA:461,1
DA:462,1
DA:465,1
DA:466,1
DA:467,1
DA:468,1
DA:469,1
DA:470,1
DA:471,1
DA:472,1
DA:473,1
DA:474,1
DA:475,1
DA:476,1
DA:477,1
DA:478,1
DA:479,1
DA:480,1
DA:483,1
DA:484,1
DA:485,1
DA:486,1
DA:487,1
DA:488,1
DA:489,1
DA:490,1
DA:491,1
DA:492,1
DA:493,1
DA:494,1
DA:495,1
DA:496,1
DA:497,1
DA:498,1
DA:499,1
DA:500,1
DA:501,1
DA:502,1
DA:505,1
DA:506,1
DA:507,1
DA:508,1
DA:509,1
DA:510,1
DA:511,1
DA:512,1
DA:513,1
DA:514,1
DA:515,1
DA:516,1
DA:518,1
DA:519,1
BRF:0
BRH:0
LF:327
LH:203
end_of_record
SF:/home/openclaw/dev/yinglichina8848/sqlrustgo/crates/optimizer/src/query_planner.rs
FN:290,_RNvMs0_NtCs3mqqzCYtP3U_19sqlrustgo_optimizer13query_plannerNtB5_12QueryPlanner10cache_size
FN:285,_RNvMs0_NtCs3mqqzCYtP3U_19sqlrustgo_optimizer13query_plannerNtB5_12QueryPlanner11clear_cache
FN:107,_RNvMs0_NtCs3mqqzCYtP3U_19sqlrustgo_optimizer13query_plannerNtB5_12QueryPlanner13with_defaults
FN:158,_RNvMs0_NtCs3mqqzCYtP3U_19sqlrustgo_optimizer13query_plannerNtB5_12QueryPlanner21generate_alternatives
FN:269,_RNvMs0_NtCs3mqqzCYtP3U_19sqlrustgo_optimizer13query_plannerNtB5_12QueryPlanner23transform_to_graph_plan
FN:251,_RNvMs0_NtCs3mqqzCYtP3U_19sqlrustgo_optimizer13query_plannerNtB5_12QueryPlanner24transform_to_vector_plan
FN:92,_RNvMs0_NtCs3mqqzCYtP3U_19sqlrustgo_optimizer13query_plannerNtB5_12QueryPlanner3new
FN:115,_RNvMs0_NtCs3mqqzCYtP3U_19sqlrustgo_optimizer13query_plannerNtB5_12QueryPlanner4plan
FN:325,_RNvMs1_NtCs3mqqzCYtP3U_19sqlrustgo_optimizer13query_plannerNtB5_15QueryPlanResult14visualize_plan
FN:297,_RNvMs1_NtCs3mqqzCYtP3U_19sqlrustgo_optimizer13query_plannerNtB5_15QueryPlanResult14visualize_text
FN:68,_RNvMs_NtCs3mqqzCYtP3U_19sqlrustgo_optimizer13query_plannerNtB4_15PlanAlternative3new
FN:27,_RNvXNtCs3mqqzCYtP3U_19sqlrustgo_optimizer13query_plannerNtB2_18QueryPlannerConfigNtNtCs8nPosuWgJFh_4core7default7Default7default
FN:227,_RNCNvMs0_NtCs3mqqzCYtP3U_19sqlrustgo_optimizer13query_plannerNtB7_12QueryPlanner21generate_alternatives0B9_
FN:235,_RNCNvMs0_NtCs3mqqzCYtP3U_19sqlrustgo_optimizer13query_plannerNtB7_12QueryPlanner21generate_alternativess_0B9_
FN:138,_RNCNvMs0_NtCs3mqqzCYtP3U_19sqlrustgo_optimizer13query_plannerNtB7_12QueryPlanner4plan0B9_
FN:464,_RNvNtNtCs3mqqzCYtP3U_19sqlrustgo_optimizer13query_planner5testss_14test_cache_hit
FN:482,_RNvNtNtCs3mqqzCYtP3U_19sqlrustgo_optimizer13query_planner5testss_16test_clear_cache
FN:509,_RNvNtNtCs3mqqzCYtP3U_19sqlrustgo_optimizer13query_planner5testss_19test_visualize_text
FN:451,_RNvNtNtCs3mqqzCYtP3U_19sqlrustgo_optimizer13query_planner5testss_20test_plan_graph_scan
FN:424,_RNvNtNtCs3mqqzCYtP3U_19sqlrustgo_optimizer13query_planner5testss_20test_plan_table_scan
FN:437,_RNvNtNtCs3mqqzCYtP3U_19sqlrustgo_optimizer13query_planner5testss_21test_plan_vector_scan
FN:496,_RNvNtNtCs3mqqzCYtP3U_19sqlrustgo_optimizer13query_planner5testss_22test_plan_alternatives
FN:523,_RNvNtNtCs3mqqzCYtP3U_19sqlrustgo_optimizer13query_planner5testss_29test_plan_alternative_latency
FN:418,_RNvNtNtCs3mqqzCYtP3U_19sqlrustgo_optimizer13query_planner5testss_32test_query_planner_with_defaults
FN:411,_RNvNtNtCs3mqqzCYtP3U_19sqlrustgo_optimizer13query_planner5testss_33test_query_planner_config_default
FNDA:3,_RNvMs0_NtCs3mqqzCYtP3U_19sqlrustgo_optimizer13query_plannerNtB5_12QueryPlanner10cache_size
FNDA:1,_RNvMs0_NtCs3mqqzCYtP3U_19sqlrustgo_optimizer13query_plannerNtB5_12QueryPlanner11clear_cache
FNDA:8,_RNvMs0_NtCs3mqqzCYtP3U_19sqlrustgo_optimizer13query_plannerNtB5_12QueryPlanner13with_defaults
FNDA:7,_RNvMs0_NtCs3mqqzCYtP3U_19sqlrustgo_optimizer13query_plannerNtB5_12QueryPlanner21generate_alternatives
FNDA:0,_RNvMs0_NtCs3mqqzCYtP3U_19sqlrustgo_optimizer13query_plannerNtB5_12QueryPlanner23transform_to_graph_plan
FNDA:0,_RNvMs0_NtCs3mqqzCYtP3U_19sqlrustgo_optimizer13query_plannerNtB5_12QueryPlanner24transform_to_vector_plan
FNDA:8,_RNvMs0_NtCs3mqqzCYtP3U_19sqlrustgo_optimizer13query_plannerNtB5_12QueryPlanner3new
FNDA:8,_RNvMs0_NtCs3mqqzCYtP3U_19sqlrustgo_optimizer13query_plannerNtB5_12QueryPlanner4plan
FNDA:1,_RNvMs1_NtCs3mqqzCYtP3U_19sqlrustgo_optimizer13query_plannerNtB5_15QueryPlanResult14visualize_plan
FNDA:1,_RNvMs1_NtCs3mqqzCYtP3U_19sqlrustgo_optimizer13query_plannerNtB5_15QueryPlanResult14visualize_text
FNDA:5,_RNvMs_NtCs3mqqzCYtP3U_19sqlrustgo_optimizer13query_plannerNtB4_15PlanAlternative3new
FNDA:9,_RNvXNtCs3mqqzCYtP3U_19sqlrustgo_optimizer13query_plannerNtB2_18QueryPlannerConfigNtNtCs8nPosuWgJFh_4core7default7Default7default
FNDA:2,_RNCNvMs0_NtCs3mqqzCYtP3U_19sqlrustgo_optimizer13query_plannerNtB7_12QueryPlanner21generate_alternatives0B9_
FNDA:2,_RNCNvMs0_NtCs3mqqzCYtP3U_19sqlrustgo_optimizer13query_plannerNtB7_12QueryPlanner21generate_alternativess_0B9_
FNDA:2,_RNCNvMs0_NtCs3mqqzCYtP3U_19sqlrustgo_optimizer13query_plannerNtB7_12QueryPlanner4plan0B9_
FNDA:1,_RNvNtNtCs3mqqzCYtP3U_19sqlrustgo_optimizer13query_planner5testss_14test_cache_hit
FNDA:1,_RNvNtNtCs3mqqzCYtP3U_19sqlrustgo_optimizer13query_planner5testss_16test_clear_cache
FNDA:1,_RNvNtNtCs3mqqzCYtP3U_19sqlrustgo_optimizer13query_planner5testss_19test_visualize_text
FNDA:1,_RNvNtNtCs3mqqzCYtP3U_19sqlrustgo_optimizer13query_planner5testss_20test_plan_graph_scan
FNDA:1,_RNvNtNtCs3mqqzCYtP3U_19sqlrustgo_optimizer13query_planner5testss_20test_plan_table_scan
FNDA:1,_RNvNtNtCs3mqqzCYtP3U_19sqlrustgo_optimizer13query_planner5testss_21test_plan_vector_scan
FNDA:1,_RNvNtNtCs3mqqzCYtP3U_19sqlrustgo_optimizer13query_planner5testss_22test_plan_alternatives
FNDA:1,_RNvNtNtCs3mqqzCYtP3U_19sqlrustgo_optimizer13query_planner5testss_29test_plan_alternative_latency
FNDA:1,_RNvNtNtCs3mqqzCYtP3U_19sqlrustgo_optimizer13query_planner5testss_32test_query_planner_with_defaults
FNDA:1,_RNvNtNtCs3mqqzCYtP3U_19sqlrustgo_optimizer13query_planner5testss_33test_query_planner_config_default
FNF:25
FNH:23
DA:27,9
DA:28,9
DA:29,9
DA:30,9
DA:31,9
DA:32,9
DA:33,9
DA:34,9
DA:35,9
DA:68,5
DA:70,5
DA:71,5
DA:72,5
DA:73,5
DA:74,5
DA:75,5
DA:76,5
DA:77,5
DA:92,8
DA:93,8
DA:94,8
DA:95,8
DA:98,8
DA:99,8
DA:100,8
DA:101,8
DA:102,8
DA:103,8
DA:104,8
DA:107,8
DA:108,8
DA:109,8
DA:110,8
DA:112,8
DA:115,8
DA:117,8
DA:118,8
DA:119,1
DA:120,1
DA:121,1
DA:122,1
DA:123,1
DA:124,1
DA:125,1
DA:126,7
DA:127,0
DA:130,7
DA:133,7
DA:136,7
DA:137,7
DA:138,7
DA:139,7
DA:141,7
DA:142,7
DA:143,7
DA:144,7
DA:145,7
DA:146,7
DA:147,7
DA:150,7
DA:151,7
DA:152,7
DA:154,7
DA:155,8
DA:158,7
DA:159,7
DA:160,7
DA:161,7
DA:162,7
DA:163,7
DA:164,7
DA:167,7
DA:168,2
DA:169,2
DA:170,2
DA:171,2
DA:172,2
DA:173,5
DA:176,7
DA:177,1
DA:178,0
DA:179,0
DA:180,0
DA:181,0
DA:182,0
DA:183,0
DA:184,0
DA:185,0
DA:186,7
DA:189,7
DA:190,1
DA:191,0
DA:192,0
DA:193,0
DA:194,0
DA:195,0
DA:196,0
DA:197,0
DA:198,0
DA:199,7
DA:202,7
DA:203,1
DA:204,1
DA:205,1
DA:206,1
DA:207,1
DA:208,1
DA:209,1
DA:210,1
DA:211,1
DA:212,6
DA:214,7
DA:215,1
DA:216,1
DA:217,1
DA:218,1
DA:219,1
DA:220,1
DA:221,1
DA:222,1
DA:223,1
DA:224,6
DA:227,7
DA:228,2
DA:229,2
DA:230,2
DA:231,2
DA:232,7
DA:235,7
DA:236,2
DA:237,0
DA:238,2
DA:239,0
DA:241,2
DA:242,2
DA:243,2
DA:245,2
DA:247,7
DA:248,7
DA:251,0
DA:254,0
DA:256,0
DA:258,0
DA:259,0
DA:260,0
DA:261,0
DA:262,0
DA:263,0
DA:264,0
DA:266,0
DA:269,0
DA:271,0
DA:273,0
DA:275,0
DA:276,0
DA:277,0
DA:278,0
DA:279,0
DA:280,0
DA:282,0
DA:285,1
DA:286,1
DA:287,1
DA:290,3
DA:291,3
DA:292,3
DA:297,1
DA:298,1
DA:299,1
DA:300,1
DA:301,1
DA:302,1
DA:303,1
DA:304,1
DA:305,1
DA:306,1
DA:307,1
DA:308,1
DA:309,1
DA:310,1
DA:311,1
DA:312,1
DA:313,0
DA:314,0
DA:315,0
DA:316,0
DA:317,0
DA:318,0
DA:319,0
DA:320,0
DA:321,0
DA:322,1
DA:323,1
DA:325,1
DA:326,1
DA:327,1
DA:329,1
DA:331,1
DA:332,1
DA:334,1
DA:335,1
DA:336,0
DA:337,1
DA:340,0
DA:341,0
DA:342,0
DA:345,0
DA:346,0
DA:347,0
DA:348,0
DA:349,0
DA:350,0
DA:351,0
DA:354,0
DA:355,0
DA:356,0
DA:358,0
DA:359,0
DA:360,0
DA:361,0
DA:362,0
DA:363,0
DA:364,0
DA:368,0
DA:369,0
DA:370,0
DA:371,0
DA:372,0
DA:373,0
DA:374,0
DA:375,0
DA:376,0
DA:378,0
DA:380,0
DA:381,0
DA:382,0
DA:383,0
DA:384,0
DA:385,0
DA:386,0
DA:387,0
DA:388,0
DA:389,0
DA:390,0
DA:391,0
DA:392,0
DA:393,0
DA:394,0
DA:395,0
DA:396,0
DA:397,0
DA:398,0
DA:401,1
DA:402,1
DA:411,1
DA:412,1
DA:413,1
DA:414,1
DA:415,1
DA:418,1
DA:419,1
DA:420,1
DA:421,1
DA:424,1
DA:425,1
DA:426,1
DA:427,1
DA:428,1
DA:429,1
DA:431,1
DA:432,1
DA:433,1
DA:434,1
DA:437,1
DA:438,1
DA:439,1
DA:440,1
DA:441,1
DA:442,1
DA:443,1
DA:444,1
DA:446,1
DA:447,1
DA:448,1
DA:451,1
DA:452,1
DA:453,1
DA:454,1
DA:455,1
DA:456,1
DA:457,1
DA:459,1
DA:460,1
DA:461,1
DA:464,1
DA:465,1
DA:466,1
DA:467,1
DA:468,1
DA:469,1
DA:470,1
DA:471,1
DA:473,1
DA:474,1
DA:475,1
DA:476,1
DA:477,1
DA:478,1
DA:479,1
DA:482,1
DA:483,1
DA:484,1
DA:485,1
DA:486,1
DA:487,1
DA:488,1
DA:489,1
DA:491,1
DA:492,1
DA:493,1
DA:496,1
DA:497,1
DA:498,1
DA:499,1
DA:500,1
DA:501,1
DA:503,1
DA:505,1
DA:506,1
DA:509,1
DA:510,1
DA:511,1
DA:512,1
DA:513,1
DA:514,1
DA:516,1
DA:517,1
DA:518,1
DA:519,1
DA:520,1
DA:523,1
DA:524,1
DA:525,1
DA:526,1
BRF:0
BRH:0
LF:347
LH:248
end_of_record
SF:/home/openclaw/dev/yinglichina8848/sqlrustgo/crates/optimizer/src/rules.rs
FN:136,_RNvMNtCs3mqqzCYtP3U_19sqlrustgo_optimizer5rulesNtB2_4Plan12get_children
FN:123,_RNvMNtCs3mqqzCYtP3U_19sqlrustgo_optimizer5rulesNtB2_4Plan13get_child_mut
FN:108,_RNvMNtCs3mqqzCYtP3U_19sqlrustgo_optimizer5rulesNtB2_4Plan9type_name
FN:178,_RNvMs2_NtCs3mqqzCYtP3U_19sqlrustgo_optimizer5rulesNtB5_17PredicatePushdown8pushdown
FN:246,_RNvMs3_NtCs3mqqzCYtP3U_19sqlrustgo_optimizer5rulesNtB5_17ProjectionPruning3new
FN:303,_RNvMs6_NtCs3mqqzCYtP3U_19sqlrustgo_optimizer5rulesNtB5_17ProjectionPruning15collect_columns
FN:311,_RNvMs6_NtCs3mqqzCYtP3U_19sqlrustgo_optimizer5rulesNtB5_17ProjectionPruning17collect_from_expr
FN:270,_RNvMs6_NtCs3mqqzCYtP3U_19sqlrustgo_optimizer5rulesNtB5_17ProjectionPruning5prune
FN:343,_RNvMs7_NtCs3mqqzCYtP3U_19sqlrustgo_optimizer5rulesNtB5_15SimpleColumnSet3add
FN:336,_RNvMs7_NtCs3mqqzCYtP3U_19sqlrustgo_optimizer5rulesNtB5_15SimpleColumnSet3new
FN:353,_RNvMs8_NtCs3mqqzCYtP3U_19sqlrustgo_optimizer5rulesNtB5_15ConstantFolding3new
FN:154,_RNvMs_NtCs3mqqzCYtP3U_19sqlrustgo_optimizer5rulesNtB4_17PredicatePushdown3new
FN:471,_RNvMsb_NtCs3mqqzCYtP3U_19sqlrustgo_optimizer5rulesNtB5_15ConstantFolding13eval_unary_op
FN:417,_RNvMsb_NtCs3mqqzCYtP3U_19sqlrustgo_optimizer5rulesNtB5_15ConstantFolding13simplify_expr
FN:454,_RNvMsb_NtCs3mqqzCYtP3U_19sqlrustgo_optimizer5rulesNtB5_15ConstantFolding14eval_binary_op
FN:377,_RNvMsb_NtCs3mqqzCYtP3U_19sqlrustgo_optimizer5rulesNtB5_15ConstantFolding4fold
FN:719,_RNvMsc_NtCs3mqqzCYtP3U_19sqlrustgo_optimizer5rulesNtB5_24ExpressionSimplification13eval_unary_op
FN:533,_RNvMsc_NtCs3mqqzCYtP3U_19sqlrustgo_optimizer5rulesNtB5_24ExpressionSimplification13simplify_expr
FN:702,_RNvMsc_NtCs3mqqzCYtP3U_19sqlrustgo_optimizer5rulesNtB5_24ExpressionSimplification14eval_binary_op
FN:688,_RNvMsc_NtCs3mqqzCYtP3U_19sqlrustgo_optimizer5rulesNtB5_24ExpressionSimplification14simplify_unary
FN:586,_RNvMsc_NtCs3mqqzCYtP3U_19sqlrustgo_optimizer5rulesNtB5_24ExpressionSimplification15simplify_binary
FN:485,_RNvMsc_NtCs3mqqzCYtP3U_19sqlrustgo_optimizer5rulesNtB5_24ExpressionSimplification3new
FN:490,_RNvMsc_NtCs3mqqzCYtP3U_19sqlrustgo_optimizer5rulesNtB5_24ExpressionSimplification4name
FN:495,_RNvMsc_NtCs3mqqzCYtP3U_19sqlrustgo_optimizer5rulesNtB5_24ExpressionSimplification8simplify
FN:919,_RNvMse_NtCs3mqqzCYtP3U_19sqlrustgo_optimizer5rulesNtB5_14JoinReordering11can_commute
FN:788,_RNvMse_NtCs3mqqzCYtP3U_19sqlrustgo_optimizer5rulesNtB5_14JoinReordering11try_reorder
FN:828,_RNvMse_NtCs3mqqzCYtP3U_19sqlrustgo_optimizer5rulesNtB5_14JoinReordering13estimate_rows
FN:883,_RNvMse_NtCs3mqqzCYtP3U_19sqlrustgo_optimizer5rulesNtB5_14JoinReordering13estimate_size
FN:888,_RNvMse_NtCs3mqqzCYtP3U_19sqlrustgo_optimizer5rulesNtB5_14JoinReordering18estimate_join_cost
FN:904,_RNvMse_NtCs3mqqzCYtP3U_19sqlrustgo_optimizer5rulesNtB5_14JoinReordering18select_join_method
FN:742,_RNvMse_NtCs3mqqzCYtP3U_19sqlrustgo_optimizer5rulesNtB5_14JoinReordering3new
FN:756,_RNvMse_NtCs3mqqzCYtP3U_19sqlrustgo_optimizer5rulesNtB5_14JoinReordering7reorder
FN:956,_RNvMsf_NtCs3mqqzCYtP3U_19sqlrustgo_optimizer5rulesNtB5_11IndexSelect16should_use_index
FN:1016,_RNvMsf_NtCs3mqqzCYtP3U_19sqlrustgo_optimizer5rulesNtB5_11IndexSelect18classify_predicate
FN:1006,_RNvMsf_NtCs3mqqzCYtP3U_19sqlrustgo_optimizer5rulesNtB5_11IndexSelect19extract_column_name
FN:1053,_RNvMsf_NtCs3mqqzCYtP3U_19sqlrustgo_optimizer5rulesNtB5_11IndexSelect21convert_to_index_scan
FN:1031,_RNvMsf_NtCs3mqqzCYtP3U_19sqlrustgo_optimizer5rulesNtB5_11IndexSelect22is_indexable_predicate
FN:981,_RNvMsf_NtCs3mqqzCYtP3U_19sqlrustgo_optimizer5rulesNtB5_11IndexSelect28should_use_index_for_context
FN:935,_RNvMsf_NtCs3mqqzCYtP3U_19sqlrustgo_optimizer5rulesNtB5_11IndexSelect3new
FN:1282,_RNvMsn_NtCs3mqqzCYtP3U_19sqlrustgo_optimizer5rulesNtB5_11RuleContext15decrement_depth
FN:1278,_RNvMsn_NtCs3mqqzCYtP3U_19sqlrustgo_optimizer5rulesNtB5_11RuleContext15increment_depth
FN:1267,_RNvMsn_NtCs3mqqzCYtP3U_19sqlrustgo_optimizer5rulesNtB5_11RuleContext16with_index_hints
FN:1256,_RNvMsn_NtCs3mqqzCYtP3U_19sqlrustgo_optimizer5rulesNtB5_11RuleContext3new
FN:233,_RNvNtCs3mqqzCYtP3U_19sqlrustgo_optimizer5rules16can_push_to_left
FN:237,_RNvNtCs3mqqzCYtP3U_19sqlrustgo_optimizer5rules17can_push_to_right
FN:160,_RNvXs0_NtCs3mqqzCYtP3U_19sqlrustgo_optimizer5rulesNtB5_17PredicatePushdownNtNtCs8nPosuWgJFh_4core7default7Default7default
FN:167,_RNvXs1_NtCs3mqqzCYtP3U_19sqlrustgo_optimizer5rulesNtB5_17PredicatePushdownINtB7_4RuleNtB5_4PlanE4name
FN:171,_RNvXs1_NtCs3mqqzCYtP3U_19sqlrustgo_optimizer5rulesNtB5_17PredicatePushdownINtB7_4RuleNtB5_4PlanE5apply
FN:252,_RNvXs4_NtCs3mqqzCYtP3U_19sqlrustgo_optimizer5rulesNtB5_17ProjectionPruningNtNtCs8nPosuWgJFh_4core7default7Default7default
FN:259,_RNvXs5_NtCs3mqqzCYtP3U_19sqlrustgo_optimizer5rulesNtB5_17ProjectionPruningINtB7_4RuleNtB5_4PlanE4name
FN:263,_RNvXs5_NtCs3mqqzCYtP3U_19sqlrustgo_optimizer5rulesNtB5_17ProjectionPruningINtB7_4RuleNtB5_4PlanE5apply
FN:359,_RNvXs9_NtCs3mqqzCYtP3U_19sqlrustgo_optimizer5rulesNtB5_15ConstantFoldingNtNtCs8nPosuWgJFh_4core7default7Default7default
FN:366,_RNvXsa_NtCs3mqqzCYtP3U_19sqlrustgo_optimizer5rulesNtB5_15ConstantFoldingINtB7_4RuleNtB5_4PlanE4name
FN:370,_RNvXsa_NtCs3mqqzCYtP3U_19sqlrustgo_optimizer5rulesNtB5_15ConstantFoldingINtB7_4RuleNtB5_4PlanE5apply
FN:1070,_RNvXsg_NtCs3mqqzCYtP3U_19sqlrustgo_optimizer5rulesNtB5_11IndexSelectNtNtCs8nPosuWgJFh_4core7default7Default7default
FN:1076,_RNvXsh_NtCs3mqqzCYtP3U_19sqlrustgo_optimizer5rulesNtB5_11IndexSelectINtB7_4RuleNtB5_4PlanE4name
FN:1081,_RNvXsh_NtCs3mqqzCYtP3U_19sqlrustgo_optimizer5rulesNtB5_11IndexSelectINtB7_4RuleNtB5_4PlanE5apply
FN:1103,_RNvXsi_NtCs3mqqzCYtP3U_19sqlrustgo_optimizer5rulesNtB5_14JoinReorderingNtNtCs8nPosuWgJFh_4core7default7Default7default
FN:1110,_RNvXsj_NtCs3mqqzCYtP3U_19sqlrustgo_optimizer5rulesNtB5_14JoinReorderingINtB7_4RuleNtB5_4PlanE4name
FN:1114,_RNvXsj_NtCs3mqqzCYtP3U_19sqlrustgo_optimizer5rulesNtB5_14JoinReorderingINtB7_4RuleNtB5_4PlanE5apply
FN:1121,_RNvXsk_NtCs3mqqzCYtP3U_19sqlrustgo_optimizer5rulesNtB5_24ExpressionSimplificationINtB7_4RuleNtB5_4PlanE4name
FN:1125,_RNvXsk_NtCs3mqqzCYtP3U_19sqlrustgo_optimizer5rulesNtB5_24ExpressionSimplificationINtB7_4RuleNtB5_4PlanE5apply
FN:1735,_RNvNtNtCs3mqqzCYtP3U_19sqlrustgo_optimizer5rules5testss_19test_plan_type_name
FN:2206,_RNvNtNtCs3mqqzCYtP3U_19sqlrustgo_optimizer5rules5testss_21test_index_select_new
FN:1767,_RNvNtNtCs3mqqzCYtP3U_19sqlrustgo_optimizer5rules5testss_22test_plan_get_children
FN:2634,_RNvNtNtCs3mqqzCYtP3U_19sqlrustgo_optimizer5rules5testss_23test_index_hint_derives
FN:2589,_RNvNtNtCs3mqqzCYtP3U_19sqlrustgo_optimizer5rules5testss_23test_index_select_apply
FN:1757,_RNvNtNtCs3mqqzCYtP3U_19sqlrustgo_optimizer5rules5testss_23test_plan_get_child_mut
FN:1863,_RNvNtNtCs3mqqzCYtP3U_19sqlrustgo_optimizer5rules5testss_24test_join_reordering_new
FN:1729,_RNvNtNtCs3mqqzCYtP3U_19sqlrustgo_optimizer5rules5testss_25test_index_select_default
FN:1627,_RNvNtNtCs3mqqzCYtP3U_19sqlrustgo_optimizer5rules5testss_25test_join_reordering_name
FN:1464,_RNvNtNtCs3mqqzCYtP3U_19sqlrustgo_optimizer5rules5testss_26test_constant_folding_name
FN:1470,_RNvNtNtCs3mqqzCYtP3U_19sqlrustgo_optimizer5rules5testss_27test_constant_folding_apply
FN:2114,_RNvNtNtCs3mqqzCYtP3U_19sqlrustgo_optimizer5rules5testss_28test_constant_folding_nested
FN:2615,_RNvNtNtCs3mqqzCYtP3U_19sqlrustgo_optimizer5rules5testss_28test_index_hint_type_derives
FN:2212,_RNvNtNtCs3mqqzCYtP3U_19sqlrustgo_optimizer5rules5testss_28test_index_select_with_index
FN:1869,_RNvNtNtCs3mqqzCYtP3U_19sqlrustgo_optimizer5rules5testss_28test_join_reordering_default
FN:1820,_RNvNtNtCs3mqqzCYtP3U_19sqlrustgo_optimizer5rules5testss_28test_plan_get_child_mut_join
FN:1843,_RNvNtNtCs3mqqzCYtP3U_19sqlrustgo_optimizer5rules5testss_28test_plan_get_child_mut_sort
FN:1422,_RNvNtNtCs3mqqzCYtP3U_19sqlrustgo_optimizer5rules5testss_28test_predicate_pushdown_name
FN:1443,_RNvNtNtCs3mqqzCYtP3U_19sqlrustgo_optimizer5rules5testss_28test_projection_pruning_name
FN:1479,_RNvNtNtCs3mqqzCYtP3U_19sqlrustgo_optimizer5rules5testss_29test_constant_folding_default
FN:1853,_RNvNtNtCs3mqqzCYtP3U_19sqlrustgo_optimizer5rules5testss_29test_plan_get_child_mut_limit
FN:1428,_RNvNtNtCs3mqqzCYtP3U_19sqlrustgo_optimizer5rules5testss_29test_predicate_pushdown_apply
FN:1449,_RNvNtNtCs3mqqzCYtP3U_19sqlrustgo_optimizer5rules5testss_29test_projection_pruning_apply
FN:1800,_RNvNtNtCs3mqqzCYtP3U_19sqlrustgo_optimizer5rules5testss_30test_plan_get_child_mut_filter
FN:2706,_RNvNtNtCs3mqqzCYtP3U_19sqlrustgo_optimizer5rules5testss_31test_index_select_without_hints
FN:1437,_RNvNtNtCs3mqqzCYtP3U_19sqlrustgo_optimizer5rules5testss_31test_predicate_pushdown_default
FN:1458,_RNvNtNtCs3mqqzCYtP3U_19sqlrustgo_optimizer5rules5testss_31test_projection_pruning_default
FN:1662,_RNvNtNtCs3mqqzCYtP3U_19sqlrustgo_optimizer5rules5testss_32test_index_select_apply_no_index
FN:1987,_RNvNtNtCs3mqqzCYtP3U_19sqlrustgo_optimizer5rules5testss_32test_join_reordering_can_commute
FN:1786,_RNvNtNtCs3mqqzCYtP3U_19sqlrustgo_optimizer5rules5testss_32test_plan_get_child_mut_no_child
FN:2828,_RNvNtNtCs3mqqzCYtP3U_19sqlrustgo_optimizer5rules5testss_32test_rule_context_depth_tracking
FN:1832,_RNvNtNtCs3mqqzCYtP3U_19sqlrustgo_optimizer5rules5testss_33test_plan_get_child_mut_aggregate
FN:2074,_RNvNtNtCs3mqqzCYtP3U_19sqlrustgo_optimizer5rules5testss_33test_predicate_pushdown_with_join
FN:2349,_RNvNtNtCs3mqqzCYtP3U_19sqlrustgo_optimizer5rules5testss_33test_predicate_simplifier_eq_same
FN:2361,_RNvNtNtCs3mqqzCYtP3U_19sqlrustgo_optimizer5rules5testss_33test_predicate_simplifier_ne_same
FN:2041,_RNvNtNtCs3mqqzCYtP3U_19sqlrustgo_optimizer5rules5testss_34test_constant_folding_with_literal
FN:1682,_RNvNtNtCs3mqqzCYtP3U_19sqlrustgo_optimizer5rules5testss_34test_index_select_apply_with_index
FN:1708,_RNvNtNtCs3mqqzCYtP3U_19sqlrustgo_optimizer5rules5testss_34test_index_select_non_eq_predicate
FN:2796,_RNvNtNtCs3mqqzCYtP3U_19sqlrustgo_optimizer5rules5testss_34test_index_select_with_empty_hints
FN:2157,_RNvNtNtCs3mqqzCYtP3U_19sqlrustgo_optimizer5rules5testss_34test_join_reordering_estimate_size
FN:1810,_RNvNtNtCs3mqqzCYtP3U_19sqlrustgo_optimizer5rules5testss_34test_plan_get_child_mut_projection
FN:2659,_RNvNtNtCs3mqqzCYtP3U_19sqlrustgo_optimizer5rules5testss_34test_rule_context_with_index_hints
FN:1485,_RNvNtNtCs3mqqzCYtP3U_19sqlrustgo_optimizer5rules5testss_35test_expression_simplification_name
FN:2241,_RNvNtNtCs3mqqzCYtP3U_19sqlrustgo_optimizer5rules5testss_35test_index_select_nonexistent_table
FN:2056,_RNvNtNtCs3mqqzCYtP3U_19sqlrustgo_optimizer5rules5testss_35test_predicate_pushdown_with_filter
FN:2820,_RNvNtNtCs3mqqzCYtP3U_19sqlrustgo_optimizer5rules5testss_35test_rule_context_enable_rule_trace
FN:1611,_RNvNtNtCs3mqqzCYtP3U_19sqlrustgo_optimizer5rules5testss_36test_expression_simplification_apply
FN:2689,_RNvNtNtCs3mqqzCYtP3U_19sqlrustgo_optimizer5rules5testss_36test_index_hint_multiple_index_names
FN:1633,_RNvNtNtCs3mqqzCYtP3U_19sqlrustgo_optimizer5rules5testss_36test_join_reordering_inner_join_swap
FN:2439,_RNvNtNtCs3mqqzCYtP3U_19sqlrustgo_optimizer5rules5testss_36test_predicate_simplifier_divide_one
FN:2393,_RNvNtNtCs3mqqzCYtP3U_19sqlrustgo_optimizer5rules5testss_36test_predicate_simplifier_minus_zero
FN:2100,_RNvNtNtCs3mqqzCYtP3U_19sqlrustgo_optimizer5rules5testss_36test_projection_pruning_with_columns
FN:2747,_RNvNtNtCs3mqqzCYtP3U_19sqlrustgo_optimizer5rules5testss_37test_index_select_with_multiple_hints
FN:2714,_RNvNtNtCs3mqqzCYtP3U_19sqlrustgo_optimizer5rules5testss_37test_index_select_with_use_index_hint
FN:2680,_RNvNtNtCs3mqqzCYtP3U_19sqlrustgo_optimizer5rules5testss_37test_rule_context_new_has_empty_hints
FN:1558,_RNvNtNtCs3mqqzCYtP3U_19sqlrustgo_optimizer5rules5testss_38test_expression_simplification_eq_same
FN:1543,_RNvNtNtCs3mqqzCYtP3U_19sqlrustgo_optimizer5rules5testss_38test_expression_simplification_not_not
FN:1517,_RNvNtNtCs3mqqzCYtP3U_19sqlrustgo_optimizer5rules5testss_38test_expression_simplification_or_true
FN:2323,_RNvNtNtCs3mqqzCYtP3U_19sqlrustgo_optimizer5rules5testss_38test_predicate_simplifier_or_true_left
FN:1491,_RNvNtNtCs3mqqzCYtP3U_19sqlrustgo_optimizer5rules5testss_39test_expression_simplification_and_true
FN:1530,_RNvNtNtCs3mqqzCYtP3U_19sqlrustgo_optimizer5rules5testss_39test_expression_simplification_or_false
FN:2566,_RNvNtNtCs3mqqzCYtP3U_19sqlrustgo_optimizer5rules5testss_39test_index_select_convert_to_index_scan
FN:2736,_RNvNtNtCs3mqqzCYtP3U_19sqlrustgo_optimizer5rules5testss_39test_index_select_with_force_index_hint
FN:2226,_RNvNtNtCs3mqqzCYtP3U_19sqlrustgo_optimizer5rules5testss_39test_index_select_with_non_eq_predicate
FN:2008,_RNvNtNtCs3mqqzCYtP3U_19sqlrustgo_optimizer5rules5testss_39test_predicate_pushdown_apply_with_join
FN:2257,_RNvNtNtCs3mqqzCYtP3U_19sqlrustgo_optimizer5rules5testss_39test_predicate_simplifier_and_true_left
FN:2303,_RNvNtNtCs3mqqzCYtP3U_19sqlrustgo_optimizer5rules5testss_39test_predicate_simplifier_or_false_left
FN:2336,_RNvNtNtCs3mqqzCYtP3U_19sqlrustgo_optimizer5rules5testss_39test_predicate_simplifier_or_true_right
FN:2854,_RNvNtNtCs3mqqzCYtP3U_19sqlrustgo_optimizer5rules5testss_39test_rule_context_continue_optimization
FN:1504,_RNvNtNtCs3mqqzCYtP3U_19sqlrustgo_optimizer5rules5testss_40test_expression_simplification_and_false
FN:2725,_RNvNtNtCs3mqqzCYtP3U_19sqlrustgo_optimizer5rules5testss_40test_index_select_with_ignore_index_hint
FN:1941,_RNvNtNtCs3mqqzCYtP3U_19sqlrustgo_optimizer5rules5testss_40test_join_reordering_estimate_size_empty
FN:1927,_RNvNtNtCs3mqqzCYtP3U_19sqlrustgo_optimizer5rules5testss_40test_join_reordering_estimate_size_limit
FN:2277,_RNvNtNtCs3mqqzCYtP3U_19sqlrustgo_optimizer5rules5testss_40test_predicate_simplifier_and_false_left
FN:2267,_RNvNtNtCs3mqqzCYtP3U_19sqlrustgo_optimizer5rules5testss_40test_predicate_simplifier_and_true_right
FN:2479,_RNvNtNtCs3mqqzCYtP3U_19sqlrustgo_optimizer5rules5testss_40test_predicate_simplifier_eval_binary_gt
FN:2487,_RNvNtNtCs3mqqzCYtP3U_19sqlrustgo_optimizer5rules5testss_40test_predicate_simplifier_eval_binary_lt
FN:2313,_RNvNtNtCs3mqqzCYtP3U_19sqlrustgo_optimizer5rules5testss_40test_predicate_simplifier_or_false_right
FN:2383,_RNvNtNtCs3mqqzCYtP3U_19sqlrustgo_optimizer5rules5testss_40test_predicate_simplifier_plus_zero_left
FN:2804,_RNvNtNtCs3mqqzCYtP3U_19sqlrustgo_optimizer5rules5testss_40test_rule_context_clone_with_index_hints
FN:2844,_RNvNtNtCs3mqqzCYtP3U_19sqlrustgo_optimizer5rules5testss_40test_rule_context_rules_applied_tracking
FN:1572,_RNvNtNtCs3mqqzCYtP3U_19sqlrustgo_optimizer5rules5testss_41test_expression_simplification_arithmetic
FN:1898,_RNvNtNtCs3mqqzCYtP3U_19sqlrustgo_optimizer5rules5testss_41test_join_reordering_estimate_size_filter
FN:2290,_RNvNtNtCs3mqqzCYtP3U_19sqlrustgo_optimizer5rules5testss_41test_predicate_simplifier_and_false_right
FN:2373,_RNvNtNtCs3mqqzCYtP3U_19sqlrustgo_optimizer5rules5testss_41test_predicate_simplifier_plus_zero_right
FN:2495,_RNvNtNtCs3mqqzCYtP3U_19sqlrustgo_optimizer5rules5testss_42test_predicate_simplifier_eval_binary_gteq
FN:2503,_RNvNtNtCs3mqqzCYtP3U_19sqlrustgo_optimizer5rules5testss_42test_predicate_simplifier_eval_binary_lteq
FN:2511,_RNvNtNtCs3mqqzCYtP3U_19sqlrustgo_optimizer5rules5testss_42test_predicate_simplifier_eval_binary_plus
FN:1598,_RNvNtNtCs3mqqzCYtP3U_19sqlrustgo_optimizer5rules5testss_43test_expression_simplification_multiply_one
FN:2145,_RNvNtNtCs3mqqzCYtP3U_19sqlrustgo_optimizer5rules5testss_43test_expression_simplification_or_true_left
FN:2519,_RNvNtNtCs3mqqzCYtP3U_19sqlrustgo_optimizer5rules5testss_43test_predicate_simplifier_eval_binary_minus
FN:2168,_RNvNtNtCs3mqqzCYtP3U_19sqlrustgo_optimizer5rules5testss_44test_expression_simplification_divide_by_one
FN:1585,_RNvNtNtCs3mqqzCYtP3U_19sqlrustgo_optimizer5rules5testss_44test_expression_simplification_multiply_zero
FN:2180,_RNvNtNtCs3mqqzCYtP3U_19sqlrustgo_optimizer5rules5testss_44test_expression_simplification_subtract_zero
FN:2766,_RNvNtNtCs3mqqzCYtP3U_19sqlrustgo_optimizer5rules5testss_44test_index_select_with_ignore_first_then_use
FN:1912,_RNvNtNtCs3mqqzCYtP3U_19sqlrustgo_optimizer5rules5testss_44test_join_reordering_estimate_size_aggregate
FN:1886,_RNvNtNtCs3mqqzCYtP3U_19sqlrustgo_optimizer5rules5testss_44test_join_reordering_estimate_size_indexscan
FN:1968,_RNvNtNtCs3mqqzCYtP3U_19sqlrustgo_optimizer5rules5testss_44test_join_reordering_estimate_size_left_join
FN:1875,_RNvNtNtCs3mqqzCYtP3U_19sqlrustgo_optimizer5rules5testss_44test_join_reordering_estimate_size_tablescan
FN:2536,_RNvNtNtCs3mqqzCYtP3U_19sqlrustgo_optimizer5rules5testss_44test_predicate_simplifier_eval_binary_eq_int
FN:2544,_RNvNtNtCs3mqqzCYtP3U_19sqlrustgo_optimizer5rules5testss_44test_predicate_simplifier_eval_binary_ne_int
FN:2429,_RNvNtNtCs3mqqzCYtP3U_19sqlrustgo_optimizer5rules5testss_44test_predicate_simplifier_multiply_one_right
FN:2416,_RNvNtNtCs3mqqzCYtP3U_19sqlrustgo_optimizer5rules5testss_44test_predicate_simplifier_multiply_zero_left
FN:2133,_RNvNtNtCs3mqqzCYtP3U_19sqlrustgo_optimizer5rules5testss_45test_expression_simplification_and_false_left
FN:1949,_RNvNtNtCs3mqqzCYtP3U_19sqlrustgo_optimizer5rules5testss_45test_join_reordering_estimate_size_inner_join
FN:1994,_RNvNtNtCs3mqqzCYtP3U_19sqlrustgo_optimizer5rules5testss_45test_predicate_pushdown_apply_with_projection
FN:2403,_RNvNtNtCs3mqqzCYtP3U_19sqlrustgo_optimizer5rules5testss_45test_predicate_simplifier_multiply_zero_right
FN:2027,_RNvNtNtCs3mqqzCYtP3U_19sqlrustgo_optimizer5rules5testss_45test_projection_pruning_apply_with_projection
FN:2192,_RNvNtNtCs3mqqzCYtP3U_19sqlrustgo_optimizer5rules5testss_46test_expression_simplification_double_negation
FN:2527,_RNvNtNtCs3mqqzCYtP3U_19sqlrustgo_optimizer5rules5testss_46test_predicate_simplifier_eval_binary_multiply
FN:2784,_RNvNtNtCs3mqqzCYtP3U_19sqlrustgo_optimizer5rules5testss_48test_index_select_with_use_index_different_index
FN:2468,_RNvNtNtCs3mqqzCYtP3U_19sqlrustgo_optimizer5rules5testss_49test_predicate_simplifier_simplify_unary_no_match
FN:2552,_RNvNtNtCs3mqqzCYtP3U_19sqlrustgo_optimizer5rules5testss_51test_predicate_simplifier_eval_binary_unimplemented
FN:2449,_RNvNtNtCs3mqqzCYtP3U_19sqlrustgo_optimizer5rules5testss_55test_predicate_simplifier_simplify_unary_not_not_column
FN:951,_RINvMsf_NtCs3mqqzCYtP3U_19sqlrustgo_optimizer5rulesNtB6_11IndexSelect10with_indexReB1h_EB8_
FN:963,_RNCNvMsf_NtCs3mqqzCYtP3U_19sqlrustgo_optimizer5rulesNtB7_11IndexSelect16should_use_index0B9_
FN:1057,_RNCNvMsf_NtCs3mqqzCYtP3U_19sqlrustgo_optimizer5rulesNtB7_11IndexSelect21convert_to_index_scan0B9_
FN:1059,_RNCNvMsf_NtCs3mqqzCYtP3U_19sqlrustgo_optimizer5rulesNtB7_11IndexSelect21convert_to_index_scans0_0B9_
FN:1058,_RNCNvMsf_NtCs3mqqzCYtP3U_19sqlrustgo_optimizer5rulesNtB7_11IndexSelect21convert_to_index_scans_0B9_
FN:1364,_RNCNvMso_NtCs3mqqzCYtP3U_19sqlrustgo_optimizer5rulesNtB7_16OptimizerRuleSet21with_constant_foldings_0B9_
FN:1331,_RNCNvMso_NtCs3mqqzCYtP3U_19sqlrustgo_optimizer5rulesNtB7_16OptimizerRuleSet23with_predicate_pushdowns_0B9_
FN:1348,_RNCNvMso_NtCs3mqqzCYtP3U_19sqlrustgo_optimizer5rulesNtB7_16OptimizerRuleSet23with_projection_prunings_0B9_
FN:1314,_RNCNvMso_NtCs3mqqzCYtP3U_19sqlrustgo_optimizer5rulesNtB7_16OptimizerRuleSet8add_rule0B9_
FN:750,_RNvMse_NtCs3mqqzCYtP3U_19sqlrustgo_optimizer5rulesNtB5_14JoinReordering19with_stats_provider
FN:944,_RNvMsf_NtCs3mqqzCYtP3U_19sqlrustgo_optimizer5rulesNtB5_11IndexSelect19with_stats_provider
FN:1162,_RNvMsl_NtCs3mqqzCYtP3U_19sqlrustgo_optimizer5rulesNtB5_11MatchResult16match_with_score
FN:1170,_RNvMsl_NtCs3mqqzCYtP3U_19sqlrustgo_optimizer5rulesNtB5_11MatchResult19match_with_captures
FN:1154,_RNvMsl_NtCs3mqqzCYtP3U_19sqlrustgo_optimizer5rulesNtB5_11MatchResult8no_match
FN:1215,_RNvMsm_NtCs3mqqzCYtP3U_19sqlrustgo_optimizer5rulesNtB5_8RuleMeta10repeatable
FN:1210,_RNvMsm_NtCs3mqqzCYtP3U_19sqlrustgo_optimizer5rulesNtB5_8RuleMeta12with_pattern
FN:1205,_RNvMsm_NtCs3mqqzCYtP3U_19sqlrustgo_optimizer5rulesNtB5_8RuleMeta13with_priority
FN:1195,_RNvMsm_NtCs3mqqzCYtP3U_19sqlrustgo_optimizer5rulesNtB5_8RuleMeta3new
FN:1286,_RNvMsn_NtCs3mqqzCYtP3U_19sqlrustgo_optimizer5rulesNtB5_11RuleContext19record_rule_applied
FN:1369,_RNvMso_NtCs3mqqzCYtP3U_19sqlrustgo_optimizer5rulesNtB5_16OptimizerRuleSet18with_default_rules
FN:1392,_RNvMso_NtCs3mqqzCYtP3U_19sqlrustgo_optimizer5rulesNtB5_16OptimizerRuleSet19find_matching_rules
FN:1353,_RNvMso_NtCs3mqqzCYtP3U_19sqlrustgo_optimizer5rulesNtB5_16OptimizerRuleSet21with_constant_folding
FN:1319,_RNvMso_NtCs3mqqzCYtP3U_19sqlrustgo_optimizer5rulesNtB5_16OptimizerRuleSet23with_predicate_pushdown
FN:1336,_RNvMso_NtCs3mqqzCYtP3U_19sqlrustgo_optimizer5rulesNtB5_16OptimizerRuleSet23with_projection_pruning
FN:1382,_RNvMso_NtCs3mqqzCYtP3U_19sqlrustgo_optimizer5rulesNtB5_16OptimizerRuleSet3len
FN:1306,_RNvMso_NtCs3mqqzCYtP3U_19sqlrustgo_optimizer5rulesNtB5_16OptimizerRuleSet3new
FN:1311,_RNvMso_NtCs3mqqzCYtP3U_19sqlrustgo_optimizer5rulesNtB5_16OptimizerRuleSet8add_rule
FN:1387,_RNvMso_NtCs3mqqzCYtP3U_19sqlrustgo_optimizer5rulesNtB5_16OptimizerRuleSet8is_empty
FN:1377,_RNvMso_NtCs3mqqzCYtP3U_19sqlrustgo_optimizer5rulesNtB5_16OptimizerRuleSet9get_rules
FN:729,_RNvXsd_NtCs3mqqzCYtP3U_19sqlrustgo_optimizer5rulesNtB5_24ExpressionSimplificationNtNtCs8nPosuWgJFh_4core7default7Default7default
FNDA:2,_RNvMNtCs3mqqzCYtP3U_19sqlrustgo_optimizer5rulesNtB2_4Plan12get_children
FNDA:9,_RNvMNtCs3mqqzCYtP3U_19sqlrustgo_optimizer5rulesNtB2_4Plan13get_child_mut
FNDA:3,_RNvMNtCs3mqqzCYtP3U_19sqlrustgo_optimizer5rulesNtB2_4Plan9type_name
FNDA:6,_RNvMs2_NtCs3mqqzCYtP3U_19sqlrustgo_optimizer5rulesNtB5_17PredicatePushdown8pushdown
FNDA:7,_RNvMs3_NtCs3mqqzCYtP3U_19sqlrustgo_optimizer5rulesNtB5_17ProjectionPruning3new
FNDA:2,_RNvMs6_NtCs3mqqzCYtP3U_19sqlrustgo_optimizer5rulesNtB5_17ProjectionPruning15collect_columns
FNDA:1,_RNvMs6_NtCs3mqqzCYtP3U_19sqlrustgo_optimizer5rulesNtB5_17ProjectionPruning17collect_from_expr
FNDA:5,_RNvMs6_NtCs3mqqzCYtP3U_19sqlrustgo_optimizer5rulesNtB5_17ProjectionPruning5prune
FNDA:1,_RNvMs7_NtCs3mqqzCYtP3U_19sqlrustgo_optimizer5rulesNtB5_15SimpleColumnSet3add
FNDA:2,_RNvMs7_NtCs3mqqzCYtP3U_19sqlrustgo_optimizer5rulesNtB5_15SimpleColumnSet3new
FNDA:7,_RNvMs8_NtCs3mqqzCYtP3U_19sqlrustgo_optimizer5rulesNtB5_15ConstantFolding3new
FNDA:9,_RNvMs_NtCs3mqqzCYtP3U_19sqlrustgo_optimizer5rulesNtB4_17PredicatePushdown3new
FNDA:0,_RNvMsb_NtCs3mqqzCYtP3U_19sqlrustgo_optimizer5rulesNtB5_15ConstantFolding13eval_unary_op
FNDA:8,_RNvMsb_NtCs3mqqzCYtP3U_19sqlrustgo_optimizer5rulesNtB5_15ConstantFolding13simplify_expr
FNDA:3,_RNvMsb_NtCs3mqqzCYtP3U_19sqlrustgo_optimizer5rulesNtB5_15ConstantFolding14eval_binary_op
FNDA:3,_RNvMsb_NtCs3mqqzCYtP3U_19sqlrustgo_optimizer5rulesNtB5_15ConstantFolding4fold
FNDA:0,_RNvMsc_NtCs3mqqzCYtP3U_19sqlrustgo_optimizer5rulesNtB5_24ExpressionSimplification13eval_unary_op
FNDA:42,_RNvMsc_NtCs3mqqzCYtP3U_19sqlrustgo_optimizer5rulesNtB5_24ExpressionSimplification13simplify_expr
FNDA:10,_RNvMsc_NtCs3mqqzCYtP3U_19sqlrustgo_optimizer5rulesNtB5_24ExpressionSimplification14eval_binary_op
FNDA:6,_RNvMsc_NtCs3mqqzCYtP3U_19sqlrustgo_optimizer5rulesNtB5_24ExpressionSimplification14simplify_unary
FNDA:29,_RNvMsc_NtCs3mqqzCYtP3U_19sqlrustgo_optimizer5rulesNtB5_24ExpressionSimplification15simplify_binary
FNDA:47,_RNvMsc_NtCs3mqqzCYtP3U_19sqlrustgo_optimizer5rulesNtB5_24ExpressionSimplification3new
FNDA:1,_RNvMsc_NtCs3mqqzCYtP3U_19sqlrustgo_optimizer5rulesNtB5_24ExpressionSimplification4name
FNDA:1,_RNvMsc_NtCs3mqqzCYtP3U_19sqlrustgo_optimizer5rulesNtB5_24ExpressionSimplification8simplify
FNDA:3,_RNvMse_NtCs3mqqzCYtP3U_19sqlrustgo_optimizer5rulesNtB5_14JoinReordering11can_commute
FNDA:1,_RNvMse_NtCs3mqqzCYtP3U_19sqlrustgo_optimizer5rulesNtB5_14JoinReordering11try_reorder
FNDA:17,_RNvMse_NtCs3mqqzCYtP3U_19sqlrustgo_optimizer5rulesNtB5_14JoinReordering13estimate_rows
FNDA:9,_RNvMse_NtCs3mqqzCYtP3U_19sqlrustgo_optimizer5rulesNtB5_14JoinReordering13estimate_size
FNDA:2,_RNvMse_NtCs3mqqzCYtP3U_19sqlrustgo_optimizer5rulesNtB5_14JoinReordering18estimate_join_cost
FNDA:2,_RNvMse_NtCs3mqqzCYtP3U_19sqlrustgo_optimizer5rulesNtB5_14JoinReordering18select_join_method
FNDA:16,_RNvMse_NtCs3mqqzCYtP3U_19sqlrustgo_optimizer5rulesNtB5_14JoinReordering3new
FNDA:4,_RNvMse_NtCs3mqqzCYtP3U_19sqlrustgo_optimizer5rulesNtB5_14JoinReordering7reorder
FNDA:7,_RNvMsf_NtCs3mqqzCYtP3U_19sqlrustgo_optimizer5rulesNtB5_11IndexSelect16should_use_index
FNDA:0,_RNvMsf_NtCs3mqqzCYtP3U_19sqlrustgo_optimizer5rulesNtB5_11IndexSelect18classify_predicate
FNDA:0,_RNvMsf_NtCs3mqqzCYtP3U_19sqlrustgo_optimizer5rulesNtB5_11IndexSelect19extract_column_name
FNDA:4,_RNvMsf_NtCs3mqqzCYtP3U_19sqlrustgo_optimizer5rulesNtB5_11IndexSelect21convert_to_index_scan
FNDA:7,_RNvMsf_NtCs3mqqzCYtP3U_19sqlrustgo_optimizer5rulesNtB5_11IndexSelect22is_indexable_predicate
FNDA:12,_RNvMsf_NtCs3mqqzCYtP3U_19sqlrustgo_optimizer5rulesNtB5_11IndexSelect28should_use_index_for_context
FNDA:20,_RNvMsf_NtCs3mqqzCYtP3U_19sqlrustgo_optimizer5rulesNtB5_11IndexSelect3new
FNDA:3,_RNvMsn_NtCs3mqqzCYtP3U_19sqlrustgo_optimizer5rulesNtB5_11RuleContext15decrement_depth
FNDA:2,_RNvMsn_NtCs3mqqzCYtP3U_19sqlrustgo_optimizer5rulesNtB5_11RuleContext15increment_depth
FNDA:9,_RNvMsn_NtCs3mqqzCYtP3U_19sqlrustgo_optimizer5rulesNtB5_11RuleContext16with_index_hints
FNDA:30,_RNvMsn_NtCs3mqqzCYtP3U_19sqlrustgo_optimizer5rulesNtB5_11RuleContext3new
FNDA:0,_RNvNtCs3mqqzCYtP3U_19sqlrustgo_optimizer5rules16can_push_to_left
FNDA:0,_RNvNtCs3mqqzCYtP3U_19sqlrustgo_optimizer5rules17can_push_to_right
FNDA:1,_RNvXs0_NtCs3mqqzCYtP3U_19sqlrustgo_optimizer5rulesNtB5_17PredicatePushdownNtNtCs8nPosuWgJFh_4core7default7Default7default
FNDA:2,_RNvXs1_NtCs3mqqzCYtP3U_19sqlrustgo_optimizer5rulesNtB5_17PredicatePushdownINtB7_4RuleNtB5_4PlanE4name
FNDA:5,_RNvXs1_NtCs3mqqzCYtP3U_19sqlrustgo_optimizer5rulesNtB5_17PredicatePushdownINtB7_4RuleNtB5_4PlanE5apply
FNDA:1,_RNvXs4_NtCs3mqqzCYtP3U_19sqlrustgo_optimizer5rulesNtB5_17ProjectionPruningNtNtCs8nPosuWgJFh_4core7default7Default7default
FNDA:2,_RNvXs5_NtCs3mqqzCYtP3U_19sqlrustgo_optimizer5rulesNtB5_17ProjectionPruningINtB7_4RuleNtB5_4PlanE4name
FNDA:3,_RNvXs5_NtCs3mqqzCYtP3U_19sqlrustgo_optimizer5rulesNtB5_17ProjectionPruningINtB7_4RuleNtB5_4PlanE5apply
FNDA:1,_RNvXs9_NtCs3mqqzCYtP3U_19sqlrustgo_optimizer5rulesNtB5_15ConstantFoldingNtNtCs8nPosuWgJFh_4core7default7Default7default
FNDA:2,_RNvXsa_NtCs3mqqzCYtP3U_19sqlrustgo_optimizer5rulesNtB5_15ConstantFoldingINtB7_4RuleNtB5_4PlanE4name
FNDA:3,_RNvXsa_NtCs3mqqzCYtP3U_19sqlrustgo_optimizer5rulesNtB5_15ConstantFoldingINtB7_4RuleNtB5_4PlanE5apply
FNDA:1,_RNvXsg_NtCs3mqqzCYtP3U_19sqlrustgo_optimizer5rulesNtB5_11IndexSelectNtNtCs8nPosuWgJFh_4core7default7Default7default
FNDA:2,_RNvXsh_NtCs3mqqzCYtP3U_19sqlrustgo_optimizer5rulesNtB5_11IndexSelectINtB7_4RuleNtB5_4PlanE4name
FNDA:4,_RNvXsh_NtCs3mqqzCYtP3U_19sqlrustgo_optimizer5rulesNtB5_11IndexSelectINtB7_4RuleNtB5_4PlanE5apply
FNDA:1,_RNvXsi_NtCs3mqqzCYtP3U_19sqlrustgo_optimizer5rulesNtB5_14JoinReorderingNtNtCs8nPosuWgJFh_4core7default7Default7default
FNDA:3,_RNvXsj_NtCs3mqqzCYtP3U_19sqlrustgo_optimizer5rulesNtB5_14JoinReorderingINtB7_4RuleNtB5_4PlanE4name
FNDA:1,_RNvXsj_NtCs3mqqzCYtP3U_19sqlrustgo_optimizer5rulesNtB5_14JoinReorderingINtB7_4RuleNtB5_4PlanE5apply
FNDA:0,_RNvXsk_NtCs3mqqzCYtP3U_19sqlrustgo_optimizer5rulesNtB5_24ExpressionSimplificationINtB7_4RuleNtB5_4PlanE4name
FNDA:1,_RNvXsk_NtCs3mqqzCYtP3U_19sqlrustgo_optimizer5rulesNtB5_24ExpressionSimplificationINtB7_4RuleNtB5_4PlanE5apply
FNDA:1,_RNvNtNtCs3mqqzCYtP3U_19sqlrustgo_optimizer5rules5testss_19test_plan_type_name
FNDA:1,_RNvNtNtCs3mqqzCYtP3U_19sqlrustgo_optimizer5rules5testss_21test_index_select_new
FNDA:1,_RNvNtNtCs3mqqzCYtP3U_19sqlrustgo_optimizer5rules5testss_22test_plan_get_children
FNDA:1,_RNvNtNtCs3mqqzCYtP3U_19sqlrustgo_optimizer5rules5testss_23test_index_hint_derives
FNDA:1,_RNvNtNtCs3mqqzCYtP3U_19sqlrustgo_optimizer5rules5testss_23test_index_select_apply
FNDA:1,_RNvNtNtCs3mqqzCYtP3U_19sqlrustgo_optimizer5rules5testss_23test_plan_get_child_mut
FNDA:1,_RNvNtNtCs3mqqzCYtP3U_19sqlrustgo_optimizer5rules5testss_24test_join_reordering_new
FNDA:1,_RNvNtNtCs3mqqzCYtP3U_19sqlrustgo_optimizer5rules5testss_25test_index_select_default
FNDA:1,_RNvNtNtCs3mqqzCYtP3U_19sqlrustgo_optimizer5rules5testss_25test_join_reordering_name
FNDA:1,_RNvNtNtCs3mqqzCYtP3U_19sqlrustgo_optimizer5rules5testss_26test_constant_folding_name
FNDA:1,_RNvNtNtCs3mqqzCYtP3U_19sqlrustgo_optimizer5rules5testss_27test_constant_folding_apply
FNDA:1,_RNvNtNtCs3mqqzCYtP3U_19sqlrustgo_optimizer5rules5testss_28test_constant_folding_nested
FNDA:1,_RNvNtNtCs3mqqzCYtP3U_19sqlrustgo_optimizer5rules5testss_28test_index_hint_type_derives
FNDA:1,_RNvNtNtCs3mqqzCYtP3U_19sqlrustgo_optimizer5rules5testss_28test_index_select_with_index
FNDA:1,_RNvNtNtCs3mqqzCYtP3U_19sqlrustgo_optimizer5rules5testss_28test_join_reordering_default
FNDA:1,_RNvNtNtCs3mqqzCYtP3U_19sqlrustgo_optimizer5rules5testss_28test_plan_get_child_mut_join
FNDA:1,_RNvNtNtCs3mqqzCYtP3U_19sqlrustgo_optimizer5rules5testss_28test_plan_get_child_mut_sort
FNDA:1,_RNvNtNtCs3mqqzCYtP3U_19sqlrustgo_optimizer5rules5testss_28test_predicate_pushdown_name
FNDA:1,_RNvNtNtCs3mqqzCYtP3U_19sqlrustgo_optimizer5rules5testss_28test_projection_pruning_name
FNDA:1,_RNvNtNtCs3mqqzCYtP3U_19sqlrustgo_optimizer5rules5testss_29test_constant_folding_default
FNDA:1,_RNvNtNtCs3mqqzCYtP3U_19sqlrustgo_optimizer5rules5testss_29test_plan_get_child_mut_limit
FNDA:1,_RNvNtNtCs3mqqzCYtP3U_19sqlrustgo_optimizer5rules5testss_29test_predicate_pushdown_apply
FNDA:1,_RNvNtNtCs3mqqzCYtP3U_19sqlrustgo_optimizer5rules5testss_29test_projection_pruning_apply
FNDA:1,_RNvNtNtCs3mqqzCYtP3U_19sqlrustgo_optimizer5rules5testss_30test_plan_get_child_mut_filter
FNDA:1,_RNvNtNtCs3mqqzCYtP3U_19sqlrustgo_optimizer5rules5testss_31test_index_select_without_hints
FNDA:1,_RNvNtNtCs3mqqzCYtP3U_19sqlrustgo_optimizer5rules5testss_31test_predicate_pushdown_default
FNDA:1,_RNvNtNtCs3mqqzCYtP3U_19sqlrustgo_optimizer5rules5testss_31test_projection_pruning_default
FNDA:1,_RNvNtNtCs3mqqzCYtP3U_19sqlrustgo_optimizer5rules5testss_32test_index_select_apply_no_index
FNDA:1,_RNvNtNtCs3mqqzCYtP3U_19sqlrustgo_optimizer5rules5testss_32test_join_reordering_can_commute
FNDA:1,_RNvNtNtCs3mqqzCYtP3U_19sqlrustgo_optimizer5rules5testss_32test_plan_get_child_mut_no_child
FNDA:1,_RNvNtNtCs3mqqzCYtP3U_19sqlrustgo_optimizer5rules5testss_32test_rule_context_depth_tracking
FNDA:1,_RNvNtNtCs3mqqzCYtP3U_19sqlrustgo_optimizer5rules5testss_33test_plan_get_child_mut_aggregate
FNDA:1,_RNvNtNtCs3mqqzCYtP3U_19sqlrustgo_optimizer5rules5testss_33test_predicate_pushdown_with_join
FNDA:1,_RNvNtNtCs3mqqzCYtP3U_19sqlrustgo_optimizer5rules5testss_33test_predicate_simplifier_eq_same
FNDA:1,_RNvNtNtCs3mqqzCYtP3U_19sqlrustgo_optimizer5rules5testss_33test_predicate_simplifier_ne_same
FNDA:1,_RNvNtNtCs3mqqzCYtP3U_19sqlrustgo_optimizer5rules5testss_34test_constant_folding_with_literal
FNDA:1,_RNvNtNtCs3mqqzCYtP3U_19sqlrustgo_optimizer5rules5testss_34test_index_select_apply_with_index
FNDA:1,_RNvNtNtCs3mqqzCYtP3U_19sqlrustgo_optimizer5rules5testss_34test_index_select_non_eq_predicate
FNDA:1,_RNvNtNtCs3mqqzCYtP3U_19sqlrustgo_optimizer5rules5testss_34test_index_select_with_empty_hints
FNDA:1,_RNvNtNtCs3mqqzCYtP3U_19sqlrustgo_optimizer5rules5testss_34test_join_reordering_estimate_size
FNDA:1,_RNvNtNtCs3mqqzCYtP3U_19sqlrustgo_optimizer5rules5testss_34test_plan_get_child_mut_projection
FNDA:1,_RNvNtNtCs3mqqzCYtP3U_19sqlrustgo_optimizer5rules5testss_34test_rule_context_with_index_hints
FNDA:1,_RNvNtNtCs3mqqzCYtP3U_19sqlrustgo_optimizer5rules5testss_35test_expression_simplification_name
FNDA:1,_RNvNtNtCs3mqqzCYtP3U_19sqlrustgo_optimizer5rules5testss_35test_index_select_nonexistent_table
FNDA:1,_RNvNtNtCs3mqqzCYtP3U_19sqlrustgo_optimizer5rules5testss_35test_predicate_pushdown_with_filter
FNDA:1,_RNvNtNtCs3mqqzCYtP3U_19sqlrustgo_optimizer5rules5testss_35test_rule_context_enable_rule_trace
FNDA:1,_RNvNtNtCs3mqqzCYtP3U_19sqlrustgo_optimizer5rules5testss_36test_expression_simplification_apply
FNDA:1,_RNvNtNtCs3mqqzCYtP3U_19sqlrustgo_optimizer5rules5testss_36test_index_hint_multiple_index_names
FNDA:1,_RNvNtNtCs3mqqzCYtP3U_19sqlrustgo_optimizer5rules5testss_36test_join_reordering_inner_join_swap
FNDA:1,_RNvNtNtCs3mqqzCYtP3U_19sqlrustgo_optimizer5rules5testss_36test_predicate_simplifier_divide_one
FNDA:1,_RNvNtNtCs3mqqzCYtP3U_19sqlrustgo_optimizer5rules5testss_36test_predicate_simplifier_minus_zero
FNDA:1,_RNvNtNtCs3mqqzCYtP3U_19sqlrustgo_optimizer5rules5testss_36test_projection_pruning_with_columns
FNDA:1,_RNvNtNtCs3mqqzCYtP3U_19sqlrustgo_optimizer5rules5testss_37test_index_select_with_multiple_hints
FNDA:1,_RNvNtNtCs3mqqzCYtP3U_19sqlrustgo_optimizer5rules5testss_37test_index_select_with_use_index_hint
FNDA:1,_RNvNtNtCs3mqqzCYtP3U_19sqlrustgo_optimizer5rules5testss_37test_rule_context_new_has_empty_hints
FNDA:1,_RNvNtNtCs3mqqzCYtP3U_19sqlrustgo_optimizer5rules5testss_38test_expression_simplification_eq_same
FNDA:1,_RNvNtNtCs3mqqzCYtP3U_19sqlrustgo_optimizer5rules5testss_38test_expression_simplification_not_not
FNDA:1,_RNvNtNtCs3mqqzCYtP3U_19sqlrustgo_optimizer5rules5testss_38test_expression_simplification_or_true
FNDA:1,_RNvNtNtCs3mqqzCYtP3U_19sqlrustgo_optimizer5rules5testss_38test_predicate_simplifier_or_true_left
FNDA:1,_RNvNtNtCs3mqqzCYtP3U_19sqlrustgo_optimizer5rules5testss_39test_expression_simplification_and_true
FNDA:1,_RNvNtNtCs3mqqzCYtP3U_19sqlrustgo_optimizer5rules5testss_39test_expression_simplification_or_false
FNDA:1,_RNvNtNtCs3mqqzCYtP3U_19sqlrustgo_optimizer5rules5testss_39test_index_select_convert_to_index_scan
FNDA:1,_RNvNtNtCs3mqqzCYtP3U_19sqlrustgo_optimizer5rules5testss_39test_index_select_with_force_index_hint
FNDA:1,_RNvNtNtCs3mqqzCYtP3U_19sqlrustgo_optimizer5rules5testss_39test_index_select_with_non_eq_predicate
FNDA:1,_RNvNtNtCs3mqqzCYtP3U_19sqlrustgo_optimizer5rules5testss_39test_predicate_pushdown_apply_with_join
FNDA:1,_RNvNtNtCs3mqqzCYtP3U_19sqlrustgo_optimizer5rules5testss_39test_predicate_simplifier_and_true_left
FNDA:1,_RNvNtNtCs3mqqzCYtP3U_19sqlrustgo_optimizer5rules5testss_39test_predicate_simplifier_or_false_left
FNDA:1,_RNvNtNtCs3mqqzCYtP3U_19sqlrustgo_optimizer5rules5testss_39test_predicate_simplifier_or_true_right
FNDA:1,_RNvNtNtCs3mqqzCYtP3U_19sqlrustgo_optimizer5rules5testss_39test_rule_context_continue_optimization
FNDA:1,_RNvNtNtCs3mqqzCYtP3U_19sqlrustgo_optimizer5rules5testss_40test_expression_simplification_and_false
FNDA:1,_RNvNtNtCs3mqqzCYtP3U_19sqlrustgo_optimizer5rules5testss_40test_index_select_with_ignore_index_hint
FNDA:1,_RNvNtNtCs3mqqzCYtP3U_19sqlrustgo_optimizer5rules5testss_40test_join_reordering_estimate_size_empty
FNDA:1,_RNvNtNtCs3mqqzCYtP3U_19sqlrustgo_optimizer5rules5testss_40test_join_reordering_estimate_size_limit
FNDA:1,_RNvNtNtCs3mqqzCYtP3U_19sqlrustgo_optimizer5rules5testss_40test_predicate_simplifier_and_false_left
FNDA:1,_RNvNtNtCs3mqqzCYtP3U_19sqlrustgo_optimizer5rules5testss_40test_predicate_simplifier_and_true_right
FNDA:1,_RNvNtNtCs3mqqzCYtP3U_19sqlrustgo_optimizer5rules5testss_40test_predicate_simplifier_eval_binary_gt
FNDA:1,_RNvNtNtCs3mqqzCYtP3U_19sqlrustgo_optimizer5rules5testss_40test_predicate_simplifier_eval_binary_lt
FNDA:1,_RNvNtNtCs3mqqzCYtP3U_19sqlrustgo_optimizer5rules5testss_40test_predicate_simplifier_or_false_right
FNDA:1,_RNvNtNtCs3mqqzCYtP3U_19sqlrustgo_optimizer5rules5testss_40test_predicate_simplifier_plus_zero_left
FNDA:1,_RNvNtNtCs3mqqzCYtP3U_19sqlrustgo_optimizer5rules5testss_40test_rule_context_clone_with_index_hints
FNDA:1,_RNvNtNtCs3mqqzCYtP3U_19sqlrustgo_optimizer5rules5testss_40test_rule_context_rules_applied_tracking
FNDA:1,_RNvNtNtCs3mqqzCYtP3U_19sqlrustgo_optimizer5rules5testss_41test_expression_simplification_arithmetic
FNDA:1,_RNvNtNtCs3mqqzCYtP3U_19sqlrustgo_optimizer5rules5testss_41test_join_reordering_estimate_size_filter
FNDA:1,_RNvNtNtCs3mqqzCYtP3U_19sqlrustgo_optimizer5rules5testss_41test_predicate_simplifier_and_false_right
FNDA:1,_RNvNtNtCs3mqqzCYtP3U_19sqlrustgo_optimizer5rules5testss_41test_predicate_simplifier_plus_zero_right
FNDA:1,_RNvNtNtCs3mqqzCYtP3U_19sqlrustgo_optimizer5rules5testss_42test_predicate_simplifier_eval_binary_gteq
FNDA:1,_RNvNtNtCs3mqqzCYtP3U_19sqlrustgo_optimizer5rules5testss_42test_predicate_simplifier_eval_binary_lteq
FNDA:1,_RNvNtNtCs3mqqzCYtP3U_19sqlrustgo_optimizer5rules5testss_42test_predicate_simplifier_eval_binary_plus
FNDA:1,_RNvNtNtCs3mqqzCYtP3U_19sqlrustgo_optimizer5rules5testss_43test_expression_simplification_multiply_one
FNDA:1,_RNvNtNtCs3mqqzCYtP3U_19sqlrustgo_optimizer5rules5testss_43test_expression_simplification_or_true_left
FNDA:1,_RNvNtNtCs3mqqzCYtP3U_19sqlrustgo_optimizer5rules5testss_43test_predicate_simplifier_eval_binary_minus
FNDA:1,_RNvNtNtCs3mqqzCYtP3U_19sqlrustgo_optimizer5rules5testss_44test_expression_simplification_divide_by_one
FNDA:1,_RNvNtNtCs3mqqzCYtP3U_19sqlrustgo_optimizer5rules5testss_44test_expression_simplification_multiply_zero
FNDA:1,_RNvNtNtCs3mqqzCYtP3U_19sqlrustgo_optimizer5rules5testss_44test_expression_simplification_subtract_zero
FNDA:1,_RNvNtNtCs3mqqzCYtP3U_19sqlrustgo_optimizer5rules5testss_44test_index_select_with_ignore_first_then_use
FNDA:1,_RNvNtNtCs3mqqzCYtP3U_19sqlrustgo_optimizer5rules5testss_44test_join_reordering_estimate_size_aggregate
FNDA:1,_RNvNtNtCs3mqqzCYtP3U_19sqlrustgo_optimizer5rules5testss_44test_join_reordering_estimate_size_indexscan
FNDA:1,_RNvNtNtCs3mqqzCYtP3U_19sqlrustgo_optimizer5rules5testss_44test_join_reordering_estimate_size_left_join
FNDA:1,_RNvNtNtCs3mqqzCYtP3U_19sqlrustgo_optimizer5rules5testss_44test_join_reordering_estimate_size_tablescan
FNDA:1,_RNvNtNtCs3mqqzCYtP3U_19sqlrustgo_optimizer5rules5testss_44test_predicate_simplifier_eval_binary_eq_int
FNDA:1,_RNvNtNtCs3mqqzCYtP3U_19sqlrustgo_optimizer5rules5testss_44test_predicate_simplifier_eval_binary_ne_int
FNDA:1,_RNvNtNtCs3mqqzCYtP3U_19sqlrustgo_optimizer5rules5testss_44test_predicate_simplifier_multiply_one_right
FNDA:1,_RNvNtNtCs3mqqzCYtP3U_19sqlrustgo_optimizer5rules5testss_44test_predicate_simplifier_multiply_zero_left
FNDA:1,_RNvNtNtCs3mqqzCYtP3U_19sqlrustgo_optimizer5rules5testss_45test_expression_simplification_and_false_left
FNDA:1,_RNvNtNtCs3mqqzCYtP3U_19sqlrustgo_optimizer5rules5testss_45test_join_reordering_estimate_size_inner_join
FNDA:1,_RNvNtNtCs3mqqzCYtP3U_19sqlrustgo_optimizer5rules5testss_45test_predicate_pushdown_apply_with_projection
FNDA:1,_RNvNtNtCs3mqqzCYtP3U_19sqlrustgo_optimizer5rules5testss_45test_predicate_simplifier_multiply_zero_right
FNDA:1,_RNvNtNtCs3mqqzCYtP3U_19sqlrustgo_optimizer5rules5testss_45test_projection_pruning_apply_with_projection
FNDA:1,_RNvNtNtCs3mqqzCYtP3U_19sqlrustgo_optimizer5rules5testss_46test_expression_simplification_double_negation
FNDA:1,_RNvNtNtCs3mqqzCYtP3U_19sqlrustgo_optimizer5rules5testss_46test_predicate_simplifier_eval_binary_multiply
FNDA:1,_RNvNtNtCs3mqqzCYtP3U_19sqlrustgo_optimizer5rules5testss_48test_index_select_with_use_index_different_index
FNDA:1,_RNvNtNtCs3mqqzCYtP3U_19sqlrustgo_optimizer5rules5testss_49test_predicate_simplifier_simplify_unary_no_match
FNDA:1,_RNvNtNtCs3mqqzCYtP3U_19sqlrustgo_optimizer5rules5testss_51test_predicate_simplifier_eval_binary_unimplemented
FNDA:1,_RNvNtNtCs3mqqzCYtP3U_19sqlrustgo_optimizer5rules5testss_55test_predicate_simplifier_simplify_unary_not_not_column
FNDA:15,_RINvMsf_NtCs3mqqzCYtP3U_19sqlrustgo_optimizer5rulesNtB6_11IndexSelect10with_indexReB1h_EB8_
FNDA:6,_RNCNvMsf_NtCs3mqqzCYtP3U_19sqlrustgo_optimizer5rulesNtB7_11IndexSelect16should_use_index0B9_
FNDA:4,_RNCNvMsf_NtCs3mqqzCYtP3U_19sqlrustgo_optimizer5rulesNtB7_11IndexSelect21convert_to_index_scan0B9_
FNDA:0,_RNCNvMsf_NtCs3mqqzCYtP3U_19sqlrustgo_optimizer5rulesNtB7_11IndexSelect21convert_to_index_scans0_0B9_
FNDA:4,_RNCNvMsf_NtCs3mqqzCYtP3U_19sqlrustgo_optimizer5rulesNtB7_11IndexSelect21convert_to_index_scans_0B9_
FNDA:0,_RNCNvMso_NtCs3mqqzCYtP3U_19sqlrustgo_optimizer5rulesNtB7_16OptimizerRuleSet21with_constant_foldings_0B9_
FNDA:0,_RNCNvMso_NtCs3mqqzCYtP3U_19sqlrustgo_optimizer5rulesNtB7_16OptimizerRuleSet23with_predicate_pushdowns_0B9_
FNDA:0,_RNCNvMso_NtCs3mqqzCYtP3U_19sqlrustgo_optimizer5rulesNtB7_16OptimizerRuleSet23with_projection_prunings_0B9_
FNDA:0,_RNCNvMso_NtCs3mqqzCYtP3U_19sqlrustgo_optimizer5rulesNtB7_16OptimizerRuleSet8add_rule0B9_
FNDA:0,_RNvMse_NtCs3mqqzCYtP3U_19sqlrustgo_optimizer5rulesNtB5_14JoinReordering19with_stats_provider
FNDA:0,_RNvMsf_NtCs3mqqzCYtP3U_19sqlrustgo_optimizer5rulesNtB5_11IndexSelect19with_stats_provider
FNDA:0,_RNvMsl_NtCs3mqqzCYtP3U_19sqlrustgo_optimizer5rulesNtB5_11MatchResult16match_with_score
FNDA:0,_RNvMsl_NtCs3mqqzCYtP3U_19sqlrustgo_optimizer5rulesNtB5_11MatchResult19match_with_captures
FNDA:0,_RNvMsl_NtCs3mqqzCYtP3U_19sqlrustgo_optimizer5rulesNtB5_11MatchResult8no_match
FNDA:0,_RNvMsm_NtCs3mqqzCYtP3U_19sqlrustgo_optimizer5rulesNtB5_8RuleMeta10repeatable
FNDA:0,_RNvMsm_NtCs3mqqzCYtP3U_19sqlrustgo_optimizer5rulesNtB5_8RuleMeta12with_pattern
FNDA:0,_RNvMsm_NtCs3mqqzCYtP3U_19sqlrustgo_optimizer5rulesNtB5_8RuleMeta13with_priority
FNDA:0,_RNvMsm_NtCs3mqqzCYtP3U_19sqlrustgo_optimizer5rulesNtB5_8RuleMeta3new
FNDA:0,_RNvMsn_NtCs3mqqzCYtP3U_19sqlrustgo_optimizer5rulesNtB5_11RuleContext19record_rule_applied
FNDA:0,_RNvMso_NtCs3mqqzCYtP3U_19sqlrustgo_optimizer5rulesNtB5_16OptimizerRuleSet18with_default_rules
FNDA:0,_RNvMso_NtCs3mqqzCYtP3U_19sqlrustgo_optimizer5rulesNtB5_16OptimizerRuleSet19find_matching_rules
FNDA:0,_RNvMso_NtCs3mqqzCYtP3U_19sqlrustgo_optimizer5rulesNtB5_16OptimizerRuleSet21with_constant_folding
FNDA:0,_RNvMso_NtCs3mqqzCYtP3U_19sqlrustgo_optimizer5rulesNtB5_16OptimizerRuleSet23with_predicate_pushdown
FNDA:0,_RNvMso_NtCs3mqqzCYtP3U_19sqlrustgo_optimizer5rulesNtB5_16OptimizerRuleSet23with_projection_pruning
FNDA:0,_RNvMso_NtCs3mqqzCYtP3U_19sqlrustgo_optimizer5rulesNtB5_16OptimizerRuleSet3len
FNDA:0,_RNvMso_NtCs3mqqzCYtP3U_19sqlrustgo_optimizer5rulesNtB5_16OptimizerRuleSet3new
FNDA:0,_RNvMso_NtCs3mqqzCYtP3U_19sqlrustgo_optimizer5rulesNtB5_16OptimizerRuleSet8add_rule
FNDA:0,_RNvMso_NtCs3mqqzCYtP3U_19sqlrustgo_optimizer5rulesNtB5_16OptimizerRuleSet8is_empty
FNDA:0,_RNvMso_NtCs3mqqzCYtP3U_19sqlrustgo_optimizer5rulesNtB5_16OptimizerRuleSet9get_rules
FNDA:0,_RNvXsd_NtCs3mqqzCYtP3U_19sqlrustgo_optimizer5rulesNtB5_24ExpressionSimplificationNtNtCs8nPosuWgJFh_4core7default7Default7default
FNF:206
FNH:173
DA:108,3
DA:109,3
DA:110,1
DA:111,0
DA:112,0
DA:113,0
DA:114,0
DA:115,0
DA:116,0
DA:117,1
DA:118,1
DA:120,3
DA:123,9
DA:124,9
DA:125,2
DA:126,1
DA:127,1
DA:128,1
DA:129,1
DA:130,1
DA:131,2
DA:133,9
DA:136,2
DA:137,2
DA:138,1
DA:139,0
DA:140,1
DA:141,0
DA:142,0
DA:143,0
DA:144,0
DA:146,2
DA:154,9
DA:155,9
DA:156,9
DA:160,1
DA:161,1
DA:162,1
DA:167,2
DA:168,2
DA:169,2
DA:171,5
DA:172,5
DA:173,5
DA:178,6
DA:179,6
DA:180,1
DA:181,1
DA:184,1
DA:187,0
DA:190,0
DA:191,0
DA:192,0
DA:193,0
DA:194,0
DA:195,0
DA:198,0
DA:199,0
DA:200,0
DA:201,0
DA:203,0
DA:206,0
DA:207,0
DA:208,0
DA:209,0
DA:210,0
DA:213,0
DA:214,0
DA:215,0
DA:216,0
DA:217,0
DA:219,0
DA:221,0
DA:224,1
DA:225,0
DA:226,0
DA:227,0
DA:228,4
DA:230,6
DA:233,0
DA:234,0
DA:235,0
DA:237,0
DA:238,0
DA:239,0
DA:246,7
DA:247,7
DA:248,7
DA:252,1
DA:253,1
DA:254,1
DA:259,2
DA:260,2
DA:261,2
DA:263,3
DA:264,3
DA:265,3
DA:270,5
DA:271,5
DA:272,2
DA:274,2
DA:277,2
DA:278,2
DA:280,0
DA:281,0
DA:282,0
DA:283,2
DA:284,0
DA:287,2
DA:289,0
DA:290,0
DA:291,0
DA:292,0
DA:293,0
DA:294,0
DA:296,0
DA:297,0
DA:298,3
DA:300,5
DA:303,2
DA:304,2
DA:305,2
DA:306,1
DA:307,1
DA:308,2
DA:309,2
DA:311,1
DA:312,1
DA:313,1
DA:314,1
DA:315,1
DA:316,0
DA:317,0
DA:318,0
DA:319,0
DA:320,0
DA:321,0
DA:322,0
DA:323,0
DA:325,1
DA:336,2
DA:337,2
DA:338,2
DA:339,2
DA:340,2
DA:341,2
DA:343,1
DA:344,1
DA:345,1
DA:353,7
DA:354,7
DA:355,7
DA:359,1
DA:360,1
DA:361,1
DA:366,2
DA:367,2
DA:368,2
DA:370,3
DA:371,3
DA:372,3
DA:377,3
DA:378,3
DA:379,0
DA:381,0
DA:382,0
DA:383,0
DA:384,0
DA:385,0
DA:386,0
DA:388,2
DA:390,2
DA:391,2
DA:392,2
DA:393,2
DA:394,2
DA:395,2
DA:396,2
DA:397,2
DA:399,2
DA:400,2
DA:401,2
DA:402,2
DA:404,0
DA:405,0
DA:406,0
DA:407,0
DA:408,0
DA:410,0
DA:411,0
DA:412,1
DA:414,3
DA:417,8
DA:418,8
DA:419,3
DA:420,3
DA:421,3
DA:424,3
DA:425,3
DA:426,3
DA:427,3
DA:428,0
DA:429,0
DA:430,0
DA:432,0
DA:433,0
DA:434,0
DA:435,0
DA:436,0
DA:438,0
DA:439,0
DA:440,0
DA:441,0
DA:442,0
DA:443,0
DA:444,0
DA:445,0
DA:446,0
DA:447,0
DA:448,0
DA:450,5
DA:452,8
DA:454,3
DA:455,3
DA:456,2
DA:457,0
DA:458,1
DA:459,1
DA:461,0
DA:462,0
DA:463,0
DA:464,0
DA:465,0
DA:466,0
DA:467,0
DA:469,3
DA:471,0
DA:472,0
DA:473,0
DA:474,0
DA:475,0
DA:477,0
DA:485,47
DA:486,47
DA:487,47
DA:490,1
DA:491,1
DA:492,1
DA:495,1
DA:496,1
DA:497,0
DA:498,0
DA:499,0
DA:500,0
DA:501,0
DA:502,0
DA:503,0
DA:505,0
DA:506,0
DA:507,0
DA:508,0
DA:509,0
DA:510,0
DA:511,0
DA:512,0
DA:513,0
DA:515,0
DA:516,0
DA:517,0
DA:518,0
DA:520,0
DA:521,0
DA:522,0
DA:523,0
DA:524,0
DA:526,0
DA:527,0
DA:528,1
DA:530,1
DA:533,42
DA:534,42
DA:535,12
DA:536,12
DA:537,12
DA:540,12
DA:541,12
DA:543,12
DA:544,0
DA:547,0
DA:548,0
DA:549,0
DA:550,0
DA:551,0
DA:552,0
DA:553,0
DA:555,0
DA:556,0
DA:557,0
DA:558,0
DA:559,0
DA:561,4
DA:562,4
DA:565,4
DA:566,2
DA:567,2
DA:570,2
DA:571,0
DA:572,0
DA:573,0
DA:574,2
DA:576,2
DA:577,2
DA:578,2
DA:579,2
DA:581,26
DA:583,42
DA:586,29
DA:588,29
DA:591,5
DA:592,2
DA:593,5
DA:595,2
DA:596,1
DA:597,4
DA:599,3
DA:600,3
DA:601,1
DA:603,1
DA:604,1
DA:605,0
DA:609,5
DA:610,2
DA:611,5
DA:613,2
DA:614,1
DA:615,4
DA:617,3
DA:618,3
DA:619,1
DA:621,1
DA:622,1
DA:623,0
DA:627,2
DA:628,2
DA:629,0
DA:633,1
DA:634,1
DA:635,0
DA:637,12
DA:641,12
DA:644,2
DA:645,2
DA:646,1
DA:648,1
DA:649,1
DA:650,0
DA:654,2
DA:655,2
DA:656,0
DA:660,4
DA:661,2
DA:662,3
DA:663,1
DA:664,1
DA:665,2
DA:667,2
DA:668,2
DA:669,0
DA:671,0
DA:672,0
DA:673,0
DA:677,2
DA:678,2
DA:679,0
DA:681,0
DA:684,0
DA:685,29
DA:688,6
DA:689,6
DA:693,3
DA:694,3
DA:696,3
DA:697,2
DA:698,1
DA:699,3
DA:700,6
DA:702,10
DA:703,10
DA:704,1
DA:705,1
DA:706,1
DA:707,1
DA:709,1
DA:710,1
DA:711,1
DA:712,1
DA:713,1
DA:714,1
DA:715,1
DA:717,10
DA:719,0
DA:720,0
DA:721,0
DA:722,0
DA:723,0
DA:725,0
DA:729,0
DA:730,0
DA:731,0
DA:742,16
DA:743,16
DA:744,16
DA:745,16
DA:746,16
DA:747,16
DA:750,0
DA:751,0
DA:752,0
DA:753,0
DA:756,4
DA:757,4
DA:759,1
DA:760,1
DA:761,1
DA:762,1
DA:764,1
DA:767,1
DA:768,1
DA:771,1
DA:772,1
DA:773,1
DA:774,0
DA:776,0
DA:778,0
DA:779,0
DA:780,0
DA:781,0
DA:782,1
DA:783,2
DA:785,4
DA:788,1
DA:789,1
DA:790,1
DA:791,1
DA:792,1
DA:793,1
DA:794,1
DA:796,1
DA:797,1
DA:800,1
DA:803,1
DA:808,1
DA:809,1
DA:810,1
DA:812,0
DA:815,1
DA:816,1
DA:817,1
DA:818,1
DA:819,1
DA:820,1
DA:821,1
DA:822,0
DA:824,0
DA:825,1
DA:828,17
DA:829,17
DA:830,9
DA:832,9
DA:833,0
DA:834,0
DA:835,0
DA:836,9
DA:837,9
DA:839,1
DA:841,1
DA:842,0
DA:843,0
DA:844,0
DA:845,1
DA:846,1
DA:848,1
DA:850,1
DA:852,0
DA:854,2
DA:855,2
DA:856,2
DA:859,2
DA:860,2
DA:861,2
DA:864,1
DA:866,1
DA:867,0
DA:868,0
DA:871,1
DA:873,1
DA:875,0
DA:876,2
DA:877,1
DA:879,17
DA:883,9
DA:884,9
DA:885,9
DA:888,2
DA:890,2
DA:891,2
DA:892,2
DA:893,2
DA:896,2
DA:897,2
DA:898,0
DA:899,0
DA:901,2
DA:904,2
DA:906,2
DA:907,2
DA:909,2
DA:910,0
DA:911,2
DA:912,2
DA:914,0
DA:916,2
DA:919,3
DA:922,3
DA:923,3
DA:935,20
DA:936,20
DA:937,20
DA:938,20
DA:939,20
DA:940,20
DA:941,20
DA:944,0
DA:946,0
DA:947,0
DA:948,0
DA:951,15
DA:952,15
DA:953,15
DA:954,15
DA:956,7
DA:958,7
DA:959,0
DA:960,7
DA:963,7
DA:964,7
DA:965,2
DA:966,5
DA:969,5
DA:970,0
DA:971,0
DA:972,0
DA:973,0
DA:974,5
DA:977,5
DA:978,7
DA:981,12
DA:983,12
DA:984,6
DA:985,6
DA:988,6
DA:989,6
DA:993,4
DA:997,2
DA:1000,0
DA:1002,0
DA:1003,12
DA:1006,0
DA:1007,0
DA:1008,0
DA:1009,0
DA:1010,0
DA:1011,0
DA:1012,0
DA:1013,0
DA:1016,0
DA:1017,0
DA:1018,0
DA:1019,0
DA:1021,0
DA:1023,0
DA:1024,0
DA:1027,0
DA:1029,0
DA:1031,7
DA:1032,0
DA:1033,7
DA:1051,7
DA:1053,4
DA:1054,4
DA:1055,4
DA:1056,4
DA:1057,4
DA:1058,4
DA:1059,4
DA:1061,4
DA:1062,4
DA:1063,4
DA:1064,4
DA:1065,4
DA:1066,4
DA:1070,1
DA:1071,1
DA:1072,1
DA:1076,2
DA:1077,2
DA:1078,2
DA:1081,4
DA:1083,4
DA:1084,0
DA:1085,4
DA:1086,4
DA:1087,4
DA:1088,4
DA:1089,4
DA:1090,3
DA:1091,3
DA:1092,3
DA:1093,1
DA:1094,0
DA:1095,1
DA:1097,0
DA:1099,4
DA:1103,1
DA:1104,1
DA:1105,1
DA:1110,3
DA:1111,3
DA:1112,3
DA:1114,1
DA:1115,1
DA:1116,1
DA:1121,0
DA:1122,0
DA:1123,0
DA:1125,1
DA:1126,1
DA:1127,1
DA:1154,0
DA:1155,0
DA:1156,0
DA:1157,0
DA:1158,0
DA:1159,0
DA:1160,0
DA:1162,0
DA:1163,0
DA:1164,0
DA:1165,0
DA:1166,0
DA:1167,0
DA:1168,0
DA:1170,0
DA:1171,0
DA:1172,0
DA:1173,0
DA:1174,0
DA:1175,0
DA:1176,0
DA:1195,0
DA:1196,0
DA:1197,0
DA:1198,0
DA:1199,0
DA:1200,0
DA:1201,0
DA:1202,0
DA:1203,0
DA:1205,0
DA:1206,0
DA:1207,0
DA:1208,0
DA:1210,0
DA:1211,0
DA:1212,0
DA:1213,0
DA:1215,0
DA:1216,0
DA:1217,0
DA:1218,0
DA:1256,30
DA:1257,30
DA:1258,30
DA:1259,30
DA:1260,30
DA:1261,30
DA:1262,30
DA:1263,30
DA:1264,30
DA:1265,30
DA:1267,9
DA:1268,9
DA:1269,9
DA:1270,9
DA:1271,9
DA:1272,9
DA:1273,9
DA:1274,9
DA:1275,9
DA:1276,9
DA:1278,2
DA:1279,2
DA:1280,2
DA:1282,3
DA:1283,3
DA:1284,3
DA:1286,0
DA:1287,0
DA:1288,0
DA:1306,0
DA:1307,0
DA:1308,0
DA:1311,0
DA:1312,0
DA:1313,0
DA:1314,0
DA:1315,0
DA:1316,0
DA:1319,0
DA:1320,0
DA:1321,0
DA:1322,0
DA:1324,0
DA:1325,0
DA:1326,0
DA:1327,0
DA:1330,0
DA:1331,0
DA:1332,0
DA:1333,0
DA:1336,0
DA:1337,0
DA:1338,0
DA:1339,0
DA:1341,0
DA:1342,0
DA:1343,0
DA:1344,0
DA:1347,0
DA:1348,0
DA:1349,0
DA:1350,0
DA:1353,0
DA:1354,0
DA:1355,0
DA:1356,0
DA:1358,0
DA:1359,0
DA:1360,0
DA:1363,0
DA:1364,0
DA:1365,0
DA:1366,0
DA:1369,0
DA:1370,0
DA:1371,0
DA:1372,0
DA:1373,0
DA:1374,0
DA:1377,0
DA:1378,0
DA:1379,0
DA:1382,0
DA:1383,0
DA:1384,0
DA:1387,0
DA:1388,0
DA:1389,0
DA:1392,0
DA:1393,0
DA:1394,0
DA:1395,0
DA:1396,0
DA:1397,0
DA:1398,0
DA:1401,0
DA:1403,0
DA:1405,0
DA:1406,0
DA:1407,0
DA:1409,0
DA:1410,0
DA:1411,0
DA:1413,0
DA:1414,0
DA:1422,1
DA:1423,1
DA:1424,1
DA:1425,1
DA:1428,1
DA:1429,1
DA:1430,1
DA:1431,1
DA:1432,1
DA:1433,1
DA:1434,1
DA:1437,1
DA:1438,1
DA:1439,1
DA:1440,1
DA:1443,1
DA:1444,1
DA:1445,1
DA:1446,1
DA:1449,1
DA:1450,1
DA:1451,1
DA:1452,1
DA:1453,1
DA:1454,1
DA:1455,1
DA:1458,1
DA:1459,1
DA:1460,1
DA:1461,1
DA:1464,1
DA:1465,1
DA:1466,1
DA:1467,1
DA:1470,1
DA:1471,1
DA:1472,1
DA:1473,1
DA:1474,1
DA:1475,1
DA:1476,1
DA:1479,1
DA:1480,1
DA:1481,1
DA:1482,1
DA:1485,1
DA:1486,1
DA:1487,1
DA:1488,1
DA:1491,1
DA:1492,1
DA:1494,1
DA:1495,1
DA:1496,1
DA:1497,1
DA:1498,1
DA:1499,1
DA:1500,1
DA:1501,1
DA:1504,1
DA:1505,1
DA:1507,1
DA:1508,1
DA:1509,1
DA:1510,1
DA:1511,1
DA:1512,1
DA:1513,1
DA:1514,1
DA:1517,1
DA:1518,1
DA:1520,1
DA:1521,1
DA:1522,1
DA:1523,1
DA:1524,1
DA:1525,1
DA:1526,1
DA:1527,1
DA:1530,1
DA:1531,1
DA:1533,1
DA:1534,1
DA:1535,1
DA:1536,1
DA:1537,1
DA:1538,1
DA:1539,1
DA:1540,1
DA:1543,1
DA:1544,1
DA:1546,1
DA:1547,1
DA:1548,1
DA:1549,1
DA:1550,1
DA:1551,1
DA:1552,1
DA:1553,1
DA:1554,1
DA:1555,1
DA:1558,1
DA:1559,1
DA:1561,1
DA:1562,1
DA:1563,1
DA:1564,1
DA:1565,1
DA:1566,1
DA:1567,1
DA:1568,1
DA:1569,1
DA:1572,1
DA:1573,1
DA:1575,1
DA:1576,1
DA:1577,1
DA:1578,1
DA:1579,1
DA:1580,1
DA:1581,1
DA:1582,1
DA:1585,1
DA:1586,1
DA:1588,1
DA:1589,1
DA:1590,1
DA:1591,1
DA:1592,1
DA:1593,1
DA:1594,1
DA:1595,1
DA:1598,1
DA:1599,1
DA:1601,1
DA:1602,1
DA:1603,1
DA:1604,1
DA:1605,1
DA:1606,1
DA:1607,1
DA:1608,1
DA:1611,1
DA:1612,1
DA:1613,1
DA:1614,1
DA:1615,1
DA:1616,1
DA:1617,1
DA:1618,1
DA:1619,1
DA:1620,1
DA:1627,1
DA:1628,1
DA:1629,1
DA:1630,1
DA:1633,1
DA:1634,1
DA:1637,1
DA:1638,1
DA:1639,1
DA:1640,1
DA:1641,1
DA:1642,1
DA:1643,1
DA:1644,1
DA:1645,1
DA:1646,1
DA:1647,1
DA:1649,1
DA:1650,1
DA:1651,1
DA:1652,1
DA:1653,1
DA:1654,1
DA:1656,1
DA:1657,1
DA:1658,1
DA:1659,1
DA:1662,1
DA:1663,1
DA:1664,1
DA:1665,1
DA:1666,1
DA:1667,1
DA:1668,1
DA:1669,1
DA:1670,1
DA:1671,1
DA:1672,1
DA:1673,1
DA:1674,1
DA:1676,1
DA:1678,1
DA:1679,1
DA:1682,1
DA:1683,1
DA:1685,1
DA:1686,1
DA:1687,1
DA:1688,1
DA:1689,1
DA:1690,1
DA:1691,1
DA:1692,1
DA:1693,1
DA:1694,1
DA:1695,1
DA:1697,1
DA:1698,1
DA:1700,1
DA:1701,1
DA:1703,0
DA:1705,1
DA:1708,1
DA:1709,1
DA:1711,1
DA:1712,1
DA:1713,1
DA:1714,1
DA:1715,1
DA:1716,1
DA:1717,1
DA:1718,1
DA:1719,1
DA:1720,1
DA:1721,1
DA:1723,1
DA:1725,1
DA:1726,1
DA:1729,1
DA:1730,1
DA:1731,1
DA:1732,1
DA:1735,1
DA:1736,1
DA:1737,1
DA:1738,1
DA:1739,1
DA:1740,1
DA:1741,1
DA:1742,1
DA:1745,1
DA:1746,1
DA:1747,1
DA:1748,1
DA:1749,1
DA:1750,1
DA:1751,1
DA:1754,1
DA:1757,1
DA:1758,1
DA:1759,1
DA:1760,1
DA:1761,1
DA:1762,1
DA:1763,1
DA:1764,1
DA:1767,1
DA:1768,1
DA:1769,1
DA:1770,1
DA:1771,1
DA:1772,1
DA:1773,1
DA:1775,1
DA:1776,1
DA:1777,1
DA:1778,1
DA:1779,1
DA:1780,1
DA:1781,1
DA:1782,1
DA:1783,1
DA:1786,1
DA:1787,1
DA:1788,1
DA:1789,1
DA:1791,1
DA:1792,1
DA:1793,1
DA:1794,1
DA:1795,1
DA:1796,1
DA:1797,1
DA:1800,1
DA:1801,1
DA:1802,1
DA:1803,1
DA:1804,1
DA:1805,1
DA:1806,1
DA:1807,1
DA:1810,1
DA:1811,1
DA:1812,1
DA:1813,1
DA:1814,1
DA:1815,1
DA:1816,1
DA:1817,1
DA:1820,1
DA:1821,1
DA:1822,1
DA:1823,1
DA:1824,1
DA:1825,1
DA:1826,1
DA:1827,1
DA:1828,1
DA:1829,1
DA:1832,1
DA:1833,1
DA:1834,1
DA:1835,1
DA:1836,1
DA:1837,1
DA:1838,1
DA:1839,1
DA:1840,1
DA:1843,1
DA:1844,1
DA:1845,1
DA:1846,1
DA:1847,1
DA:1848,1
DA:1849,1
DA:1850,1
DA:1853,1
DA:1854,1
DA:1855,1
DA:1856,1
DA:1857,1
DA:1858,1
DA:1859,1
DA:1860,1
DA:1863,1
DA:1864,1
DA:1865,1
DA:1866,1
DA:1869,1
DA:1870,1
DA:1871,1
DA:1872,1
DA:1875,1
DA:1876,1
DA:1877,1
DA:1878,1
DA:1879,1
DA:1880,1
DA:1881,1
DA:1882,1
DA:1883,1
DA:1886,1
DA:1887,1
DA:1888,1
DA:1889,1
DA:1890,1
DA:1891,1
DA:1892,1
DA:1893,1
DA:1894,1
DA:1895,1
DA:1898,1
DA:1899,1
DA:1900,1
DA:1901,1
DA:1902,1
DA:1903,1
DA:1904,1
DA:1905,1
DA:1906,1
DA:1907,1
DA:1908,1
DA:1909,1
DA:1912,1
DA:1913,1
DA:1914,1
DA:1915,1
DA:1916,1
DA:1917,1
DA:1918,1
DA:1919,1
DA:1920,1
DA:1921,1
DA:1922,1
DA:1923,1
DA:1924,1
DA:1927,1
DA:1928,1
DA:1929,1
DA:1930,1
DA:1931,1
DA:1932,1
DA:1933,1
DA:1934,1
DA:1935,1
DA:1936,1
DA:1937,1
DA:1938,1
DA:1941,1
DA:1942,1
DA:1943,1
DA:1944,1
DA:1945,1
DA:1946,1
DA:1949,1
DA:1950,1
DA:1951,1
DA:1952,1
DA:1953,1
DA:1954,1
DA:1955,1
DA:1956,1
DA:1957,1
DA:1958,1
DA:1959,1
DA:1960,1
DA:1961,1
DA:1962,1
DA:1963,1
DA:1964,1
DA:1965,1
DA:1968,1
DA:1969,1
DA:1970,1
DA:1971,1
DA:1972,1
DA:1973,1
DA:1974,1
DA:1975,1
DA:1976,1
DA:1977,1
DA:1978,1
DA:1979,1
DA:1980,1
DA:1981,1
DA:1982,1
DA:1983,1
DA:1984,1
DA:1987,1
DA:1988,1
DA:1989,1
DA:1990,1
DA:1991,1
DA:1994,1
DA:1995,1
DA:1996,1
DA:1997,1
DA:1998,1
DA:1999,1
DA:2000,1
DA:2001,1
DA:2002,1
DA:2003,1
DA:2004,1
DA:2005,1
DA:2008,1
DA:2009,1
DA:2010,1
DA:2011,1
DA:2012,1
DA:2013,1
DA:2014,1
DA:2015,1
DA:2016,1
DA:2017,1
DA:2018,1
DA:2019,1
DA:2020,1
DA:2021,1
DA:2022,1
DA:2023,1
DA:2024,1
DA:2027,1
DA:2028,1
DA:2029,1
DA:2030,1
DA:2031,1
DA:2032,1
DA:2033,1
DA:2034,1
DA:2035,1
DA:2036,1
DA:2037,1
DA:2038,1
DA:2041,1
DA:2042,1
DA:2043,1
DA:2044,1
DA:2045,1
DA:2046,1
DA:2047,1
DA:2048,1
DA:2049,1
DA:2050,1
DA:2051,1
DA:2052,1
DA:2053,1
DA:2056,1
DA:2057,1
DA:2058,1
DA:2059,1
DA:2060,1
DA:2061,1
DA:2062,1
DA:2063,1
DA:2064,1
DA:2065,1
DA:2066,1
DA:2067,1
DA:2068,1
DA:2069,1
DA:2070,1
DA:2071,1
DA:2074,1
DA:2075,1
DA:2076,1
DA:2077,1
DA:2078,1
DA:2079,1
DA:2080,1
DA:2081,1
DA:2082,1
DA:2083,1
DA:2084,1
DA:2085,1
DA:2086,1
DA:2087,1
DA:2088,1
DA:2089,1
DA:2090,1
DA:2091,1
DA:2092,1
DA:2093,1
DA:2094,1
DA:2095,1
DA:2096,1
DA:2097,1
DA:2100,1
DA:2101,1
DA:2102,1
DA:2103,1
DA:2104,1
DA:2105,1
DA:2106,1
DA:2107,1
DA:2108,1
DA:2109,1
DA:2110,1
DA:2111,1
DA:2114,1
DA:2115,1
DA:2116,1
DA:2117,1
DA:2118,1
DA:2119,1
DA:2120,1
DA:2121,1
DA:2122,1
DA:2123,1
DA:2124,1
DA:2125,1
DA:2126,1
DA:2127,1
DA:2128,1
DA:2129,1
DA:2130,1
DA:2133,1
DA:2134,1
DA:2135,1
DA:2136,1
DA:2137,1
DA:2138,1
DA:2139,1
DA:2140,1
DA:2141,1
DA:2142,1
DA:2145,1
DA:2146,1
DA:2147,1
DA:2148,1
DA:2149,1
DA:2150,1
DA:2151,1
DA:2152,1
DA:2153,1
DA:2154,1
DA:2157,1
DA:2158,1
DA:2159,1
DA:2160,1
DA:2161,1
DA:2162,1
DA:2163,1
DA:2164,1
DA:2165,1
DA:2168,1
DA:2169,1
DA:2170,1
DA:2171,1
DA:2172,1
DA:2173,1
DA:2174,1
DA:2175,1
DA:2176,1
DA:2177,1
DA:2180,1
DA:2181,1
DA:2182,1
DA:2183,1
DA:2184,1
DA:2185,1
DA:2186,1
DA:2187,1
DA:2188,1
DA:2189,1
DA:2192,1
DA:2193,1
DA:2194,1
DA:2195,1
DA:2196,1
DA:2197,1
DA:2198,1
DA:2199,1
DA:2200,1
DA:2201,1
DA:2202,1
DA:2203,1
DA:2206,1
DA:2207,1
DA:2208,1
DA:2209,1
DA:2212,1
DA:2213,1
DA:2215,1
DA:2216,1
DA:2217,1
DA:2218,1
DA:2219,1
DA:2221,1
DA:2222,1
DA:2223,1
DA:2226,1
DA:2227,1
DA:2229,1
DA:2230,1
DA:2231,1
DA:2232,1
DA:2233,1
DA:2235,1
DA:2237,1
DA:2238,1
DA:2241,1
DA:2242,1
DA:2244,1
DA:2245,1
DA:2246,1
DA:2247,1
DA:2248,1
DA:2250,1
DA:2251,1
DA:2252,1
DA:2257,1
DA:2258,1
DA:2259,1
DA:2260,1
DA:2261,1
DA:2262,1
DA:2263,1
DA:2264,1
DA:2267,1
DA:2268,1
DA:2269,1
DA:2270,1
DA:2271,1
DA:2272,1
DA:2273,1
DA:2274,1
DA:2277,1
DA:2278,1
DA:2279,1
DA:2280,1
DA:2281,1
DA:2282,1
DA:2283,1
DA:2284,1
DA:2287,1
DA:2290,1
DA:2291,1
DA:2292,1
DA:2293,1
DA:2294,1
DA:2295,1
DA:2296,1
DA:2297,1
DA:2300,1
DA:2303,1
DA:2304,1
DA:2305,1
DA:2306,1
DA:2307,1
DA:2308,1
DA:2309,1
DA:2310,1
DA:2313,1
DA:2314,1
DA:2315,1
DA:2316,1
DA:2317,1
DA:2318,1
DA:2319,1
DA:2320,1
DA:2323,1
DA:2324,1
DA:2325,1
DA:2326,1
DA:2327,1
DA:2328,1
DA:2329,1
DA:2330,1
DA:2333,1
DA:2336,1
DA:2337,1
DA:2338,1
DA:2339,1
DA:2340,1
DA:2341,1
DA:2342,1
DA:2343,1
DA:2346,1
DA:2349,1
DA:2350,1
DA:2351,1
DA:2352,1
DA:2353,1
DA:2354,1
DA:2355,1
DA:2358,1
DA:2361,1
DA:2362,1
DA:2363,1
DA:2364,1
DA:2365,1
DA:2366,1
DA:2367,1
DA:2370,1
DA:2373,1
DA:2374,1
DA:2375,1
DA:2376,1
DA:2377,1
DA:2378,1
DA:2379,1
DA:2380,1
DA:2383,1
DA:2384,1
DA:2385,1
DA:2386,1
DA:2387,1
DA:2388,1
DA:2389,1
DA:2390,1
DA:2393,1
DA:2394,1
DA:2395,1
DA:2396,1
DA:2397,1
DA:2398,1
DA:2399,1
DA:2400,1
DA:2403,1
DA:2404,1
DA:2405,1
DA:2406,1
DA:2407,1
DA:2408,1
DA:2409,1
DA:2410,1
DA:2413,1
DA:2416,1
DA:2417,1
DA:2418,1
DA:2419,1
DA:2420,1
DA:2421,1
DA:2422,1
DA:2423,1
DA:2426,1
DA:2429,1
DA:2430,1
DA:2431,1
DA:2432,1
DA:2433,1
DA:2434,1
DA:2435,1
DA:2436,1
DA:2439,1
DA:2440,1
DA:2441,1
DA:2442,1
DA:2443,1
DA:2444,1
DA:2445,1
DA:2446,1
DA:2449,1
DA:2450,1
DA:2452,1
DA:2453,1
DA:2454,1
DA:2455,1
DA:2456,1
DA:2457,1
DA:2458,1
DA:2459,1
DA:2463,1
DA:2464,1
DA:2465,1
DA:2468,1
DA:2469,1
DA:2471,1
DA:2472,1
DA:2473,1
DA:2476,1
DA:2479,1
DA:2480,1
DA:2481,1
DA:2482,1
DA:2483,1
DA:2484,1
DA:2487,1
DA:2488,1
DA:2489,1
DA:2490,1
DA:2491,1
DA:2492,1
DA:2495,1
DA:2496,1
DA:2497,1
DA:2498,1
DA:2499,1
DA:2500,1
DA:2503,1
DA:2504,1
DA:2505,1
DA:2506,1
DA:2507,1
DA:2508,1
DA:2511,1
DA:2512,1
DA:2513,1
DA:2514,1
DA:2515,1
DA:2516,1
DA:2519,1
DA:2520,1
DA:2521,1
DA:2522,1
DA:2523,1
DA:2524,1
DA:2527,1
DA:2528,1
DA:2529,1
DA:2530,1
DA:2531,1
DA:2532,1
DA:2533,1
DA:2536,1
DA:2537,1
DA:2538,1
DA:2539,1
DA:2540,1
DA:2541,1
DA:2544,1
DA:2545,1
DA:2546,1
DA:2547,1
DA:2548,1
DA:2549,1
DA:2552,1
DA:2553,1
DA:2555,1
DA:2556,1
DA:2557,1
DA:2558,1
DA:2560,1
DA:2561,1
DA:2566,1
DA:2567,1
DA:2568,1
DA:2569,1
DA:2570,1
DA:2571,1
DA:2572,1
DA:2573,1
DA:2574,1
DA:2576,1
DA:2577,1
DA:2579,1
DA:2581,1
DA:2582,1
DA:2583,0
DA:2584,1
DA:2589,1
DA:2590,1
DA:2591,1
DA:2592,1
DA:2593,1
DA:2594,1
DA:2595,1
DA:2596,1
DA:2597,1
DA:2598,1
DA:2599,1
DA:2600,1
DA:2601,1
DA:2602,1
DA:2603,1
DA:2605,1
DA:2606,1
DA:2608,0
DA:2610,1
DA:2615,1
DA:2616,1
DA:2617,1
DA:2618,1
DA:2621,1
DA:2622,1
DA:2625,1
DA:2626,1
DA:2627,1
DA:2630,1
DA:2631,1
DA:2634,1
DA:2635,1
DA:2636,1
DA:2637,1
DA:2638,1
DA:2641,1
DA:2642,1
DA:2645,1
DA:2646,1
DA:2648,1
DA:2649,1
DA:2650,1
DA:2651,1
DA:2655,1
DA:2656,1
DA:2659,1
DA:2660,1
DA:2661,1
DA:2662,1
DA:2663,1
DA:2664,1
DA:2665,1
DA:2666,1
DA:2667,1
DA:2668,1
DA:2671,1
DA:2673,1
DA:2674,1
DA:2675,1
DA:2676,1
DA:2677,1
DA:2680,1
DA:2681,1
DA:2682,1
DA:2683,1
DA:2684,1
DA:2685,1
DA:2686,1
DA:2689,1
DA:2690,1
DA:2691,1
DA:2692,1
DA:2693,1
DA:2694,1
DA:2695,1
DA:2696,1
DA:2697,1
DA:2699,1
DA:2700,1
DA:2701,1
DA:2706,1
DA:2708,1
DA:2709,1
DA:2710,1
DA:2711,1
DA:2714,1
DA:2716,1
DA:2717,1
DA:2718,1
DA:2719,1
DA:2720,1
DA:2721,1
DA:2722,1
DA:2725,1
DA:2727,1
DA:2728,1
DA:2729,1
DA:2730,1
DA:2731,1
DA:2732,1
DA:2733,1
DA:2736,1
DA:2738,1
DA:2739,1
DA:2740,1
DA:2741,1
DA:2742,1
DA:2743,1
DA:2744,1
DA:2747,1
DA:2750,1
DA:2751,1
DA:2752,1
DA:2753,1
DA:2754,1
DA:2755,1
DA:2756,1
DA:2757,1
DA:2758,1
DA:2759,1
DA:2762,1
DA:2763,1
DA:2766,1
DA:2768,1
DA:2769,1
DA:2770,1
DA:2771,1
DA:2772,1
DA:2773,1
DA:2774,1
DA:2775,1
DA:2776,1
DA:2777,1
DA:2780,1
DA:2781,1
DA:2784,1
DA:2786,1
DA:2787,1
DA:2788,1
DA:2789,1
DA:2790,1
DA:2792,1
DA:2793,1
DA:2796,1
DA:2798,1
DA:2799,1
DA:2800,1
DA:2801,1
DA:2804,1
DA:2805,1
DA:2806,1
DA:2807,1
DA:2808,1
DA:2809,1
DA:2810,1
DA:2812,1
DA:2813,1
DA:2814,1
DA:2815,1
DA:2817,1
DA:2820,1
DA:2821,1
DA:2822,1
DA:2823,1
DA:2824,1
DA:2825,1
DA:2828,1
DA:2829,1
DA:2830,1
DA:2831,1
DA:2832,1
DA:2833,1
DA:2834,1
DA:2835,1
DA:2836,1
DA:2837,1
DA:2838,1
DA:2839,1
DA:2840,1
DA:2841,1
DA:2844,1
DA:2845,1
DA:2846,1
DA:2847,1
DA:2848,1
DA:2849,1
DA:2850,1
DA:2851,1
DA:2854,1
DA:2855,1
DA:2856,1
DA:2857,1
DA:2858,1
DA:2859,1
BRF:0
BRH:0
LF:1890
LH:1523
end_of_record
SF:/home/openclaw/dev/yinglichina8848/sqlrustgo/crates/optimizer/src/stats.rs
FN:914,_RNvMNtNtCs3mqqzCYtP3U_19sqlrustgo_optimizer5stats5testsNtB2_11MockStorage15with_scan_error
FN:890,_RNvMNtNtCs3mqqzCYtP3U_19sqlrustgo_optimizer5stats5testsNtB2_11MockStorage3new
FN:898,_RNvMNtNtCs3mqqzCYtP3U_19sqlrustgo_optimizer5stats5testsNtB2_11MockStorage9with_data
FN:577,_RNvNtNtCs3mqqzCYtP3U_19sqlrustgo_optimizer5stats5testss_16test_selectivity
FN:525,_RNvNtNtCs3mqqzCYtP3U_19sqlrustgo_optimizer5stats5testss_16test_table_stats
FN:504,_RNvNtNtCs3mqqzCYtP3U_19sqlrustgo_optimizer5stats5testss_17test_column_stats
FN:629,_RNvNtNtCs3mqqzCYtP3U_19sqlrustgo_optimizer5stats5testss_17test_stats_result
FN:568,_RNvNtNtCs3mqqzCYtP3U_19sqlrustgo_optimizer5stats5testss_19test_estimated_rows
FN:859,_RNvNtNtCs3mqqzCYtP3U_19sqlrustgo_optimizer5stats5testss_21test_stats_result_map
FN:846,_RNvNtNtCs3mqqzCYtP3U_19sqlrustgo_optimizer5stats5testss_22test_stats_error_debug
FN:542,_RNvNtNtCs3mqqzCYtP3U_19sqlrustgo_optimizer5stats5testss_22test_table_selectivity
FN:698,_RNvNtNtCs3mqqzCYtP3U_19sqlrustgo_optimizer5stats5testss_22test_table_stats_debug
FN:518,_RNvNtNtCs3mqqzCYtP3U_19sqlrustgo_optimizer5stats5testss_23test_column_selectivity
FN:781,_RNvNtNtCs3mqqzCYtP3U_19sqlrustgo_optimizer5stats5testss_23test_column_stats_debug
FN:599,_RNvNtNtCs3mqqzCYtP3U_19sqlrustgo_optimizer5stats5testss_23test_column_stats_range
FN:553,_RNvNtNtCs3mqqzCYtP3U_19sqlrustgo_optimizer5stats5testss_23test_in_memory_provider
FN:691,_RNvNtNtCs3mqqzCYtP3U_19sqlrustgo_optimizer5stats5testss_23test_table_stats_column
FN:772,_RNvNtNtCs3mqqzCYtP3U_19sqlrustgo_optimizer5stats5testss_24test_stats_error_display
FN:615,_RNvNtNtCs3mqqzCYtP3U_19sqlrustgo_optimizer5stats5testss_24test_table_stats_default
FN:591,_RNvNtNtCs3mqqzCYtP3U_19sqlrustgo_optimizer5stats5testss_25test_column_stats_default
FN:866,_RNvNtNtCs3mqqzCYtP3U_19sqlrustgo_optimizer5stats5testss_25test_stats_result_map_err
FN:638,_RNvNtNtCs3mqqzCYtP3U_19sqlrustgo_optimizer5stats5testss_26test_provider_update_stats
FN:705,_RNvNtNtCs3mqqzCYtP3U_19sqlrustgo_optimizer5stats5testss_28test_default_stats_collector
FN:797,_RNvNtNtCs3mqqzCYtP3U_19sqlrustgo_optimizer5stats5testss_29test_in_memory_provider_debug
FN:679,_RNvNtNtCs3mqqzCYtP3U_19sqlrustgo_optimizer5stats5testss_30test_column_stats_with_average
FN:840,_RNvNtNtCs3mqqzCYtP3U_19sqlrustgo_optimizer5stats5testss_30test_stats_error_update_failed
FN:608,_RNvNtNtCs3mqqzCYtP3U_19sqlrustgo_optimizer5stats5testss_32test_column_stats_eq_selectivity
FN:873,_RNvNtNtCs3mqqzCYtP3U_19sqlrustgo_optimizer5stats5testss_32test_column_stats_with_max_value
FN:820,_RNvNtNtCs3mqqzCYtP3U_19sqlrustgo_optimizer5stats5testss_32test_table_stats_with_size_bytes
FN:673,_RNvNtNtCs3mqqzCYtP3U_19sqlrustgo_optimizer5stats5testss_33test_column_stats_with_null_count
FN:623,_RNvNtNtCs3mqqzCYtP3U_19sqlrustgo_optimizer5stats5testss_33test_table_stats_column_not_found
FN:750,_RNvNtNtCs3mqqzCYtP3U_19sqlrustgo_optimizer5stats5testss_34test_statistics_provider_has_stats
FN:1201,_RNvNtNtCs3mqqzCYtP3U_19sqlrustgo_optimizer5stats5testss_34test_stats_collector_trait_objects
FN:729,_RNvNtNtCs3mqqzCYtP3U_19sqlrustgo_optimizer5stats5testss_34test_table_stats_with_column_stats
FN:685,_RNvNtNtCs3mqqzCYtP3U_19sqlrustgo_optimizer5stats5testss_34test_table_stats_with_last_updated
FN:659,_RNvNtNtCs3mqqzCYtP3U_19sqlrustgo_optimizer5stats5testss_35test_column_stats_range_selectivity
FN:788,_RNvNtNtCs3mqqzCYtP3U_19sqlrustgo_optimizer5stats5testss_36test_in_memory_provider_remove_stats
FN:667,_RNvNtNtCs3mqqzCYtP3U_19sqlrustgo_optimizer5stats5testss_37test_column_stats_with_distinct_count
FN:759,_RNvNtNtCs3mqqzCYtP3U_19sqlrustgo_optimizer5stats5testss_37test_statistics_provider_column_stats
FN:711,_RNvNtNtCs3mqqzCYtP3U_19sqlrustgo_optimizer5stats5testss_37test_table_stats_estimate_selectivity
FN:853,_RNvNtNtCs3mqqzCYtP3U_19sqlrustgo_optimizer5stats5testss_38test_stats_error_update_failed_display
FN:1191,_RNvNtNtCs3mqqzCYtP3U_19sqlrustgo_optimizer5stats5testss_39test_default_stats_collector_scan_error
FN:741,_RNvNtNtCs3mqqzCYtP3U_19sqlrustgo_optimizer5stats5testss_39test_statistics_provider_estimated_rows
FN:811,_RNvNtNtCs3mqqzCYtP3U_19sqlrustgo_optimizer5stats5testss_40test_statistics_provider_update_stats_ok
FN:833,_RNvNtNtCs3mqqzCYtP3U_19sqlrustgo_optimizer5stats5testss_45test_column_stats_eq_selectivity_single_value
FN:826,_RNvNtNtCs3mqqzCYtP3U_19sqlrustgo_optimizer5stats5testss_46test_column_stats_eq_selectivity_high_distinct
FN:652,_RNvNtNtCs3mqqzCYtP3U_19sqlrustgo_optimizer5stats5testss_46test_column_stats_eq_selectivity_zero_distinct
FN:1134,_RNvNtNtCs3mqqzCYtP3U_19sqlrustgo_optimizer5stats5testss_46test_default_stats_collector_collect_row_count
FN:804,_RNvNtNtCs3mqqzCYtP3U_19sqlrustgo_optimizer5stats5testss_47test_statistics_provider_update_stats_not_found
FN:1093,_RNvNtNtCs3mqqzCYtP3U_19sqlrustgo_optimizer5stats5testss_48test_default_stats_collector_collect_table_stats
FN:1162,_RNvNtNtCs3mqqzCYtP3U_19sqlrustgo_optimizer5stats5testss_49test_default_stats_collector_collect_column_stats
FN:722,_RNvNtNtCs3mqqzCYtP3U_19sqlrustgo_optimizer5stats5testss_52test_table_stats_estimate_selectivity_unknown_column
FN:949,_RNvXs_NtNtCs3mqqzCYtP3U_19sqlrustgo_optimizer5stats5testsNtB4_11MockStorageNtNtCs9oXD4GUMzTX_17sqlrustgo_storage6engine13StorageEngine10drop_table
FN:1012,_RNvXs_NtNtCs3mqqzCYtP3U_19sqlrustgo_optimizer5stats5testsNtB4_11MockStorageNtNtCs9oXD4GUMzTX_17sqlrustgo_storage6engine13StorageEngine10list_views
FN:1004,_RNvXs_NtNtCs3mqqzCYtP3U_19sqlrustgo_optimizer5stats5testsNtB4_11MockStorageNtNtCs9oXD4GUMzTX_17sqlrustgo_storage6engine13StorageEngine11create_view
FN:1039,_RNvXs_NtNtCs3mqqzCYtP3U_19sqlrustgo_optimizer5stats5testsNtB4_11MockStorageNtNtCs9oXD4GUMzTX_17sqlrustgo_storage6engine13StorageEngine11get_trigger
FN:966,_RNvXs_NtNtCs3mqqzCYtP3U_19sqlrustgo_optimizer5stats5testsNtB4_11MockStorageNtNtCs9oXD4GUMzTX_17sqlrustgo_storage6engine13StorageEngine11list_tables
FN:1000,_RNvXs_NtNtCs3mqqzCYtP3U_19sqlrustgo_optimizer5stats5testsNtB4_11MockStorageNtNtCs9oXD4GUMzTX_17sqlrustgo_storage6engine13StorageEngine11range_index
FN:945,_RNvXs_NtNtCs3mqqzCYtP3U_19sqlrustgo_optimizer5stats5testsNtB4_11MockStorageNtNtCs9oXD4GUMzTX_17sqlrustgo_storage6engine13StorageEngine12create_table
FN:1035,_RNvXs_NtNtCs3mqqzCYtP3U_19sqlrustgo_optimizer5stats5testsNtB4_11MockStorageNtNtCs9oXD4GUMzTX_17sqlrustgo_storage6engine13StorageEngine12drop_trigger
FN:983,_RNvXs_NtNtCs3mqqzCYtP3U_19sqlrustgo_optimizer5stats5testsNtB4_11MockStorageNtNtCs9oXD4GUMzTX_17sqlrustgo_storage6engine13StorageEngine12search_index
FN:1020,_RNvXs_NtNtCs3mqqzCYtP3U_19sqlrustgo_optimizer5stats5testsNtB4_11MockStorageNtNtCs9oXD4GUMzTX_17sqlrustgo_storage6engine13StorageEngine13analyze_table
FN:1043,_RNvXs_NtNtCs3mqqzCYtP3U_19sqlrustgo_optimizer5stats5testsNtB4_11MockStorageNtNtCs9oXD4GUMzTX_17sqlrustgo_storage6engine13StorageEngine13list_triggers
FN:1028,_RNvXs_NtNtCs3mqqzCYtP3U_19sqlrustgo_optimizer5stats5testsNtB4_11MockStorageNtNtCs9oXD4GUMzTX_17sqlrustgo_storage6engine13StorageEngine14create_trigger
FN:953,_RNvXs_NtNtCs3mqqzCYtP3U_19sqlrustgo_optimizer5stats5testsNtB4_11MockStorageNtNtCs9oXD4GUMzTX_17sqlrustgo_storage6engine13StorageEngine14get_table_info
FN:979,_RNvXs_NtNtCs3mqqzCYtP3U_19sqlrustgo_optimizer5stats5testsNtB4_11MockStorageNtNtCs9oXD4GUMzTX_17sqlrustgo_storage6engine13StorageEngine16drop_table_index
FN:991,_RNvXs_NtNtCs3mqqzCYtP3U_19sqlrustgo_optimizer5stats5testsNtB4_11MockStorageNtNtCs9oXD4GUMzTX_17sqlrustgo_storage6engine13StorageEngine17create_hash_index
FN:970,_RNvXs_NtNtCs3mqqzCYtP3U_19sqlrustgo_optimizer5stats5testsNtB4_11MockStorageNtNtCs9oXD4GUMzTX_17sqlrustgo_storage6engine13StorageEngine18create_table_index
FN:1075,_RNvXs_NtNtCs3mqqzCYtP3U_19sqlrustgo_optimizer5stats5testsNtB4_11MockStorageNtNtCs9oXD4GUMzTX_17sqlrustgo_storage6engine13StorageEngine21range_composite_index
FN:1059,_RNvXs_NtNtCs3mqqzCYtP3U_19sqlrustgo_optimizer5stats5testsNtB4_11MockStorageNtNtCs9oXD4GUMzTX_17sqlrustgo_storage6engine13StorageEngine22create_composite_index
FN:1067,_RNvXs_NtNtCs3mqqzCYtP3U_19sqlrustgo_optimizer5stats5testsNtB4_11MockStorageNtNtCs9oXD4GUMzTX_17sqlrustgo_storage6engine13StorageEngine22search_composite_index
FN:1047,_RNvXs_NtNtCs3mqqzCYtP3U_19sqlrustgo_optimizer5stats5testsNtB4_11MockStorageNtNtCs9oXD4GUMzTX_17sqlrustgo_storage6engine13StorageEngine23get_next_auto_increment
FN:1055,_RNvXs_NtNtCs3mqqzCYtP3U_19sqlrustgo_optimizer5stats5testsNtB4_11MockStorageNtNtCs9oXD4GUMzTX_17sqlrustgo_storage6engine13StorageEngine26get_auto_increment_counter
FN:1084,_RNvXs_NtNtCs3mqqzCYtP3U_19sqlrustgo_optimizer5stats5testsNtB4_11MockStorageNtNtCs9oXD4GUMzTX_17sqlrustgo_storage6engine13StorageEngine28get_referencing_foreign_keys
FN:921,_RNvXs_NtNtCs3mqqzCYtP3U_19sqlrustgo_optimizer5stats5testsNtB4_11MockStorageNtNtCs9oXD4GUMzTX_17sqlrustgo_storage6engine13StorageEngine4scan
FN:932,_RNvXs_NtNtCs3mqqzCYtP3U_19sqlrustgo_optimizer5stats5testsNtB4_11MockStorageNtNtCs9oXD4GUMzTX_17sqlrustgo_storage6engine13StorageEngine6delete
FN:928,_RNvXs_NtNtCs3mqqzCYtP3U_19sqlrustgo_optimizer5stats5testsNtB4_11MockStorageNtNtCs9oXD4GUMzTX_17sqlrustgo_storage6engine13StorageEngine6insert
FN:936,_RNvXs_NtNtCs3mqqzCYtP3U_19sqlrustgo_optimizer5stats5testsNtB4_11MockStorageNtNtCs9oXD4GUMzTX_17sqlrustgo_storage6engine13StorageEngine6update
FN:987,_RNvXs_NtNtCs3mqqzCYtP3U_19sqlrustgo_optimizer5stats5testsNtB4_11MockStorageNtNtCs9oXD4GUMzTX_17sqlrustgo_storage6engine13StorageEngine7get_row
FN:1008,_RNvXs_NtNtCs3mqqzCYtP3U_19sqlrustgo_optimizer5stats5testsNtB4_11MockStorageNtNtCs9oXD4GUMzTX_17sqlrustgo_storage6engine13StorageEngine8get_view
FN:1016,_RNvXs_NtNtCs3mqqzCYtP3U_19sqlrustgo_optimizer5stats5testsNtB4_11MockStorageNtNtCs9oXD4GUMzTX_17sqlrustgo_storage6engine13StorageEngine8has_view
FN:962,_RNvXs_NtNtCs3mqqzCYtP3U_19sqlrustgo_optimizer5stats5testsNtB4_11MockStorageNtNtCs9oXD4GUMzTX_17sqlrustgo_storage6engine13StorageEngine9has_table
FN:207,_RNvMs0_NtCs3mqqzCYtP3U_19sqlrustgo_optimizer5statsNtB5_10TableStats10page_count
FN:216,_RNvMs0_NtCs3mqqzCYtP3U_19sqlrustgo_optimizer5statsNtB5_10TableStats12column_stats
FN:168,_RNvMs0_NtCs3mqqzCYtP3U_19sqlrustgo_optimizer5statsNtB5_10TableStats14with_row_count
FN:173,_RNvMs0_NtCs3mqqzCYtP3U_19sqlrustgo_optimizer5statsNtB5_10TableStats15with_size_bytes
FN:178,_RNvMs0_NtCs3mqqzCYtP3U_19sqlrustgo_optimizer5statsNtB5_10TableStats16add_column_stats
FN:221,_RNvMs0_NtCs3mqqzCYtP3U_19sqlrustgo_optimizer5statsNtB5_10TableStats17with_column_stats
FN:183,_RNvMs0_NtCs3mqqzCYtP3U_19sqlrustgo_optimizer5statsNtB5_10TableStats17with_last_updated
FN:194,_RNvMs0_NtCs3mqqzCYtP3U_19sqlrustgo_optimizer5statsNtB5_10TableStats20estimate_selectivity
FN:189,_RNvMs0_NtCs3mqqzCYtP3U_19sqlrustgo_optimizer5statsNtB5_10TableStats6column
FN:202,_RNvMs0_NtCs3mqqzCYtP3U_19sqlrustgo_optimizer5statsNtB5_10TableStats9row_count
FN:286,_RNvMs1_NtCs3mqqzCYtP3U_19sqlrustgo_optimizer5statsNtB5_26InMemoryStatisticsProvider12remove_stats
FN:275,_RNvMs1_NtCs3mqqzCYtP3U_19sqlrustgo_optimizer5statsNtB5_26InMemoryStatisticsProvider3new
FN:281,_RNvMs1_NtCs3mqqzCYtP3U_19sqlrustgo_optimizer5statsNtB5_26InMemoryStatisticsProvider9add_stats
FN:290,_RNvMs1_NtCs3mqqzCYtP3U_19sqlrustgo_optimizer5statsNtB5_26InMemoryStatisticsProvider9has_stats
FN:347,_RNvMs3_NtCs3mqqzCYtP3U_19sqlrustgo_optimizer5statsNtB5_21DefaultStatsCollector3new
FN:112,_RNvMs_NtCs3mqqzCYtP3U_19sqlrustgo_optimizer5statsNtB4_11ColumnStats10with_range
FN:118,_RNvMs_NtCs3mqqzCYtP3U_19sqlrustgo_optimizer5statsNtB4_11ColumnStats12with_average
FN:124,_RNvMs_NtCs3mqqzCYtP3U_19sqlrustgo_optimizer5statsNtB4_11ColumnStats14eq_selectivity
FN:107,_RNvMs_NtCs3mqqzCYtP3U_19sqlrustgo_optimizer5statsNtB4_11ColumnStats15with_null_count
FN:132,_RNvMs_NtCs3mqqzCYtP3U_19sqlrustgo_optimizer5statsNtB4_11ColumnStats17range_selectivity
FN:102,_RNvMs_NtCs3mqqzCYtP3U_19sqlrustgo_optimizer5statsNtB4_11ColumnStats19with_distinct_count
FN:296,_RNvXs2_NtCs3mqqzCYtP3U_19sqlrustgo_optimizer5statsNtB5_26InMemoryStatisticsProviderNtB5_18StatisticsProvider11table_stats
FN:300,_RNvXs2_NtCs3mqqzCYtP3U_19sqlrustgo_optimizer5statsNtB5_26InMemoryStatisticsProviderNtB5_18StatisticsProvider12update_stats
FN:383,_RNvXs4_NtCs3mqqzCYtP3U_19sqlrustgo_optimizer5statsNtB5_21DefaultStatsCollectorNtB5_14StatsCollector17collect_row_count
FN:353,_RNvXs4_NtCs3mqqzCYtP3U_19sqlrustgo_optimizer5statsNtB5_21DefaultStatsCollectorNtB5_14StatsCollector19collect_table_stats
FN:390,_RNvXs4_NtCs3mqqzCYtP3U_19sqlrustgo_optimizer5statsNtB5_21DefaultStatsCollectorNtB5_14StatsCollector20collect_column_stats
FN:157,_RINvMs0_NtCs3mqqzCYtP3U_19sqlrustgo_optimizer5statsNtB6_10TableStats3newReEB8_
FN:91,_RINvMs_NtCs3mqqzCYtP3U_19sqlrustgo_optimizer5statsNtB5_11ColumnStats3newNtNtCsj0gLuUEfogP_5alloc6string6StringEB7_
FN:91,_RINvMs_NtCs3mqqzCYtP3U_19sqlrustgo_optimizer5statsNtB5_11ColumnStats3newReEB7_
FN:197,_RNCNvMs0_NtCs3mqqzCYtP3U_19sqlrustgo_optimizer5statsNtB7_10TableStats20estimate_selectivity0B9_
FN:386,_RNCNvXs4_NtCs3mqqzCYtP3U_19sqlrustgo_optimizer5statsNtB7_21DefaultStatsCollectorNtB7_14StatsCollector17collect_row_count0B9_
FN:360,_RNCNvXs4_NtCs3mqqzCYtP3U_19sqlrustgo_optimizer5statsNtB7_21DefaultStatsCollectorNtB7_14StatsCollector19collect_table_stats0B9_
FN:399,_RNCNvXs4_NtCs3mqqzCYtP3U_19sqlrustgo_optimizer5statsNtB7_21DefaultStatsCollectorNtB7_14StatsCollector20collect_column_stats0B9_
FN:253,_RNCNvYNtNtCs3mqqzCYtP3U_19sqlrustgo_optimizer14stats_provider24CachedStatisticsProviderNtNtB8_5stats18StatisticsProvider11selectivity0B8_
FN:253,_RNCNvYNtNtCs3mqqzCYtP3U_19sqlrustgo_optimizer14stats_provider25StorageStatisticsProviderNtNtB8_5stats18StatisticsProvider11selectivity0B8_
FN:253,_RNCNvYNtNtCs3mqqzCYtP3U_19sqlrustgo_optimizer5stats26InMemoryStatisticsProviderNtB6_18StatisticsProvider11selectivity0B8_
FN:251,_RNvYNtNtCs3mqqzCYtP3U_19sqlrustgo_optimizer5stats26InMemoryStatisticsProviderNtB4_18StatisticsProvider11selectivityB6_
FN:258,_RNvYNtNtCs3mqqzCYtP3U_19sqlrustgo_optimizer5stats26InMemoryStatisticsProviderNtB4_18StatisticsProvider12column_statsB6_
FN:246,_RNvYNtNtCs3mqqzCYtP3U_19sqlrustgo_optimizer5stats26InMemoryStatisticsProviderNtB4_18StatisticsProvider14estimated_rowsB6_
FN:263,_RNvYNtNtCs3mqqzCYtP3U_19sqlrustgo_optimizer5stats26InMemoryStatisticsProviderNtB4_18StatisticsProvider9has_statsB6_
FN:861,_RNCNvNtNtCs3mqqzCYtP3U_19sqlrustgo_optimizer5stats5testss_21test_stats_result_map0B7_
FN:868,_RNCNvNtNtCs3mqqzCYtP3U_19sqlrustgo_optimizer5stats5testss_25test_stats_result_map_err0B7_
FN:958,_RNCNvXs_NtNtCs3mqqzCYtP3U_19sqlrustgo_optimizer5stats5testsNtB6_11MockStorageNtNtCs9oXD4GUMzTX_17sqlrustgo_storage6engine13StorageEngine14get_table_info0Ba_
FN:251,_RNvYNtNtCs3mqqzCYtP3U_19sqlrustgo_optimizer14stats_provider24CachedStatisticsProviderNtNtB6_5stats18StatisticsProvider11selectivityB6_
FN:258,_RNvYNtNtCs3mqqzCYtP3U_19sqlrustgo_optimizer14stats_provider24CachedStatisticsProviderNtNtB6_5stats18StatisticsProvider12column_statsB6_
FN:246,_RNvYNtNtCs3mqqzCYtP3U_19sqlrustgo_optimizer14stats_provider24CachedStatisticsProviderNtNtB6_5stats18StatisticsProvider14estimated_rowsB6_
FN:263,_RNvYNtNtCs3mqqzCYtP3U_19sqlrustgo_optimizer14stats_provider24CachedStatisticsProviderNtNtB6_5stats18StatisticsProvider9has_statsB6_
FN:251,_RNvYNtNtCs3mqqzCYtP3U_19sqlrustgo_optimizer14stats_provider25StorageStatisticsProviderNtNtB6_5stats18StatisticsProvider11selectivityB6_
FN:258,_RNvYNtNtCs3mqqzCYtP3U_19sqlrustgo_optimizer14stats_provider25StorageStatisticsProviderNtNtB6_5stats18StatisticsProvider12column_statsB6_
FN:246,_RNvYNtNtCs3mqqzCYtP3U_19sqlrustgo_optimizer14stats_provider25StorageStatisticsProviderNtNtB6_5stats18StatisticsProvider14estimated_rowsB6_
FN:263,_RNvYNtNtCs3mqqzCYtP3U_19sqlrustgo_optimizer14stats_provider25StorageStatisticsProviderNtNtB6_5stats18StatisticsProvider9has_statsB6_
FN:64,_RINvMNtCs3mqqzCYtP3U_19sqlrustgo_optimizer5statsNtB3_10IndexStats3newppEB5_
FN:74,_RINvMNtCs3mqqzCYtP3U_19sqlrustgo_optimizer5statsNtB3_10IndexStats9with_typepEB5_
FN:79,_RNvMNtCs3mqqzCYtP3U_19sqlrustgo_optimizer5statsNtB2_10IndexStats16with_cardinality
FN:84,_RNvMNtCs3mqqzCYtP3U_19sqlrustgo_optimizer5statsNtB2_10IndexStats16with_selectivity
FNDA:1,_RNvMNtNtCs3mqqzCYtP3U_19sqlrustgo_optimizer5stats5testsNtB2_11MockStorage15with_scan_error
FNDA:5,_RNvMNtNtCs3mqqzCYtP3U_19sqlrustgo_optimizer5stats5testsNtB2_11MockStorage3new
FNDA:4,_RNvMNtNtCs3mqqzCYtP3U_19sqlrustgo_optimizer5stats5testsNtB2_11MockStorage9with_data
FNDA:1,_RNvNtNtCs3mqqzCYtP3U_19sqlrustgo_optimizer5stats5testss_16test_selectivity
FNDA:1,_RNvNtNtCs3mqqzCYtP3U_19sqlrustgo_optimizer5stats5testss_16test_table_stats
FNDA:1,_RNvNtNtCs3mqqzCYtP3U_19sqlrustgo_optimizer5stats5testss_17test_column_stats
FNDA:1,_RNvNtNtCs3mqqzCYtP3U_19sqlrustgo_optimizer5stats5testss_17test_stats_result
FNDA:1,_RNvNtNtCs3mqqzCYtP3U_19sqlrustgo_optimizer5stats5testss_19test_estimated_rows
FNDA:1,_RNvNtNtCs3mqqzCYtP3U_19sqlrustgo_optimizer5stats5testss_21test_stats_result_map
FNDA:1,_RNvNtNtCs3mqqzCYtP3U_19sqlrustgo_optimizer5stats5testss_22test_stats_error_debug
FNDA:1,_RNvNtNtCs3mqqzCYtP3U_19sqlrustgo_optimizer5stats5testss_22test_table_selectivity
FNDA:1,_RNvNtNtCs3mqqzCYtP3U_19sqlrustgo_optimizer5stats5testss_22test_table_stats_debug
FNDA:1,_RNvNtNtCs3mqqzCYtP3U_19sqlrustgo_optimizer5stats5testss_23test_column_selectivity
FNDA:1,_RNvNtNtCs3mqqzCYtP3U_19sqlrustgo_optimizer5stats5testss_23test_column_stats_debug
FNDA:1,_RNvNtNtCs3mqqzCYtP3U_19sqlrustgo_optimizer5stats5testss_23test_column_stats_range
FNDA:1,_RNvNtNtCs3mqqzCYtP3U_19sqlrustgo_optimizer5stats5testss_23test_in_memory_provider
FNDA:1,_RNvNtNtCs3mqqzCYtP3U_19sqlrustgo_optimizer5stats5testss_23test_table_stats_column
FNDA:1,_RNvNtNtCs3mqqzCYtP3U_19sqlrustgo_optimizer5stats5testss_24test_stats_error_display
FNDA:1,_RNvNtNtCs3mqqzCYtP3U_19sqlrustgo_optimizer5stats5testss_24test_table_stats_default
FNDA:1,_RNvNtNtCs3mqqzCYtP3U_19sqlrustgo_optimizer5stats5testss_25test_column_stats_default
FNDA:1,_RNvNtNtCs3mqqzCYtP3U_19sqlrustgo_optimizer5stats5testss_25test_stats_result_map_err
FNDA:1,_RNvNtNtCs3mqqzCYtP3U_19sqlrustgo_optimizer5stats5testss_26test_provider_update_stats
FNDA:1,_RNvNtNtCs3mqqzCYtP3U_19sqlrustgo_optimizer5stats5testss_28test_default_stats_collector
FNDA:1,_RNvNtNtCs3mqqzCYtP3U_19sqlrustgo_optimizer5stats5testss_29test_in_memory_provider_debug
FNDA:1,_RNvNtNtCs3mqqzCYtP3U_19sqlrustgo_optimizer5stats5testss_30test_column_stats_with_average
FNDA:1,_RNvNtNtCs3mqqzCYtP3U_19sqlrustgo_optimizer5stats5testss_30test_stats_error_update_failed
FNDA:1,_RNvNtNtCs3mqqzCYtP3U_19sqlrustgo_optimizer5stats5testss_32test_column_stats_eq_selectivity
FNDA:1,_RNvNtNtCs3mqqzCYtP3U_19sqlrustgo_optimizer5stats5testss_32test_column_stats_with_max_value
FNDA:1,_RNvNtNtCs3mqqzCYtP3U_19sqlrustgo_optimizer5stats5testss_32test_table_stats_with_size_bytes
FNDA:1,_RNvNtNtCs3mqqzCYtP3U_19sqlrustgo_optimizer5stats5testss_33test_column_stats_with_null_count
FNDA:1,_RNvNtNtCs3mqqzCYtP3U_19sqlrustgo_optimizer5stats5testss_33test_table_stats_column_not_found
FNDA:1,_RNvNtNtCs3mqqzCYtP3U_19sqlrustgo_optimizer5stats5testss_34test_statistics_provider_has_stats
FNDA:1,_RNvNtNtCs3mqqzCYtP3U_19sqlrustgo_optimizer5stats5testss_34test_stats_collector_trait_objects
FNDA:1,_RNvNtNtCs3mqqzCYtP3U_19sqlrustgo_optimizer5stats5testss_34test_table_stats_with_column_stats
FNDA:1,_RNvNtNtCs3mqqzCYtP3U_19sqlrustgo_optimizer5stats5testss_34test_table_stats_with_last_updated
FNDA:1,_RNvNtNtCs3mqqzCYtP3U_19sqlrustgo_optimizer5stats5testss_35test_column_stats_range_selectivity
FNDA:1,_RNvNtNtCs3mqqzCYtP3U_19sqlrustgo_optimizer5stats5testss_36test_in_memory_provider_remove_stats
FNDA:1,_RNvNtNtCs3mqqzCYtP3U_19sqlrustgo_optimizer5stats5testss_37test_column_stats_with_distinct_count
FNDA:1,_RNvNtNtCs3mqqzCYtP3U_19sqlrustgo_optimizer5stats5testss_37test_statistics_provider_column_stats
FNDA:1,_RNvNtNtCs3mqqzCYtP3U_19sqlrustgo_optimizer5stats5testss_37test_table_stats_estimate_selectivity
FNDA:1,_RNvNtNtCs3mqqzCYtP3U_19sqlrustgo_optimizer5stats5testss_38test_stats_error_update_failed_display
FNDA:1,_RNvNtNtCs3mqqzCYtP3U_19sqlrustgo_optimizer5stats5testss_39test_default_stats_collector_scan_error
FNDA:1,_RNvNtNtCs3mqqzCYtP3U_19sqlrustgo_optimizer5stats5testss_39test_statistics_provider_estimated_rows
FNDA:1,_RNvNtNtCs3mqqzCYtP3U_19sqlrustgo_optimizer5stats5testss_40test_statistics_provider_update_stats_ok
FNDA:1,_RNvNtNtCs3mqqzCYtP3U_19sqlrustgo_optimizer5stats5testss_45test_column_stats_eq_selectivity_single_value
FNDA:1,_RNvNtNtCs3mqqzCYtP3U_19sqlrustgo_optimizer5stats5testss_46test_column_stats_eq_selectivity_high_distinct
FNDA:1,_RNvNtNtCs3mqqzCYtP3U_19sqlrustgo_optimizer5stats5testss_46test_column_stats_eq_selectivity_zero_distinct
FNDA:1,_RNvNtNtCs3mqqzCYtP3U_19sqlrustgo_optimizer5stats5testss_46test_default_stats_collector_collect_row_count
FNDA:1,_RNvNtNtCs3mqqzCYtP3U_19sqlrustgo_optimizer5stats5testss_47test_statistics_provider_update_stats_not_found
FNDA:1,_RNvNtNtCs3mqqzCYtP3U_19sqlrustgo_optimizer5stats5testss_48test_default_stats_collector_collect_table_stats
FNDA:1,_RNvNtNtCs3mqqzCYtP3U_19sqlrustgo_optimizer5stats5testss_49test_default_stats_collector_collect_column_stats
FNDA:1,_RNvNtNtCs3mqqzCYtP3U_19sqlrustgo_optimizer5stats5testss_52test_table_stats_estimate_selectivity_unknown_column
FNDA:0,_RNvXs_NtNtCs3mqqzCYtP3U_19sqlrustgo_optimizer5stats5testsNtB4_11MockStorageNtNtCs9oXD4GUMzTX_17sqlrustgo_storage6engine13StorageEngine10drop_table
FNDA:0,_RNvXs_NtNtCs3mqqzCYtP3U_19sqlrustgo_optimizer5stats5testsNtB4_11MockStorageNtNtCs9oXD4GUMzTX_17sqlrustgo_storage6engine13StorageEngine10list_views
FNDA:0,_RNvXs_NtNtCs3mqqzCYtP3U_19sqlrustgo_optimizer5stats5testsNtB4_11MockStorageNtNtCs9oXD4GUMzTX_17sqlrustgo_storage6engine13StorageEngine11create_view
FNDA:0,_RNvXs_NtNtCs3mqqzCYtP3U_19sqlrustgo_optimizer5stats5testsNtB4_11MockStorageNtNtCs9oXD4GUMzTX_17sqlrustgo_storage6engine13StorageEngine11get_trigger
FNDA:0,_RNvXs_NtNtCs3mqqzCYtP3U_19sqlrustgo_optimizer5stats5testsNtB4_11MockStorageNtNtCs9oXD4GUMzTX_17sqlrustgo_storage6engine13StorageEngine11list_tables
FNDA:0,_RNvXs_NtNtCs3mqqzCYtP3U_19sqlrustgo_optimizer5stats5testsNtB4_11MockStorageNtNtCs9oXD4GUMzTX_17sqlrustgo_storage6engine13StorageEngine11range_index
FNDA:0,_RNvXs_NtNtCs3mqqzCYtP3U_19sqlrustgo_optimizer5stats5testsNtB4_11MockStorageNtNtCs9oXD4GUMzTX_17sqlrustgo_storage6engine13StorageEngine12create_table
FNDA:0,_RNvXs_NtNtCs3mqqzCYtP3U_19sqlrustgo_optimizer5stats5testsNtB4_11MockStorageNtNtCs9oXD4GUMzTX_17sqlrustgo_storage6engine13StorageEngine12drop_trigger
FNDA:0,_RNvXs_NtNtCs3mqqzCYtP3U_19sqlrustgo_optimizer5stats5testsNtB4_11MockStorageNtNtCs9oXD4GUMzTX_17sqlrustgo_storage6engine13StorageEngine12search_index
FNDA:0,_RNvXs_NtNtCs3mqqzCYtP3U_19sqlrustgo_optimizer5stats5testsNtB4_11MockStorageNtNtCs9oXD4GUMzTX_17sqlrustgo_storage6engine13StorageEngine13analyze_table
FNDA:0,_RNvXs_NtNtCs3mqqzCYtP3U_19sqlrustgo_optimizer5stats5testsNtB4_11MockStorageNtNtCs9oXD4GUMzTX_17sqlrustgo_storage6engine13StorageEngine13list_triggers
FNDA:0,_RNvXs_NtNtCs3mqqzCYtP3U_19sqlrustgo_optimizer5stats5testsNtB4_11MockStorageNtNtCs9oXD4GUMzTX_17sqlrustgo_storage6engine13StorageEngine14create_trigger
FNDA:2,_RNvXs_NtNtCs3mqqzCYtP3U_19sqlrustgo_optimizer5stats5testsNtB4_11MockStorageNtNtCs9oXD4GUMzTX_17sqlrustgo_storage6engine13StorageEngine14get_table_info
FNDA:0,_RNvXs_NtNtCs3mqqzCYtP3U_19sqlrustgo_optimizer5stats5testsNtB4_11MockStorageNtNtCs9oXD4GUMzTX_17sqlrustgo_storage6engine13StorageEngine16drop_table_index
FNDA:0,_RNvXs_NtNtCs3mqqzCYtP3U_19sqlrustgo_optimizer5stats5testsNtB4_11MockStorageNtNtCs9oXD4GUMzTX_17sqlrustgo_storage6engine13StorageEngine17create_hash_index
FNDA:0,_RNvXs_NtNtCs3mqqzCYtP3U_19sqlrustgo_optimizer5stats5testsNtB4_11MockStorageNtNtCs9oXD4GUMzTX_17sqlrustgo_storage6engine13StorageEngine18create_table_index
FNDA:0,_RNvXs_NtNtCs3mqqzCYtP3U_19sqlrustgo_optimizer5stats5testsNtB4_11MockStorageNtNtCs9oXD4GUMzTX_17sqlrustgo_storage6engine13StorageEngine21range_composite_index
FNDA:0,_RNvXs_NtNtCs3mqqzCYtP3U_19sqlrustgo_optimizer5stats5testsNtB4_11MockStorageNtNtCs9oXD4GUMzTX_17sqlrustgo_storage6engine13StorageEngine22create_composite_index
FNDA:0,_RNvXs_NtNtCs3mqqzCYtP3U_19sqlrustgo_optimizer5stats5testsNtB4_11MockStorageNtNtCs9oXD4GUMzTX_17sqlrustgo_storage6engine13StorageEngine22search_composite_index
FNDA:0,_RNvXs_NtNtCs3mqqzCYtP3U_19sqlrustgo_optimizer5stats5testsNtB4_11MockStorageNtNtCs9oXD4GUMzTX_17sqlrustgo_storage6engine13StorageEngine23get_next_auto_increment
FNDA:0,_RNvXs_NtNtCs3mqqzCYtP3U_19sqlrustgo_optimizer5stats5testsNtB4_11MockStorageNtNtCs9oXD4GUMzTX_17sqlrustgo_storage6engine13StorageEngine26get_auto_increment_counter
FNDA:0,_RNvXs_NtNtCs3mqqzCYtP3U_19sqlrustgo_optimizer5stats5testsNtB4_11MockStorageNtNtCs9oXD4GUMzTX_17sqlrustgo_storage6engine13StorageEngine28get_referencing_foreign_keys
FNDA:8,_RNvXs_NtNtCs3mqqzCYtP3U_19sqlrustgo_optimizer5stats5testsNtB4_11MockStorageNtNtCs9oXD4GUMzTX_17sqlrustgo_storage6engine13StorageEngine4scan
FNDA:0,_RNvXs_NtNtCs3mqqzCYtP3U_19sqlrustgo_optimizer5stats5testsNtB4_11MockStorageNtNtCs9oXD4GUMzTX_17sqlrustgo_storage6engine13StorageEngine6delete
FNDA:0,_RNvXs_NtNtCs3mqqzCYtP3U_19sqlrustgo_optimizer5stats5testsNtB4_11MockStorageNtNtCs9oXD4GUMzTX_17sqlrustgo_storage6engine13StorageEngine6insert
FNDA:0,_RNvXs_NtNtCs3mqqzCYtP3U_19sqlrustgo_optimizer5stats5testsNtB4_11MockStorageNtNtCs9oXD4GUMzTX_17sqlrustgo_storage6engine13StorageEngine6update
FNDA:0,_RNvXs_NtNtCs3mqqzCYtP3U_19sqlrustgo_optimizer5stats5testsNtB4_11MockStorageNtNtCs9oXD4GUMzTX_17sqlrustgo_storage6engine13StorageEngine7get_row
FNDA:0,_RNvXs_NtNtCs3mqqzCYtP3U_19sqlrustgo_optimizer5stats5testsNtB4_11MockStorageNtNtCs9oXD4GUMzTX_17sqlrustgo_storage6engine13StorageEngine8get_view
FNDA:0,_RNvXs_NtNtCs3mqqzCYtP3U_19sqlrustgo_optimizer5stats5testsNtB4_11MockStorageNtNtCs9oXD4GUMzTX_17sqlrustgo_storage6engine13StorageEngine8has_view
FNDA:0,_RNvXs_NtNtCs3mqqzCYtP3U_19sqlrustgo_optimizer5stats5testsNtB4_11MockStorageNtNtCs9oXD4GUMzTX_17sqlrustgo_storage6engine13StorageEngine9has_table
FNDA:2,_RNvMs0_NtCs3mqqzCYtP3U_19sqlrustgo_optimizer5statsNtB5_10TableStats10page_count
FNDA:1,_RNvMs0_NtCs3mqqzCYtP3U_19sqlrustgo_optimizer5statsNtB5_10TableStats12column_stats
FNDA:25,_RNvMs0_NtCs3mqqzCYtP3U_19sqlrustgo_optimizer5statsNtB5_10TableStats14with_row_count
FNDA:7,_RNvMs0_NtCs3mqqzCYtP3U_19sqlrustgo_optimizer5statsNtB5_10TableStats15with_size_bytes
FNDA:7,_RNvMs0_NtCs3mqqzCYtP3U_19sqlrustgo_optimizer5statsNtB5_10TableStats16add_column_stats
FNDA:5,_RNvMs0_NtCs3mqqzCYtP3U_19sqlrustgo_optimizer5statsNtB5_10TableStats17with_column_stats
FNDA:5,_RNvMs0_NtCs3mqqzCYtP3U_19sqlrustgo_optimizer5statsNtB5_10TableStats17with_last_updated
FNDA:4,_RNvMs0_NtCs3mqqzCYtP3U_19sqlrustgo_optimizer5statsNtB5_10TableStats20estimate_selectivity
FNDA:5,_RNvMs0_NtCs3mqqzCYtP3U_19sqlrustgo_optimizer5statsNtB5_10TableStats6column
FNDA:4,_RNvMs0_NtCs3mqqzCYtP3U_19sqlrustgo_optimizer5statsNtB5_10TableStats9row_count
FNDA:1,_RNvMs1_NtCs3mqqzCYtP3U_19sqlrustgo_optimizer5statsNtB5_26InMemoryStatisticsProvider12remove_stats
FNDA:15,_RNvMs1_NtCs3mqqzCYtP3U_19sqlrustgo_optimizer5statsNtB5_26InMemoryStatisticsProvider3new
FNDA:12,_RNvMs1_NtCs3mqqzCYtP3U_19sqlrustgo_optimizer5statsNtB5_26InMemoryStatisticsProvider9add_stats
FNDA:3,_RNvMs1_NtCs3mqqzCYtP3U_19sqlrustgo_optimizer5statsNtB5_26InMemoryStatisticsProvider9has_stats
FNDA:6,_RNvMs3_NtCs3mqqzCYtP3U_19sqlrustgo_optimizer5statsNtB5_21DefaultStatsCollector3new
FNDA:10,_RNvMs_NtCs3mqqzCYtP3U_19sqlrustgo_optimizer5statsNtB4_11ColumnStats10with_range
FNDA:8,_RNvMs_NtCs3mqqzCYtP3U_19sqlrustgo_optimizer5statsNtB4_11ColumnStats12with_average
FNDA:9,_RNvMs_NtCs3mqqzCYtP3U_19sqlrustgo_optimizer5statsNtB4_11ColumnStats14eq_selectivity
FNDA:9,_RNvMs_NtCs3mqqzCYtP3U_19sqlrustgo_optimizer5statsNtB4_11ColumnStats15with_null_count
FNDA:1,_RNvMs_NtCs3mqqzCYtP3U_19sqlrustgo_optimizer5statsNtB4_11ColumnStats17range_selectivity
FNDA:23,_RNvMs_NtCs3mqqzCYtP3U_19sqlrustgo_optimizer5statsNtB4_11ColumnStats19with_distinct_count
FNDA:12,_RNvXs2_NtCs3mqqzCYtP3U_19sqlrustgo_optimizer5statsNtB5_26InMemoryStatisticsProviderNtB5_18StatisticsProvider11table_stats
FNDA:4,_RNvXs2_NtCs3mqqzCYtP3U_19sqlrustgo_optimizer5statsNtB5_26InMemoryStatisticsProviderNtB5_18StatisticsProvider12update_stats
FNDA:1,_RNvXs4_NtCs3mqqzCYtP3U_19sqlrustgo_optimizer5statsNtB5_21DefaultStatsCollectorNtB5_14StatsCollector17collect_row_count
FNDA:3,_RNvXs4_NtCs3mqqzCYtP3U_19sqlrustgo_optimizer5statsNtB5_21DefaultStatsCollectorNtB5_14StatsCollector19collect_table_stats
FNDA:4,_RNvXs4_NtCs3mqqzCYtP3U_19sqlrustgo_optimizer5statsNtB5_21DefaultStatsCollectorNtB5_14StatsCollector20collect_column_stats
FNDA:35,_RINvMs0_NtCs3mqqzCYtP3U_19sqlrustgo_optimizer5statsNtB6_10TableStats3newReEB8_
FNDA:2,_RINvMs_NtCs3mqqzCYtP3U_19sqlrustgo_optimizer5statsNtB5_11ColumnStats3newNtNtCsj0gLuUEfogP_5alloc6string6StringEB7_
FNDA:27,_RINvMs_NtCs3mqqzCYtP3U_19sqlrustgo_optimizer5statsNtB5_11ColumnStats3newReEB7_
FNDA:3,_RNCNvMs0_NtCs3mqqzCYtP3U_19sqlrustgo_optimizer5statsNtB7_10TableStats20estimate_selectivity0B9_
FNDA:0,_RNCNvXs4_NtCs3mqqzCYtP3U_19sqlrustgo_optimizer5statsNtB7_21DefaultStatsCollectorNtB7_14StatsCollector17collect_row_count0B9_
FNDA:1,_RNCNvXs4_NtCs3mqqzCYtP3U_19sqlrustgo_optimizer5statsNtB7_21DefaultStatsCollectorNtB7_14StatsCollector19collect_table_stats0B9_
FNDA:0,_RNCNvXs4_NtCs3mqqzCYtP3U_19sqlrustgo_optimizer5statsNtB7_21DefaultStatsCollectorNtB7_14StatsCollector20collect_column_stats0B9_
FNDA:0,_RNCNvYNtNtCs3mqqzCYtP3U_19sqlrustgo_optimizer14stats_provider24CachedStatisticsProviderNtNtB8_5stats18StatisticsProvider11selectivity0B8_
FNDA:0,_RNCNvYNtNtCs3mqqzCYtP3U_19sqlrustgo_optimizer14stats_provider25StorageStatisticsProviderNtNtB8_5stats18StatisticsProvider11selectivity0B8_
FNDA:1,_RNCNvYNtNtCs3mqqzCYtP3U_19sqlrustgo_optimizer5stats26InMemoryStatisticsProviderNtB6_18StatisticsProvider11selectivity0B8_
FNDA:1,_RNvYNtNtCs3mqqzCYtP3U_19sqlrustgo_optimizer5stats26InMemoryStatisticsProviderNtB4_18StatisticsProvider11selectivityB6_
FNDA:1,_RNvYNtNtCs3mqqzCYtP3U_19sqlrustgo_optimizer5stats26InMemoryStatisticsProviderNtB4_18StatisticsProvider12column_statsB6_
FNDA:4,_RNvYNtNtCs3mqqzCYtP3U_19sqlrustgo_optimizer5stats26InMemoryStatisticsProviderNtB4_18StatisticsProvider14estimated_rowsB6_
FNDA:0,_RNvYNtNtCs3mqqzCYtP3U_19sqlrustgo_optimizer5stats26InMemoryStatisticsProviderNtB4_18StatisticsProvider9has_statsB6_
FNDA:1,_RNCNvNtNtCs3mqqzCYtP3U_19sqlrustgo_optimizer5stats5testss_21test_stats_result_map0B7_
FNDA:0,_RNCNvNtNtCs3mqqzCYtP3U_19sqlrustgo_optimizer5stats5testss_25test_stats_result_map_err0B7_
FNDA:0,_RNCNvXs_NtNtCs3mqqzCYtP3U_19sqlrustgo_optimizer5stats5testsNtB6_11MockStorageNtNtCs9oXD4GUMzTX_17sqlrustgo_storage6engine13StorageEngine14get_table_info0Ba_
FNDA:0,_RNvYNtNtCs3mqqzCYtP3U_19sqlrustgo_optimizer14stats_provider24CachedStatisticsProviderNtNtB6_5stats18StatisticsProvider11selectivityB6_
FNDA:0,_RNvYNtNtCs3mqqzCYtP3U_19sqlrustgo_optimizer14stats_provider24CachedStatisticsProviderNtNtB6_5stats18StatisticsProvider12column_statsB6_
FNDA:0,_RNvYNtNtCs3mqqzCYtP3U_19sqlrustgo_optimizer14stats_provider24CachedStatisticsProviderNtNtB6_5stats18StatisticsProvider14estimated_rowsB6_
FNDA:0,_RNvYNtNtCs3mqqzCYtP3U_19sqlrustgo_optimizer14stats_provider24CachedStatisticsProviderNtNtB6_5stats18StatisticsProvider9has_statsB6_
FNDA:0,_RNvYNtNtCs3mqqzCYtP3U_19sqlrustgo_optimizer14stats_provider25StorageStatisticsProviderNtNtB6_5stats18StatisticsProvider11selectivityB6_
FNDA:0,_RNvYNtNtCs3mqqzCYtP3U_19sqlrustgo_optimizer14stats_provider25StorageStatisticsProviderNtNtB6_5stats18StatisticsProvider12column_statsB6_
FNDA:0,_RNvYNtNtCs3mqqzCYtP3U_19sqlrustgo_optimizer14stats_provider25StorageStatisticsProviderNtNtB6_5stats18StatisticsProvider14estimated_rowsB6_
FNDA:0,_RNvYNtNtCs3mqqzCYtP3U_19sqlrustgo_optimizer14stats_provider25StorageStatisticsProviderNtNtB6_5stats18StatisticsProvider9has_statsB6_
FNDA:0,_RINvMNtCs3mqqzCYtP3U_19sqlrustgo_optimizer5statsNtB3_10IndexStats3newppEB5_
FNDA:0,_RINvMNtCs3mqqzCYtP3U_19sqlrustgo_optimizer5statsNtB3_10IndexStats9with_typepEB5_
FNDA:0,_RNvMNtCs3mqqzCYtP3U_19sqlrustgo_optimizer5statsNtB2_10IndexStats16with_cardinality
FNDA:0,_RNvMNtCs3mqqzCYtP3U_19sqlrustgo_optimizer5statsNtB2_10IndexStats16with_selectivity
FNF:126
FNH:89
DA:64,0
DA:65,0
DA:66,0
DA:67,0
DA:68,0
DA:69,0
DA:70,0
DA:71,0
DA:72,0
DA:74,0
DA:75,0
DA:76,0
DA:77,0
DA:79,0
DA:80,0
DA:81,0
DA:82,0
DA:84,0
DA:85,0
DA:86,0
DA:87,0
DA:91,29
DA:92,29
DA:93,29
DA:94,29
DA:95,29
DA:96,29
DA:97,29
DA:98,29
DA:99,29
DA:100,29
DA:102,23
DA:103,23
DA:104,23
DA:105,23
DA:107,9
DA:108,9
DA:109,9
DA:110,9
DA:112,10
DA:113,10
DA:114,10
DA:115,10
DA:116,10
DA:118,8
DA:119,8
DA:120,8
DA:121,8
DA:124,9
DA:125,9
DA:126,1
DA:127,8
DA:128,8
DA:129,9
DA:132,1
DA:135,1
DA:136,1
DA:157,35
DA:158,35
DA:159,35
DA:160,35
DA:161,35
DA:162,35
DA:163,35
DA:164,35
DA:165,35
DA:166,35
DA:168,25
DA:169,25
DA:170,25
DA:171,25
DA:173,7
DA:174,7
DA:175,7
DA:176,7
DA:178,7
DA:179,7
DA:180,7
DA:181,7
DA:183,5
DA:184,5
DA:185,5
DA:186,5
DA:189,5
DA:190,5
DA:191,5
DA:194,4
DA:195,4
DA:196,4
DA:197,4
DA:198,4
DA:199,4
DA:202,4
DA:203,4
DA:204,4
DA:207,2
DA:208,2
DA:209,0
DA:211,2
DA:213,2
DA:216,1
DA:217,1
DA:218,1
DA:221,5
DA:222,5
DA:223,5
DA:224,5
DA:246,4
DA:247,4
DA:248,4
DA:251,1
DA:252,1
DA:253,1
DA:254,1
DA:255,1
DA:258,1
DA:259,1
DA:260,1
DA:263,0
DA:264,0
DA:265,0
DA:275,15
DA:276,15
DA:277,15
DA:278,15
DA:279,15
DA:281,12
DA:282,12
DA:283,12
DA:284,12
DA:286,1
DA:287,1
DA:288,1
DA:290,3
DA:291,3
DA:292,3
DA:296,12
DA:297,12
DA:298,12
DA:300,4
DA:301,4
DA:302,1
DA:303,3
DA:305,3
DA:306,4
DA:347,6
DA:348,6
DA:349,6
DA:353,3
DA:354,3
DA:355,3
DA:356,3
DA:357,3
DA:358,3
DA:359,3
DA:360,3
DA:361,2
DA:363,2
DA:365,2
DA:366,3
DA:367,3
DA:368,3
DA:370,0
DA:372,2
DA:373,2
DA:374,2
DA:375,2
DA:376,2
DA:377,2
DA:378,2
DA:379,2
DA:380,2
DA:381,3
DA:383,1
DA:384,1
DA:385,1
DA:386,1
DA:387,1
DA:388,1
DA:390,4
DA:391,4
DA:392,4
DA:393,4
DA:394,4
DA:395,4
DA:396,4
DA:397,4
DA:398,4
DA:399,4
DA:401,4
DA:402,4
DA:403,4
DA:404,4
DA:405,4
DA:406,4
DA:407,4
DA:409,12
DA:410,12
DA:412,12
DA:413,0
DA:414,0
DA:415,12
DA:418,12
DA:421,12
DA:422,9
DA:423,9
DA:424,9
DA:425,9
DA:426,6
DA:427,3
DA:428,6
DA:429,0
DA:431,6
DA:433,6
DA:434,3
DA:435,6
DA:436,6
DA:438,0
DA:441,0
DA:442,0
DA:443,0
DA:444,0
DA:445,0
DA:446,0
DA:447,0
DA:449,0
DA:451,0
DA:452,0
DA:453,0
DA:454,0
DA:456,0
DA:461,2
DA:462,1
DA:464,2
DA:465,0
DA:466,2
DA:468,0
DA:470,2
DA:471,1
DA:473,2
DA:474,2
DA:475,2
DA:477,0
DA:480,0
DA:482,0
DA:485,4
DA:486,3
DA:488,1
DA:491,4
DA:492,4
DA:493,4
DA:494,4
DA:495,4
DA:496,4
DA:504,1
DA:505,1
DA:506,1
DA:507,1
DA:508,1
DA:509,1
DA:511,1
DA:512,1
DA:513,1
DA:514,1
DA:515,1
DA:518,1
DA:519,1
DA:520,1
DA:521,1
DA:522,1
DA:525,1
DA:526,1
DA:527,1
DA:528,1
DA:530,1
DA:531,1
DA:532,1
DA:533,1
DA:534,1
DA:536,1
DA:537,1
DA:538,1
DA:539,1
DA:542,1
DA:543,1
DA:544,1
DA:545,1
DA:546,1
DA:548,1
DA:549,1
DA:550,1
DA:553,1
DA:554,1
DA:556,1
DA:557,1
DA:558,1
DA:560,1
DA:562,1
DA:563,1
DA:564,1
DA:565,1
DA:568,1
DA:569,1
DA:570,1
DA:572,1
DA:573,1
DA:574,1
DA:577,1
DA:578,1
DA:579,1
DA:580,1
DA:581,1
DA:584,1
DA:585,1
DA:586,1
DA:591,1
DA:592,1
DA:593,1
DA:594,1
DA:595,1
DA:596,1
DA:599,1
DA:600,1
DA:601,1
DA:603,1
DA:604,1
DA:605,1
DA:608,1
DA:609,1
DA:610,1
DA:611,1
DA:612,1
DA:615,1
DA:616,1
DA:617,1
DA:618,1
DA:619,1
DA:620,1
DA:623,1
DA:624,1
DA:625,1
DA:626,1
DA:629,1
DA:630,1
DA:631,1
DA:633,1
DA:634,1
DA:635,1
DA:638,1
DA:639,1
DA:642,1
DA:643,1
DA:646,1
DA:647,1
DA:648,1
DA:649,1
DA:652,1
DA:653,1
DA:654,1
DA:655,1
DA:656,1
DA:659,1
DA:660,1
DA:661,1
DA:662,1
DA:663,1
DA:664,1
DA:667,1
DA:668,1
DA:669,1
DA:670,1
DA:673,1
DA:674,1
DA:675,1
DA:676,1
DA:679,1
DA:680,1
DA:681,1
DA:682,1
DA:685,1
DA:686,1
DA:687,1
DA:688,1
DA:691,1
DA:692,1
DA:693,1
DA:694,1
DA:695,1
DA:698,1
DA:699,1
DA:700,1
DA:701,1
DA:702,1
DA:705,1
DA:706,1
DA:707,1
DA:708,1
DA:711,1
DA:712,1
DA:713,1
DA:714,1
DA:715,1
DA:717,1
DA:718,1
DA:719,1
DA:722,1
DA:723,1
DA:724,1
DA:725,1
DA:726,1
DA:729,1
DA:730,1
DA:731,1
DA:732,1
DA:733,1
DA:736,1
DA:737,1
DA:738,1
DA:741,1
DA:742,1
DA:743,1
DA:745,1
DA:746,1
DA:747,1
DA:750,1
DA:751,1
DA:752,1
DA:754,1
DA:755,1
DA:756,1
DA:759,1
DA:760,1
DA:761,1
DA:762,1
DA:763,1
DA:766,1
DA:767,1
DA:768,1
DA:769,1
DA:772,1
DA:773,1
DA:774,1
DA:776,1
DA:777,1
DA:778,1
DA:781,1
DA:782,1
DA:783,1
DA:784,1
DA:785,1
DA:788,1
DA:789,1
DA:790,1
DA:792,1
DA:793,1
DA:794,1
DA:797,1
DA:798,1
DA:799,1
DA:800,1
DA:801,1
DA:804,1
DA:805,1
DA:806,1
DA:807,1
DA:808,1
DA:811,1
DA:812,1
DA:813,1
DA:815,1
DA:816,1
DA:817,1
DA:820,1
DA:821,1
DA:822,1
DA:823,1
DA:826,1
DA:827,1
DA:828,1
DA:829,1
DA:830,1
DA:833,1
DA:834,1
DA:835,1
DA:836,1
DA:837,1
DA:840,1
DA:841,1
DA:842,1
DA:843,1
DA:846,1
DA:847,1
DA:848,1
DA:849,1
DA:850,1
DA:853,1
DA:854,1
DA:855,1
DA:856,1
DA:859,1
DA:860,1
DA:861,1
DA:862,1
DA:863,1
DA:866,1
DA:867,1
DA:868,1
DA:869,1
DA:870,1
DA:873,1
DA:874,1
DA:875,1
DA:876,1
DA:877,1
DA:890,5
DA:891,5
DA:892,5
DA:893,5
DA:894,5
DA:895,5
DA:896,5
DA:898,4
DA:899,4
DA:900,4
DA:901,4
DA:902,4
DA:903,4
DA:904,4
DA:905,4
DA:906,4
DA:907,4
DA:908,4
DA:909,4
DA:910,4
DA:911,4
DA:912,4
DA:914,1
DA:915,1
DA:916,1
DA:917,1
DA:921,8
DA:922,8
DA:923,1
DA:924,7
DA:925,7
DA:926,8
DA:928,0
DA:929,0
DA:930,0
DA:932,0
DA:933,0
DA:934,0
DA:936,0
DA:937,0
DA:938,0
DA:939,0
DA:940,0
DA:941,0
DA:942,0
DA:943,0
DA:945,0
DA:946,0
DA:947,0
DA:949,0
DA:950,0
DA:951,0
DA:953,2
DA:954,2
DA:955,2
DA:956,2
DA:957,2
DA:958,0
DA:959,0
DA:960,2
DA:962,0
DA:963,0
DA:964,0
DA:966,0
DA:967,0
DA:968,0
DA:970,0
DA:971,0
DA:972,0
DA:973,0
DA:974,0
DA:975,0
DA:976,0
DA:977,0
DA:979,0
DA:980,0
DA:981,0
DA:983,0
DA:984,0
DA:985,0
DA:987,0
DA:988,0
DA:989,0
DA:991,0
DA:992,0
DA:993,0
DA:994,0
DA:995,0
DA:996,0
DA:997,0
DA:998,0
DA:1000,0
DA:1001,0
DA:1002,0
DA:1004,0
DA:1005,0
DA:1006,0
DA:1008,0
DA:1009,0
DA:1010,0
DA:1012,0
DA:1013,0
DA:1014,0
DA:1016,0
DA:1017,0
DA:1018,0
DA:1020,0
DA:1021,0
DA:1022,0
DA:1023,0
DA:1024,0
DA:1025,0
DA:1026,0
DA:1028,0
DA:1029,0
DA:1030,0
DA:1031,0
DA:1032,0
DA:1033,0
DA:1035,0
DA:1036,0
DA:1037,0
DA:1039,0
DA:1040,0
DA:1041,0
DA:1043,0
DA:1044,0
DA:1045,0
DA:1047,0
DA:1048,0
DA:1049,0
DA:1050,0
DA:1051,0
DA:1052,0
DA:1053,0
DA:1055,0
DA:1056,0
DA:1057,0
DA:1059,0
DA:1060,0
DA:1061,0
DA:1062,0
DA:1063,0
DA:1064,0
DA:1065,0
DA:1067,0
DA:1068,0
DA:1069,0
DA:1070,0
DA:1071,0
DA:1072,0
DA:1073,0
DA:1075,0
DA:1076,0
DA:1077,0
DA:1078,0
DA:1079,0
DA:1080,0
DA:1081,0
DA:1082,0
DA:1084,0
DA:1085,0
DA:1086,0
DA:1087,0
DA:1088,0
DA:1089,0
DA:1093,1
DA:1094,1
DA:1095,1
DA:1096,1
DA:1097,1
DA:1099,1
DA:1100,1
DA:1101,1
DA:1102,1
DA:1103,1
DA:1104,1
DA:1105,1
DA:1106,1
DA:1107,1
DA:1108,1
DA:1109,1
DA:1110,1
DA:1111,1
DA:1112,1
DA:1113,1
DA:1114,1
DA:1115,1
DA:1116,1
DA:1117,1
DA:1118,1
DA:1119,1
DA:1121,1
DA:1123,1
DA:1124,1
DA:1126,1
DA:1127,1
DA:1128,1
DA:1129,1
DA:1130,1
DA:1131,1
DA:1134,1
DA:1135,1
DA:1136,1
DA:1137,1
DA:1138,1
DA:1139,1
DA:1140,1
DA:1142,1
DA:1143,1
DA:1144,1
DA:1145,1
DA:1146,1
DA:1147,1
DA:1148,1
DA:1149,1
DA:1150,1
DA:1151,1
DA:1152,1
DA:1154,1
DA:1155,1
DA:1157,1
DA:1158,1
DA:1159,1
DA:1162,1
DA:1163,1
DA:1164,1
DA:1165,1
DA:1166,1
DA:1167,1
DA:1168,1
DA:1170,1
DA:1171,1
DA:1172,1
DA:1173,1
DA:1174,1
DA:1175,1
DA:1176,1
DA:1177,1
DA:1178,1
DA:1179,1
DA:1180,1
DA:1182,1
DA:1183,1
DA:1185,1
DA:1186,1
DA:1187,1
DA:1188,1
DA:1191,1
DA:1192,1
DA:1194,1
DA:1195,1
DA:1197,1
DA:1198,1
DA:1201,1
DA:1202,1
DA:1203,1
DA:1204,1
DA:1205,1
DA:1206,1
DA:1207,1
DA:1208,1
DA:1209,1
DA:1210,1
DA:1211,1
DA:1212,1
DA:1213,1
DA:1214,1
DA:1216,1
DA:1217,1
DA:1218,1
DA:1219,1
BRF:0
BRH:0
LF:793
LH:614
end_of_record
SF:/home/openclaw/dev/yinglichina8848/sqlrustgo/crates/optimizer/src/stats_collector.rs
FN:7,_RINvNtCs3mqqzCYtP3U_19sqlrustgo_optimizer15stats_collector19collect_table_statsNtNtB2_5tests11MockStorageEB4_
FN:13,_RNCINvNtCs3mqqzCYtP3U_19sqlrustgo_optimizer15stats_collector19collect_table_statsNtNtB4_5tests11MockStorageE0B6_
FN:20,_RNCINvNtCs3mqqzCYtP3U_19sqlrustgo_optimizer15stats_collector19collect_table_statsNtNtB4_5tests11MockStorageEs_0B6_
FN:137,_RNCNvNtCs3mqqzCYtP3U_19sqlrustgo_optimizer15stats_collector20estimate_selectivity0B5_
FN:247,_RNvMNtNtCs3mqqzCYtP3U_19sqlrustgo_optimizer15stats_collector5testsNtB2_11MockStorage3new
FN:254,_RNvMNtNtCs3mqqzCYtP3U_19sqlrustgo_optimizer15stats_collector5testsNtB2_11MockStorage9with_data
FN:441,_RNvNtNtCs3mqqzCYtP3U_19sqlrustgo_optimizer15stats_collector5testss_24test_collect_table_stats
FN:480,_RNvNtNtCs3mqqzCYtP3U_19sqlrustgo_optimizer15stats_collector5testss_25test_estimate_selectivity
FN:301,_RNvXs_NtNtCs3mqqzCYtP3U_19sqlrustgo_optimizer15stats_collector5testsNtB4_11MockStorageNtNtCs9oXD4GUMzTX_17sqlrustgo_storage6engine13StorageEngine14get_table_info
FN:272,_RNvXs_NtNtCs3mqqzCYtP3U_19sqlrustgo_optimizer15stats_collector5testsNtB4_11MockStorageNtNtCs9oXD4GUMzTX_17sqlrustgo_storage6engine13StorageEngine4scan
FN:306,_RNCNvXs_NtNtCs3mqqzCYtP3U_19sqlrustgo_optimizer15stats_collector5testsNtB6_11MockStorageNtNtCs9oXD4GUMzTX_17sqlrustgo_storage6engine13StorageEngine14get_table_info0Ba_
FN:172,_RNCNvXs_NtCs3mqqzCYtP3U_19sqlrustgo_optimizer15stats_collectorNtB6_21StorageStatsCollectorNtNtB8_5stats14StatsCollector17collect_row_count0B8_
FN:185,_RNCNvXs_NtCs3mqqzCYtP3U_19sqlrustgo_optimizer15stats_collectorNtB6_21StorageStatsCollectorNtNtB8_5stats14StatsCollector20collect_column_stats0B8_
FN:155,_RNvMNtCs3mqqzCYtP3U_19sqlrustgo_optimizer15stats_collectorNtB2_21StorageStatsCollector3new
FN:169,_RNvXs_NtCs3mqqzCYtP3U_19sqlrustgo_optimizer15stats_collectorNtB4_21StorageStatsCollectorNtNtB6_5stats14StatsCollector17collect_row_count
FN:161,_RNvXs_NtCs3mqqzCYtP3U_19sqlrustgo_optimizer15stats_collectorNtB4_21StorageStatsCollectorNtNtB6_5stats14StatsCollector19collect_table_stats
FN:176,_RNvXs_NtCs3mqqzCYtP3U_19sqlrustgo_optimizer15stats_collectorNtB4_21StorageStatsCollectorNtNtB6_5stats14StatsCollector20collect_column_stats
FN:297,_RNvXs_NtNtCs3mqqzCYtP3U_19sqlrustgo_optimizer15stats_collector5testsNtB4_11MockStorageNtNtCs9oXD4GUMzTX_17sqlrustgo_storage6engine13StorageEngine10drop_table
FN:360,_RNvXs_NtNtCs3mqqzCYtP3U_19sqlrustgo_optimizer15stats_collector5testsNtB4_11MockStorageNtNtCs9oXD4GUMzTX_17sqlrustgo_storage6engine13StorageEngine10list_views
FN:352,_RNvXs_NtNtCs3mqqzCYtP3U_19sqlrustgo_optimizer15stats_collector5testsNtB4_11MockStorageNtNtCs9oXD4GUMzTX_17sqlrustgo_storage6engine13StorageEngine11create_view
FN:387,_RNvXs_NtNtCs3mqqzCYtP3U_19sqlrustgo_optimizer15stats_collector5testsNtB4_11MockStorageNtNtCs9oXD4GUMzTX_17sqlrustgo_storage6engine13StorageEngine11get_trigger
FN:314,_RNvXs_NtNtCs3mqqzCYtP3U_19sqlrustgo_optimizer15stats_collector5testsNtB4_11MockStorageNtNtCs9oXD4GUMzTX_17sqlrustgo_storage6engine13StorageEngine11list_tables
FN:348,_RNvXs_NtNtCs3mqqzCYtP3U_19sqlrustgo_optimizer15stats_collector5testsNtB4_11MockStorageNtNtCs9oXD4GUMzTX_17sqlrustgo_storage6engine13StorageEngine11range_index
FN:293,_RNvXs_NtNtCs3mqqzCYtP3U_19sqlrustgo_optimizer15stats_collector5testsNtB4_11MockStorageNtNtCs9oXD4GUMzTX_17sqlrustgo_storage6engine13StorageEngine12create_table
FN:383,_RNvXs_NtNtCs3mqqzCYtP3U_19sqlrustgo_optimizer15stats_collector5testsNtB4_11MockStorageNtNtCs9oXD4GUMzTX_17sqlrustgo_storage6engine13StorageEngine12drop_trigger
FN:331,_RNvXs_NtNtCs3mqqzCYtP3U_19sqlrustgo_optimizer15stats_collector5testsNtB4_11MockStorageNtNtCs9oXD4GUMzTX_17sqlrustgo_storage6engine13StorageEngine12search_index
FN:368,_RNvXs_NtNtCs3mqqzCYtP3U_19sqlrustgo_optimizer15stats_collector5testsNtB4_11MockStorageNtNtCs9oXD4GUMzTX_17sqlrustgo_storage6engine13StorageEngine13analyze_table
FN:391,_RNvXs_NtNtCs3mqqzCYtP3U_19sqlrustgo_optimizer15stats_collector5testsNtB4_11MockStorageNtNtCs9oXD4GUMzTX_17sqlrustgo_storage6engine13StorageEngine13list_triggers
FN:376,_RNvXs_NtNtCs3mqqzCYtP3U_19sqlrustgo_optimizer15stats_collector5testsNtB4_11MockStorageNtNtCs9oXD4GUMzTX_17sqlrustgo_storage6engine13StorageEngine14create_trigger
FN:327,_RNvXs_NtNtCs3mqqzCYtP3U_19sqlrustgo_optimizer15stats_collector5testsNtB4_11MockStorageNtNtCs9oXD4GUMzTX_17sqlrustgo_storage6engine13StorageEngine16drop_table_index
FN:339,_RNvXs_NtNtCs3mqqzCYtP3U_19sqlrustgo_optimizer15stats_collector5testsNtB4_11MockStorageNtNtCs9oXD4GUMzTX_17sqlrustgo_storage6engine13StorageEngine17create_hash_index
FN:318,_RNvXs_NtNtCs3mqqzCYtP3U_19sqlrustgo_optimizer15stats_collector5testsNtB4_11MockStorageNtNtCs9oXD4GUMzTX_17sqlrustgo_storage6engine13StorageEngine18create_table_index
FN:423,_RNvXs_NtNtCs3mqqzCYtP3U_19sqlrustgo_optimizer15stats_collector5testsNtB4_11MockStorageNtNtCs9oXD4GUMzTX_17sqlrustgo_storage6engine13StorageEngine21range_composite_index
FN:407,_RNvXs_NtNtCs3mqqzCYtP3U_19sqlrustgo_optimizer15stats_collector5testsNtB4_11MockStorageNtNtCs9oXD4GUMzTX_17sqlrustgo_storage6engine13StorageEngine22create_composite_index
FN:415,_RNvXs_NtNtCs3mqqzCYtP3U_19sqlrustgo_optimizer15stats_collector5testsNtB4_11MockStorageNtNtCs9oXD4GUMzTX_17sqlrustgo_storage6engine13StorageEngine22search_composite_index
FN:395,_RNvXs_NtNtCs3mqqzCYtP3U_19sqlrustgo_optimizer15stats_collector5testsNtB4_11MockStorageNtNtCs9oXD4GUMzTX_17sqlrustgo_storage6engine13StorageEngine23get_next_auto_increment
FN:403,_RNvXs_NtNtCs3mqqzCYtP3U_19sqlrustgo_optimizer15stats_collector5testsNtB4_11MockStorageNtNtCs9oXD4GUMzTX_17sqlrustgo_storage6engine13StorageEngine26get_auto_increment_counter
FN:432,_RNvXs_NtNtCs3mqqzCYtP3U_19sqlrustgo_optimizer15stats_collector5testsNtB4_11MockStorageNtNtCs9oXD4GUMzTX_17sqlrustgo_storage6engine13StorageEngine28get_referencing_foreign_keys
FN:280,_RNvXs_NtNtCs3mqqzCYtP3U_19sqlrustgo_optimizer15stats_collector5testsNtB4_11MockStorageNtNtCs9oXD4GUMzTX_17sqlrustgo_storage6engine13StorageEngine6delete
FN:276,_RNvXs_NtNtCs3mqqzCYtP3U_19sqlrustgo_optimizer15stats_collector5testsNtB4_11MockStorageNtNtCs9oXD4GUMzTX_17sqlrustgo_storage6engine13StorageEngine6insert
FN:284,_RNvXs_NtNtCs3mqqzCYtP3U_19sqlrustgo_optimizer15stats_collector5testsNtB4_11MockStorageNtNtCs9oXD4GUMzTX_17sqlrustgo_storage6engine13StorageEngine6update
FN:335,_RNvXs_NtNtCs3mqqzCYtP3U_19sqlrustgo_optimizer15stats_collector5testsNtB4_11MockStorageNtNtCs9oXD4GUMzTX_17sqlrustgo_storage6engine13StorageEngine7get_row
FN:356,_RNvXs_NtNtCs3mqqzCYtP3U_19sqlrustgo_optimizer15stats_collector5testsNtB4_11MockStorageNtNtCs9oXD4GUMzTX_17sqlrustgo_storage6engine13StorageEngine8get_view
FN:364,_RNvXs_NtNtCs3mqqzCYtP3U_19sqlrustgo_optimizer15stats_collector5testsNtB4_11MockStorageNtNtCs9oXD4GUMzTX_17sqlrustgo_storage6engine13StorageEngine8has_view
FN:310,_RNvXs_NtNtCs3mqqzCYtP3U_19sqlrustgo_optimizer15stats_collector5testsNtB4_11MockStorageNtNtCs9oXD4GUMzTX_17sqlrustgo_storage6engine13StorageEngine9has_table
FN:122,_RNvNtCs3mqqzCYtP3U_19sqlrustgo_optimizer15stats_collector20estimate_selectivity
FNDA:1,_RINvNtCs3mqqzCYtP3U_19sqlrustgo_optimizer15stats_collector19collect_table_statsNtNtB2_5tests11MockStorageEB4_
FNDA:0,_RNCINvNtCs3mqqzCYtP3U_19sqlrustgo_optimizer15stats_collector19collect_table_statsNtNtB4_5tests11MockStorageE0B6_
FNDA:0,_RNCINvNtCs3mqqzCYtP3U_19sqlrustgo_optimizer15stats_collector19collect_table_statsNtNtB4_5tests11MockStorageEs_0B6_
FNDA:1,_RNCNvNtCs3mqqzCYtP3U_19sqlrustgo_optimizer15stats_collector20estimate_selectivity0B5_
FNDA:1,_RNvMNtNtCs3mqqzCYtP3U_19sqlrustgo_optimizer15stats_collector5testsNtB2_11MockStorage3new
FNDA:1,_RNvMNtNtCs3mqqzCYtP3U_19sqlrustgo_optimizer15stats_collector5testsNtB2_11MockStorage9with_data
FNDA:1,_RNvNtNtCs3mqqzCYtP3U_19sqlrustgo_optimizer15stats_collector5testss_24test_collect_table_stats
FNDA:1,_RNvNtNtCs3mqqzCYtP3U_19sqlrustgo_optimizer15stats_collector5testss_25test_estimate_selectivity
FNDA:1,_RNvXs_NtNtCs3mqqzCYtP3U_19sqlrustgo_optimizer15stats_collector5testsNtB4_11MockStorageNtNtCs9oXD4GUMzTX_17sqlrustgo_storage6engine13StorageEngine14get_table_info
FNDA:1,_RNvXs_NtNtCs3mqqzCYtP3U_19sqlrustgo_optimizer15stats_collector5testsNtB4_11MockStorageNtNtCs9oXD4GUMzTX_17sqlrustgo_storage6engine13StorageEngine4scan
FNDA:0,_RNCNvXs_NtNtCs3mqqzCYtP3U_19sqlrustgo_optimizer15stats_collector5testsNtB6_11MockStorageNtNtCs9oXD4GUMzTX_17sqlrustgo_storage6engine13StorageEngine14get_table_info0Ba_
FNDA:0,_RNCNvXs_NtCs3mqqzCYtP3U_19sqlrustgo_optimizer15stats_collectorNtB6_21StorageStatsCollectorNtNtB8_5stats14StatsCollector17collect_row_count0B8_
FNDA:0,_RNCNvXs_NtCs3mqqzCYtP3U_19sqlrustgo_optimizer15stats_collectorNtB6_21StorageStatsCollectorNtNtB8_5stats14StatsCollector20collect_column_stats0B8_
FNDA:0,_RNvMNtCs3mqqzCYtP3U_19sqlrustgo_optimizer15stats_collectorNtB2_21StorageStatsCollector3new
FNDA:0,_RNvXs_NtCs3mqqzCYtP3U_19sqlrustgo_optimizer15stats_collectorNtB4_21StorageStatsCollectorNtNtB6_5stats14StatsCollector17collect_row_count
FNDA:0,_RNvXs_NtCs3mqqzCYtP3U_19sqlrustgo_optimizer15stats_collectorNtB4_21StorageStatsCollectorNtNtB6_5stats14StatsCollector19collect_table_stats
FNDA:0,_RNvXs_NtCs3mqqzCYtP3U_19sqlrustgo_optimizer15stats_collectorNtB4_21StorageStatsCollectorNtNtB6_5stats14StatsCollector20collect_column_stats
FNDA:0,_RNvXs_NtNtCs3mqqzCYtP3U_19sqlrustgo_optimizer15stats_collector5testsNtB4_11MockStorageNtNtCs9oXD4GUMzTX_17sqlrustgo_storage6engine13StorageEngine10drop_table
FNDA:0,_RNvXs_NtNtCs3mqqzCYtP3U_19sqlrustgo_optimizer15stats_collector5testsNtB4_11MockStorageNtNtCs9oXD4GUMzTX_17sqlrustgo_storage6engine13StorageEngine10list_views
FNDA:0,_RNvXs_NtNtCs3mqqzCYtP3U_19sqlrustgo_optimizer15stats_collector5testsNtB4_11MockStorageNtNtCs9oXD4GUMzTX_17sqlrustgo_storage6engine13StorageEngine11create_view
FNDA:0,_RNvXs_NtNtCs3mqqzCYtP3U_19sqlrustgo_optimizer15stats_collector5testsNtB4_11MockStorageNtNtCs9oXD4GUMzTX_17sqlrustgo_storage6engine13StorageEngine11get_trigger
FNDA:0,_RNvXs_NtNtCs3mqqzCYtP3U_19sqlrustgo_optimizer15stats_collector5testsNtB4_11MockStorageNtNtCs9oXD4GUMzTX_17sqlrustgo_storage6engine13StorageEngine11list_tables
FNDA:0,_RNvXs_NtNtCs3mqqzCYtP3U_19sqlrustgo_optimizer15stats_collector5testsNtB4_11MockStorageNtNtCs9oXD4GUMzTX_17sqlrustgo_storage6engine13StorageEngine11range_index
FNDA:0,_RNvXs_NtNtCs3mqqzCYtP3U_19sqlrustgo_optimizer15stats_collector5testsNtB4_11MockStorageNtNtCs9oXD4GUMzTX_17sqlrustgo_storage6engine13StorageEngine12create_table
FNDA:0,_RNvXs_NtNtCs3mqqzCYtP3U_19sqlrustgo_optimizer15stats_collector5testsNtB4_11MockStorageNtNtCs9oXD4GUMzTX_17sqlrustgo_storage6engine13StorageEngine12drop_trigger
FNDA:0,_RNvXs_NtNtCs3mqqzCYtP3U_19sqlrustgo_optimizer15stats_collector5testsNtB4_11MockStorageNtNtCs9oXD4GUMzTX_17sqlrustgo_storage6engine13StorageEngine12search_index
FNDA:0,_RNvXs_NtNtCs3mqqzCYtP3U_19sqlrustgo_optimizer15stats_collector5testsNtB4_11MockStorageNtNtCs9oXD4GUMzTX_17sqlrustgo_storage6engine13StorageEngine13analyze_table
FNDA:0,_RNvXs_NtNtCs3mqqzCYtP3U_19sqlrustgo_optimizer15stats_collector5testsNtB4_11MockStorageNtNtCs9oXD4GUMzTX_17sqlrustgo_storage6engine13StorageEngine13list_triggers
FNDA:0,_RNvXs_NtNtCs3mqqzCYtP3U_19sqlrustgo_optimizer15stats_collector5testsNtB4_11MockStorageNtNtCs9oXD4GUMzTX_17sqlrustgo_storage6engine13StorageEngine14create_trigger
FNDA:0,_RNvXs_NtNtCs3mqqzCYtP3U_19sqlrustgo_optimizer15stats_collector5testsNtB4_11MockStorageNtNtCs9oXD4GUMzTX_17sqlrustgo_storage6engine13StorageEngine16drop_table_index
FNDA:0,_RNvXs_NtNtCs3mqqzCYtP3U_19sqlrustgo_optimizer15stats_collector5testsNtB4_11MockStorageNtNtCs9oXD4GUMzTX_17sqlrustgo_storage6engine13StorageEngine17create_hash_index
FNDA:0,_RNvXs_NtNtCs3mqqzCYtP3U_19sqlrustgo_optimizer15stats_collector5testsNtB4_11MockStorageNtNtCs9oXD4GUMzTX_17sqlrustgo_storage6engine13StorageEngine18create_table_index
FNDA:0,_RNvXs_NtNtCs3mqqzCYtP3U_19sqlrustgo_optimizer15stats_collector5testsNtB4_11MockStorageNtNtCs9oXD4GUMzTX_17sqlrustgo_storage6engine13StorageEngine21range_composite_index
FNDA:0,_RNvXs_NtNtCs3mqqzCYtP3U_19sqlrustgo_optimizer15stats_collector5testsNtB4_11MockStorageNtNtCs9oXD4GUMzTX_17sqlrustgo_storage6engine13StorageEngine22create_composite_index
FNDA:0,_RNvXs_NtNtCs3mqqzCYtP3U_19sqlrustgo_optimizer15stats_collector5testsNtB4_11MockStorageNtNtCs9oXD4GUMzTX_17sqlrustgo_storage6engine13StorageEngine22search_composite_index
FNDA:0,_RNvXs_NtNtCs3mqqzCYtP3U_19sqlrustgo_optimizer15stats_collector5testsNtB4_11MockStorageNtNtCs9oXD4GUMzTX_17sqlrustgo_storage6engine13StorageEngine23get_next_auto_increment
FNDA:0,_RNvXs_NtNtCs3mqqzCYtP3U_19sqlrustgo_optimizer15stats_collector5testsNtB4_11MockStorageNtNtCs9oXD4GUMzTX_17sqlrustgo_storage6engine13StorageEngine26get_auto_increment_counter
FNDA:0,_RNvXs_NtNtCs3mqqzCYtP3U_19sqlrustgo_optimizer15stats_collector5testsNtB4_11MockStorageNtNtCs9oXD4GUMzTX_17sqlrustgo_storage6engine13StorageEngine28get_referencing_foreign_keys
FNDA:0,_RNvXs_NtNtCs3mqqzCYtP3U_19sqlrustgo_optimizer15stats_collector5testsNtB4_11MockStorageNtNtCs9oXD4GUMzTX_17sqlrustgo_storage6engine13StorageEngine6delete
FNDA:0,_RNvXs_NtNtCs3mqqzCYtP3U_19sqlrustgo_optimizer15stats_collector5testsNtB4_11MockStorageNtNtCs9oXD4GUMzTX_17sqlrustgo_storage6engine13StorageEngine6insert
FNDA:0,_RNvXs_NtNtCs3mqqzCYtP3U_19sqlrustgo_optimizer15stats_collector5testsNtB4_11MockStorageNtNtCs9oXD4GUMzTX_17sqlrustgo_storage6engine13StorageEngine6update
FNDA:0,_RNvXs_NtNtCs3mqqzCYtP3U_19sqlrustgo_optimizer15stats_collector5testsNtB4_11MockStorageNtNtCs9oXD4GUMzTX_17sqlrustgo_storage6engine13StorageEngine7get_row
FNDA:0,_RNvXs_NtNtCs3mqqzCYtP3U_19sqlrustgo_optimizer15stats_collector5testsNtB4_11MockStorageNtNtCs9oXD4GUMzTX_17sqlrustgo_storage6engine13StorageEngine8get_view
FNDA:0,_RNvXs_NtNtCs3mqqzCYtP3U_19sqlrustgo_optimizer15stats_collector5testsNtB4_11MockStorageNtNtCs9oXD4GUMzTX_17sqlrustgo_storage6engine13StorageEngine8has_view
FNDA:0,_RNvXs_NtNtCs3mqqzCYtP3U_19sqlrustgo_optimizer15stats_collector5testsNtB4_11MockStorageNtNtCs9oXD4GUMzTX_17sqlrustgo_storage6engine13StorageEngine9has_table
FNDA:1,_RNvNtCs3mqqzCYtP3U_19sqlrustgo_optimizer15stats_collector20estimate_selectivity
FNF:46
FNH:9
DA:7,1
DA:8,1
DA:9,1
DA:10,1
DA:11,1
DA:12,1
DA:13,1
DA:14,1
DA:16,1
DA:18,1
DA:19,1
DA:20,1
DA:21,1
DA:23,2
DA:24,2
DA:25,2
DA:27,2
DA:28,2
DA:29,2
DA:30,2
DA:31,2
DA:32,2
DA:34,6
DA:35,6
DA:36,6
DA:37,0
DA:39,6
DA:40,6
DA:41,3
DA:42,3
DA:43,3
DA:44,3
DA:45,2
DA:46,2
DA:47,0
DA:49,1
DA:50,2
DA:52,2
DA:53,2
DA:54,2
DA:56,1
DA:57,0
DA:60,0
DA:61,0
DA:62,0
DA:63,0
DA:64,0
DA:65,0
DA:66,0
DA:68,0
DA:69,0
DA:71,0
DA:72,0
DA:73,0
DA:75,0
DA:76,0
DA:80,3
DA:81,1
DA:82,2
DA:83,3
DA:84,1
DA:85,2
DA:87,0
DA:91,0
DA:94,2
DA:95,1
DA:97,1
DA:100,2
DA:101,2
DA:102,2
DA:103,2
DA:104,2
DA:106,2
DA:109,1
DA:110,1
DA:111,1
DA:112,1
DA:113,1
DA:114,1
DA:115,1
DA:117,1
DA:119,1
DA:120,1
DA:122,1
DA:123,1
DA:124,1
DA:125,1
DA:128,1
DA:130,1
DA:131,1
DA:132,0
DA:133,1
DA:134,1
DA:135,1
DA:136,1
DA:137,1
DA:138,1
DA:139,1
DA:140,1
DA:143,0
DA:145,0
DA:146,0
DA:147,0
DA:149,1
DA:155,0
DA:156,0
DA:157,0
DA:161,0
DA:162,0
DA:163,0
DA:164,0
DA:165,0
DA:166,0
DA:167,0
DA:169,0
DA:170,0
DA:171,0
DA:172,0
DA:173,0
DA:174,0
DA:176,0
DA:177,0
DA:178,0
DA:179,0
DA:180,0
DA:181,0
DA:182,0
DA:183,0
DA:184,0
DA:185,0
DA:187,0
DA:188,0
DA:189,0
DA:190,0
DA:191,0
DA:192,0
DA:194,0
DA:195,0
DA:196,0
DA:197,0
DA:199,0
DA:200,0
DA:201,0
DA:202,0
DA:203,0
DA:205,0
DA:206,0
DA:207,0
DA:208,0
DA:209,0
DA:210,0
DA:211,0
DA:212,0
DA:213,0
DA:216,0
DA:219,0
DA:220,0
DA:222,0
DA:225,0
DA:226,0
DA:227,0
DA:228,0
DA:229,0
DA:230,0
DA:247,1
DA:248,1
DA:249,1
DA:250,1
DA:251,1
DA:252,1
DA:254,1
DA:255,1
DA:256,1
DA:257,1
DA:258,1
DA:259,1
DA:260,1
DA:261,1
DA:262,1
DA:263,1
DA:264,1
DA:265,1
DA:266,1
DA:267,1
DA:268,1
DA:272,1
DA:273,1
DA:274,1
DA:276,0
DA:277,0
DA:278,0
DA:280,0
DA:281,0
DA:282,0
DA:284,0
DA:285,0
DA:286,0
DA:287,0
DA:288,0
DA:289,0
DA:290,0
DA:291,0
DA:293,0
DA:294,0
DA:295,0
DA:297,0
DA:298,0
DA:299,0
DA:301,1
DA:302,1
DA:303,1
DA:304,1
DA:305,1
DA:306,0
DA:307,0
DA:308,1
DA:310,0
DA:311,0
DA:312,0
DA:314,0
DA:315,0
DA:316,0
DA:318,0
DA:319,0
DA:320,0
DA:321,0
DA:322,0
DA:323,0
DA:324,0
DA:325,0
DA:327,0
DA:328,0
DA:329,0
DA:331,0
DA:332,0
DA:333,0
DA:335,0
DA:336,0
DA:337,0
DA:339,0
DA:340,0
DA:341,0
DA:342,0
DA:343,0
DA:344,0
DA:345,0
DA:346,0
DA:348,0
DA:349,0
DA:350,0
DA:352,0
DA:353,0
DA:354,0
DA:356,0
DA:357,0
DA:358,0
DA:360,0
DA:361,0
DA:362,0
DA:364,0
DA:365,0
DA:366,0
DA:368,0
DA:369,0
DA:370,0
DA:371,0
DA:372,0
DA:373,0
DA:374,0
DA:376,0
DA:377,0
DA:378,0
DA:379,0
DA:380,0
DA:381,0
DA:383,0
DA:384,0
DA:385,0
DA:387,0
DA:388,0
DA:389,0
DA:391,0
DA:392,0
DA:393,0
DA:395,0
DA:396,0
DA:397,0
DA:398,0
DA:399,0
DA:400,0
DA:401,0
DA:403,0
DA:404,0
DA:405,0
DA:407,0
DA:408,0
DA:409,0
DA:410,0
DA:411,0
DA:412,0
DA:413,0
DA:415,0
DA:416,0
DA:417,0
DA:418,0
DA:419,0
DA:420,0
DA:421,0
DA:423,0
DA:424,0
DA:425,0
DA:426,0
DA:427,0
DA:428,0
DA:429,0
DA:430,0
DA:432,0
DA:433,0
DA:434,0
DA:435,0
DA:436,0
DA:437,0
DA:441,1
DA:442,1
DA:443,1
DA:444,1
DA:445,1
DA:447,1
DA:448,1
DA:449,1
DA:450,1
DA:451,1
DA:452,1
DA:453,1
DA:454,1
DA:455,1
DA:456,1
DA:457,1
DA:458,1
DA:459,1
DA:460,1
DA:461,1
DA:462,1
DA:463,1
DA:464,1
DA:465,1
DA:466,1
DA:467,1
DA:469,1
DA:471,1
DA:472,1
DA:473,1
DA:474,1
DA:475,1
DA:476,1
DA:477,1
DA:480,1
DA:481,1
DA:482,1
DA:483,1
DA:484,1
DA:487,1
DA:488,1
DA:489,1
DA:491,1
DA:492,1
DA:493,1
DA:494,1
DA:495,1
DA:496,1
DA:499,1
DA:500,1
BRF:0
BRH:0
LF:377
LH:161
end_of_record
SF:/home/openclaw/dev/yinglichina8848/sqlrustgo/crates/optimizer/src/stats_provider.rs
FN:145,_RNvMs2_NtCs3mqqzCYtP3U_19sqlrustgo_optimizer14stats_providerNtB5_25StorageStatisticsProvider3new
FN:224,_RNvMs6_NtCs3mqqzCYtP3U_19sqlrustgo_optimizer14stats_providerNtB5_25StatisticsProviderBuilder3new
FN:255,_RNvMs6_NtCs3mqqzCYtP3U_19sqlrustgo_optimizer14stats_providerNtB5_25StatisticsProviderBuilder5build
FN:65,_RNvMs_NtCs3mqqzCYtP3U_19sqlrustgo_optimizer14stats_providerNtB4_24CachedStatisticsProvider3new
FN:97,_RNvXs0_NtCs3mqqzCYtP3U_19sqlrustgo_optimizer14stats_providerNtB5_24CachedStatisticsProviderNtNtB7_5stats18StatisticsProvider11table_stats
FN:107,_RNvXs0_NtCs3mqqzCYtP3U_19sqlrustgo_optimizer14stats_providerNtB5_24CachedStatisticsProviderNtNtB7_5stats18StatisticsProvider12update_stats
FN:169,_RNvXs3_NtCs3mqqzCYtP3U_19sqlrustgo_optimizer14stats_providerNtB5_25StorageStatisticsProviderNtNtB7_5stats18StatisticsProvider11table_stats
FN:181,_RNvXs3_NtCs3mqqzCYtP3U_19sqlrustgo_optimizer14stats_providerNtB5_25StorageStatisticsProviderNtNtB7_5stats18StatisticsProvider12update_stats
FN:318,_RNvNtNtCs3mqqzCYtP3U_19sqlrustgo_optimizer14stats_provider5testss_32test_storage_statistics_provider
FN:311,_RNvNtNtCs3mqqzCYtP3U_19sqlrustgo_optimizer14stats_provider5testss_40test_statistics_provider_builder_default
FN:284,_RNvNtNtCs3mqqzCYtP3U_19sqlrustgo_optimizer14stats_provider5testss_41test_cached_statistics_provider_cache_hit
FN:298,_RNvNtNtCs3mqqzCYtP3U_19sqlrustgo_optimizer14stats_provider5testss_42test_cached_statistics_provider_cache_miss
FN:154,_RNvMs2_NtCs3mqqzCYtP3U_19sqlrustgo_optimizer14stats_providerNtB5_25StorageStatisticsProvider14with_namespace
FN:163,_RNvMs2_NtCs3mqqzCYtP3U_19sqlrustgo_optimizer14stats_providerNtB5_25StorageStatisticsProvider9stats_key
FN:239,_RNvMs6_NtCs3mqqzCYtP3U_19sqlrustgo_optimizer14stats_providerNtB5_25StatisticsProviderBuilder10with_cache
FN:233,_RNvMs6_NtCs3mqqzCYtP3U_19sqlrustgo_optimizer14stats_providerNtB5_25StatisticsProviderBuilder12with_storage
FN:245,_RNvMs6_NtCs3mqqzCYtP3U_19sqlrustgo_optimizer14stats_providerNtB5_25StatisticsProviderBuilder16with_persistence
FN:86,_RNvMs_NtCs3mqqzCYtP3U_19sqlrustgo_optimizer14stats_providerNtB4_24CachedStatisticsProvider10cache_size
FN:81,_RNvMs_NtCs3mqqzCYtP3U_19sqlrustgo_optimizer14stats_providerNtB4_24CachedStatisticsProvider11clear_cache
FN:76,_RNvMs_NtCs3mqqzCYtP3U_19sqlrustgo_optimizer14stats_providerNtB4_24CachedStatisticsProvider8from_arc
FN:91,_RNvMs_NtCs3mqqzCYtP3U_19sqlrustgo_optimizer14stats_providerNtB4_24CachedStatisticsProvider9is_cached
FN:56,_RNvXNtCs3mqqzCYtP3U_19sqlrustgo_optimizer14stats_providerNtB2_24CachedStatisticsProviderNtNtCs8nPosuWgJFh_4core3fmt5Debug3fmt
FN:135,_RNvXs1_NtCs3mqqzCYtP3U_19sqlrustgo_optimizer14stats_providerNtB5_25StorageStatisticsProviderNtNtCs8nPosuWgJFh_4core3fmt5Debug3fmt
FN:200,_RNvXs4_NtCs3mqqzCYtP3U_19sqlrustgo_optimizer14stats_providerNtB5_25StorageStatisticsProviderNtB5_28PersistentStatisticsProvider10load_stats
FN:192,_RNvXs4_NtCs3mqqzCYtP3U_19sqlrustgo_optimizer14stats_providerNtB5_25StorageStatisticsProviderNtB5_28PersistentStatisticsProvider10save_stats
FN:213,_RNvXs5_NtCs3mqqzCYtP3U_19sqlrustgo_optimizer14stats_providerNtB5_25StatisticsProviderBuilderNtNtCs8nPosuWgJFh_4core3fmt5Debug3fmt
FN:273,_RNvXs7_NtCs3mqqzCYtP3U_19sqlrustgo_optimizer14stats_providerNtB5_25StatisticsProviderBuilderNtNtCs8nPosuWgJFh_4core7default7Default7default
FNDA:0,_RNvMs2_NtCs3mqqzCYtP3U_19sqlrustgo_optimizer14stats_providerNtB5_25StorageStatisticsProvider3new
FNDA:1,_RNvMs6_NtCs3mqqzCYtP3U_19sqlrustgo_optimizer14stats_providerNtB5_25StatisticsProviderBuilder3new
FNDA:1,_RNvMs6_NtCs3mqqzCYtP3U_19sqlrustgo_optimizer14stats_providerNtB5_25StatisticsProviderBuilder5build
FNDA:3,_RNvMs_NtCs3mqqzCYtP3U_19sqlrustgo_optimizer14stats_providerNtB4_24CachedStatisticsProvider3new
FNDA:2,_RNvXs0_NtCs3mqqzCYtP3U_19sqlrustgo_optimizer14stats_providerNtB5_24CachedStatisticsProviderNtNtB7_5stats18StatisticsProvider11table_stats
FNDA:0,_RNvXs0_NtCs3mqqzCYtP3U_19sqlrustgo_optimizer14stats_providerNtB5_24CachedStatisticsProviderNtNtB7_5stats18StatisticsProvider12update_stats
FNDA:0,_RNvXs3_NtCs3mqqzCYtP3U_19sqlrustgo_optimizer14stats_providerNtB5_25StorageStatisticsProviderNtNtB7_5stats18StatisticsProvider11table_stats
FNDA:0,_RNvXs3_NtCs3mqqzCYtP3U_19sqlrustgo_optimizer14stats_providerNtB5_25StorageStatisticsProviderNtNtB7_5stats18StatisticsProvider12update_stats
FNDA:1,_RNvNtNtCs3mqqzCYtP3U_19sqlrustgo_optimizer14stats_provider5testss_32test_storage_statistics_provider
FNDA:1,_RNvNtNtCs3mqqzCYtP3U_19sqlrustgo_optimizer14stats_provider5testss_40test_statistics_provider_builder_default
FNDA:1,_RNvNtNtCs3mqqzCYtP3U_19sqlrustgo_optimizer14stats_provider5testss_41test_cached_statistics_provider_cache_hit
FNDA:1,_RNvNtNtCs3mqqzCYtP3U_19sqlrustgo_optimizer14stats_provider5testss_42test_cached_statistics_provider_cache_miss
FNDA:0,_RNvMs2_NtCs3mqqzCYtP3U_19sqlrustgo_optimizer14stats_providerNtB5_25StorageStatisticsProvider14with_namespace
FNDA:0,_RNvMs2_NtCs3mqqzCYtP3U_19sqlrustgo_optimizer14stats_providerNtB5_25StorageStatisticsProvider9stats_key
FNDA:0,_RNvMs6_NtCs3mqqzCYtP3U_19sqlrustgo_optimizer14stats_providerNtB5_25StatisticsProviderBuilder10with_cache
FNDA:0,_RNvMs6_NtCs3mqqzCYtP3U_19sqlrustgo_optimizer14stats_providerNtB5_25StatisticsProviderBuilder12with_storage
FNDA:0,_RNvMs6_NtCs3mqqzCYtP3U_19sqlrustgo_optimizer14stats_providerNtB5_25StatisticsProviderBuilder16with_persistence
FNDA:0,_RNvMs_NtCs3mqqzCYtP3U_19sqlrustgo_optimizer14stats_providerNtB4_24CachedStatisticsProvider10cache_size
FNDA:0,_RNvMs_NtCs3mqqzCYtP3U_19sqlrustgo_optimizer14stats_providerNtB4_24CachedStatisticsProvider11clear_cache
FNDA:0,_RNvMs_NtCs3mqqzCYtP3U_19sqlrustgo_optimizer14stats_providerNtB4_24CachedStatisticsProvider8from_arc
FNDA:0,_RNvMs_NtCs3mqqzCYtP3U_19sqlrustgo_optimizer14stats_providerNtB4_24CachedStatisticsProvider9is_cached
FNDA:0,_RNvXNtCs3mqqzCYtP3U_19sqlrustgo_optimizer14stats_providerNtB2_24CachedStatisticsProviderNtNtCs8nPosuWgJFh_4core3fmt5Debug3fmt
FNDA:0,_RNvXs1_NtCs3mqqzCYtP3U_19sqlrustgo_optimizer14stats_providerNtB5_25StorageStatisticsProviderNtNtCs8nPosuWgJFh_4core3fmt5Debug3fmt
FNDA:0,_RNvXs4_NtCs3mqqzCYtP3U_19sqlrustgo_optimizer14stats_providerNtB5_25StorageStatisticsProviderNtB5_28PersistentStatisticsProvider10load_stats
FNDA:0,_RNvXs4_NtCs3mqqzCYtP3U_19sqlrustgo_optimizer14stats_providerNtB5_25StorageStatisticsProviderNtB5_28PersistentStatisticsProvider10save_stats
FNDA:0,_RNvXs5_NtCs3mqqzCYtP3U_19sqlrustgo_optimizer14stats_providerNtB5_25StatisticsProviderBuilderNtNtCs8nPosuWgJFh_4core3fmt5Debug3fmt
FNDA:0,_RNvXs7_NtCs3mqqzCYtP3U_19sqlrustgo_optimizer14stats_providerNtB5_25StatisticsProviderBuilderNtNtCs8nPosuWgJFh_4core7default7Default7default
FNF:27
FNH:8
DA:56,0
DA:57,0
DA:58,0
DA:59,0
DA:60,0
DA:65,3
DA:66,3
DA:67,3
DA:68,3
DA:69,3
DA:70,3
DA:76,0
DA:77,0
DA:81,0
DA:82,0
DA:83,0
DA:86,0
DA:87,0
DA:88,0
DA:91,0
DA:92,0
DA:93,0
DA:97,2
DA:99,2
DA:100,0
DA:101,2
DA:104,2
DA:105,2
DA:107,0
DA:112,0
DA:113,0
DA:135,0
DA:136,0
DA:137,0
DA:138,0
DA:139,0
DA:140,0
DA:145,0
DA:146,0
DA:147,0
DA:148,0
DA:149,0
DA:150,0
DA:151,0
DA:154,0
DA:155,0
DA:156,0
DA:157,0
DA:158,0
DA:159,0
DA:160,0
DA:163,0
DA:164,0
DA:165,0
DA:169,0
DA:171,0
DA:172,0
DA:173,0
DA:178,0
DA:179,0
DA:181,0
DA:185,0
DA:186,0
DA:187,0
DA:188,0
DA:192,0
DA:195,0
DA:196,0
DA:197,0
DA:198,0
DA:200,0
DA:201,0
DA:202,0
DA:213,0
DA:214,0
DA:215,0
DA:216,0
DA:217,0
DA:218,0
DA:219,0
DA:224,1
DA:225,1
DA:226,1
DA:227,1
DA:228,1
DA:229,1
DA:230,1
DA:233,0
DA:234,0
DA:235,0
DA:236,0
DA:239,0
DA:240,0
DA:241,0
DA:242,0
DA:245,0
DA:246,0
DA:247,0
DA:248,0
DA:255,1
DA:257,1
DA:258,0
DA:259,0
DA:260,0
DA:261,1
DA:264,1
DA:265,1
DA:267,0
DA:269,1
DA:273,0
DA:274,0
DA:275,0
DA:284,1
DA:285,1
DA:287,1
DA:289,1
DA:292,1
DA:293,1
DA:294,1
DA:295,1
DA:298,1
DA:299,1
DA:300,1
DA:302,1
DA:305,1
DA:306,1
DA:307,1
DA:308,1
DA:311,1
DA:312,1
DA:313,1
DA:314,1
DA:315,1
DA:318,1
DA:322,1
BRF:0
BRH:0
LF:135
LH:47
end_of_record
SF:/home/openclaw/dev/yinglichina8848/sqlrustgo/crates/optimizer/src/stats_registry.rs
FN:58,_RNvNtNtCs3mqqzCYtP3U_19sqlrustgo_optimizer14stats_registry5testss_24test_stats_registry_sync
FN:23,_RNvMNtCs3mqqzCYtP3U_19sqlrustgo_optimizer14stats_registryNtB2_13StatsRegistry16sync_table_stats
FN:16,_RNvMNtCs3mqqzCYtP3U_19sqlrustgo_optimizer14stats_registryNtB2_13StatsRegistry3new
FN:33,_RNvMNtCs3mqqzCYtP3U_19sqlrustgo_optimizer14stats_registryNtB2_13StatsRegistry9has_stats
FN:39,_RNvXs_NtCs3mqqzCYtP3U_19sqlrustgo_optimizer14stats_registryNtB4_13StatsRegistryNtNtB6_5stats18StatisticsProvider11table_stats
FN:28,_RNvMNtCs3mqqzCYtP3U_19sqlrustgo_optimizer14stats_registryNtB2_13StatsRegistry8provider
FN:47,_RNvXs_NtCs3mqqzCYtP3U_19sqlrustgo_optimizer14stats_registryNtB4_13StatsRegistryNtNtB6_5stats18StatisticsProvider11selectivity
FN:43,_RNvXs_NtCs3mqqzCYtP3U_19sqlrustgo_optimizer14stats_registryNtB4_13StatsRegistryNtNtB6_5stats18StatisticsProvider12update_stats
FNDA:1,_RNvNtNtCs3mqqzCYtP3U_19sqlrustgo_optimizer14stats_registry5testss_24test_stats_registry_sync
FNDA:1,_RNvMNtCs3mqqzCYtP3U_19sqlrustgo_optimizer14stats_registryNtB2_13StatsRegistry16sync_table_stats
FNDA:1,_RNvMNtCs3mqqzCYtP3U_19sqlrustgo_optimizer14stats_registryNtB2_13StatsRegistry3new
FNDA:2,_RNvMNtCs3mqqzCYtP3U_19sqlrustgo_optimizer14stats_registryNtB2_13StatsRegistry9has_stats
FNDA:1,_RNvXs_NtCs3mqqzCYtP3U_19sqlrustgo_optimizer14stats_registryNtB4_13StatsRegistryNtNtB6_5stats18StatisticsProvider11table_stats
FNDA:0,_RNvMNtCs3mqqzCYtP3U_19sqlrustgo_optimizer14stats_registryNtB2_13StatsRegistry8provider
FNDA:0,_RNvXs_NtCs3mqqzCYtP3U_19sqlrustgo_optimizer14stats_registryNtB4_13StatsRegistryNtNtB6_5stats18StatisticsProvider11selectivity
FNDA:0,_RNvXs_NtCs3mqqzCYtP3U_19sqlrustgo_optimizer14stats_registryNtB4_13StatsRegistryNtNtB6_5stats18StatisticsProvider12update_stats
FNF:8
FNH:5
DA:16,1
DA:17,1
DA:18,1
DA:23,1
DA:24,1
DA:25,1
DA:28,0
DA:29,0
DA:30,0
DA:33,2
DA:34,2
DA:35,2
DA:39,1
DA:40,1
DA:41,1
DA:43,0
DA:44,0
DA:45,0
DA:47,0
DA:48,0
DA:49,0
DA:58,1
DA:59,1
DA:60,1
DA:61,1
DA:63,1
DA:65,1
DA:67,1
DA:68,1
DA:70,1
DA:71,1
DA:72,1
DA:73,1
BRF:0
BRH:0
LF:33
LH:24
end_of_record
SF:/home/openclaw/dev/yinglichina8848/sqlrustgo/crates/optimizer/src/unified_cost.rs
FN:218,_RNCNvMs_NtCs3mqqzCYtP3U_19sqlrustgo_optimizer12unified_costNtB6_16UnifiedCostModel16select_best_path0B8_
FN:54,_RNvMNtCs3mqqzCYtP3U_19sqlrustgo_optimizer12unified_costNtB2_13ExecutionPath14involves_graph
FN:43,_RNvMNtCs3mqqzCYtP3U_19sqlrustgo_optimizer12unified_costNtB2_13ExecutionPath15involves_vector
FN:32,_RNvMNtCs3mqqzCYtP3U_19sqlrustgo_optimizer12unified_costNtB2_13ExecutionPath9is_hybrid
FN:99,_RNvMs_NtCs3mqqzCYtP3U_19sqlrustgo_optimizer12unified_costNtB4_16UnifiedCostModel13default_model
FN:110,_RNvMs_NtCs3mqqzCYtP3U_19sqlrustgo_optimizer12unified_costNtB4_16UnifiedCostModel13estimate_cost
FN:189,_RNvMs_NtCs3mqqzCYtP3U_19sqlrustgo_optimizer12unified_costNtB4_16UnifiedCostModel16select_best_path
FN:313,_RNvNtNtCs3mqqzCYtP3U_19sqlrustgo_optimizer12unified_cost5testss_21test_select_best_path
FN:329,_RNvNtNtCs3mqqzCYtP3U_19sqlrustgo_optimizer12unified_cost5testss_23test_estimate_join_cost
FN:301,_RNvNtNtCs3mqqzCYtP3U_19sqlrustgo_optimizer12unified_cost5testss_24test_estimate_graph_cost
FN:288,_RNvNtNtCs3mqqzCYtP3U_19sqlrustgo_optimizer12unified_cost5testss_25test_estimate_vector_cost
FN:321,_RNvNtNtCs3mqqzCYtP3U_19sqlrustgo_optimizer12unified_cost5testss_25test_select_best_path_sql
FN:350,_RNvNtNtCs3mqqzCYtP3U_19sqlrustgo_optimizer12unified_cost5testss_25test_sql_vector_join_cost
FN:269,_RNvNtNtCs3mqqzCYtP3U_19sqlrustgo_optimizer12unified_cost5testss_28test_execution_path_involves
FN:260,_RNvNtNtCs3mqqzCYtP3U_19sqlrustgo_optimizer12unified_cost5testss_29test_execution_path_is_hybrid
FN:277,_RNvNtNtCs3mqqzCYtP3U_19sqlrustgo_optimizer12unified_cost5testss_31test_unified_cost_model_default
FN:249,_RNvMs_NtCs3mqqzCYtP3U_19sqlrustgo_optimizer12unified_costNtB4_16UnifiedCostModel11graph_model
FN:244,_RNvMs_NtCs3mqqzCYtP3U_19sqlrustgo_optimizer12unified_costNtB4_16UnifiedCostModel12vector_model
FN:82,_RNvMs_NtCs3mqqzCYtP3U_19sqlrustgo_optimizer12unified_costNtB4_16UnifiedCostModel3new
FN:239,_RNvMs_NtCs3mqqzCYtP3U_19sqlrustgo_optimizer12unified_costNtB4_16UnifiedCostModel9sql_model
FNDA:43,_RNCNvMs_NtCs3mqqzCYtP3U_19sqlrustgo_optimizer12unified_costNtB6_16UnifiedCostModel16select_best_path0B8_
FNDA:5,_RNvMNtCs3mqqzCYtP3U_19sqlrustgo_optimizer12unified_costNtB2_13ExecutionPath14involves_graph
FNDA:5,_RNvMNtCs3mqqzCYtP3U_19sqlrustgo_optimizer12unified_costNtB2_13ExecutionPath15involves_vector
FNDA:6,_RNvMNtCs3mqqzCYtP3U_19sqlrustgo_optimizer12unified_costNtB2_13ExecutionPath9is_hybrid
FNDA:18,_RNvMs_NtCs3mqqzCYtP3U_19sqlrustgo_optimizer12unified_costNtB4_16UnifiedCostModel13default_model
FNDA:21,_RNvMs_NtCs3mqqzCYtP3U_19sqlrustgo_optimizer12unified_costNtB4_16UnifiedCostModel13estimate_cost
FNDA:12,_RNvMs_NtCs3mqqzCYtP3U_19sqlrustgo_optimizer12unified_costNtB4_16UnifiedCostModel16select_best_path
FNDA:1,_RNvNtNtCs3mqqzCYtP3U_19sqlrustgo_optimizer12unified_cost5testss_21test_select_best_path
FNDA:1,_RNvNtNtCs3mqqzCYtP3U_19sqlrustgo_optimizer12unified_cost5testss_23test_estimate_join_cost
FNDA:1,_RNvNtNtCs3mqqzCYtP3U_19sqlrustgo_optimizer12unified_cost5testss_24test_estimate_graph_cost
FNDA:1,_RNvNtNtCs3mqqzCYtP3U_19sqlrustgo_optimizer12unified_cost5testss_25test_estimate_vector_cost
FNDA:1,_RNvNtNtCs3mqqzCYtP3U_19sqlrustgo_optimizer12unified_cost5testss_25test_select_best_path_sql
FNDA:1,_RNvNtNtCs3mqqzCYtP3U_19sqlrustgo_optimizer12unified_cost5testss_25test_sql_vector_join_cost
FNDA:1,_RNvNtNtCs3mqqzCYtP3U_19sqlrustgo_optimizer12unified_cost5testss_28test_execution_path_involves
FNDA:1,_RNvNtNtCs3mqqzCYtP3U_19sqlrustgo_optimizer12unified_cost5testss_29test_execution_path_is_hybrid
FNDA:1,_RNvNtNtCs3mqqzCYtP3U_19sqlrustgo_optimizer12unified_cost5testss_31test_unified_cost_model_default
FNDA:0,_RNvMs_NtCs3mqqzCYtP3U_19sqlrustgo_optimizer12unified_costNtB4_16UnifiedCostModel11graph_model
FNDA:0,_RNvMs_NtCs3mqqzCYtP3U_19sqlrustgo_optimizer12unified_costNtB4_16UnifiedCostModel12vector_model
FNDA:0,_RNvMs_NtCs3mqqzCYtP3U_19sqlrustgo_optimizer12unified_costNtB4_16UnifiedCostModel3new
FNDA:0,_RNvMs_NtCs3mqqzCYtP3U_19sqlrustgo_optimizer12unified_costNtB4_16UnifiedCostModel9sql_model
FNF:20
FNH:16
DA:32,6
DA:33,2
DA:34,6
DA:40,6
DA:43,5
DA:44,0
DA:45,5
DA:51,5
DA:54,5
DA:55,1
DA:56,5
DA:62,5
DA:82,0
DA:83,0
DA:84,0
DA:85,0
DA:86,0
DA:87,0
DA:88,0
DA:89,0
DA:90,0
DA:91,0
DA:92,0
DA:93,0
DA:94,0
DA:95,0
DA:96,0
DA:99,18
DA:100,18
DA:101,18
DA:102,18
DA:103,18
DA:104,18
DA:105,18
DA:106,18
DA:107,18
DA:110,21
DA:111,21
DA:118,8
DA:119,8
DA:120,8
DA:122,0
DA:123,0
DA:124,0
DA:126,0
DA:128,1
DA:129,1
DA:130,1
DA:133,1
DA:134,1
DA:135,1
DA:136,1
DA:137,0
DA:139,1
DA:140,1
DA:143,0
DA:145,0
DA:146,0
DA:147,0
DA:149,0
DA:150,0
DA:151,0
DA:153,0
DA:154,0
DA:158,6
DA:159,6
DA:160,6
DA:163,5
DA:164,5
DA:165,5
DA:169,1
DA:170,1
DA:172,1
DA:174,0
DA:175,0
DA:177,0
DA:179,0
DA:180,0
DA:182,0
DA:184,0
DA:186,21
DA:189,12
DA:190,12
DA:191,12
DA:192,12
DA:193,12
DA:194,12
DA:195,12
DA:196,12
DA:197,12
DA:198,12
DA:199,12
DA:200,12
DA:203,12
DA:204,3
DA:205,9
DA:206,12
DA:207,3
DA:208,9
DA:211,12
DA:212,1
DA:213,11
DA:216,12
DA:217,12
DA:218,43
DA:219,12
DA:221,12
DA:223,0
DA:224,12
DA:227,12
DA:228,31
DA:229,31
DA:230,5
DA:231,5
DA:232,26
DA:235,12
DA:236,12
DA:239,0
DA:240,0
DA:241,0
DA:244,0
DA:245,0
DA:246,0
DA:249,0
DA:250,0
DA:251,0
DA:260,1
DA:261,1
DA:262,1
DA:263,1
DA:264,1
DA:265,1
DA:266,1
DA:269,1
DA:270,1
DA:271,1
DA:272,1
DA:273,1
DA:274,1
DA:277,1
DA:278,1
DA:279,1
DA:280,1
DA:281,1
DA:282,1
DA:283,1
DA:284,1
DA:285,1
DA:288,1
DA:289,1
DA:290,1
DA:291,1
DA:292,1
DA:293,1
DA:294,1
DA:295,1
DA:296,1
DA:297,1
DA:298,1
DA:301,1
DA:302,1
DA:303,1
DA:304,1
DA:305,1
DA:306,1
DA:307,1
DA:308,1
DA:309,1
DA:310,1
DA:313,1
DA:314,1
DA:315,1
DA:316,1
DA:317,1
DA:318,1
DA:321,1
DA:322,1
DA:323,1
DA:324,1
DA:325,1
DA:326,1
DA:329,1
DA:330,1
DA:331,1
DA:332,1
DA:333,1
DA:334,1
DA:335,1
DA:336,1
DA:337,1
DA:338,1
DA:339,1
DA:340,1
DA:341,1
DA:342,1
DA:343,1
DA:344,1
DA:345,1
DA:346,1
DA:347,1
DA:350,1
DA:351,1
DA:352,1
DA:353,1
DA:354,1
DA:355,1
DA:356,1
DA:357,1
DA:358,1
DA:359,1
DA:360,1
DA:361,1
DA:362,1
DA:363,1
DA:364,1
DA:365,1
DA:366,1
DA:367,1
DA:368,1
DA:369,1
BRF:0
BRH:0
LF:221
LH:174
end_of_record
SF:/home/openclaw/dev/yinglichina8848/sqlrustgo/crates/optimizer/src/unified_plan.rs
FN:184,_RNvMNtCs3mqqzCYtP3U_19sqlrustgo_optimizer12unified_planNtB2_11UnifiedPlan11is_graph_op
FN:195,_RNvMNtCs3mqqzCYtP3U_19sqlrustgo_optimizer12unified_planNtB2_11UnifiedPlan11is_sql_only
FN:173,_RNvMNtCs3mqqzCYtP3U_19sqlrustgo_optimizer12unified_planNtB2_11UnifiedPlan12is_vector_op
FN:200,_RNvMNtCs3mqqzCYtP3U_19sqlrustgo_optimizer12unified_planNtB2_11UnifiedPlan20estimate_cardinality
FN:151,_RNvMNtCs3mqqzCYtP3U_19sqlrustgo_optimizer12unified_planNtB2_11UnifiedPlan9type_name
FN:248,_RNvXs_NtCs3mqqzCYtP3U_19sqlrustgo_optimizer12unified_planNtB4_11UnifiedPlanNtNtB6_4plan5AsAny10as_any_mut
FN:244,_RNvXs_NtCs3mqqzCYtP3U_19sqlrustgo_optimizer12unified_planNtB4_11UnifiedPlanNtNtB6_4plan5AsAny6as_any
FN:285,_RNvNtNtCs3mqqzCYtP3U_19sqlrustgo_optimizer12unified_plan5testss_16test_is_graph_op
FN:297,_RNvNtNtCs3mqqzCYtP3U_19sqlrustgo_optimizer12unified_plan5testss_16test_is_sql_only
FN:272,_RNvNtNtCs3mqqzCYtP3U_19sqlrustgo_optimizer12unified_plan5testss_17test_is_vector_op
FN:323,_RNvNtNtCs3mqqzCYtP3U_19sqlrustgo_optimizer12unified_plan5testss_18test_knn_scan_type
FN:349,_RNvNtNtCs3mqqzCYtP3U_19sqlrustgo_optimizer12unified_plan5testss_20test_sql_vector_join
FN:336,_RNvNtNtCs3mqqzCYtP3U_19sqlrustgo_optimizer12unified_plan5testss_23test_hybrid_vector_scan
FN:308,_RNvNtNtCs3mqqzCYtP3U_19sqlrustgo_optimizer12unified_plan5testss_25test_estimate_cardinality
FN:329,_RNvNtNtCs3mqqzCYtP3U_19sqlrustgo_optimizer12unified_plan5testss_26test_graph_pattern_default
FN:258,_RNvNtNtCs3mqqzCYtP3U_19sqlrustgo_optimizer12unified_plan5testss_27test_unified_plan_type_name
FNDA:45,_RNvMNtCs3mqqzCYtP3U_19sqlrustgo_optimizer12unified_planNtB2_11UnifiedPlan11is_graph_op
FNDA:9,_RNvMNtCs3mqqzCYtP3U_19sqlrustgo_optimizer12unified_planNtB2_11UnifiedPlan11is_sql_only
FNDA:56,_RNvMNtCs3mqqzCYtP3U_19sqlrustgo_optimizer12unified_planNtB2_11UnifiedPlan12is_vector_op
FNDA:15,_RNvMNtCs3mqqzCYtP3U_19sqlrustgo_optimizer12unified_planNtB2_11UnifiedPlan20estimate_cardinality
FNDA:3,_RNvMNtCs3mqqzCYtP3U_19sqlrustgo_optimizer12unified_planNtB2_11UnifiedPlan9type_name
FNDA:0,_RNvXs_NtCs3mqqzCYtP3U_19sqlrustgo_optimizer12unified_planNtB4_11UnifiedPlanNtNtB6_4plan5AsAny10as_any_mut
FNDA:0,_RNvXs_NtCs3mqqzCYtP3U_19sqlrustgo_optimizer12unified_planNtB4_11UnifiedPlanNtNtB6_4plan5AsAny6as_any
FNDA:1,_RNvNtNtCs3mqqzCYtP3U_19sqlrustgo_optimizer12unified_plan5testss_16test_is_graph_op
FNDA:1,_RNvNtNtCs3mqqzCYtP3U_19sqlrustgo_optimizer12unified_plan5testss_16test_is_sql_only
FNDA:1,_RNvNtNtCs3mqqzCYtP3U_19sqlrustgo_optimizer12unified_plan5testss_17test_is_vector_op
FNDA:1,_RNvNtNtCs3mqqzCYtP3U_19sqlrustgo_optimizer12unified_plan5testss_18test_knn_scan_type
FNDA:1,_RNvNtNtCs3mqqzCYtP3U_19sqlrustgo_optimizer12unified_plan5testss_20test_sql_vector_join
FNDA:1,_RNvNtNtCs3mqqzCYtP3U_19sqlrustgo_optimizer12unified_plan5testss_23test_hybrid_vector_scan
FNDA:1,_RNvNtNtCs3mqqzCYtP3U_19sqlrustgo_optimizer12unified_plan5testss_25test_estimate_cardinality
FNDA:1,_RNvNtNtCs3mqqzCYtP3U_19sqlrustgo_optimizer12unified_plan5testss_26test_graph_pattern_default
FNDA:1,_RNvNtNtCs3mqqzCYtP3U_19sqlrustgo_optimizer12unified_plan5testss_27test_unified_plan_type_name
FNF:16
FNH:14
DA:151,3
DA:152,3
DA:153,1
DA:154,0
DA:155,0
DA:156,0
DA:157,0
DA:158,0
DA:159,0
DA:160,0
DA:161,1
DA:162,0
DA:163,0
DA:164,0
DA:165,0
DA:166,0
DA:167,0
DA:168,1
DA:170,3
DA:173,56
DA:174,40
DA:175,56
DA:181,56
DA:184,45
DA:185,33
DA:186,45
DA:192,45
DA:195,9
DA:196,9
DA:197,9
DA:200,15
DA:201,15
DA:202,10
DA:203,0
DA:204,0
DA:205,0
DA:206,0
DA:207,0
DA:209,0
DA:210,0
DA:211,1
DA:212,1
DA:214,2
DA:215,0
DA:216,2
DA:217,2
DA:218,0
DA:219,0
DA:220,0
DA:222,0
DA:224,0
DA:225,0
DA:227,0
DA:229,0
DA:230,0
DA:232,0
DA:234,0
DA:235,0
DA:237,0
DA:238,0
DA:240,15
DA:244,0
DA:245,0
DA:246,0
DA:248,0
DA:249,0
DA:250,0
DA:258,1
DA:259,1
DA:260,1
DA:262,1
DA:263,1
DA:264,1
DA:265,1
DA:266,1
DA:267,1
DA:268,1
DA:269,1
DA:272,1
DA:273,1
DA:274,1
DA:275,1
DA:276,1
DA:277,1
DA:278,1
DA:279,1
DA:280,1
DA:281,1
DA:282,1
DA:285,1
DA:286,1
DA:287,1
DA:288,1
DA:289,1
DA:290,1
DA:291,1
DA:292,1
DA:293,1
DA:294,1
DA:297,1
DA:298,1
DA:299,1
DA:300,1
DA:301,1
DA:302,1
DA:303,1
DA:304,1
DA:305,1
DA:308,1
DA:309,1
DA:310,1
DA:311,1
DA:312,1
DA:313,1
DA:315,1
DA:316,1
DA:317,1
DA:318,1
DA:319,1
DA:320,1
DA:323,1
DA:324,1
DA:325,1
DA:326,1
DA:329,1
DA:330,1
DA:331,1
DA:332,1
DA:333,1
DA:336,1
DA:337,1
DA:338,1
DA:339,1
DA:340,1
DA:341,1
DA:342,1
DA:343,1
DA:344,1
DA:345,1
DA:346,1
DA:349,1
DA:350,1
DA:351,1
DA:352,1
DA:353,1
DA:354,1
DA:355,1
DA:356,1
DA:357,1
DA:358,1
DA:359,1
DA:360,1
DA:361,1
DA:362,1
DA:363,1
DA:364,1
DA:365,1
DA:366,1
DA:367,1
BRF:0
BRH:0
LF:159
LH:118
end_of_record
SF:/home/openclaw/dev/yinglichina8848/sqlrustgo/crates/optimizer/src/vector_cost.rs
FN:237,_RNvNtNtCs3mqqzCYtP3U_19sqlrustgo_optimizer11vector_cost5testss_13test_ann_cost
FN:230,_RNvNtNtCs3mqqzCYtP3U_19sqlrustgo_optimizer11vector_cost5testss_13test_knn_cost
FN:251,_RNvNtNtCs3mqqzCYtP3U_19sqlrustgo_optimizer11vector_cost5testss_15test_range_cost
FN:244,_RNvNtNtCs3mqqzCYtP3U_19sqlrustgo_optimizer11vector_cost5testss_20test_similarity_cost
FN:266,_RNvNtNtCs3mqqzCYtP3U_19sqlrustgo_optimizer11vector_cost5testss_23test_estimate_plan_cost
FN:279,_RNvNtNtCs3mqqzCYtP3U_19sqlrustgo_optimizer11vector_cost5testss_30test_vector_index_type_default
FN:220,_RNvNtNtCs3mqqzCYtP3U_19sqlrustgo_optimizer11vector_cost5testss_32test_vector_cost_factors_default
FN:258,_RNvNtNtCs3mqqzCYtP3U_19sqlrustgo_optimizer11vector_cost5testss_33test_vector_scan_cheaper_than_sql
FN:140,_RNvMs0_NtCs3mqqzCYtP3U_19sqlrustgo_optimizer11vector_costNtB5_15VectorCostModel10range_cost
FN:76,_RNvMs0_NtCs3mqqzCYtP3U_19sqlrustgo_optimizer11vector_costNtB5_15VectorCostModel13default_model
FN:118,_RNvMs0_NtCs3mqqzCYtP3U_19sqlrustgo_optimizer11vector_costNtB5_15VectorCostModel15similarity_cost
FN:156,_RNvMs0_NtCs3mqqzCYtP3U_19sqlrustgo_optimizer11vector_costNtB5_15VectorCostModel18estimate_plan_cost
FN:202,_RNvMs0_NtCs3mqqzCYtP3U_19sqlrustgo_optimizer11vector_costNtB5_15VectorCostModel28vector_scan_cheaper_than_sql
FN:102,_RNvMs0_NtCs3mqqzCYtP3U_19sqlrustgo_optimizer11vector_costNtB5_15VectorCostModel8ann_cost
FN:89,_RNvMs0_NtCs3mqqzCYtP3U_19sqlrustgo_optimizer11vector_costNtB5_15VectorCostModel8knn_cost
FN:55,_RNvMs_NtCs3mqqzCYtP3U_19sqlrustgo_optimizer11vector_costNtB4_17VectorCostFactors20get_index_multiplier
FN:37,_RNvXNtCs3mqqzCYtP3U_19sqlrustgo_optimizer11vector_costNtB2_17VectorCostFactorsNtNtCs8nPosuWgJFh_4core7default7Default7default
FN:71,_RNvMs0_NtCs3mqqzCYtP3U_19sqlrustgo_optimizer11vector_costNtB5_15VectorCostModel3new
FNDA:1,_RNvNtNtCs3mqqzCYtP3U_19sqlrustgo_optimizer11vector_cost5testss_13test_ann_cost
FNDA:1,_RNvNtNtCs3mqqzCYtP3U_19sqlrustgo_optimizer11vector_cost5testss_13test_knn_cost
FNDA:1,_RNvNtNtCs3mqqzCYtP3U_19sqlrustgo_optimizer11vector_cost5testss_15test_range_cost
FNDA:1,_RNvNtNtCs3mqqzCYtP3U_19sqlrustgo_optimizer11vector_cost5testss_20test_similarity_cost
FNDA:1,_RNvNtNtCs3mqqzCYtP3U_19sqlrustgo_optimizer11vector_cost5testss_23test_estimate_plan_cost
FNDA:1,_RNvNtNtCs3mqqzCYtP3U_19sqlrustgo_optimizer11vector_cost5testss_30test_vector_index_type_default
FNDA:1,_RNvNtNtCs3mqqzCYtP3U_19sqlrustgo_optimizer11vector_cost5testss_32test_vector_cost_factors_default
FNDA:1,_RNvNtNtCs3mqqzCYtP3U_19sqlrustgo_optimizer11vector_cost5testss_33test_vector_scan_cheaper_than_sql
FNDA:1,_RNvMs0_NtCs3mqqzCYtP3U_19sqlrustgo_optimizer11vector_costNtB5_15VectorCostModel10range_cost
FNDA:24,_RNvMs0_NtCs3mqqzCYtP3U_19sqlrustgo_optimizer11vector_costNtB5_15VectorCostModel13default_model
FNDA:1,_RNvMs0_NtCs3mqqzCYtP3U_19sqlrustgo_optimizer11vector_costNtB5_15VectorCostModel15similarity_cost
FNDA:7,_RNvMs0_NtCs3mqqzCYtP3U_19sqlrustgo_optimizer11vector_costNtB5_15VectorCostModel18estimate_plan_cost
FNDA:1,_RNvMs0_NtCs3mqqzCYtP3U_19sqlrustgo_optimizer11vector_costNtB5_15VectorCostModel28vector_scan_cheaper_than_sql
FNDA:2,_RNvMs0_NtCs3mqqzCYtP3U_19sqlrustgo_optimizer11vector_costNtB5_15VectorCostModel8ann_cost
FNDA:8,_RNvMs0_NtCs3mqqzCYtP3U_19sqlrustgo_optimizer11vector_costNtB5_15VectorCostModel8knn_cost
FNDA:14,_RNvMs_NtCs3mqqzCYtP3U_19sqlrustgo_optimizer11vector_costNtB4_17VectorCostFactors20get_index_multiplier
FNDA:25,_RNvXNtCs3mqqzCYtP3U_19sqlrustgo_optimizer11vector_costNtB2_17VectorCostFactorsNtNtCs8nPosuWgJFh_4core7default7Default7default
FNDA:0,_RNvMs0_NtCs3mqqzCYtP3U_19sqlrustgo_optimizer11vector_costNtB5_15VectorCostModel3new
FNF:18
FNH:17
DA:37,25
DA:38,25
DA:39,25
DA:40,25
DA:41,25
DA:43,25
DA:44,25
DA:45,25
DA:46,25
DA:47,25
DA:48,25
DA:49,25
DA:50,25
DA:55,14
DA:56,14
DA:57,14
DA:58,14
DA:59,14
DA:60,14
DA:71,0
DA:72,0
DA:73,0
DA:76,24
DA:77,24
DA:78,24
DA:79,24
DA:80,24
DA:89,8
DA:90,8
DA:91,8
DA:92,8
DA:93,8
DA:102,2
DA:104,2
DA:105,2
DA:106,2
DA:107,2
DA:108,2
DA:109,2
DA:118,1
DA:119,1
DA:120,1
DA:121,1
DA:122,1
DA:123,1
DA:124,1
DA:126,1
DA:127,1
DA:128,1
DA:129,1
DA:130,1
DA:131,1
DA:140,1
DA:141,1
DA:142,1
DA:143,1
DA:144,1
DA:145,1
DA:146,1
DA:148,1
DA:149,1
DA:150,1
DA:151,1
DA:152,1
DA:153,1
DA:156,7
DA:157,0
DA:159,7
DA:161,7
DA:162,7
DA:163,7
DA:164,7
DA:165,7
DA:168,0
DA:170,0
DA:171,0
DA:173,0
DA:174,0
DA:180,0
DA:181,0
DA:185,0
DA:186,0
DA:187,0
DA:188,0
DA:189,0
DA:190,0
DA:191,0
DA:192,0
DA:194,0
DA:196,0
DA:198,7
DA:202,1
DA:203,1
DA:204,1
DA:205,1
DA:206,1
DA:207,1
DA:208,1
DA:209,1
DA:210,1
DA:211,1
DA:212,1
DA:220,1
DA:221,1
DA:222,1
DA:223,1
DA:224,1
DA:225,1
DA:227,1
DA:230,1
DA:231,1
DA:232,1
DA:233,1
DA:234,1
DA:237,1
DA:238,1
DA:239,1
DA:240,1
DA:241,1
DA:244,1
DA:245,1
DA:246,1
DA:247,1
DA:248,1
DA:251,1
DA:252,1
DA:253,1
DA:254,1
DA:255,1
DA:258,1
DA:259,1
DA:261,1
DA:262,1
DA:263,1
DA:266,1
DA:267,1
DA:268,1
DA:269,1
DA:270,1
DA:271,1
DA:272,1
DA:273,1
DA:274,1
DA:275,1
DA:276,1
DA:279,1
DA:280,1
DA:281,1
DA:282,1
BRF:0
BRH:0
LF:149
LH:128
end_of_record