SF:/home/openclaw/dev/yinglichina8848/sqlrustgo/crates/gmp/src/audit.rs
FN:505,_RNCNvNtCsfzvnB6NqPLR_13sqlrustgo_gmp5audit15get_audit_stats0B5_
FN:507,_RNCNvNtCsfzvnB6NqPLR_13sqlrustgo_gmp5audit15get_audit_statss0_0B5_
FN:516,_RNCNvNtCsfzvnB6NqPLR_13sqlrustgo_gmp5audit15get_audit_statss1_0B5_
FN:526,_RNCNvNtCsfzvnB6NqPLR_13sqlrustgo_gmp5audit15get_audit_statss2_0B5_
FN:506,_RNCNvNtCsfzvnB6NqPLR_13sqlrustgo_gmp5audit15get_audit_statss_0B5_
FN:417,_RNCNvNtCsfzvnB6NqPLR_13sqlrustgo_gmp5audit16query_audit_logs0B5_
FN:348,_RNCNvNtCsfzvnB6NqPLR_13sqlrustgo_gmp5audit16record_audit_log0B5_
FN:383,_RNCNvNtCsfzvnB6NqPLR_13sqlrustgo_gmp5audit16record_audit_logs0_0B5_
FN:386,_RNCNvNtCsfzvnB6NqPLR_13sqlrustgo_gmp5audit16record_audit_logs1_0B5_
FN:389,_RNCNvNtCsfzvnB6NqPLR_13sqlrustgo_gmp5audit16record_audit_logs2_0B5_
FN:392,_RNCNvNtCsfzvnB6NqPLR_13sqlrustgo_gmp5audit16record_audit_logs3_0B5_
FN:395,_RNCNvNtCsfzvnB6NqPLR_13sqlrustgo_gmp5audit16record_audit_logs4_0B5_
FN:358,_RNCNvNtCsfzvnB6NqPLR_13sqlrustgo_gmp5audit16record_audit_logs_0B5_
FN:469,_RNCNvNtCsfzvnB6NqPLR_13sqlrustgo_gmp5audit19get_audit_log_by_id0B5_
FN:470,_RNCNvNtCsfzvnB6NqPLR_13sqlrustgo_gmp5audit19get_audit_log_by_ids_0B5_
FN:611,_RNvNtNtCsfzvnB6NqPLR_13sqlrustgo_gmp5audit5testss_16test_audit_stats
FN:589,_RNvNtNtCsfzvnB6NqPLR_13sqlrustgo_gmp5audit5testss_23test_audit_log_checksum
FN:555,_RNvNtNtCsfzvnB6NqPLR_13sqlrustgo_gmp5audit5testss_23test_create_audit_table
FN:674,_RNvNtNtCsfzvnB6NqPLR_13sqlrustgo_gmp5audit5testss_24test_audit_log_filtering
FN:545,_RNvNtNtCsfzvnB6NqPLR_13sqlrustgo_gmp5audit5testss_28test_audit_action_conversion
FN:562,_RNvNtNtCsfzvnB6NqPLR_13sqlrustgo_gmp5audit5testss_31test_record_and_query_audit_log
FN:21,_RNvMNtCsfzvnB6NqPLR_13sqlrustgo_gmp5auditNtB2_11AuditAction6as_str
FN:30,_RNvMNtCsfzvnB6NqPLR_13sqlrustgo_gmp5auditNtB2_11AuditAction8from_str
FN:158,_RNvMs_NtCsfzvnB6NqPLR_13sqlrustgo_gmp5auditNtB4_8AuditLog15verify_checksum
FN:58,_RNvMs_NtCsfzvnB6NqPLR_13sqlrustgo_gmp5auditNtB4_8AuditLog8from_row
FN:497,_RNvNtCsfzvnB6NqPLR_13sqlrustgo_gmp5audit15get_audit_stats
FN:177,_RNvNtCsfzvnB6NqPLR_13sqlrustgo_gmp5audit16compute_checksum
FN:405,_RNvNtCsfzvnB6NqPLR_13sqlrustgo_gmp5audit16query_audit_logs
FN:333,_RNvNtCsfzvnB6NqPLR_13sqlrustgo_gmp5audit16record_audit_log
FN:465,_RNvNtCsfzvnB6NqPLR_13sqlrustgo_gmp5audit19get_audit_log_by_id
FN:208,_RNvNtCsfzvnB6NqPLR_13sqlrustgo_gmp5audit22create_audit_log_table
FN:135,_RNCNvMs_NtCsfzvnB6NqPLR_13sqlrustgo_gmp5auditNtB6_8AuditLog6to_row0B8_
FN:143,_RNCNvMs_NtCsfzvnB6NqPLR_13sqlrustgo_gmp5auditNtB6_8AuditLog6to_rows0_0B8_
FN:147,_RNCNvMs_NtCsfzvnB6NqPLR_13sqlrustgo_gmp5auditNtB6_8AuditLog6to_rows1_0B8_
FN:151,_RNCNvMs_NtCsfzvnB6NqPLR_13sqlrustgo_gmp5auditNtB6_8AuditLog6to_rows2_0B8_
FN:139,_RNCNvMs_NtCsfzvnB6NqPLR_13sqlrustgo_gmp5auditNtB6_8AuditLog6to_rows_0B8_
FN:459,_RNCNvNtCsfzvnB6NqPLR_13sqlrustgo_gmp5audit18get_all_audit_logs0B5_
FN:126,_RNvMs_NtCsfzvnB6NqPLR_13sqlrustgo_gmp5auditNtB4_8AuditLog6to_row
FN:455,_RNvNtCsfzvnB6NqPLR_13sqlrustgo_gmp5audit18get_all_audit_logs
FNDA:6,_RNCNvNtCsfzvnB6NqPLR_13sqlrustgo_gmp5audit15get_audit_stats0B5_
FNDA:6,_RNCNvNtCsfzvnB6NqPLR_13sqlrustgo_gmp5audit15get_audit_statss0_0B5_
FNDA:3,_RNCNvNtCsfzvnB6NqPLR_13sqlrustgo_gmp5audit15get_audit_statss1_0B5_
FNDA:2,_RNCNvNtCsfzvnB6NqPLR_13sqlrustgo_gmp5audit15get_audit_statss2_0B5_
FNDA:6,_RNCNvNtCsfzvnB6NqPLR_13sqlrustgo_gmp5audit15get_audit_statss_0B5_
FNDA:26,_RNCNvNtCsfzvnB6NqPLR_13sqlrustgo_gmp5audit16query_audit_logs0B5_
FNDA:20,_RNCNvNtCsfzvnB6NqPLR_13sqlrustgo_gmp5audit16record_audit_log0B5_
FNDA:18,_RNCNvNtCsfzvnB6NqPLR_13sqlrustgo_gmp5audit16record_audit_logs0_0B5_
FNDA:3,_RNCNvNtCsfzvnB6NqPLR_13sqlrustgo_gmp5audit16record_audit_logs1_0B5_
FNDA:10,_RNCNvNtCsfzvnB6NqPLR_13sqlrustgo_gmp5audit16record_audit_logs2_0B5_
FNDA:1,_RNCNvNtCsfzvnB6NqPLR_13sqlrustgo_gmp5audit16record_audit_logs3_0B5_
FNDA:1,_RNCNvNtCsfzvnB6NqPLR_13sqlrustgo_gmp5audit16record_audit_logs4_0B5_
FNDA:18,_RNCNvNtCsfzvnB6NqPLR_13sqlrustgo_gmp5audit16record_audit_logs_0B5_
FNDA:1,_RNCNvNtCsfzvnB6NqPLR_13sqlrustgo_gmp5audit19get_audit_log_by_id0B5_
FNDA:1,_RNCNvNtCsfzvnB6NqPLR_13sqlrustgo_gmp5audit19get_audit_log_by_ids_0B5_
FNDA:1,_RNvNtNtCsfzvnB6NqPLR_13sqlrustgo_gmp5audit5testss_16test_audit_stats
FNDA:1,_RNvNtNtCsfzvnB6NqPLR_13sqlrustgo_gmp5audit5testss_23test_audit_log_checksum
FNDA:1,_RNvNtNtCsfzvnB6NqPLR_13sqlrustgo_gmp5audit5testss_23test_create_audit_table
FNDA:1,_RNvNtNtCsfzvnB6NqPLR_13sqlrustgo_gmp5audit5testss_24test_audit_log_filtering
FNDA:1,_RNvNtNtCsfzvnB6NqPLR_13sqlrustgo_gmp5audit5testss_28test_audit_action_conversion
FNDA:1,_RNvNtNtCsfzvnB6NqPLR_13sqlrustgo_gmp5audit5testss_31test_record_and_query_audit_log
FNDA:1,_RNvMNtCsfzvnB6NqPLR_13sqlrustgo_gmp5auditNtB2_11AuditAction6as_str
FNDA:5,_RNvMNtCsfzvnB6NqPLR_13sqlrustgo_gmp5auditNtB2_11AuditAction8from_str
FNDA:1,_RNvMs_NtCsfzvnB6NqPLR_13sqlrustgo_gmp5auditNtB4_8AuditLog15verify_checksum
FNDA:27,_RNvMs_NtCsfzvnB6NqPLR_13sqlrustgo_gmp5auditNtB4_8AuditLog8from_row
FNDA:2,_RNvNtCsfzvnB6NqPLR_13sqlrustgo_gmp5audit15get_audit_stats
FNDA:19,_RNvNtCsfzvnB6NqPLR_13sqlrustgo_gmp5audit16compute_checksum
FNDA:15,_RNvNtCsfzvnB6NqPLR_13sqlrustgo_gmp5audit16query_audit_logs
FNDA:18,_RNvNtCsfzvnB6NqPLR_13sqlrustgo_gmp5audit16record_audit_log
FNDA:1,_RNvNtCsfzvnB6NqPLR_13sqlrustgo_gmp5audit19get_audit_log_by_id
FNDA:12,_RNvNtCsfzvnB6NqPLR_13sqlrustgo_gmp5audit22create_audit_log_table
FNDA:0,_RNCNvMs_NtCsfzvnB6NqPLR_13sqlrustgo_gmp5auditNtB6_8AuditLog6to_row0B8_
FNDA:0,_RNCNvMs_NtCsfzvnB6NqPLR_13sqlrustgo_gmp5auditNtB6_8AuditLog6to_rows0_0B8_
FNDA:0,_RNCNvMs_NtCsfzvnB6NqPLR_13sqlrustgo_gmp5auditNtB6_8AuditLog6to_rows1_0B8_
FNDA:0,_RNCNvMs_NtCsfzvnB6NqPLR_13sqlrustgo_gmp5auditNtB6_8AuditLog6to_rows2_0B8_
FNDA:0,_RNCNvMs_NtCsfzvnB6NqPLR_13sqlrustgo_gmp5auditNtB6_8AuditLog6to_rows_0B8_
FNDA:0,_RNCNvNtCsfzvnB6NqPLR_13sqlrustgo_gmp5audit18get_all_audit_logs0B5_
FNDA:0,_RNvMs_NtCsfzvnB6NqPLR_13sqlrustgo_gmp5auditNtB4_8AuditLog6to_row
FNDA:0,_RNvNtCsfzvnB6NqPLR_13sqlrustgo_gmp5audit18get_all_audit_logs
FNF:39
FNH:31
DA:21,1
DA:22,1
DA:23,1
DA:24,0
DA:25,0
DA:27,1
DA:30,5
DA:31,5
DA:32,5
DA:33,3
DA:34,2
DA:35,1
DA:37,5
DA:58,27
DA:59,27
DA:60,27
DA:61,0
DA:63,27
DA:64,27
DA:65,0
DA:66,0
DA:68,27
DA:69,27
DA:70,0
DA:72,27
DA:73,27
DA:74,0
DA:76,27
DA:77,27
DA:78,0
DA:80,27
DA:81,27
DA:82,0
DA:83,0
DA:85,27
DA:86,4
DA:87,23
DA:88,0
DA:90,27
DA:91,13
DA:92,14
DA:93,0
DA:95,27
DA:96,1
DA:97,26
DA:98,0
DA:100,27
DA:101,1
DA:102,26
DA:103,0
DA:105,27
DA:106,27
DA:107,0
DA:110,27
DA:111,27
DA:112,27
DA:113,27
DA:114,27
DA:115,27
DA:116,27
DA:117,27
DA:118,27
DA:119,27
DA:120,27
DA:121,27
DA:122,27
DA:123,27
DA:126,0
DA:127,0
DA:128,0
DA:129,0
DA:130,0
DA:131,0
DA:132,0
DA:133,0
DA:134,0
DA:135,0
DA:136,0
DA:137,0
DA:138,0
DA:139,0
DA:140,0
DA:141,0
DA:142,0
DA:143,0
DA:144,0
DA:145,0
DA:146,0
DA:147,0
DA:148,0
DA:149,0
DA:150,0
DA:151,0
DA:152,0
DA:153,0
DA:155,0
DA:158,1
DA:159,1
DA:165,1
DA:166,1
DA:167,1
DA:168,1
DA:169,1
DA:171,1
DA:172,1
DA:173,1
DA:177,19
DA:178,19
DA:179,19
DA:180,19
DA:181,19
DA:208,12
DA:209,12
DA:210,12
DA:211,12
DA:212,12
DA:213,12
DA:214,12
DA:215,12
DA:216,12
DA:217,12
DA:218,12
DA:219,12
DA:220,12
DA:221,12
DA:222,12
DA:223,12
DA:224,12
DA:225,12
DA:226,12
DA:227,12
DA:228,12
DA:229,12
DA:230,12
DA:231,12
DA:232,12
DA:233,12
DA:234,12
DA:235,12
DA:236,12
DA:237,12
DA:238,12
DA:239,12
DA:240,12
DA:241,12
DA:242,12
DA:243,12
DA:244,12
DA:245,12
DA:246,12
DA:247,12
DA:248,12
DA:249,12
DA:250,12
DA:251,12
DA:252,12
DA:253,12
DA:254,12
DA:255,12
DA:256,12
DA:257,12
DA:258,12
DA:259,12
DA:260,12
DA:261,12
DA:262,12
DA:263,12
DA:264,12
DA:265,12
DA:266,12
DA:267,12
DA:268,12
DA:269,12
DA:270,12
DA:271,12
DA:272,12
DA:273,12
DA:274,12
DA:275,12
DA:276,12
DA:277,12
DA:278,12
DA:279,12
DA:280,12
DA:281,12
DA:282,12
DA:283,12
DA:284,12
DA:285,12
DA:286,12
DA:287,12
DA:288,12
DA:289,12
DA:290,12
DA:291,12
DA:292,12
DA:293,12
DA:294,12
DA:295,12
DA:296,12
DA:297,12
DA:298,12
DA:299,12
DA:300,12
DA:301,12
DA:302,12
DA:303,12
DA:304,12
DA:305,12
DA:306,12
DA:307,12
DA:308,12
DA:309,12
DA:310,12
DA:311,12
DA:312,12
DA:313,12
DA:314,12
DA:315,12
DA:316,12
DA:317,12
DA:318,12
DA:319,12
DA:320,12
DA:322,12
DA:323,12
DA:324,12
DA:325,12
DA:326,12
DA:327,0
DA:328,12
DA:329,12
DA:333,18
DA:334,18
DA:335,18
DA:336,18
DA:337,18
DA:338,18
DA:339,18
DA:340,18
DA:341,18
DA:342,18
DA:343,18
DA:345,18
DA:346,18
DA:347,18
DA:348,20
DA:349,20
DA:350,0
DA:351,20
DA:352,18
DA:353,18
DA:356,18
DA:357,18
DA:358,18
DA:359,18
DA:362,18
DA:368,18
DA:369,18
DA:370,18
DA:371,18
DA:372,18
DA:374,18
DA:376,18
DA:377,18
DA:378,18
DA:379,18
DA:380,18
DA:381,18
DA:382,18
DA:383,18
DA:384,18
DA:385,18
DA:386,18
DA:387,18
DA:388,18
DA:389,18
DA:390,18
DA:391,18
DA:392,18
DA:393,18
DA:394,18
DA:395,18
DA:396,18
DA:397,18
DA:400,18
DA:401,18
DA:402,18
DA:405,15
DA:406,15
DA:407,15
DA:408,15
DA:409,15
DA:410,15
DA:411,15
DA:412,15
DA:413,15
DA:415,15
DA:416,15
DA:417,26
DA:418,26
DA:421,26
DA:422,10
DA:423,0
DA:424,10
DA:425,16
DA:426,26
DA:427,11
DA:428,0
DA:429,11
DA:430,15
DA:431,26
DA:432,3
DA:433,1
DA:434,2
DA:435,23
DA:436,25
DA:437,3
DA:438,1
DA:439,2
DA:440,22
DA:441,24
DA:442,3
DA:443,2
DA:444,1
DA:445,21
DA:447,22
DA:448,26
DA:449,15
DA:451,15
DA:452,15
DA:455,0
DA:456,0
DA:457,0
DA:458,0
DA:459,0
DA:460,0
DA:461,0
DA:462,0
DA:465,1
DA:466,1
DA:467,1
DA:468,1
DA:469,1
DA:470,1
DA:471,1
DA:472,1
DA:497,2
DA:498,2
DA:499,2
DA:500,2
DA:501,2
DA:502,2
DA:504,2
DA:505,6
DA:506,6
DA:507,6
DA:510,2
DA:511,6
DA:512,6
DA:513,6
DA:514,2
DA:515,2
DA:516,3
DA:517,2
DA:520,2
DA:521,6
DA:522,6
DA:523,6
DA:524,2
DA:525,2
DA:526,2
DA:527,2
DA:529,2
DA:530,2
DA:531,2
DA:532,2
DA:533,2
DA:534,2
DA:535,2
DA:536,2
DA:537,2
DA:545,1
DA:546,1
DA:547,1
DA:548,1
DA:549,1
DA:550,1
DA:551,1
DA:552,1
DA:555,1
DA:556,1
DA:557,1
DA:558,1
DA:559,1
DA:562,1
DA:563,1
DA:564,1
DA:566,1
DA:567,1
DA:568,1
DA:569,1
DA:570,1
DA:571,1
DA:572,1
DA:573,1
DA:574,1
DA:575,1
DA:577,1
DA:579,1
DA:581,1
DA:582,1
DA:583,1
DA:584,1
DA:585,1
DA:586,1
DA:589,1
DA:590,1
DA:591,1
DA:593,1
DA:594,1
DA:595,1
DA:596,1
DA:597,1
DA:598,1
DA:599,1
DA:600,1
DA:601,1
DA:602,1
DA:604,1
DA:606,1
DA:607,1
DA:608,1
DA:611,1
DA:612,1
DA:613,1
DA:616,1
DA:617,1
DA:618,1
DA:619,1
DA:620,1
DA:621,1
DA:622,1
DA:623,1
DA:624,1
DA:625,1
DA:627,1
DA:628,1
DA:629,1
DA:630,1
DA:631,1
DA:632,1
DA:633,1
DA:634,1
DA:635,1
DA:636,1
DA:637,1
DA:639,1
DA:640,1
DA:641,1
DA:642,1
DA:643,1
DA:644,1
DA:645,1
DA:646,1
DA:647,1
DA:648,1
DA:649,1
DA:651,1
DA:652,1
DA:653,1
DA:654,1
DA:655,1
DA:656,1
DA:657,1
DA:658,1
DA:659,1
DA:660,1
DA:661,1
DA:663,1
DA:665,1
DA:666,1
DA:667,1
DA:668,1
DA:669,1
DA:670,1
DA:671,1
DA:674,1
DA:675,1
DA:676,1
DA:678,1
DA:679,1
DA:680,1
DA:681,1
DA:682,1
DA:683,1
DA:684,1
DA:685,1
DA:686,1
DA:687,1
DA:689,1
DA:690,1
DA:691,1
DA:692,1
DA:693,1
DA:694,1
DA:695,1
DA:696,1
DA:697,1
DA:698,1
DA:699,1
DA:701,1
DA:702,1
DA:703,1
DA:704,1
DA:705,1
DA:706,1
DA:707,1
DA:708,1
DA:709,1
DA:710,1
DA:711,1
DA:713,1
DA:716,1
DA:717,1
DA:720,1
DA:721,1
DA:722,1
DA:725,1
DA:726,1
DA:727,1
DA:728,1
DA:729,1
DA:730,1
DA:731,1
DA:733,1
DA:734,1
DA:735,1
BRF:0
BRH:0
LF:559
LH:497
end_of_record
SF:/home/openclaw/dev/yinglichina8848/sqlrustgo/crates/gmp/src/compliance.rs
FN:356,_RNvNtNtCsfzvnB6NqPLR_13sqlrustgo_gmp10compliance5tests19create_test_storage
FN:446,_RNvNtNtCsfzvnB6NqPLR_13sqlrustgo_gmp10compliance5testss_27test_batch_compliance_check
FN:377,_RNvNtNtCsfzvnB6NqPLR_13sqlrustgo_gmp10compliance5testss_36test_compliance_check_draft_document
FN:405,_RNvNtNtCsfzvnB6NqPLR_13sqlrustgo_gmp10compliance5testss_37test_compliance_check_active_document
FN:365,_RNvNtNtCsfzvnB6NqPLR_13sqlrustgo_gmp10compliance5testss_40test_compliance_check_document_not_found
FN:34,_RNvMNtCsfzvnB6NqPLR_13sqlrustgo_gmp10complianceNtB2_8Severity6as_str
FN:66,_RNvMs_NtCsfzvnB6NqPLR_13sqlrustgo_gmp10complianceNtB4_16ComplianceResult3new
FN:339,_RNvNtCsfzvnB6NqPLR_13sqlrustgo_gmp10compliance17current_timestamp
FN:229,_RNvNtCsfzvnB6NqPLR_13sqlrustgo_gmp10compliance22check_batch_compliance
FN:266,_RNvNtCsfzvnB6NqPLR_13sqlrustgo_gmp10compliance22find_last_modification
FN:106,_RNvNtCsfzvnB6NqPLR_13sqlrustgo_gmp10compliance25check_document_compliance
FN:95,_RNvXs0_NtCsfzvnB6NqPLR_13sqlrustgo_gmp10complianceNtB5_22ComplianceCheckRequestNtNtCs8nPosuWgJFh_4core7default7Default7default
FN:401,_RNCNvNtNtCsfzvnB6NqPLR_13sqlrustgo_gmp10compliance5testss_36test_compliance_check_draft_document0B7_
FN:273,_RNCNCNvNtCsfzvnB6NqPLR_13sqlrustgo_gmp10compliance22find_last_modification00B7_
FN:178,_RNCNCNvNtCsfzvnB6NqPLR_13sqlrustgo_gmp10compliance25check_document_compliances_00B7_
FN:342,_RNCNvNtCsfzvnB6NqPLR_13sqlrustgo_gmp10compliance17current_timestamp0B5_
FN:270,_RNCNvNtCsfzvnB6NqPLR_13sqlrustgo_gmp10compliance22find_last_modification0B5_
FN:124,_RNCNvNtCsfzvnB6NqPLR_13sqlrustgo_gmp10compliance25check_document_compliance0B5_
FN:175,_RNCNvNtCsfzvnB6NqPLR_13sqlrustgo_gmp10compliance25check_document_compliances_0B5_
FN:323,_RNCNvNtCsfzvnB6NqPLR_13sqlrustgo_gmp10compliance22get_compliance_summarys0_0B5_
FN:317,_RNCNvNtCsfzvnB6NqPLR_13sqlrustgo_gmp10compliance22get_compliance_summarys_0B5_
FN:292,_RNvNtCsfzvnB6NqPLR_13sqlrustgo_gmp10compliance22get_compliance_summary
FNDA:4,_RNvNtNtCsfzvnB6NqPLR_13sqlrustgo_gmp10compliance5tests19create_test_storage
FNDA:1,_RNvNtNtCsfzvnB6NqPLR_13sqlrustgo_gmp10compliance5testss_27test_batch_compliance_check
FNDA:1,_RNvNtNtCsfzvnB6NqPLR_13sqlrustgo_gmp10compliance5testss_36test_compliance_check_draft_document
FNDA:1,_RNvNtNtCsfzvnB6NqPLR_13sqlrustgo_gmp10compliance5testss_37test_compliance_check_active_document
FNDA:1,_RNvNtNtCsfzvnB6NqPLR_13sqlrustgo_gmp10compliance5testss_40test_compliance_check_document_not_found
FNDA:4,_RNvMNtCsfzvnB6NqPLR_13sqlrustgo_gmp10complianceNtB2_8Severity6as_str
FNDA:6,_RNvMs_NtCsfzvnB6NqPLR_13sqlrustgo_gmp10complianceNtB4_16ComplianceResult3new
FNDA:14,_RNvNtCsfzvnB6NqPLR_13sqlrustgo_gmp10compliance17current_timestamp
FNDA:1,_RNvNtCsfzvnB6NqPLR_13sqlrustgo_gmp10compliance22check_batch_compliance
FNDA:2,_RNvNtCsfzvnB6NqPLR_13sqlrustgo_gmp10compliance22find_last_modification
FNDA:5,_RNvNtCsfzvnB6NqPLR_13sqlrustgo_gmp10compliance25check_document_compliance
FNDA:4,_RNvXs0_NtCsfzvnB6NqPLR_13sqlrustgo_gmp10complianceNtB5_22ComplianceCheckRequestNtNtCs8nPosuWgJFh_4core7default7Default7default
FNDA:1,_RNCNvNtNtCsfzvnB6NqPLR_13sqlrustgo_gmp10compliance5testss_36test_compliance_check_draft_document0B7_
FNDA:1,_RNCNCNvNtCsfzvnB6NqPLR_13sqlrustgo_gmp10compliance22find_last_modification00B7_
FNDA:1,_RNCNCNvNtCsfzvnB6NqPLR_13sqlrustgo_gmp10compliance25check_document_compliances_00B7_
FNDA:14,_RNCNvNtCsfzvnB6NqPLR_13sqlrustgo_gmp10compliance17current_timestamp0B5_
FNDA:1,_RNCNvNtCsfzvnB6NqPLR_13sqlrustgo_gmp10compliance22find_last_modification0B5_
FNDA:5,_RNCNvNtCsfzvnB6NqPLR_13sqlrustgo_gmp10compliance25check_document_compliance0B5_
FNDA:1,_RNCNvNtCsfzvnB6NqPLR_13sqlrustgo_gmp10compliance25check_document_compliances_0B5_
FNDA:0,_RNCNvNtCsfzvnB6NqPLR_13sqlrustgo_gmp10compliance22get_compliance_summarys0_0B5_
FNDA:0,_RNCNvNtCsfzvnB6NqPLR_13sqlrustgo_gmp10compliance22get_compliance_summarys_0B5_
FNDA:0,_RNvNtCsfzvnB6NqPLR_13sqlrustgo_gmp10compliance22get_compliance_summary
FNF:22
FNH:19
DA:34,4
DA:35,4
DA:36,1
DA:37,1
DA:38,2
DA:39,0
DA:41,4
DA:66,6
DA:67,6
DA:68,6
DA:69,6
DA:70,6
DA:72,0
DA:75,6
DA:76,6
DA:77,6
DA:78,6
DA:79,6
DA:80,6
DA:81,6
DA:82,6
DA:95,4
DA:96,4
DA:97,4
DA:98,4
DA:99,4
DA:100,4
DA:101,4
DA:102,4
DA:106,5
DA:107,5
DA:108,5
DA:109,5
DA:110,5
DA:111,5
DA:112,5
DA:115,5
DA:116,5
DA:117,10
DA:118,5
DA:119,5
DA:120,5
DA:121,5
DA:122,5
DA:123,10
DA:124,10
DA:125,4
DA:126,4
DA:127,6
DA:129,5
DA:132,5
DA:134,4
DA:135,2
DA:136,2
DA:137,2
DA:138,2
DA:139,2
DA:140,2
DA:141,2
DA:142,2
DA:143,2
DA:146,4
DA:147,0
DA:148,0
DA:149,0
DA:150,0
DA:151,0
DA:152,0
DA:153,0
DA:154,0
DA:155,4
DA:158,4
DA:159,0
DA:160,0
DA:161,0
DA:162,0
DA:163,0
DA:164,0
DA:165,0
DA:166,0
DA:167,0
DA:168,0
DA:169,0
DA:170,4
DA:173,4
DA:174,4
DA:175,4
DA:176,1
DA:177,1
DA:178,1
DA:179,1
DA:180,1
DA:182,4
DA:183,1
DA:184,1
DA:185,1
DA:186,1
DA:187,1
DA:188,1
DA:189,1
DA:190,1
DA:191,3
DA:192,0
DA:195,4
DA:196,2
DA:197,1
DA:198,1
DA:199,0
DA:200,0
DA:201,0
DA:202,0
DA:203,0
DA:204,0
DA:205,0
DA:206,0
DA:207,0
DA:208,0
DA:209,0
DA:210,1
DA:211,1
DA:212,2
DA:213,1
DA:214,1
DA:215,1
DA:216,1
DA:217,1
DA:218,1
DA:219,1
DA:220,1
DA:221,1
DA:222,1
DA:223,1
DA:225,5
DA:226,5
DA:229,1
DA:230,1
DA:231,1
DA:232,1
DA:233,1
DA:235,1
DA:238,1
DA:239,0
DA:242,1
DA:243,4
DA:244,1
DA:245,1
DA:246,1
DA:247,1
DA:248,1
DA:249,4
DA:250,4
DA:252,1
DA:255,1
DA:257,2
DA:258,2
DA:259,2
DA:262,1
DA:263,1
DA:266,2
DA:267,2
DA:268,2
DA:269,2
DA:270,2
DA:271,1
DA:272,1
DA:273,1
DA:274,1
DA:275,1
DA:276,2
DA:278,2
DA:279,2
DA:292,0
DA:293,0
DA:294,0
DA:296,0
DA:297,0
DA:298,0
DA:299,0
DA:300,0
DA:301,0
DA:302,0
DA:303,0
DA:304,0
DA:307,0
DA:308,0
DA:309,0
DA:310,0
DA:311,0
DA:312,0
DA:313,0
DA:314,0
DA:316,0
DA:317,0
DA:318,0
DA:319,0
DA:320,0
DA:322,0
DA:323,0
DA:324,0
DA:325,0
DA:326,0
DA:328,0
DA:329,0
DA:330,0
DA:331,0
DA:332,0
DA:333,0
DA:334,0
DA:335,0
DA:336,0
DA:339,14
DA:340,14
DA:341,14
DA:342,14
DA:343,14
DA:344,14
DA:356,4
DA:357,4
DA:358,4
DA:359,4
DA:360,4
DA:361,4
DA:362,4
DA:365,1
DA:366,1
DA:367,1
DA:369,1
DA:371,1
DA:372,1
DA:373,1
DA:374,1
DA:377,1
DA:378,1
DA:379,1
DA:382,1
DA:383,1
DA:384,1
DA:385,1
DA:386,1
DA:387,1
DA:388,1
DA:389,1
DA:390,1
DA:391,1
DA:392,1
DA:394,1
DA:396,1
DA:397,1
DA:399,1
DA:401,1
DA:402,1
DA:405,1
DA:406,1
DA:407,1
DA:410,1
DA:411,1
DA:412,1
DA:413,1
DA:414,1
DA:415,1
DA:416,1
DA:417,1
DA:418,1
DA:419,1
DA:420,1
DA:422,1
DA:425,1
DA:426,1
DA:427,1
DA:428,1
DA:429,1
DA:430,1
DA:431,1
DA:432,1
DA:433,1
DA:434,1
DA:436,1
DA:438,1
DA:439,1
DA:442,1
DA:443,1
DA:446,1
DA:447,1
DA:448,1
DA:451,1
DA:452,1
DA:453,1
DA:454,1
DA:455,1
DA:456,1
DA:457,1
DA:458,1
DA:459,1
DA:460,1
DA:461,1
DA:463,1
DA:465,1
DA:466,1
DA:467,1
DA:468,1
DA:469,1
DA:470,1
DA:471,1
DA:472,1
DA:473,1
DA:474,1
DA:475,1
DA:477,1
DA:479,1
DA:480,1
DA:482,1
DA:484,1
DA:485,1
BRF:0
BRH:0
LF:322
LH:247
end_of_record
SF:/home/openclaw/dev/yinglichina8848/sqlrustgo/crates/gmp/src/document.rs
FN:19,_RNvMNtCsfzvnB6NqPLR_13sqlrustgo_gmp8documentNtB2_9DocStatus6as_str
FN:29,_RNvMNtCsfzvnB6NqPLR_13sqlrustgo_gmp8documentNtB2_9DocStatus8from_str
FN:128,_RNvMs0_NtCsfzvnB6NqPLR_13sqlrustgo_gmp8documentNtB5_15DocumentContent8from_row
FN:165,_RNvMs1_NtCsfzvnB6NqPLR_13sqlrustgo_gmp8documentNtB5_15DocumentKeyword8from_row
FN:105,_RNvMs_NtCsfzvnB6NqPLR_13sqlrustgo_gmp8documentNtB4_8Document6to_row
FN:55,_RNvMs_NtCsfzvnB6NqPLR_13sqlrustgo_gmp8documentNtB4_8Document8from_row
FN:537,_RNvNtCsfzvnB6NqPLR_13sqlrustgo_gmp8document11get_content
FN:520,_RNvNtCsfzvnB6NqPLR_13sqlrustgo_gmp8document12get_keywords
FN:462,_RNvNtCsfzvnB6NqPLR_13sqlrustgo_gmp8document13query_by_type
FN:401,_RNvNtCsfzvnB6NqPLR_13sqlrustgo_gmp8document15insert_document
FN:479,_RNvNtCsfzvnB6NqPLR_13sqlrustgo_gmp8document15query_by_status
FN:222,_RNvNtCsfzvnB6NqPLR_13sqlrustgo_gmp8document17create_gmp_tables
FN:435,_RNvNtCsfzvnB6NqPLR_13sqlrustgo_gmp8document23insert_document_content
FN:451,_RNvNtCsfzvnB6NqPLR_13sqlrustgo_gmp8document23insert_document_keyword
FN:587,_RNvNtNtCsfzvnB6NqPLR_13sqlrustgo_gmp8document5testss_18test_create_tables
FN:559,_RNvNtNtCsfzvnB6NqPLR_13sqlrustgo_gmp8document5testss_26test_doc_status_conversion
FN:567,_RNvNtNtCsfzvnB6NqPLR_13sqlrustgo_gmp8document5testss_27test_document_row_roundtrip
FN:596,_RNvNtNtCsfzvnB6NqPLR_13sqlrustgo_gmp8document5testss_30test_insert_and_query_document
FN:541,_RNCNvNtCsfzvnB6NqPLR_13sqlrustgo_gmp8document11get_content0B5_
FN:524,_RNCNvNtCsfzvnB6NqPLR_13sqlrustgo_gmp8document12get_keywords0B5_
FN:466,_RNCNvNtCsfzvnB6NqPLR_13sqlrustgo_gmp8document13query_by_type0B5_
FN:404,_RNCNvNtCsfzvnB6NqPLR_13sqlrustgo_gmp8document15insert_document0B5_
FN:411,_RNCNvNtCsfzvnB6NqPLR_13sqlrustgo_gmp8document15insert_documents_0B5_
FN:486,_RNCNvNtCsfzvnB6NqPLR_13sqlrustgo_gmp8document15query_by_status0B5_
FN:507,_RNCNvNtCsfzvnB6NqPLR_13sqlrustgo_gmp8document23query_by_effective_date0B5_
FN:148,_RNvMs0_NtCsfzvnB6NqPLR_13sqlrustgo_gmp8documentNtB5_15DocumentContent6to_row
FN:177,_RNvMs1_NtCsfzvnB6NqPLR_13sqlrustgo_gmp8documentNtB5_15DocumentKeyword6to_row
FN:499,_RNvNtCsfzvnB6NqPLR_13sqlrustgo_gmp8document23query_by_effective_date
FNDA:17,_RNvMNtCsfzvnB6NqPLR_13sqlrustgo_gmp8documentNtB2_9DocStatus6as_str
FNDA:24,_RNvMNtCsfzvnB6NqPLR_13sqlrustgo_gmp8documentNtB2_9DocStatus8from_str
FNDA:1,_RNvMs0_NtCsfzvnB6NqPLR_13sqlrustgo_gmp8documentNtB5_15DocumentContent8from_row
FNDA:2,_RNvMs1_NtCsfzvnB6NqPLR_13sqlrustgo_gmp8documentNtB5_15DocumentKeyword8from_row
FNDA:1,_RNvMs_NtCsfzvnB6NqPLR_13sqlrustgo_gmp8documentNtB4_8Document6to_row
FNDA:21,_RNvMs_NtCsfzvnB6NqPLR_13sqlrustgo_gmp8documentNtB4_8Document8from_row
FNDA:1,_RNvNtCsfzvnB6NqPLR_13sqlrustgo_gmp8document11get_content
FNDA:1,_RNvNtCsfzvnB6NqPLR_13sqlrustgo_gmp8document12get_keywords
FNDA:1,_RNvNtCsfzvnB6NqPLR_13sqlrustgo_gmp8document13query_by_type
FNDA:15,_RNvNtCsfzvnB6NqPLR_13sqlrustgo_gmp8document15insert_document
FNDA:14,_RNvNtCsfzvnB6NqPLR_13sqlrustgo_gmp8document15query_by_status
FNDA:11,_RNvNtCsfzvnB6NqPLR_13sqlrustgo_gmp8document17create_gmp_tables
FNDA:7,_RNvNtCsfzvnB6NqPLR_13sqlrustgo_gmp8document23insert_document_content
FNDA:15,_RNvNtCsfzvnB6NqPLR_13sqlrustgo_gmp8document23insert_document_keyword
FNDA:1,_RNvNtNtCsfzvnB6NqPLR_13sqlrustgo_gmp8document5testss_18test_create_tables
FNDA:1,_RNvNtNtCsfzvnB6NqPLR_13sqlrustgo_gmp8document5testss_26test_doc_status_conversion
FNDA:1,_RNvNtNtCsfzvnB6NqPLR_13sqlrustgo_gmp8document5testss_27test_document_row_roundtrip
FNDA:1,_RNvNtNtCsfzvnB6NqPLR_13sqlrustgo_gmp8document5testss_30test_insert_and_query_document
FNDA:1,_RNCNvNtCsfzvnB6NqPLR_13sqlrustgo_gmp8document11get_content0B5_
FNDA:2,_RNCNvNtCsfzvnB6NqPLR_13sqlrustgo_gmp8document12get_keywords0B5_
FNDA:1,_RNCNvNtCsfzvnB6NqPLR_13sqlrustgo_gmp8document13query_by_type0B5_
FNDA:15,_RNCNvNtCsfzvnB6NqPLR_13sqlrustgo_gmp8document15insert_document0B5_
FNDA:8,_RNCNvNtCsfzvnB6NqPLR_13sqlrustgo_gmp8document15insert_documents_0B5_
FNDA:17,_RNCNvNtCsfzvnB6NqPLR_13sqlrustgo_gmp8document15query_by_status0B5_
FNDA:0,_RNCNvNtCsfzvnB6NqPLR_13sqlrustgo_gmp8document23query_by_effective_date0B5_
FNDA:0,_RNvMs0_NtCsfzvnB6NqPLR_13sqlrustgo_gmp8documentNtB5_15DocumentContent6to_row
FNDA:0,_RNvMs1_NtCsfzvnB6NqPLR_13sqlrustgo_gmp8documentNtB5_15DocumentKeyword6to_row
FNDA:0,_RNvNtCsfzvnB6NqPLR_13sqlrustgo_gmp8document23query_by_effective_date
FNF:28
FNH:24
DA:19,17
DA:20,17
DA:21,2
DA:22,15
DA:23,0
DA:24,0
DA:26,17
DA:29,24
DA:30,24
DA:31,24
DA:32,16
DA:33,1
DA:34,1
DA:35,1
DA:37,24
DA:55,21
DA:56,21
DA:57,21
DA:58,0
DA:60,21
DA:61,21
DA:62,0
DA:64,21
DA:65,21
DA:66,0
DA:68,21
DA:69,21
DA:70,0
DA:72,21
DA:73,21
DA:74,0
DA:75,0
DA:77,21
DA:78,21
DA:79,0
DA:80,0
DA:82,21
DA:83,21
DA:84,0
DA:85,0
DA:87,21
DA:88,21
DA:89,0
DA:92,21
DA:93,21
DA:94,21
DA:95,21
DA:96,21
DA:97,21
DA:98,21
DA:99,21
DA:100,21
DA:101,21
DA:102,21
DA:105,1
DA:106,1
DA:107,1
DA:108,1
DA:109,1
DA:110,1
DA:111,1
DA:112,1
DA:113,1
DA:114,1
DA:116,1
DA:128,1
DA:129,1
DA:130,1
DA:131,0
DA:133,1
DA:134,1
DA:135,0
DA:137,1
DA:138,1
DA:139,0
DA:141,1
DA:142,1
DA:143,1
DA:144,1
DA:145,1
DA:146,1
DA:148,0
DA:149,0
DA:150,0
DA:151,0
DA:152,0
DA:154,0
DA:165,2
DA:166,2
DA:167,2
DA:168,0
DA:170,2
DA:171,2
DA:172,0
DA:174,2
DA:175,2
DA:177,0
DA:178,0
DA:179,0
DA:180,0
DA:182,0
DA:222,11
DA:224,11
DA:225,11
DA:226,11
DA:227,11
DA:228,11
DA:229,11
DA:230,11
DA:231,11
DA:232,11
DA:233,11
DA:234,11
DA:235,11
DA:236,11
DA:237,11
DA:238,11
DA:239,11
DA:240,11
DA:241,11
DA:242,11
DA:243,11
DA:244,11
DA:245,11
DA:246,11
DA:247,11
DA:248,11
DA:249,11
DA:250,11
DA:251,11
DA:252,11
DA:253,11
DA:254,11
DA:255,11
DA:256,11
DA:257,11
DA:258,11
DA:259,11
DA:260,11
DA:261,11
DA:262,11
DA:263,11
DA:264,11
DA:265,11
DA:266,11
DA:267,11
DA:268,11
DA:269,11
DA:270,11
DA:271,11
DA:272,11
DA:273,11
DA:274,11
DA:275,11
DA:276,11
DA:277,11
DA:278,11
DA:279,11
DA:280,11
DA:281,11
DA:282,11
DA:283,11
DA:284,11
DA:285,11
DA:286,11
DA:287,11
DA:288,11
DA:289,11
DA:290,11
DA:291,11
DA:292,11
DA:293,11
DA:294,11
DA:295,11
DA:296,11
DA:297,11
DA:298,11
DA:299,11
DA:300,11
DA:301,11
DA:302,11
DA:303,11
DA:304,11
DA:305,11
DA:307,11
DA:308,11
DA:309,11
DA:310,11
DA:311,11
DA:312,0
DA:315,11
DA:316,11
DA:317,11
DA:318,11
DA:319,11
DA:320,11
DA:321,11
DA:322,11
DA:323,11
DA:324,11
DA:325,11
DA:326,11
DA:327,11
DA:328,11
DA:329,11
DA:330,11
DA:331,11
DA:332,11
DA:333,11
DA:334,11
DA:335,11
DA:336,11
DA:337,11
DA:338,11
DA:339,11
DA:340,11
DA:341,11
DA:342,11
DA:343,11
DA:344,11
DA:345,11
DA:346,11
DA:348,11
DA:349,11
DA:350,11
DA:351,11
DA:352,11
DA:353,0
DA:356,11
DA:357,11
DA:358,11
DA:359,11
DA:360,11
DA:361,11
DA:362,11
DA:363,11
DA:364,11
DA:365,11
DA:366,11
DA:367,11
DA:368,11
DA:369,11
DA:370,11
DA:371,11
DA:372,11
DA:373,11
DA:374,11
DA:375,11
DA:376,11
DA:377,11
DA:379,11
DA:380,11
DA:381,11
DA:382,11
DA:383,11
DA:384,0
DA:386,11
DA:387,11
DA:401,15
DA:402,15
DA:403,15
DA:404,15
DA:405,15
DA:408,15
DA:409,15
DA:410,15
DA:411,15
DA:412,8
DA:413,0
DA:414,8
DA:415,15
DA:416,15
DA:419,15
DA:420,15
DA:421,15
DA:422,15
DA:423,15
DA:424,15
DA:425,15
DA:426,15
DA:427,15
DA:430,15
DA:431,15
DA:432,15
DA:435,7
DA:436,7
DA:437,7
DA:438,7
DA:439,7
DA:440,7
DA:441,7
DA:442,7
DA:443,7
DA:444,7
DA:446,7
DA:447,7
DA:448,7
DA:451,15
DA:452,15
DA:453,15
DA:454,15
DA:455,15
DA:456,15
DA:457,15
DA:458,15
DA:459,15
DA:462,1
DA:463,1
DA:464,1
DA:465,1
DA:466,1
DA:467,1
DA:468,1
DA:469,1
DA:471,0
DA:473,1
DA:474,1
DA:475,1
DA:476,1
DA:479,14
DA:480,14
DA:481,14
DA:482,14
DA:483,14
DA:484,14
DA:485,14
DA:486,17
DA:487,17
DA:488,17
DA:489,7
DA:491,10
DA:493,17
DA:494,14
DA:495,14
DA:496,14
DA:499,0
DA:500,0
DA:501,0
DA:502,0
DA:503,0
DA:504,0
DA:505,0
DA:506,0
DA:507,0
DA:508,0
DA:509,0
DA:510,0
DA:512,0
DA:514,0
DA:515,0
DA:516,0
DA:517,0
DA:520,1
DA:521,1
DA:522,1
DA:523,1
DA:524,2
DA:525,2
DA:526,2
DA:527,2
DA:529,0
DA:531,2
DA:532,1
DA:533,1
DA:534,1
DA:537,1
DA:538,1
DA:539,1
DA:540,1
DA:541,1
DA:542,1
DA:543,1
DA:544,1
DA:546,0
DA:548,1
DA:549,1
DA:550,1
DA:551,1
DA:559,1
DA:560,1
DA:561,1
DA:562,1
DA:563,1
DA:564,1
DA:567,1
DA:568,1
DA:569,1
DA:570,1
DA:571,1
DA:572,1
DA:573,1
DA:574,1
DA:575,1
DA:576,1
DA:577,1
DA:578,1
DA:579,1
DA:580,1
DA:581,1
DA:582,1
DA:583,1
DA:584,1
DA:587,1
DA:588,1
DA:589,1
DA:590,1
DA:591,1
DA:592,1
DA:593,1
DA:596,1
DA:597,1
DA:598,1
DA:600,1
DA:601,1
DA:602,1
DA:603,1
DA:605,1
DA:606,1
DA:607,1
DA:608,1
DA:609,1
DA:610,1
DA:611,1
DA:612,1
DA:613,1
DA:614,1
DA:615,1
DA:617,1
DA:619,1
DA:620,1
DA:621,1
DA:623,1
DA:624,1
DA:625,1
DA:627,1
DA:628,1
DA:629,1
DA:631,1
DA:632,1
DA:633,1
DA:634,1
BRF:0
BRH:0
LF:448
LH:394
end_of_record
SF:/home/openclaw/dev/yinglichina8848/sqlrustgo/crates/gmp/src/embedding.rs
FN:37,_RNCNvMNtCsfzvnB6NqPLR_13sqlrustgo_gmp9embeddingNtB4_17DocumentEmbedding17embedding_to_json0B6_
FN:42,_RNCNvMNtCsfzvnB6NqPLR_13sqlrustgo_gmp9embeddingNtB4_17DocumentEmbedding19embedding_from_json0B6_
FN:89,_RNCNvMs_NtCsfzvnB6NqPLR_13sqlrustgo_gmp9embeddingNtB6_18HashEmbeddingModel8tokenize0B8_
FN:91,_RNCNvMs_NtCsfzvnB6NqPLR_13sqlrustgo_gmp9embeddingNtB6_18HashEmbeddingModel8tokenizes0_0B8_
FN:90,_RNCNvMs_NtCsfzvnB6NqPLR_13sqlrustgo_gmp9embeddingNtB6_18HashEmbeddingModel8tokenizes_0B8_
FN:157,_RNCNvNtCsfzvnB6NqPLR_13sqlrustgo_gmp9embedding17cosine_similarity0B5_
FN:159,_RNCNvNtCsfzvnB6NqPLR_13sqlrustgo_gmp9embedding17cosine_similaritys0_0B5_
FN:158,_RNCNvNtCsfzvnB6NqPLR_13sqlrustgo_gmp9embedding17cosine_similaritys_0B5_
FN:175,_RNCNvNtCsfzvnB6NqPLR_13sqlrustgo_gmp9embedding18euclidean_distance0B5_
FN:133,_RNCNvXs1_NtCsfzvnB6NqPLR_13sqlrustgo_gmp9embeddingNtB7_18HashEmbeddingModelNtB7_14EmbeddingModel18generate_embedding0B9_
FN:36,_RNvMNtCsfzvnB6NqPLR_13sqlrustgo_gmp9embeddingNtB2_17DocumentEmbedding17embedding_to_json
FN:41,_RNvMNtCsfzvnB6NqPLR_13sqlrustgo_gmp9embeddingNtB2_17DocumentEmbedding19embedding_from_json
FN:96,_RNvMs_NtCsfzvnB6NqPLR_13sqlrustgo_gmp9embeddingNtB4_18HashEmbeddingModel11hash_string
FN:82,_RNvMs_NtCsfzvnB6NqPLR_13sqlrustgo_gmp9embeddingNtB4_18HashEmbeddingModel3new
FN:87,_RNvMs_NtCsfzvnB6NqPLR_13sqlrustgo_gmp9embeddingNtB4_18HashEmbeddingModel8tokenize
FN:149,_RNvNtCsfzvnB6NqPLR_13sqlrustgo_gmp9embedding17cosine_similarity
FN:169,_RNvNtCsfzvnB6NqPLR_13sqlrustgo_gmp9embedding18euclidean_distance
FN:185,_RNvNtCsfzvnB6NqPLR_13sqlrustgo_gmp9embedding18generate_embedding
FN:104,_RNvXs0_NtCsfzvnB6NqPLR_13sqlrustgo_gmp9embeddingNtB5_18HashEmbeddingModelNtNtCs8nPosuWgJFh_4core7default7Default7default
FN:110,_RNvXs1_NtCsfzvnB6NqPLR_13sqlrustgo_gmp9embeddingNtB5_18HashEmbeddingModelNtB5_14EmbeddingModel18generate_embedding
FN:143,_RNvXs1_NtCsfzvnB6NqPLR_13sqlrustgo_gmp9embeddingNtB5_18HashEmbeddingModelNtB5_14EmbeddingModel9dimension
FN:246,_RNCNvNtNtCsfzvnB6NqPLR_13sqlrustgo_gmp9embedding5testss_25test_embedding_normalized0B7_
FN:266,_RNvNtNtCsfzvnB6NqPLR_13sqlrustgo_gmp9embedding5testss_14test_dimension
FN:259,_RNvNtNtCsfzvnB6NqPLR_13sqlrustgo_gmp9embedding5testss_23test_euclidean_distance
FN:242,_RNvNtNtCsfzvnB6NqPLR_13sqlrustgo_gmp9embedding5testss_25test_embedding_normalized
FN:215,_RNvNtNtCsfzvnB6NqPLR_13sqlrustgo_gmp9embedding5testss_25test_hash_embedding_model
FN:194,_RNvNtNtCsfzvnB6NqPLR_13sqlrustgo_gmp9embedding5testss_27test_cosine_similarity_same
FN:251,_RNvNtNtCsfzvnB6NqPLR_13sqlrustgo_gmp9embedding5testss_28test_document_embedding_json
FN:208,_RNvNtNtCsfzvnB6NqPLR_13sqlrustgo_gmp9embedding5testss_31test_cosine_similarity_opposite
FN:201,_RNvNtNtCsfzvnB6NqPLR_13sqlrustgo_gmp9embedding5testss_33test_cosine_similarity_orthogonal
FN:229,_RNvNtNtCsfzvnB6NqPLR_13sqlrustgo_gmp9embedding5testss_41test_hash_embedding_model_different_texts
FN:26,_RNCNvMNtCsfzvnB6NqPLR_13sqlrustgo_gmp9embeddingNtB4_17DocumentEmbedding3new0B6_
FN:23,_RNvMNtCsfzvnB6NqPLR_13sqlrustgo_gmp9embeddingNtB2_17DocumentEmbedding3new
FNDA:0,_RNCNvMNtCsfzvnB6NqPLR_13sqlrustgo_gmp9embeddingNtB4_17DocumentEmbedding17embedding_to_json0B6_
FNDA:0,_RNCNvMNtCsfzvnB6NqPLR_13sqlrustgo_gmp9embeddingNtB4_17DocumentEmbedding19embedding_from_json0B6_
FNDA:524,_RNCNvMs_NtCsfzvnB6NqPLR_13sqlrustgo_gmp9embeddingNtB6_18HashEmbeddingModel8tokenize0B8_
FNDA:83,_RNCNvMs_NtCsfzvnB6NqPLR_13sqlrustgo_gmp9embeddingNtB6_18HashEmbeddingModel8tokenizes0_0B8_
FNDA:83,_RNCNvMs_NtCsfzvnB6NqPLR_13sqlrustgo_gmp9embeddingNtB6_18HashEmbeddingModel8tokenizes_0B8_
FNDA:1929,_RNCNvNtCsfzvnB6NqPLR_13sqlrustgo_gmp9embedding17cosine_similarity0B5_
FNDA:1929,_RNCNvNtCsfzvnB6NqPLR_13sqlrustgo_gmp9embedding17cosine_similaritys0_0B5_
FNDA:1929,_RNCNvNtCsfzvnB6NqPLR_13sqlrustgo_gmp9embedding17cosine_similaritys_0B5_
FNDA:2,_RNCNvNtCsfzvnB6NqPLR_13sqlrustgo_gmp9embedding18euclidean_distance0B5_
FNDA:6400,_RNCNvXs1_NtCsfzvnB6NqPLR_13sqlrustgo_gmp9embeddingNtB7_18HashEmbeddingModelNtB7_14EmbeddingModel18generate_embedding0B9_
FNDA:11,_RNvMNtCsfzvnB6NqPLR_13sqlrustgo_gmp9embeddingNtB2_17DocumentEmbedding17embedding_to_json
FNDA:7,_RNvMNtCsfzvnB6NqPLR_13sqlrustgo_gmp9embeddingNtB2_17DocumentEmbedding19embedding_from_json
FNDA:33792,_RNvMs_NtCsfzvnB6NqPLR_13sqlrustgo_gmp9embeddingNtB4_18HashEmbeddingModel11hash_string
FNDA:12,_RNvMs_NtCsfzvnB6NqPLR_13sqlrustgo_gmp9embeddingNtB4_18HashEmbeddingModel3new
FNDA:25,_RNvMs_NtCsfzvnB6NqPLR_13sqlrustgo_gmp9embeddingNtB4_18HashEmbeddingModel8tokenize
FNDA:11,_RNvNtCsfzvnB6NqPLR_13sqlrustgo_gmp9embedding17cosine_similarity
FNDA:1,_RNvNtCsfzvnB6NqPLR_13sqlrustgo_gmp9embedding18euclidean_distance
FNDA:10,_RNvNtCsfzvnB6NqPLR_13sqlrustgo_gmp9embedding18generate_embedding
FNDA:6,_RNvXs0_NtCsfzvnB6NqPLR_13sqlrustgo_gmp9embeddingNtB5_18HashEmbeddingModelNtNtCs8nPosuWgJFh_4core7default7Default7default
FNDA:25,_RNvXs1_NtCsfzvnB6NqPLR_13sqlrustgo_gmp9embeddingNtB5_18HashEmbeddingModelNtB5_14EmbeddingModel18generate_embedding
FNDA:3,_RNvXs1_NtCsfzvnB6NqPLR_13sqlrustgo_gmp9embeddingNtB5_18HashEmbeddingModelNtB5_14EmbeddingModel9dimension
FNDA:256,_RNCNvNtNtCsfzvnB6NqPLR_13sqlrustgo_gmp9embedding5testss_25test_embedding_normalized0B7_
FNDA:1,_RNvNtNtCsfzvnB6NqPLR_13sqlrustgo_gmp9embedding5testss_14test_dimension
FNDA:1,_RNvNtNtCsfzvnB6NqPLR_13sqlrustgo_gmp9embedding5testss_23test_euclidean_distance
FNDA:1,_RNvNtNtCsfzvnB6NqPLR_13sqlrustgo_gmp9embedding5testss_25test_embedding_normalized
FNDA:1,_RNvNtNtCsfzvnB6NqPLR_13sqlrustgo_gmp9embedding5testss_25test_hash_embedding_model
FNDA:1,_RNvNtNtCsfzvnB6NqPLR_13sqlrustgo_gmp9embedding5testss_27test_cosine_similarity_same
FNDA:1,_RNvNtNtCsfzvnB6NqPLR_13sqlrustgo_gmp9embedding5testss_28test_document_embedding_json
FNDA:1,_RNvNtNtCsfzvnB6NqPLR_13sqlrustgo_gmp9embedding5testss_31test_cosine_similarity_opposite
FNDA:1,_RNvNtNtCsfzvnB6NqPLR_13sqlrustgo_gmp9embedding5testss_33test_cosine_similarity_orthogonal
FNDA:1,_RNvNtNtCsfzvnB6NqPLR_13sqlrustgo_gmp9embedding5testss_41test_hash_embedding_model_different_texts
FNDA:0,_RNCNvMNtCsfzvnB6NqPLR_13sqlrustgo_gmp9embeddingNtB4_17DocumentEmbedding3new0B6_
FNDA:0,_RNvMNtCsfzvnB6NqPLR_13sqlrustgo_gmp9embeddingNtB2_17DocumentEmbedding3new
FNF:33
FNH:29
DA:23,0
DA:24,0
DA:25,0
DA:26,0
DA:27,0
DA:28,0
DA:29,0
DA:30,0
DA:31,0
DA:32,0
DA:33,0
DA:36,11
DA:37,11
DA:38,11
DA:41,7
DA:42,7
DA:43,7
DA:82,12
DA:83,12
DA:84,12
DA:87,25
DA:88,25
DA:89,524
DA:90,83
DA:91,83
DA:92,25
DA:93,25
DA:96,33792
DA:97,33792
DA:98,33792
DA:99,33792
DA:100,33792
DA:104,6
DA:105,6
DA:106,6
DA:110,25
DA:111,25
DA:112,25
DA:114,6400
DA:116,6400
DA:117,6400
DA:119,6400
DA:120,20992
DA:121,20992
DA:122,20992
DA:123,20992
DA:124,20992
DA:125,20992
DA:128,6400
DA:129,6400
DA:133,6400
DA:134,25
DA:135,6400
DA:136,6400
DA:137,6400
DA:138,0
DA:140,25
DA:141,25
DA:143,3
DA:144,3
DA:145,3
DA:149,11
DA:150,11
DA:151,0
DA:152,11
DA:153,11
DA:154,0
DA:155,11
DA:157,1929
DA:158,1929
DA:159,1929
DA:161,11
DA:162,0
DA:163,11
DA:165,11
DA:166,11
DA:169,1
DA:170,1
DA:171,0
DA:172,1
DA:173,1
DA:174,1
DA:175,2
DA:176,1
DA:177,1
DA:178,1
DA:185,10
DA:186,10
DA:187,10
DA:194,1
DA:195,1
DA:196,1
DA:197,1
DA:198,1
DA:201,1
DA:202,1
DA:203,1
DA:204,1
DA:205,1
DA:208,1
DA:209,1
DA:210,1
DA:211,1
DA:212,1
DA:215,1
DA:216,1
DA:218,1
DA:219,1
DA:221,1
DA:222,1
DA:225,1
DA:226,1
DA:229,1
DA:230,1
DA:232,1
DA:233,1
DA:237,1
DA:238,1
DA:239,1
DA:242,1
DA:243,1
DA:244,1
DA:246,256
DA:247,1
DA:248,1
DA:251,1
DA:252,1
DA:253,1
DA:254,1
DA:255,1
DA:256,1
DA:259,1
DA:260,1
DA:261,1
DA:262,1
DA:263,1
DA:266,1
DA:267,1
DA:268,1
DA:270,1
DA:271,1
DA:272,1
BRF:0
BRH:0
LF:154
LH:135
end_of_record
SF:/home/openclaw/dev/yinglichina8848/sqlrustgo/crates/gmp/src/report.rs
FN:493,_RNvNtNtCsfzvnB6NqPLR_13sqlrustgo_gmp6report5tests19create_test_storage
FN:582,_RNvNtNtCsfzvnB6NqPLR_13sqlrustgo_gmp6report5testss_27test_capa_report_generation
FN:501,_RNvNtNtCsfzvnB6NqPLR_13sqlrustgo_gmp6report5testss_27test_report_type_conversion
FN:514,_RNvNtNtCsfzvnB6NqPLR_13sqlrustgo_gmp6report5testss_28test_audit_report_generation
FN:555,_RNvNtNtCsfzvnB6NqPLR_13sqlrustgo_gmp6report5testss_31test_deviation_report_detection
FN:480,_RNCNvNtCsfzvnB6NqPLR_13sqlrustgo_gmp6report17current_timestamp0B5_
FN:413,_RNCNvNtCsfzvnB6NqPLR_13sqlrustgo_gmp6report18determine_severity0B5_
FN:381,_RNCNvNtCsfzvnB6NqPLR_13sqlrustgo_gmp6report20generate_capa_report0B5_
FN:387,_RNCNvNtCsfzvnB6NqPLR_13sqlrustgo_gmp6report20generate_capa_reports0_0B5_
FN:390,_RNCNvNtCsfzvnB6NqPLR_13sqlrustgo_gmp6report20generate_capa_reports1_0B5_
FN:385,_RNCNvNtCsfzvnB6NqPLR_13sqlrustgo_gmp6report20generate_capa_reports_0B5_
FN:186,_RNCNvNtCsfzvnB6NqPLR_13sqlrustgo_gmp6report21generate_audit_report0B5_
FN:207,_RNCNvNtCsfzvnB6NqPLR_13sqlrustgo_gmp6report21generate_audit_reports0_0B5_
FN:212,_RNCNvNtCsfzvnB6NqPLR_13sqlrustgo_gmp6report21generate_audit_reports1_0B5_
FN:200,_RNCNvNtCsfzvnB6NqPLR_13sqlrustgo_gmp6report21generate_audit_reports_0B5_
FN:270,_RNCNvNtCsfzvnB6NqPLR_13sqlrustgo_gmp6report25generate_deviation_report0B5_
FN:315,_RNCNvNtCsfzvnB6NqPLR_13sqlrustgo_gmp6report25generate_deviation_reports0_0B5_
FN:316,_RNCNvNtCsfzvnB6NqPLR_13sqlrustgo_gmp6report25generate_deviation_reports1_0B5_
FN:314,_RNCNvNtCsfzvnB6NqPLR_13sqlrustgo_gmp6report25generate_deviation_reports_0B5_
FN:30,_RNvMNtCsfzvnB6NqPLR_13sqlrustgo_gmp6reportNtB2_10ReportType6as_str
FN:21,_RNvMNtCsfzvnB6NqPLR_13sqlrustgo_gmp6reportNtB2_10ReportType8from_str
FN:424,_RNvNtCsfzvnB6NqPLR_13sqlrustgo_gmp6report16format_timestamp
FN:477,_RNvNtCsfzvnB6NqPLR_13sqlrustgo_gmp6report17current_timestamp
FN:412,_RNvNtCsfzvnB6NqPLR_13sqlrustgo_gmp6report18determine_severity
FN:338,_RNvNtCsfzvnB6NqPLR_13sqlrustgo_gmp6report20generate_capa_report
FN:163,_RNvNtCsfzvnB6NqPLR_13sqlrustgo_gmp6report21generate_audit_report
FN:244,_RNvNtCsfzvnB6NqPLR_13sqlrustgo_gmp6report25generate_deviation_report
FN:55,_RNvXs_NtCsfzvnB6NqPLR_13sqlrustgo_gmp6reportNtB4_12ActionCountsINtNtCs8nPosuWgJFh_4core7convert4FromRNtNtB6_5audit10AuditStatsE4from
FNDA:3,_RNvNtNtCsfzvnB6NqPLR_13sqlrustgo_gmp6report5tests19create_test_storage
FNDA:1,_RNvNtNtCsfzvnB6NqPLR_13sqlrustgo_gmp6report5testss_27test_capa_report_generation
FNDA:1,_RNvNtNtCsfzvnB6NqPLR_13sqlrustgo_gmp6report5testss_27test_report_type_conversion
FNDA:1,_RNvNtNtCsfzvnB6NqPLR_13sqlrustgo_gmp6report5testss_28test_audit_report_generation
FNDA:1,_RNvNtNtCsfzvnB6NqPLR_13sqlrustgo_gmp6report5testss_31test_deviation_report_detection
FNDA:8,_RNCNvNtCsfzvnB6NqPLR_13sqlrustgo_gmp6report17current_timestamp0B5_
FNDA:0,_RNCNvNtCsfzvnB6NqPLR_13sqlrustgo_gmp6report18determine_severity0B5_
FNDA:1,_RNCNvNtCsfzvnB6NqPLR_13sqlrustgo_gmp6report20generate_capa_report0B5_
FNDA:1,_RNCNvNtCsfzvnB6NqPLR_13sqlrustgo_gmp6report20generate_capa_reports0_0B5_
FNDA:1,_RNCNvNtCsfzvnB6NqPLR_13sqlrustgo_gmp6report20generate_capa_reports1_0B5_
FNDA:1,_RNCNvNtCsfzvnB6NqPLR_13sqlrustgo_gmp6report20generate_capa_reports_0B5_
FNDA:1,_RNCNvNtCsfzvnB6NqPLR_13sqlrustgo_gmp6report21generate_audit_report0B5_
FNDA:1,_RNCNvNtCsfzvnB6NqPLR_13sqlrustgo_gmp6report21generate_audit_reports0_0B5_
FNDA:2,_RNCNvNtCsfzvnB6NqPLR_13sqlrustgo_gmp6report21generate_audit_reports1_0B5_
FNDA:1,_RNCNvNtCsfzvnB6NqPLR_13sqlrustgo_gmp6report21generate_audit_reports_0B5_
FNDA:4,_RNCNvNtCsfzvnB6NqPLR_13sqlrustgo_gmp6report25generate_deviation_report0B5_
FNDA:1,_RNCNvNtCsfzvnB6NqPLR_13sqlrustgo_gmp6report25generate_deviation_reports0_0B5_
FNDA:1,_RNCNvNtCsfzvnB6NqPLR_13sqlrustgo_gmp6report25generate_deviation_reports1_0B5_
FNDA:1,_RNCNvNtCsfzvnB6NqPLR_13sqlrustgo_gmp6report25generate_deviation_reports_0B5_
FNDA:5,_RNvMNtCsfzvnB6NqPLR_13sqlrustgo_gmp6reportNtB2_10ReportType6as_str
FNDA:5,_RNvMNtCsfzvnB6NqPLR_13sqlrustgo_gmp6reportNtB2_10ReportType8from_str
FNDA:8,_RNvNtCsfzvnB6NqPLR_13sqlrustgo_gmp6report16format_timestamp
FNDA:8,_RNvNtCsfzvnB6NqPLR_13sqlrustgo_gmp6report17current_timestamp
FNDA:0,_RNvNtCsfzvnB6NqPLR_13sqlrustgo_gmp6report18determine_severity
FNDA:1,_RNvNtCsfzvnB6NqPLR_13sqlrustgo_gmp6report20generate_capa_report
FNDA:1,_RNvNtCsfzvnB6NqPLR_13sqlrustgo_gmp6report21generate_audit_report
FNDA:2,_RNvNtCsfzvnB6NqPLR_13sqlrustgo_gmp6report25generate_deviation_report
FNDA:1,_RNvXs_NtCsfzvnB6NqPLR_13sqlrustgo_gmp6reportNtB4_12ActionCountsINtNtCs8nPosuWgJFh_4core7convert4FromRNtNtB6_5audit10AuditStatsE4from
FNF:28
FNH:26
DA:21,5
DA:22,5
DA:23,5
DA:24,3
DA:25,2
DA:26,1
DA:28,5
DA:30,5
DA:31,5
DA:32,2
DA:33,2
DA:34,1
DA:36,5
DA:55,1
DA:56,1
DA:57,1
DA:58,1
DA:59,1
DA:60,1
DA:61,1
DA:163,1
DA:164,1
DA:165,1
DA:166,1
DA:167,1
DA:168,1
DA:169,1
DA:172,1
DA:173,2
DA:174,2
DA:175,2
DA:176,2
DA:177,1
DA:178,0
DA:179,0
DA:183,1
DA:184,1
DA:185,1
DA:186,1
DA:187,1
DA:188,1
DA:189,1
DA:190,1
DA:191,1
DA:192,1
DA:193,1
DA:194,1
DA:196,1
DA:197,1
DA:198,1
DA:199,1
DA:200,1
DA:201,1
DA:202,1
DA:203,1
DA:206,1
DA:207,1
DA:208,1
DA:209,1
DA:210,1
DA:211,1
DA:212,2
DA:213,2
DA:214,2
DA:215,2
DA:216,2
DA:217,2
DA:218,2
DA:219,1
DA:221,1
DA:222,1
DA:223,1
DA:224,1
DA:226,1
DA:227,1
DA:228,1
DA:229,1
DA:230,1
DA:231,1
DA:232,1
DA:233,1
DA:234,1
DA:235,1
DA:236,1
DA:244,2
DA:245,2
DA:246,2
DA:247,2
DA:248,2
DA:249,2
DA:251,2
DA:252,2
DA:255,2
DA:256,6
DA:257,6
DA:258,6
DA:259,6
DA:260,6
DA:261,6
DA:262,6
DA:266,2
DA:267,2
DA:269,1
DA:270,4
DA:272,4
DA:273,4
DA:274,4
DA:275,0
DA:276,0
DA:277,0
DA:278,0
DA:279,0
DA:280,0
DA:281,0
DA:282,0
DA:283,0
DA:284,0
DA:285,0
DA:286,0
DA:287,0
DA:288,0
DA:289,0
DA:290,0
DA:291,4
DA:293,1
DA:297,6
DA:298,6
DA:299,1
DA:300,1
DA:301,1
DA:302,1
DA:303,1
DA:304,1
DA:305,1
DA:306,1
DA:307,1
DA:308,1
DA:309,1
DA:310,1
DA:311,5
DA:314,2
DA:315,2
DA:316,2
DA:318,2
DA:319,2
DA:320,2
DA:321,2
DA:323,2
DA:324,2
DA:325,2
DA:326,2
DA:327,2
DA:328,2
DA:329,2
DA:330,2
DA:331,2
DA:332,2
DA:333,2
DA:338,1
DA:339,1
DA:340,1
DA:341,1
DA:342,1
DA:344,1
DA:346,1
DA:347,1
DA:350,1
DA:351,1
DA:353,1
DA:354,1
DA:356,0
DA:359,1
DA:360,1
DA:362,0
DA:365,1
DA:366,1
DA:367,1
DA:368,1
DA:369,1
DA:370,1
DA:371,1
DA:372,1
DA:373,1
DA:374,1
DA:375,1
DA:376,1
DA:379,1
DA:380,1
DA:381,1
DA:382,1
DA:383,1
DA:384,1
DA:385,1
DA:386,1
DA:387,1
DA:388,1
DA:389,1
DA:390,1
DA:391,1
DA:393,1
DA:394,1
DA:395,1
DA:396,1
DA:398,1
DA:399,1
DA:400,1
DA:401,1
DA:402,1
DA:403,1
DA:404,1
DA:405,1
DA:406,1
DA:407,1
DA:408,1
DA:409,1
DA:412,0
DA:413,0
DA:414,0
DA:415,0
DA:416,0
DA:417,0
DA:419,0
DA:421,0
DA:424,8
DA:426,8
DA:427,8
DA:428,8
DA:429,8
DA:430,8
DA:434,8
DA:435,8
DA:436,8
DA:438,456
DA:439,448
DA:440,112
DA:442,336
DA:444,448
DA:445,448
DA:446,448
DA:447,448
DA:448,0
DA:452,8
DA:453,8
DA:454,0
DA:456,8
DA:459,8
DA:460,32
DA:461,32
DA:462,8
DA:463,24
DA:464,24
DA:465,24
DA:468,8
DA:470,8
DA:474,8
DA:477,8
DA:478,8
DA:479,8
DA:480,8
DA:481,8
DA:482,8
DA:493,3
DA:494,3
DA:495,3
DA:496,3
DA:497,3
DA:498,3
DA:501,1
DA:502,1
DA:503,1
DA:504,1
DA:505,1
DA:508,1
DA:509,1
DA:510,1
DA:511,1
DA:514,1
DA:515,1
DA:516,1
DA:519,1
DA:520,1
DA:521,1
DA:522,1
DA:523,1
DA:524,1
DA:525,1
DA:526,1
DA:527,1
DA:528,1
DA:530,1
DA:532,1
DA:533,1
DA:534,1
DA:535,1
DA:536,1
DA:537,1
DA:538,1
DA:539,1
DA:540,1
DA:541,1
DA:543,1
DA:545,1
DA:547,1
DA:548,1
DA:549,1
DA:550,1
DA:551,1
DA:552,1
DA:555,1
DA:556,1
DA:557,1
DA:560,5
DA:561,5
DA:562,5
DA:563,5
DA:564,5
DA:565,5
DA:566,5
DA:567,5
DA:568,5
DA:569,5
DA:570,5
DA:571,5
DA:572,5
DA:573,5
DA:575,1
DA:578,1
DA:579,1
DA:582,1
DA:583,1
DA:584,1
DA:587,1
DA:588,1
DA:589,1
DA:590,1
DA:591,1
DA:592,1
DA:593,1
DA:594,1
DA:595,1
DA:596,1
DA:598,1
DA:600,1
DA:602,1
DA:604,1
DA:605,1
BRF:0
BRH:0
LF:357
LH:326
end_of_record
SF:/home/openclaw/dev/yinglichina8848/sqlrustgo/crates/gmp/src/semantic_embedding.rs
FN:289,_RNvMs1_NtCsfzvnB6NqPLR_13sqlrustgo_gmp18semantic_embeddingNtB5_15ProviderFactory11create_hash
FN:273,_RNvMs1_NtCsfzvnB6NqPLR_13sqlrustgo_gmp18semantic_embeddingNtB5_15ProviderFactory6create
FN:12,_RNvXNtCsfzvnB6NqPLR_13sqlrustgo_gmp18semantic_embeddingNtB2_12OllamaConfigNtNtCs8nPosuWgJFh_4core7default7Default7default
FN:53,_RNvXs0_NtCsfzvnB6NqPLR_13sqlrustgo_gmp18semantic_embeddingNtB5_10HashConfigNtNtCs8nPosuWgJFh_4core7default7Default7default
FN:30,_RNvXs_NtCsfzvnB6NqPLR_13sqlrustgo_gmp18semantic_embeddingNtB4_12OpenAIConfigNtNtCs8nPosuWgJFh_4core7default7Default7default
FN:260,_RNCNCNvXs_NtNtCsfzvnB6NqPLR_13sqlrustgo_gmp18semantic_embedding4hashNtB8_21HashEmbeddingProviderNtBa_17EmbeddingProvider8generate00Bc_
FN:233,_RNvMNtNtCsfzvnB6NqPLR_13sqlrustgo_gmp18semantic_embedding4hashNtB2_21HashEmbeddingProvider3new
FN:264,_RNvXs_NtNtCsfzvnB6NqPLR_13sqlrustgo_gmp18semantic_embedding4hashNtB4_21HashEmbeddingProviderNtB6_17EmbeddingProvider14supports_batch
FN:242,_RNvXs_NtNtCsfzvnB6NqPLR_13sqlrustgo_gmp18semantic_embedding4hashNtB4_21HashEmbeddingProviderNtB6_17EmbeddingProvider4name
FN:257,_RNvXs_NtNtCsfzvnB6NqPLR_13sqlrustgo_gmp18semantic_embedding4hashNtB4_21HashEmbeddingProviderNtB6_17EmbeddingProvider8generate
FN:250,_RNvXs_NtNtCsfzvnB6NqPLR_13sqlrustgo_gmp18semantic_embedding4hashNtB4_21HashEmbeddingProviderNtB6_17EmbeddingProvider8is_local
FN:246,_RNvXs_NtNtCsfzvnB6NqPLR_13sqlrustgo_gmp18semantic_embedding4hashNtB4_21HashEmbeddingProviderNtB6_17EmbeddingProvider9dimension
FN:132,_RNCNCNvXs_NtNtCsfzvnB6NqPLR_13sqlrustgo_gmp18semantic_embedding6ollamaNtB8_14OllamaProviderNtBa_17EmbeddingProvider8generate00Bc_
FN:67,_RNvYNtNtNtCsfzvnB6NqPLR_13sqlrustgo_gmp18semantic_embedding6ollama14OllamaProviderNtB6_17EmbeddingProvider14supports_batchB8_
FN:299,_RNCNvNtNtCsfzvnB6NqPLR_13sqlrustgo_gmp18semantic_embedding5testss_24test_hash_provider_basic0B7_
FN:331,_RNCNvNtNtCsfzvnB6NqPLR_13sqlrustgo_gmp18semantic_embedding5testss_24test_hash_provider_batch0B7_
FN:315,_RNCNvNtNtCsfzvnB6NqPLR_13sqlrustgo_gmp18semantic_embedding5testss_32test_hash_provider_deterministic0B7_
FN:286,_RNCNvMs1_NtCsfzvnB6NqPLR_13sqlrustgo_gmp18semantic_embeddingNtB7_15ProviderFactory13create_openai0B9_
FN:89,_RNvMNtNtCsfzvnB6NqPLR_13sqlrustgo_gmp18semantic_embedding6ollamaNtB2_14OllamaProvider8from_env
FN:160,_RNvMNtNtCsfzvnB6NqPLR_13sqlrustgo_gmp18semantic_embedding6openaiNtB2_14OpenAIProvider8from_env
FN:281,_RNvMs1_NtCsfzvnB6NqPLR_13sqlrustgo_gmp18semantic_embeddingNtB5_15ProviderFactory13create_ollama
FN:285,_RNvMs1_NtCsfzvnB6NqPLR_13sqlrustgo_gmp18semantic_embeddingNtB5_15ProviderFactory13create_openai
FN:153,_RNvMNtNtCsfzvnB6NqPLR_13sqlrustgo_gmp18semantic_embedding6openaiNtB2_14OpenAIProvider3new
FN:171,_RNvXs_NtNtCsfzvnB6NqPLR_13sqlrustgo_gmp18semantic_embedding6openaiNtB4_14OpenAIProviderNtB6_17EmbeddingProvider4name
FN:186,_RNvXs_NtNtCsfzvnB6NqPLR_13sqlrustgo_gmp18semantic_embedding6openaiNtB4_14OpenAIProviderNtB6_17EmbeddingProvider8generate
FN:179,_RNvXs_NtNtCsfzvnB6NqPLR_13sqlrustgo_gmp18semantic_embedding6openaiNtB4_14OpenAIProviderNtB6_17EmbeddingProvider8is_local
FN:175,_RNvXs_NtNtCsfzvnB6NqPLR_13sqlrustgo_gmp18semantic_embedding6openaiNtB4_14OpenAIProviderNtB6_17EmbeddingProvider9dimension
FN:372,_RNvNtNtCsfzvnB6NqPLR_13sqlrustgo_gmp18semantic_embedding5testss_24test_hash_config_default
FN:299,_RNvNtNtCsfzvnB6NqPLR_13sqlrustgo_gmp18semantic_embedding5testss_24test_hash_provider_basic
FN:331,_RNvNtNtCsfzvnB6NqPLR_13sqlrustgo_gmp18semantic_embedding5testss_24test_hash_provider_batch
FN:357,_RNvNtNtCsfzvnB6NqPLR_13sqlrustgo_gmp18semantic_embedding5testss_26test_ollama_config_default
FN:365,_RNvNtNtCsfzvnB6NqPLR_13sqlrustgo_gmp18semantic_embedding5testss_26test_openai_config_default
FN:350,_RNvNtNtCsfzvnB6NqPLR_13sqlrustgo_gmp18semantic_embedding5testss_28test_provider_factory_create
FN:315,_RNvNtNtCsfzvnB6NqPLR_13sqlrustgo_gmp18semantic_embedding5testss_32test_hash_provider_deterministic
FN:82,_RNvMNtNtCsfzvnB6NqPLR_13sqlrustgo_gmp18semantic_embedding6ollamaNtB2_14OllamaProvider3new
FN:96,_RNvXs_NtNtCsfzvnB6NqPLR_13sqlrustgo_gmp18semantic_embedding6ollamaNtB4_14OllamaProviderNtB6_17EmbeddingProvider4name
FN:111,_RNvXs_NtNtCsfzvnB6NqPLR_13sqlrustgo_gmp18semantic_embedding6ollamaNtB4_14OllamaProviderNtB6_17EmbeddingProvider8generate
FN:104,_RNvXs_NtNtCsfzvnB6NqPLR_13sqlrustgo_gmp18semantic_embedding6ollamaNtB4_14OllamaProviderNtB6_17EmbeddingProvider8is_local
FN:100,_RNvXs_NtNtCsfzvnB6NqPLR_13sqlrustgo_gmp18semantic_embedding6ollamaNtB4_14OllamaProviderNtB6_17EmbeddingProvider9dimension
FN:214,_RNCNCNCNvXs_NtNtCsfzvnB6NqPLR_13sqlrustgo_gmp18semantic_embedding6openaiNtBa_14OpenAIProviderNtBc_17EmbeddingProvider8generate000Be_
FN:209,_RNCNCNvXs_NtNtCsfzvnB6NqPLR_13sqlrustgo_gmp18semantic_embedding6openaiNtB8_14OpenAIProviderNtBa_17EmbeddingProvider8generate00Bc_
FN:67,_RNvYNtNtNtCsfzvnB6NqPLR_13sqlrustgo_gmp18semantic_embedding6openai14OpenAIProviderNtB6_17EmbeddingProvider14supports_batchB8_
FNDA:3,_RNvMs1_NtCsfzvnB6NqPLR_13sqlrustgo_gmp18semantic_embeddingNtB5_15ProviderFactory11create_hash
FNDA:1,_RNvMs1_NtCsfzvnB6NqPLR_13sqlrustgo_gmp18semantic_embeddingNtB5_15ProviderFactory6create
FNDA:1,_RNvXNtCsfzvnB6NqPLR_13sqlrustgo_gmp18semantic_embeddingNtB2_12OllamaConfigNtNtCs8nPosuWgJFh_4core7default7Default7default
FNDA:4,_RNvXs0_NtCsfzvnB6NqPLR_13sqlrustgo_gmp18semantic_embeddingNtB5_10HashConfigNtNtCs8nPosuWgJFh_4core7default7Default7default
FNDA:1,_RNvXs_NtCsfzvnB6NqPLR_13sqlrustgo_gmp18semantic_embeddingNtB4_12OpenAIConfigNtNtCs8nPosuWgJFh_4core7default7Default7default
FNDA:6,_RNCNCNvXs_NtNtCsfzvnB6NqPLR_13sqlrustgo_gmp18semantic_embedding4hashNtB8_21HashEmbeddingProviderNtBa_17EmbeddingProvider8generate00Bc_
FNDA:4,_RNvMNtNtCsfzvnB6NqPLR_13sqlrustgo_gmp18semantic_embedding4hashNtB2_21HashEmbeddingProvider3new
FNDA:0,_RNvXs_NtNtCsfzvnB6NqPLR_13sqlrustgo_gmp18semantic_embedding4hashNtB4_21HashEmbeddingProviderNtB6_17EmbeddingProvider14supports_batch
FNDA:1,_RNvXs_NtNtCsfzvnB6NqPLR_13sqlrustgo_gmp18semantic_embedding4hashNtB4_21HashEmbeddingProviderNtB6_17EmbeddingProvider4name
FNDA:4,_RNvXs_NtNtCsfzvnB6NqPLR_13sqlrustgo_gmp18semantic_embedding4hashNtB4_21HashEmbeddingProviderNtB6_17EmbeddingProvider8generate
FNDA:1,_RNvXs_NtNtCsfzvnB6NqPLR_13sqlrustgo_gmp18semantic_embedding4hashNtB4_21HashEmbeddingProviderNtB6_17EmbeddingProvider8is_local
FNDA:2,_RNvXs_NtNtCsfzvnB6NqPLR_13sqlrustgo_gmp18semantic_embedding4hashNtB4_21HashEmbeddingProviderNtB6_17EmbeddingProvider9dimension
FNDA:0,_RNCNCNvXs_NtNtCsfzvnB6NqPLR_13sqlrustgo_gmp18semantic_embedding6ollamaNtB8_14OllamaProviderNtBa_17EmbeddingProvider8generate00Bc_
FNDA:0,_RNvYNtNtNtCsfzvnB6NqPLR_13sqlrustgo_gmp18semantic_embedding6ollama14OllamaProviderNtB6_17EmbeddingProvider14supports_batchB8_
FNDA:1,_RNCNvNtNtCsfzvnB6NqPLR_13sqlrustgo_gmp18semantic_embedding5testss_24test_hash_provider_basic0B7_
FNDA:1,_RNCNvNtNtCsfzvnB6NqPLR_13sqlrustgo_gmp18semantic_embedding5testss_24test_hash_provider_batch0B7_
FNDA:1,_RNCNvNtNtCsfzvnB6NqPLR_13sqlrustgo_gmp18semantic_embedding5testss_32test_hash_provider_deterministic0B7_
FNDA:0,_RNCNvMs1_NtCsfzvnB6NqPLR_13sqlrustgo_gmp18semantic_embeddingNtB7_15ProviderFactory13create_openai0B9_
FNDA:0,_RNvMNtNtCsfzvnB6NqPLR_13sqlrustgo_gmp18semantic_embedding6ollamaNtB2_14OllamaProvider8from_env
FNDA:0,_RNvMNtNtCsfzvnB6NqPLR_13sqlrustgo_gmp18semantic_embedding6openaiNtB2_14OpenAIProvider8from_env
FNDA:0,_RNvMs1_NtCsfzvnB6NqPLR_13sqlrustgo_gmp18semantic_embeddingNtB5_15ProviderFactory13create_ollama
FNDA:0,_RNvMs1_NtCsfzvnB6NqPLR_13sqlrustgo_gmp18semantic_embeddingNtB5_15ProviderFactory13create_openai
FNDA:0,_RNvMNtNtCsfzvnB6NqPLR_13sqlrustgo_gmp18semantic_embedding6openaiNtB2_14OpenAIProvider3new
FNDA:0,_RNvXs_NtNtCsfzvnB6NqPLR_13sqlrustgo_gmp18semantic_embedding6openaiNtB4_14OpenAIProviderNtB6_17EmbeddingProvider4name
FNDA:0,_RNvXs_NtNtCsfzvnB6NqPLR_13sqlrustgo_gmp18semantic_embedding6openaiNtB4_14OpenAIProviderNtB6_17EmbeddingProvider8generate
FNDA:0,_RNvXs_NtNtCsfzvnB6NqPLR_13sqlrustgo_gmp18semantic_embedding6openaiNtB4_14OpenAIProviderNtB6_17EmbeddingProvider8is_local
FNDA:0,_RNvXs_NtNtCsfzvnB6NqPLR_13sqlrustgo_gmp18semantic_embedding6openaiNtB4_14OpenAIProviderNtB6_17EmbeddingProvider9dimension
FNDA:1,_RNvNtNtCsfzvnB6NqPLR_13sqlrustgo_gmp18semantic_embedding5testss_24test_hash_config_default
FNDA:1,_RNvNtNtCsfzvnB6NqPLR_13sqlrustgo_gmp18semantic_embedding5testss_24test_hash_provider_basic
FNDA:1,_RNvNtNtCsfzvnB6NqPLR_13sqlrustgo_gmp18semantic_embedding5testss_24test_hash_provider_batch
FNDA:1,_RNvNtNtCsfzvnB6NqPLR_13sqlrustgo_gmp18semantic_embedding5testss_26test_ollama_config_default
FNDA:1,_RNvNtNtCsfzvnB6NqPLR_13sqlrustgo_gmp18semantic_embedding5testss_26test_openai_config_default
FNDA:1,_RNvNtNtCsfzvnB6NqPLR_13sqlrustgo_gmp18semantic_embedding5testss_28test_provider_factory_create
FNDA:1,_RNvNtNtCsfzvnB6NqPLR_13sqlrustgo_gmp18semantic_embedding5testss_32test_hash_provider_deterministic
FNDA:0,_RNvMNtNtCsfzvnB6NqPLR_13sqlrustgo_gmp18semantic_embedding6ollamaNtB2_14OllamaProvider3new
FNDA:0,_RNvXs_NtNtCsfzvnB6NqPLR_13sqlrustgo_gmp18semantic_embedding6ollamaNtB4_14OllamaProviderNtB6_17EmbeddingProvider4name
FNDA:0,_RNvXs_NtNtCsfzvnB6NqPLR_13sqlrustgo_gmp18semantic_embedding6ollamaNtB4_14OllamaProviderNtB6_17EmbeddingProvider8generate
FNDA:0,_RNvXs_NtNtCsfzvnB6NqPLR_13sqlrustgo_gmp18semantic_embedding6ollamaNtB4_14OllamaProviderNtB6_17EmbeddingProvider8is_local
FNDA:0,_RNvXs_NtNtCsfzvnB6NqPLR_13sqlrustgo_gmp18semantic_embedding6ollamaNtB4_14OllamaProviderNtB6_17EmbeddingProvider9dimension
FNDA:0,_RNCNCNCNvXs_NtNtCsfzvnB6NqPLR_13sqlrustgo_gmp18semantic_embedding6openaiNtBa_14OpenAIProviderNtBc_17EmbeddingProvider8generate000Be_
FNDA:0,_RNCNCNvXs_NtNtCsfzvnB6NqPLR_13sqlrustgo_gmp18semantic_embedding6openaiNtB8_14OpenAIProviderNtBa_17EmbeddingProvider8generate00Bc_
FNDA:0,_RNvYNtNtNtCsfzvnB6NqPLR_13sqlrustgo_gmp18semantic_embedding6openai14OpenAIProviderNtB6_17EmbeddingProvider14supports_batchB8_
FNF:41
FNH:21
DA:12,1
DA:13,1
DA:14,1
DA:15,1
DA:16,1
DA:17,1
DA:18,1
DA:30,1
DA:31,1
DA:32,1
DA:33,1
DA:34,1
DA:35,1
DA:36,1
DA:37,1
DA:53,4
DA:54,4
DA:55,4
DA:67,0
DA:68,0
DA:69,0
DA:82,0
DA:83,0
DA:84,0
DA:85,0
DA:86,0
DA:87,0
DA:89,0
DA:90,0
DA:91,0
DA:96,0
DA:97,0
DA:98,0
DA:100,0
DA:101,0
DA:102,0
DA:104,0
DA:105,0
DA:106,0
DA:111,0
DA:132,0
DA:139,0
DA:153,0
DA:154,0
DA:155,0
DA:156,0
DA:157,0
DA:158,0
DA:160,0
DA:161,0
DA:162,0
DA:163,0
DA:164,0
DA:165,0
DA:166,0
DA:171,0
DA:172,0
DA:173,0
DA:175,0
DA:176,0
DA:177,0
DA:179,0
DA:180,0
DA:181,0
DA:186,0
DA:209,0
DA:210,0
DA:211,0
DA:212,0
DA:213,0
DA:214,0
DA:215,0
DA:216,0
DA:220,0
DA:233,4
DA:234,4
DA:235,4
DA:236,4
DA:237,4
DA:242,1
DA:243,1
DA:244,1
DA:246,2
DA:247,2
DA:248,2
DA:250,1
DA:251,1
DA:252,1
DA:257,4
DA:260,6
DA:262,4
DA:264,0
DA:265,0
DA:266,0
DA:273,1
DA:274,1
DA:275,0
DA:276,0
DA:277,1
DA:279,1
DA:281,0
DA:282,0
DA:283,0
DA:285,0
DA:286,0
DA:287,0
DA:289,3
DA:290,3
DA:291,3
DA:299,1
DA:300,1
DA:302,1
DA:303,1
DA:304,1
DA:306,1
DA:307,1
DA:308,1
DA:309,1
DA:310,1
DA:311,1
DA:312,1
DA:315,1
DA:316,1
DA:318,1
DA:319,1
DA:320,1
DA:321,1
DA:322,1
DA:323,1
DA:324,1
DA:325,1
DA:327,1
DA:328,1
DA:331,1
DA:332,1
DA:334,1
DA:335,1
DA:336,1
DA:337,1
DA:338,1
DA:339,1
DA:340,1
DA:341,1
DA:343,1
DA:344,3
DA:345,3
DA:346,1
DA:347,1
DA:350,1
DA:351,1
DA:352,1
DA:353,1
DA:354,1
DA:357,1
DA:358,1
DA:359,1
DA:360,1
DA:361,1
DA:362,1
DA:365,1
DA:366,1
DA:367,1
DA:368,1
DA:369,1
DA:372,1
DA:373,1
DA:374,1
DA:375,1
BRF:0
BRH:0
LF:177
LH:108
end_of_record
SF:/home/openclaw/dev/yinglichina8848/sqlrustgo/crates/gmp/src/sql_api.rs
FN:303,_RNvNtNtCsfzvnB6NqPLR_13sqlrustgo_gmp7sql_api5testss_16test_bulk_import
FN:249,_RNvNtNtCsfzvnB6NqPLR_13sqlrustgo_gmp7sql_api5testss_24test_gmp_executor_import
FN:273,_RNvNtNtCsfzvnB6NqPLR_13sqlrustgo_gmp7sql_api5testss_24test_gmp_executor_search
FN:335,_RNvNtNtCsfzvnB6NqPLR_13sqlrustgo_gmp7sql_api5testss_27test_sql_statement_builders
FN:107,_RNvMNtCsfzvnB6NqPLR_13sqlrustgo_gmp7sql_apiNtB2_11GmpExecutor11bulk_import
FN:120,_RNvMNtCsfzvnB6NqPLR_13sqlrustgo_gmp7sql_apiNtB2_11GmpExecutor12get_document
FN:46,_RNvMNtCsfzvnB6NqPLR_13sqlrustgo_gmp7sql_apiNtB2_11GmpExecutor15import_document
FN:27,_RNvMNtCsfzvnB6NqPLR_13sqlrustgo_gmp7sql_apiNtB2_11GmpExecutor3new
FN:32,_RNvMNtCsfzvnB6NqPLR_13sqlrustgo_gmp7sql_apiNtB2_11GmpExecutor4init
FN:90,_RNvMNtCsfzvnB6NqPLR_13sqlrustgo_gmp7sql_apiNtB2_11GmpExecutor6search
FN:126,_RNCNvMNtCsfzvnB6NqPLR_13sqlrustgo_gmp7sql_apiNtB4_11GmpExecutor12get_document0B6_
FN:127,_RNCNvMNtCsfzvnB6NqPLR_13sqlrustgo_gmp7sql_apiNtB4_11GmpExecutor12get_documents_0B6_
FN:57,_RNCNvMNtCsfzvnB6NqPLR_13sqlrustgo_gmp7sql_apiNtB4_11GmpExecutor15import_document0B6_
FN:139,_RNCNvMNtCsfzvnB6NqPLR_13sqlrustgo_gmp7sql_apiNtB4_11GmpExecutor11reindex_all0B6_
FN:151,_RNCNvMNtCsfzvnB6NqPLR_13sqlrustgo_gmp7sql_apiNtB4_11GmpExecutor11reindex_alls0_0B6_
FN:150,_RNCNvMNtCsfzvnB6NqPLR_13sqlrustgo_gmp7sql_apiNtB4_11GmpExecutor11reindex_alls_0B6_
FN:132,_RNvMNtCsfzvnB6NqPLR_13sqlrustgo_gmp7sql_apiNtB2_11GmpExecutor11reindex_all
FN:102,_RNvMNtCsfzvnB6NqPLR_13sqlrustgo_gmp7sql_apiNtB2_11GmpExecutor12vector_embed
FN:96,_RNvMNtCsfzvnB6NqPLR_13sqlrustgo_gmp7sql_apiNtB2_11GmpExecutor13hybrid_search
FN:219,_RNvNtNtCsfzvnB6NqPLR_13sqlrustgo_gmp7sql_api3sql14select_by_type
FN:227,_RNvNtNtCsfzvnB6NqPLR_13sqlrustgo_gmp7sql_api3sql16select_by_status
FN:209,_RNvNtNtCsfzvnB6NqPLR_13sqlrustgo_gmp7sql_api3sql17select_by_keyword
FN:235,_RNvNtNtCsfzvnB6NqPLR_13sqlrustgo_gmp7sql_api3sql20select_by_date_range
FNDA:1,_RNvNtNtCsfzvnB6NqPLR_13sqlrustgo_gmp7sql_api5testss_16test_bulk_import
FNDA:1,_RNvNtNtCsfzvnB6NqPLR_13sqlrustgo_gmp7sql_api5testss_24test_gmp_executor_import
FNDA:1,_RNvNtNtCsfzvnB6NqPLR_13sqlrustgo_gmp7sql_api5testss_24test_gmp_executor_search
FNDA:1,_RNvNtNtCsfzvnB6NqPLR_13sqlrustgo_gmp7sql_api5testss_27test_sql_statement_builders
FNDA:1,_RNvMNtCsfzvnB6NqPLR_13sqlrustgo_gmp7sql_apiNtB2_11GmpExecutor11bulk_import
FNDA:1,_RNvMNtCsfzvnB6NqPLR_13sqlrustgo_gmp7sql_apiNtB2_11GmpExecutor12get_document
FNDA:6,_RNvMNtCsfzvnB6NqPLR_13sqlrustgo_gmp7sql_apiNtB2_11GmpExecutor15import_document
FNDA:3,_RNvMNtCsfzvnB6NqPLR_13sqlrustgo_gmp7sql_apiNtB2_11GmpExecutor3new
FNDA:3,_RNvMNtCsfzvnB6NqPLR_13sqlrustgo_gmp7sql_apiNtB2_11GmpExecutor4init
FNDA:1,_RNvMNtCsfzvnB6NqPLR_13sqlrustgo_gmp7sql_apiNtB2_11GmpExecutor6search
FNDA:1,_RNCNvMNtCsfzvnB6NqPLR_13sqlrustgo_gmp7sql_apiNtB4_11GmpExecutor12get_document0B6_
FNDA:1,_RNCNvMNtCsfzvnB6NqPLR_13sqlrustgo_gmp7sql_apiNtB4_11GmpExecutor12get_documents_0B6_
FNDA:6,_RNCNvMNtCsfzvnB6NqPLR_13sqlrustgo_gmp7sql_apiNtB4_11GmpExecutor15import_document0B6_
FNDA:0,_RNCNvMNtCsfzvnB6NqPLR_13sqlrustgo_gmp7sql_apiNtB4_11GmpExecutor11reindex_all0B6_
FNDA:0,_RNCNvMNtCsfzvnB6NqPLR_13sqlrustgo_gmp7sql_apiNtB4_11GmpExecutor11reindex_alls0_0B6_
FNDA:0,_RNCNvMNtCsfzvnB6NqPLR_13sqlrustgo_gmp7sql_apiNtB4_11GmpExecutor11reindex_alls_0B6_
FNDA:0,_RNvMNtCsfzvnB6NqPLR_13sqlrustgo_gmp7sql_apiNtB2_11GmpExecutor11reindex_all
FNDA:0,_RNvMNtCsfzvnB6NqPLR_13sqlrustgo_gmp7sql_apiNtB2_11GmpExecutor12vector_embed
FNDA:0,_RNvMNtCsfzvnB6NqPLR_13sqlrustgo_gmp7sql_apiNtB2_11GmpExecutor13hybrid_search
FNDA:1,_RNvNtNtCsfzvnB6NqPLR_13sqlrustgo_gmp7sql_api3sql14select_by_type
FNDA:1,_RNvNtNtCsfzvnB6NqPLR_13sqlrustgo_gmp7sql_api3sql16select_by_status
FNDA:1,_RNvNtNtCsfzvnB6NqPLR_13sqlrustgo_gmp7sql_api3sql17select_by_keyword
FNDA:1,_RNvNtNtCsfzvnB6NqPLR_13sqlrustgo_gmp7sql_api3sql20select_by_date_range
FNF:23
FNH:17
DA:27,3
DA:28,3
DA:29,3
DA:32,3
DA:33,3
DA:34,3
DA:35,3
DA:36,3
DA:37,3
DA:46,6
DA:47,6
DA:48,6
DA:49,6
DA:50,6
DA:51,6
DA:52,6
DA:53,6
DA:55,6
DA:56,6
DA:57,6
DA:58,6
DA:61,6
DA:62,6
DA:63,6
DA:64,6
DA:65,6
DA:66,6
DA:67,6
DA:68,6
DA:69,6
DA:70,6
DA:71,6
DA:72,0
DA:75,6
DA:78,13
DA:79,13
DA:83,6
DA:84,6
DA:86,6
DA:87,6
DA:90,1
DA:91,1
DA:92,1
DA:93,1
DA:96,0
DA:97,0
DA:98,0
DA:99,0
DA:102,0
DA:103,0
DA:104,0
DA:107,1
DA:108,1
DA:109,1
DA:110,1
DA:111,1
DA:112,3
DA:113,3
DA:114,3
DA:116,1
DA:117,1
DA:120,1
DA:122,1
DA:123,1
DA:124,1
DA:125,1
DA:126,1
DA:127,1
DA:128,1
DA:129,1
DA:132,0
DA:133,0
DA:136,0
DA:137,0
DA:138,0
DA:139,0
DA:140,0
DA:143,0
DA:145,0
DA:146,0
DA:148,0
DA:149,0
DA:150,0
DA:151,0
DA:152,0
DA:153,0
DA:154,0
DA:155,0
DA:156,0
DA:158,0
DA:159,0
DA:160,0
DA:161,0
DA:162,0
DA:165,0
DA:166,0
DA:209,1
DA:210,1
DA:216,1
DA:219,1
DA:220,1
DA:224,1
DA:227,1
DA:228,1
DA:232,1
DA:235,1
DA:236,1
DA:240,1
DA:249,1
DA:250,1
DA:251,1
DA:253,1
DA:255,1
DA:256,1
DA:257,1
DA:258,1
DA:259,1
DA:260,1
DA:262,1
DA:264,1
DA:267,1
DA:268,1
DA:269,1
DA:270,1
DA:273,1
DA:274,1
DA:275,1
DA:277,1
DA:279,1
DA:280,1
DA:281,1
DA:282,1
DA:283,1
DA:284,1
DA:286,1
DA:288,1
DA:289,1
DA:290,1
DA:291,1
DA:292,1
DA:293,1
DA:295,1
DA:297,1
DA:298,1
DA:299,1
DA:300,1
DA:303,1
DA:304,1
DA:305,1
DA:307,1
DA:309,1
DA:310,1
DA:311,1
DA:312,1
DA:313,1
DA:314,1
DA:315,1
DA:316,1
DA:317,1
DA:318,1
DA:319,1
DA:320,1
DA:321,1
DA:322,1
DA:323,1
DA:324,1
DA:325,1
DA:326,1
DA:327,1
DA:330,1
DA:331,1
DA:332,1
DA:335,1
DA:336,1
DA:337,1
DA:338,1
DA:339,1
DA:340,1
BRF:0
BRH:0
LF:184
LH:147
end_of_record
SF:/home/openclaw/dev/yinglichina8848/sqlrustgo/crates/gmp/src/vector_search.rs
FN:216,_RNvNtCsfzvnB6NqPLR_13sqlrustgo_gmp13vector_search13hybrid_search
FN:133,_RNvNtCsfzvnB6NqPLR_13sqlrustgo_gmp13vector_search13vector_search
FN:67,_RNvNtCsfzvnB6NqPLR_13sqlrustgo_gmp13vector_search16upsert_embedding
FN:101,_RNvNtCsfzvnB6NqPLR_13sqlrustgo_gmp13vector_search18get_all_embeddings
FN:23,_RNvNtCsfzvnB6NqPLR_13sqlrustgo_gmp13vector_search23create_embeddings_table
FN:228,_RNCNvNtCsfzvnB6NqPLR_13sqlrustgo_gmp13vector_search13hybrid_search0B5_
FN:249,_RNCNvNtCsfzvnB6NqPLR_13sqlrustgo_gmp13vector_search13hybrid_searchs0_0B5_
FN:263,_RNCNvNtCsfzvnB6NqPLR_13sqlrustgo_gmp13vector_search13hybrid_searchs1_0B5_
FN:283,_RNCNvNtCsfzvnB6NqPLR_13sqlrustgo_gmp13vector_search13hybrid_searchs2_0B5_
FN:235,_RNCNvNtCsfzvnB6NqPLR_13sqlrustgo_gmp13vector_search13hybrid_searchs_0B5_
FN:148,_RNCNvNtCsfzvnB6NqPLR_13sqlrustgo_gmp13vector_search13vector_search0B5_
FN:168,_RNCNvNtCsfzvnB6NqPLR_13sqlrustgo_gmp13vector_search13vector_searchs0_0B5_
FN:172,_RNCNvNtCsfzvnB6NqPLR_13sqlrustgo_gmp13vector_search13vector_searchs1_0B5_
FN:179,_RNCNvNtCsfzvnB6NqPLR_13sqlrustgo_gmp13vector_search13vector_searchs2_0B5_
FN:155,_RNCNvNtCsfzvnB6NqPLR_13sqlrustgo_gmp13vector_search13vector_searchs_0B5_
FN:77,_RNCNvNtCsfzvnB6NqPLR_13sqlrustgo_gmp13vector_search16upsert_embedding0B5_
FN:84,_RNCNvNtCsfzvnB6NqPLR_13sqlrustgo_gmp13vector_search16upsert_embeddings_0B5_
FN:105,_RNCNvNtCsfzvnB6NqPLR_13sqlrustgo_gmp13vector_search18get_all_embeddings0B5_
FN:366,_RNvNtNtCsfzvnB6NqPLR_13sqlrustgo_gmp13vector_search5testss_18test_hybrid_search
FN:296,_RNvNtNtCsfzvnB6NqPLR_13sqlrustgo_gmp13vector_search5testss_18test_vector_search
FN:206,_RNCNvNtCsfzvnB6NqPLR_13sqlrustgo_gmp13vector_search20vector_search_active0B5_
FN:198,_RNvNtCsfzvnB6NqPLR_13sqlrustgo_gmp13vector_search20vector_search_active
FNDA:1,_RNvNtCsfzvnB6NqPLR_13sqlrustgo_gmp13vector_search13hybrid_search
FNDA:2,_RNvNtCsfzvnB6NqPLR_13sqlrustgo_gmp13vector_search13vector_search
FNDA:10,_RNvNtCsfzvnB6NqPLR_13sqlrustgo_gmp13vector_search16upsert_embedding
FNDA:3,_RNvNtCsfzvnB6NqPLR_13sqlrustgo_gmp13vector_search18get_all_embeddings
FNDA:15,_RNvNtCsfzvnB6NqPLR_13sqlrustgo_gmp13vector_search23create_embeddings_table
FNDA:1,_RNCNvNtCsfzvnB6NqPLR_13sqlrustgo_gmp13vector_search13hybrid_search0B5_
FNDA:2,_RNCNvNtCsfzvnB6NqPLR_13sqlrustgo_gmp13vector_search13hybrid_searchs0_0B5_
FNDA:1,_RNCNvNtCsfzvnB6NqPLR_13sqlrustgo_gmp13vector_search13hybrid_searchs1_0B5_
FNDA:0,_RNCNvNtCsfzvnB6NqPLR_13sqlrustgo_gmp13vector_search13hybrid_searchs2_0B5_
FNDA:1,_RNCNvNtCsfzvnB6NqPLR_13sqlrustgo_gmp13vector_search13hybrid_searchs_0B5_
FNDA:5,_RNCNvNtCsfzvnB6NqPLR_13sqlrustgo_gmp13vector_search13vector_search0B5_
FNDA:8,_RNCNvNtCsfzvnB6NqPLR_13sqlrustgo_gmp13vector_search13vector_searchs0_0B5_
FNDA:4,_RNCNvNtCsfzvnB6NqPLR_13sqlrustgo_gmp13vector_search13vector_searchs1_0B5_
FNDA:4,_RNCNvNtCsfzvnB6NqPLR_13sqlrustgo_gmp13vector_search13vector_searchs2_0B5_
FNDA:4,_RNCNvNtCsfzvnB6NqPLR_13sqlrustgo_gmp13vector_search13vector_searchs_0B5_
FNDA:10,_RNCNvNtCsfzvnB6NqPLR_13sqlrustgo_gmp13vector_search16upsert_embedding0B5_
FNDA:7,_RNCNvNtCsfzvnB6NqPLR_13sqlrustgo_gmp13vector_search16upsert_embeddings_0B5_
FNDA:6,_RNCNvNtCsfzvnB6NqPLR_13sqlrustgo_gmp13vector_search18get_all_embeddings0B5_
FNDA:1,_RNvNtNtCsfzvnB6NqPLR_13sqlrustgo_gmp13vector_search5testss_18test_hybrid_search
FNDA:1,_RNvNtNtCsfzvnB6NqPLR_13sqlrustgo_gmp13vector_search5testss_18test_vector_search
FNDA:0,_RNCNvNtCsfzvnB6NqPLR_13sqlrustgo_gmp13vector_search20vector_search_active0B5_
FNDA:0,_RNvNtCsfzvnB6NqPLR_13sqlrustgo_gmp13vector_search20vector_search_active
FNF:22
FNH:19
DA:23,15
DA:24,15
DA:25,5
DA:26,5
DA:27,5
DA:28,5
DA:29,5
DA:30,5
DA:31,5
DA:32,5
DA:33,5
DA:34,5
DA:35,5
DA:36,5
DA:37,5
DA:38,5
DA:39,5
DA:40,5
DA:41,5
DA:42,5
DA:43,5
DA:44,5
DA:45,5
DA:46,5
DA:47,5
DA:48,5
DA:49,5
DA:50,5
DA:51,5
DA:52,5
DA:53,5
DA:54,5
DA:55,5
DA:57,5
DA:58,5
DA:59,5
DA:60,5
DA:61,5
DA:62,10
DA:63,15
DA:64,15
DA:67,10
DA:68,10
DA:69,10
DA:70,10
DA:71,10
DA:72,10
DA:74,10
DA:75,10
DA:76,10
DA:77,10
DA:78,10
DA:81,10
DA:82,10
DA:83,10
DA:84,10
DA:86,10
DA:87,0
DA:88,0
DA:89,10
DA:91,10
DA:92,10
DA:93,10
DA:94,10
DA:96,10
DA:97,10
DA:98,10
DA:101,3
DA:102,3
DA:103,3
DA:104,3
DA:105,6
DA:106,6
DA:107,6
DA:108,0
DA:110,6
DA:111,6
DA:112,0
DA:114,6
DA:115,6
DA:116,0
DA:118,6
DA:119,6
DA:120,6
DA:121,6
DA:122,6
DA:123,6
DA:124,6
DA:125,3
DA:126,3
DA:127,3
DA:133,2
DA:134,2
DA:135,2
DA:136,2
DA:137,2
DA:139,2
DA:140,2
DA:143,2
DA:146,2
DA:147,2
DA:148,5
DA:149,5
DA:150,5
DA:151,5
DA:152,2
DA:155,4
DA:158,2
DA:161,2
DA:162,2
DA:164,4
DA:166,4
DA:167,4
DA:168,8
DA:170,4
DA:171,4
DA:172,4
DA:173,4
DA:174,0
DA:175,4
DA:176,4
DA:177,4
DA:178,4
DA:179,4
DA:180,4
DA:181,0
DA:182,4
DA:183,4
DA:185,4
DA:186,4
DA:187,4
DA:188,4
DA:189,4
DA:190,4
DA:191,0
DA:194,2
DA:195,2
DA:198,0
DA:199,0
DA:200,0
DA:201,0
DA:202,0
DA:203,0
DA:204,0
DA:205,0
DA:206,0
DA:207,0
DA:208,0
DA:209,0
DA:210,0
DA:216,1
DA:217,1
DA:218,1
DA:219,1
DA:220,1
DA:221,1
DA:222,1
DA:225,1
DA:226,1
DA:227,1
DA:228,1
DA:229,1
DA:232,1
DA:233,1
DA:234,1
DA:235,1
DA:236,1
DA:239,1
DA:241,1
DA:243,1
DA:244,1
DA:245,1
DA:247,1
DA:248,1
DA:249,2
DA:250,2
DA:251,2
DA:252,1
DA:254,1
DA:255,1
DA:257,0
DA:261,1
DA:262,1
DA:263,1
DA:264,1
DA:267,1
DA:269,1
DA:270,1
DA:271,1
DA:272,1
DA:273,1
DA:274,1
DA:275,1
DA:276,1
DA:277,1
DA:278,1
DA:279,1
DA:283,1
DA:285,1
DA:286,1
DA:296,1
DA:297,1
DA:298,1
DA:299,1
DA:301,1
DA:302,1
DA:303,1
DA:304,1
DA:307,1
DA:308,1
DA:309,1
DA:310,1
DA:311,1
DA:312,1
DA:313,1
DA:314,1
DA:315,1
DA:316,1
DA:317,1
DA:319,1
DA:321,1
DA:322,1
DA:323,1
DA:324,1
DA:325,1
DA:326,1
DA:327,1
DA:328,1
DA:329,1
DA:330,1
DA:331,1
DA:333,1
DA:335,1
DA:336,1
DA:337,1
DA:338,1
DA:339,1
DA:340,1
DA:341,1
DA:342,1
DA:343,1
DA:344,1
DA:345,1
DA:347,1
DA:350,1
DA:351,1
DA:352,1
DA:354,1
DA:355,1
DA:356,1
DA:360,1
DA:361,1
DA:362,1
DA:363,1
DA:366,1
DA:367,1
DA:368,1
DA:369,1
DA:371,1
DA:372,1
DA:373,1
DA:374,1
DA:376,1
DA:377,1
DA:378,1
DA:379,1
DA:380,1
DA:381,1
DA:382,1
DA:383,1
DA:384,1
DA:385,1
DA:386,1
DA:388,1
DA:390,1
DA:391,1
DA:393,1
DA:394,1
DA:395,1
DA:396,1
BRF:0
BRH:0
LF:294
LH:270
end_of_record