SF:/home/openclaw/dev/yinglichina8848/sqlrustgo/crates/catalog/src/auth.rs
FN:44,_RINvXs0_NtCs8tODcHLrppc_17sqlrustgo_catalog4authNtB6_12UserIdentityNtNtCsg36Z3F15IIK_10serde_core2de11Deserialize11deserializepEB8_
FN:35,_RINvXs_NtCs8tODcHLrppc_17sqlrustgo_catalog4authNtB5_12UserIdentityNtNtCsg36Z3F15IIK_10serde_core3ser9Serialize9serializepEB7_
FN:821,_RNCNvMsb_NtCs8tODcHLrppc_17sqlrustgo_catalog4authNtB7_11AuthManager11list_grants0B9_
FN:578,_RNCNvMsb_NtCs8tODcHLrppc_17sqlrustgo_catalog4authNtB7_11AuthManager14get_user_roles0B9_
FN:579,_RNCNvMsb_NtCs8tODcHLrppc_17sqlrustgo_catalog4authNtB7_11AuthManager14get_user_roless_0B9_
FN:801,_RNCNvMsb_NtCs8tODcHLrppc_17sqlrustgo_catalog4authNtB7_11AuthManager16has_grant_option0B9_
FN:686,_RNCNvMsb_NtCs8tODcHLrppc_17sqlrustgo_catalog4authNtB7_11AuthManager16revoke_privilege0B9_
FN:789,_RNCNvMsb_NtCs8tODcHLrppc_17sqlrustgo_catalog4authNtB7_11AuthManager19get_user_privileges0B9_
FN:737,_RNCNvMsb_NtCs8tODcHLrppc_17sqlrustgo_catalog4authNtB7_11AuthManager20has_direct_privilege0B9_
FN:750,_RNCNvMsb_NtCs8tODcHLrppc_17sqlrustgo_catalog4authNtB7_11AuthManager20has_public_privilege0B9_
FN:839,_RNCNvMsb_NtCs8tODcHLrppc_17sqlrustgo_catalog4authNtB7_11AuthManager9drop_role0B9_
FN:842,_RNCNvMsb_NtCs8tODcHLrppc_17sqlrustgo_catalog4authNtB7_11AuthManager9drop_roles_0B9_
FN:178,_RNvMs2_NtCs8tODcHLrppc_17sqlrustgo_catalog4authNtB5_9Privilege7implies
FN:211,_RNvMs4_NtCs8tODcHLrppc_17sqlrustgo_catalog4authNtB5_10ObjectType8from_str
FN:238,_RNvMs5_NtCs8tODcHLrppc_17sqlrustgo_catalog4authNtB5_4User3new
FN:295,_RNvMs7_NtCs8tODcHLrppc_17sqlrustgo_catalog4authNtB5_14PrivilegeGrant3new
FN:364,_RNvMs8_NtCs8tODcHLrppc_17sqlrustgo_catalog4authNtB5_9ObjectRef6column
FN:380,_RNvMs8_NtCs8tODcHLrppc_17sqlrustgo_catalog4authNtB5_9ObjectRef7matches
FN:816,_RNvMsb_NtCs8tODcHLrppc_17sqlrustgo_catalog4authNtB5_11AuthManager10list_roles
FN:812,_RNvMsb_NtCs8tODcHLrppc_17sqlrustgo_catalog4authNtB5_11AuthManager10list_users
FN:820,_RNvMsb_NtCs8tODcHLrppc_17sqlrustgo_catalog4authNtB5_11AuthManager11list_grants
FN:575,_RNvMsb_NtCs8tODcHLrppc_17sqlrustgo_catalog4authNtB5_11AuthManager14get_user_roles
FN:761,_RNvMsb_NtCs8tODcHLrppc_17sqlrustgo_catalog4authNtB5_11AuthManager14matches_object
FN:793,_RNvMsb_NtCs8tODcHLrppc_17sqlrustgo_catalog4authNtB5_11AuthManager16has_grant_option
FN:678,_RNvMsb_NtCs8tODcHLrppc_17sqlrustgo_catalog4authNtB5_11AuthManager16revoke_privilege
FN:551,_RNvMsb_NtCs8tODcHLrppc_17sqlrustgo_catalog4authNtB5_11AuthManager18grant_role_to_user
FN:786,_RNvMsb_NtCs8tODcHLrppc_17sqlrustgo_catalog4authNtB5_11AuthManager19get_user_privileges
FN:602,_RNvMsb_NtCs8tODcHLrppc_17sqlrustgo_catalog4authNtB5_11AuthManager20collect_parent_roles
FN:645,_RNvMsb_NtCs8tODcHLrppc_17sqlrustgo_catalog4authNtB5_11AuthManager20grant_role_privilege
FN:730,_RNvMsb_NtCs8tODcHLrppc_17sqlrustgo_catalog4authNtB5_11AuthManager20has_direct_privilege
FN:747,_RNvMsb_NtCs8tODcHLrppc_17sqlrustgo_catalog4authNtB5_11AuthManager20has_public_privilege
FN:589,_RNvMsb_NtCs8tODcHLrppc_17sqlrustgo_catalog4authNtB5_11AuthManager23collect_roles_recursive
FN:583,_RNvMsb_NtCs8tODcHLrppc_17sqlrustgo_catalog4authNtB5_11AuthManager24get_user_roles_recursive
FN:547,_RNvMsb_NtCs8tODcHLrppc_17sqlrustgo_catalog4authNtB5_11AuthManager8get_role
FN:832,_RNvMsb_NtCs8tODcHLrppc_17sqlrustgo_catalog4authNtB5_11AuthManager9drop_role
FN:403,_RNvXs9_NtCs8tODcHLrppc_17sqlrustgo_catalog4authNtB5_9AuthErrorNtNtCs8nPosuWgJFh_4core3fmt7Display3fmt
FN:856,_RNvXsc_NtCs8tODcHLrppc_17sqlrustgo_catalog4authNtB5_11AuthManagerNtNtCs8nPosuWgJFh_4core7default7Default7default
FN:981,_RNvNtNtCs8tODcHLrppc_17sqlrustgo_catalog4auth5testss_14test_drop_user
FN:954,_RNvNtNtCs8tODcHLrppc_17sqlrustgo_catalog4auth5testss_16test_create_role
FN:911,_RNvNtNtCs8tODcHLrppc_17sqlrustgo_catalog4auth5testss_16test_create_user
FN:925,_RNvNtNtCs8tODcHLrppc_17sqlrustgo_catalog4auth5testss_17test_authenticate
FN:1027,_RNvNtNtCs8tODcHLrppc_17sqlrustgo_catalog4auth5testss_20test_grant_privilege
FN:1076,_RNvNtNtCs8tODcHLrppc_17sqlrustgo_catalog4auth5testss_23test_privilege_from_str
FN:994,_RNvNtNtCs8tODcHLrppc_17sqlrustgo_catalog4auth5testss_24test_drop_user_not_found
FN:1009,_RNvNtNtCs8tODcHLrppc_17sqlrustgo_catalog4auth5testss_25test_duplicate_user_error
FN:1091,_RNvNtNtCs8tODcHLrppc_17sqlrustgo_catalog4auth5testss_25test_scram_credential_new
FN:941,_RNvNtNtCs8tODcHLrppc_17sqlrustgo_catalog4auth5testss_26test_authenticate_wildcard
FN:1046,_RNvNtNtCs8tODcHLrppc_17sqlrustgo_catalog4auth5testss_30test_all_privilege_implies_all
FN:897,_RNvNtNtCs8tODcHLrppc_17sqlrustgo_catalog4auth5testss_30test_user_identity_hash_and_eq
FN:1085,_RNvNtNtCs8tODcHLrppc_17sqlrustgo_catalog4auth5testss_31test_scram_credential_constants
FN:1110,_RNvNtNtCs8tODcHLrppc_17sqlrustgo_catalog4auth5testss_36test_scram_credential_verify_failure
FN:1102,_RNvNtNtCs8tODcHLrppc_17sqlrustgo_catalog4auth5testss_36test_scram_credential_verify_success
FN:886,_RNvNtNtCs8tODcHLrppc_17sqlrustgo_catalog4auth5testss_36test_user_identity_new_and_normalize
FN:1136,_RNvNtNtCs8tODcHLrppc_17sqlrustgo_catalog4auth5testss_37test_scram_credential_clone_and_debug
FN:964,_RNvNtNtCs8tODcHLrppc_17sqlrustgo_catalog4auth5testss_38test_find_exact_user_and_wildcard_user
FN:1126,_RNvNtNtCs8tODcHLrppc_17sqlrustgo_catalog4auth5testss_56test_scram_credential_different_passwords_different_keys
FN:19,_RNvMNtCs8tODcHLrppc_17sqlrustgo_catalog4authNtB2_12UserIdentity3new
FN:26,_RNvMNtCs8tODcHLrppc_17sqlrustgo_catalog4authNtB2_12UserIdentity9normalize
FN:80,_RNvMs1_NtCs8tODcHLrppc_17sqlrustgo_catalog4authNtB5_15ScramCredential3new
FN:98,_RNvMs1_NtCs8tODcHLrppc_17sqlrustgo_catalog4authNtB5_15ScramCredential6verify
FN:163,_RNvMs2_NtCs8tODcHLrppc_17sqlrustgo_catalog4authNtB5_9Privilege8from_str
FN:261,_RNvMs6_NtCs8tODcHLrppc_17sqlrustgo_catalog4authNtB5_4Role3new
FN:318,_RNvMs7_NtCs8tODcHLrppc_17sqlrustgo_catalog4authNtB5_14PrivilegeGrant7matches
FN:356,_RNvMs8_NtCs8tODcHLrppc_17sqlrustgo_catalog4authNtB5_9ObjectRef5table
FN:372,_RNvMs8_NtCs8tODcHLrppc_17sqlrustgo_catalog4authNtB5_9ObjectRef8database
FN:520,_RNvMsb_NtCs8tODcHLrppc_17sqlrustgo_catalog4authNtB5_11AuthManager11create_role
FN:438,_RNvMsb_NtCs8tODcHLrppc_17sqlrustgo_catalog4authNtB5_11AuthManager11create_user
FN:469,_RNvMsb_NtCs8tODcHLrppc_17sqlrustgo_catalog4authNtB5_11AuthManager12authenticate
FN:828,_RNvMsb_NtCs8tODcHLrppc_17sqlrustgo_catalog4authNtB5_11AuthManager14all_privileges
FN:695,_RNvMsb_NtCs8tODcHLrppc_17sqlrustgo_catalog4authNtB5_11AuthManager15check_privilege
FN:461,_RNvMsb_NtCs8tODcHLrppc_17sqlrustgo_catalog4authNtB5_11AuthManager15find_exact_user
FN:613,_RNvMsb_NtCs8tODcHLrppc_17sqlrustgo_catalog4authNtB5_11AuthManager15grant_privilege
FN:485,_RNvMsb_NtCs8tODcHLrppc_17sqlrustgo_catalog4authNtB5_11AuthManager17verify_and_return
FN:465,_RNvMsb_NtCs8tODcHLrppc_17sqlrustgo_catalog4authNtB5_11AuthManager18find_wildcard_user
FN:425,_RNvMsb_NtCs8tODcHLrppc_17sqlrustgo_catalog4authNtB5_11AuthManager3new
FN:824,_RNvMsb_NtCs8tODcHLrppc_17sqlrustgo_catalog4authNtB5_11AuthManager9all_users
FN:508,_RNvMsb_NtCs8tODcHLrppc_17sqlrustgo_catalog4authNtB5_11AuthManager9drop_user
FN:130,_RNvNtCs8tODcHLrppc_17sqlrustgo_catalog4auth11hash_sha256
FN:120,_RNvNtCs8tODcHLrppc_17sqlrustgo_catalog4auth11hmac_sha256
FN:868,_RNvNtCs8tODcHLrppc_17sqlrustgo_catalog4auth13hash_password
FN:877,_RNvNtCs8tODcHLrppc_17sqlrustgo_catalog4auth15verify_password
FN:137,_RNvNtCs8tODcHLrppc_17sqlrustgo_catalog4auth16constant_time_eq
FN:861,_RNvNtCs8tODcHLrppc_17sqlrustgo_catalog4auth17current_timestamp
FN:106,_RNvNtCs8tODcHLrppc_17sqlrustgo_catalog4auth20generate_random_salt
FN:113,_RNvNtCs8tODcHLrppc_17sqlrustgo_catalog4auth6pbkdf2
FN:187,_RNvXs3_NtCs8tODcHLrppc_17sqlrustgo_catalog4authNtB5_9PrivilegeNtNtCs8nPosuWgJFh_4core3fmt7Display3fmt
FNDA:0,_RINvXs0_NtCs8tODcHLrppc_17sqlrustgo_catalog4authNtB6_12UserIdentityNtNtCsg36Z3F15IIK_10serde_core2de11Deserialize11deserializepEB8_
FNDA:0,_RINvXs_NtCs8tODcHLrppc_17sqlrustgo_catalog4authNtB5_12UserIdentityNtNtCsg36Z3F15IIK_10serde_core3ser9Serialize9serializepEB7_
FNDA:0,_RNCNvMsb_NtCs8tODcHLrppc_17sqlrustgo_catalog4authNtB7_11AuthManager11list_grants0B9_
FNDA:0,_RNCNvMsb_NtCs8tODcHLrppc_17sqlrustgo_catalog4authNtB7_11AuthManager14get_user_roles0B9_
FNDA:0,_RNCNvMsb_NtCs8tODcHLrppc_17sqlrustgo_catalog4authNtB7_11AuthManager14get_user_roless_0B9_
FNDA:0,_RNCNvMsb_NtCs8tODcHLrppc_17sqlrustgo_catalog4authNtB7_11AuthManager16has_grant_option0B9_
FNDA:0,_RNCNvMsb_NtCs8tODcHLrppc_17sqlrustgo_catalog4authNtB7_11AuthManager16revoke_privilege0B9_
FNDA:0,_RNCNvMsb_NtCs8tODcHLrppc_17sqlrustgo_catalog4authNtB7_11AuthManager19get_user_privileges0B9_
FNDA:0,_RNCNvMsb_NtCs8tODcHLrppc_17sqlrustgo_catalog4authNtB7_11AuthManager20has_direct_privilege0B9_
FNDA:0,_RNCNvMsb_NtCs8tODcHLrppc_17sqlrustgo_catalog4authNtB7_11AuthManager20has_public_privilege0B9_
FNDA:0,_RNCNvMsb_NtCs8tODcHLrppc_17sqlrustgo_catalog4authNtB7_11AuthManager9drop_role0B9_
FNDA:0,_RNCNvMsb_NtCs8tODcHLrppc_17sqlrustgo_catalog4authNtB7_11AuthManager9drop_roles_0B9_
FNDA:0,_RNvMs2_NtCs8tODcHLrppc_17sqlrustgo_catalog4authNtB5_9Privilege7implies
FNDA:0,_RNvMs4_NtCs8tODcHLrppc_17sqlrustgo_catalog4authNtB5_10ObjectType8from_str
FNDA:0,_RNvMs5_NtCs8tODcHLrppc_17sqlrustgo_catalog4authNtB5_4User3new
FNDA:0,_RNvMs7_NtCs8tODcHLrppc_17sqlrustgo_catalog4authNtB5_14PrivilegeGrant3new
FNDA:0,_RNvMs8_NtCs8tODcHLrppc_17sqlrustgo_catalog4authNtB5_9ObjectRef6column
FNDA:0,_RNvMs8_NtCs8tODcHLrppc_17sqlrustgo_catalog4authNtB5_9ObjectRef7matches
FNDA:0,_RNvMsb_NtCs8tODcHLrppc_17sqlrustgo_catalog4authNtB5_11AuthManager10list_roles
FNDA:0,_RNvMsb_NtCs8tODcHLrppc_17sqlrustgo_catalog4authNtB5_11AuthManager10list_users
FNDA:0,_RNvMsb_NtCs8tODcHLrppc_17sqlrustgo_catalog4authNtB5_11AuthManager11list_grants
FNDA:0,_RNvMsb_NtCs8tODcHLrppc_17sqlrustgo_catalog4authNtB5_11AuthManager14get_user_roles
FNDA:0,_RNvMsb_NtCs8tODcHLrppc_17sqlrustgo_catalog4authNtB5_11AuthManager14matches_object
FNDA:0,_RNvMsb_NtCs8tODcHLrppc_17sqlrustgo_catalog4authNtB5_11AuthManager16has_grant_option
FNDA:0,_RNvMsb_NtCs8tODcHLrppc_17sqlrustgo_catalog4authNtB5_11AuthManager16revoke_privilege
FNDA:0,_RNvMsb_NtCs8tODcHLrppc_17sqlrustgo_catalog4authNtB5_11AuthManager18grant_role_to_user
FNDA:0,_RNvMsb_NtCs8tODcHLrppc_17sqlrustgo_catalog4authNtB5_11AuthManager19get_user_privileges
FNDA:0,_RNvMsb_NtCs8tODcHLrppc_17sqlrustgo_catalog4authNtB5_11AuthManager20collect_parent_roles
FNDA:0,_RNvMsb_NtCs8tODcHLrppc_17sqlrustgo_catalog4authNtB5_11AuthManager20grant_role_privilege
FNDA:0,_RNvMsb_NtCs8tODcHLrppc_17sqlrustgo_catalog4authNtB5_11AuthManager20has_direct_privilege
FNDA:0,_RNvMsb_NtCs8tODcHLrppc_17sqlrustgo_catalog4authNtB5_11AuthManager20has_public_privilege
FNDA:0,_RNvMsb_NtCs8tODcHLrppc_17sqlrustgo_catalog4authNtB5_11AuthManager23collect_roles_recursive
FNDA:0,_RNvMsb_NtCs8tODcHLrppc_17sqlrustgo_catalog4authNtB5_11AuthManager24get_user_roles_recursive
FNDA:0,_RNvMsb_NtCs8tODcHLrppc_17sqlrustgo_catalog4authNtB5_11AuthManager8get_role
FNDA:0,_RNvMsb_NtCs8tODcHLrppc_17sqlrustgo_catalog4authNtB5_11AuthManager9drop_role
FNDA:0,_RNvXs9_NtCs8tODcHLrppc_17sqlrustgo_catalog4authNtB5_9AuthErrorNtNtCs8nPosuWgJFh_4core3fmt7Display3fmt
FNDA:0,_RNvXsc_NtCs8tODcHLrppc_17sqlrustgo_catalog4authNtB5_11AuthManagerNtNtCs8nPosuWgJFh_4core7default7Default7default
FNDA:1,_RNvNtNtCs8tODcHLrppc_17sqlrustgo_catalog4auth5testss_14test_drop_user
FNDA:1,_RNvNtNtCs8tODcHLrppc_17sqlrustgo_catalog4auth5testss_16test_create_role
FNDA:1,_RNvNtNtCs8tODcHLrppc_17sqlrustgo_catalog4auth5testss_16test_create_user
FNDA:1,_RNvNtNtCs8tODcHLrppc_17sqlrustgo_catalog4auth5testss_17test_authenticate
FNDA:1,_RNvNtNtCs8tODcHLrppc_17sqlrustgo_catalog4auth5testss_20test_grant_privilege
FNDA:1,_RNvNtNtCs8tODcHLrppc_17sqlrustgo_catalog4auth5testss_23test_privilege_from_str
FNDA:1,_RNvNtNtCs8tODcHLrppc_17sqlrustgo_catalog4auth5testss_24test_drop_user_not_found
FNDA:1,_RNvNtNtCs8tODcHLrppc_17sqlrustgo_catalog4auth5testss_25test_duplicate_user_error
FNDA:1,_RNvNtNtCs8tODcHLrppc_17sqlrustgo_catalog4auth5testss_25test_scram_credential_new
FNDA:1,_RNvNtNtCs8tODcHLrppc_17sqlrustgo_catalog4auth5testss_26test_authenticate_wildcard
FNDA:1,_RNvNtNtCs8tODcHLrppc_17sqlrustgo_catalog4auth5testss_30test_all_privilege_implies_all
FNDA:1,_RNvNtNtCs8tODcHLrppc_17sqlrustgo_catalog4auth5testss_30test_user_identity_hash_and_eq
FNDA:1,_RNvNtNtCs8tODcHLrppc_17sqlrustgo_catalog4auth5testss_31test_scram_credential_constants
FNDA:1,_RNvNtNtCs8tODcHLrppc_17sqlrustgo_catalog4auth5testss_36test_scram_credential_verify_failure
FNDA:1,_RNvNtNtCs8tODcHLrppc_17sqlrustgo_catalog4auth5testss_36test_scram_credential_verify_success
FNDA:1,_RNvNtNtCs8tODcHLrppc_17sqlrustgo_catalog4auth5testss_36test_user_identity_new_and_normalize
FNDA:1,_RNvNtNtCs8tODcHLrppc_17sqlrustgo_catalog4auth5testss_37test_scram_credential_clone_and_debug
FNDA:1,_RNvNtNtCs8tODcHLrppc_17sqlrustgo_catalog4auth5testss_38test_find_exact_user_and_wildcard_user
FNDA:1,_RNvNtNtCs8tODcHLrppc_17sqlrustgo_catalog4auth5testss_56test_scram_credential_different_passwords_different_keys
FNDA:24,_RNvMNtCs8tODcHLrppc_17sqlrustgo_catalog4authNtB2_12UserIdentity3new
FNDA:13,_RNvMNtCs8tODcHLrppc_17sqlrustgo_catalog4authNtB2_12UserIdentity9normalize
FNDA:6,_RNvMs1_NtCs8tODcHLrppc_17sqlrustgo_catalog4authNtB5_15ScramCredential3new
FNDA:5,_RNvMs1_NtCs8tODcHLrppc_17sqlrustgo_catalog4authNtB5_15ScramCredential6verify
FNDA:5,_RNvMs2_NtCs8tODcHLrppc_17sqlrustgo_catalog4authNtB5_9Privilege8from_str
FNDA:2,_RNvMs6_NtCs8tODcHLrppc_17sqlrustgo_catalog4authNtB5_4Role3new
FNDA:5,_RNvMs7_NtCs8tODcHLrppc_17sqlrustgo_catalog4authNtB5_14PrivilegeGrant7matches
FNDA:2,_RNvMs8_NtCs8tODcHLrppc_17sqlrustgo_catalog4authNtB5_9ObjectRef5table
FNDA:3,_RNvMs8_NtCs8tODcHLrppc_17sqlrustgo_catalog4authNtB5_9ObjectRef8database
FNDA:2,_RNvMsb_NtCs8tODcHLrppc_17sqlrustgo_catalog4authNtB5_11AuthManager11create_role
FNDA:13,_RNvMsb_NtCs8tODcHLrppc_17sqlrustgo_catalog4authNtB5_11AuthManager11create_user
FNDA:4,_RNvMsb_NtCs8tODcHLrppc_17sqlrustgo_catalog4authNtB5_11AuthManager12authenticate
FNDA:2,_RNvMsb_NtCs8tODcHLrppc_17sqlrustgo_catalog4authNtB5_11AuthManager14all_privileges
FNDA:5,_RNvMsb_NtCs8tODcHLrppc_17sqlrustgo_catalog4authNtB5_11AuthManager15check_privilege
FNDA:5,_RNvMsb_NtCs8tODcHLrppc_17sqlrustgo_catalog4authNtB5_11AuthManager15find_exact_user
FNDA:4,_RNvMsb_NtCs8tODcHLrppc_17sqlrustgo_catalog4authNtB5_11AuthManager15grant_privilege
FNDA:3,_RNvMsb_NtCs8tODcHLrppc_17sqlrustgo_catalog4authNtB5_11AuthManager17verify_and_return
FNDA:2,_RNvMsb_NtCs8tODcHLrppc_17sqlrustgo_catalog4authNtB5_11AuthManager18find_wildcard_user
FNDA:14,_RNvMsb_NtCs8tODcHLrppc_17sqlrustgo_catalog4authNtB5_11AuthManager3new
FNDA:2,_RNvMsb_NtCs8tODcHLrppc_17sqlrustgo_catalog4authNtB5_11AuthManager9all_users
FNDA:2,_RNvMsb_NtCs8tODcHLrppc_17sqlrustgo_catalog4authNtB5_11AuthManager9drop_user
FNDA:11,_RNvNtCs8tODcHLrppc_17sqlrustgo_catalog4auth11hash_sha256
FNDA:17,_RNvNtCs8tODcHLrppc_17sqlrustgo_catalog4auth11hmac_sha256
FNDA:11,_RNvNtCs8tODcHLrppc_17sqlrustgo_catalog4auth13hash_password
FNDA:3,_RNvNtCs8tODcHLrppc_17sqlrustgo_catalog4auth15verify_password
FNDA:5,_RNvNtCs8tODcHLrppc_17sqlrustgo_catalog4auth16constant_time_eq
FNDA:30,_RNvNtCs8tODcHLrppc_17sqlrustgo_catalog4auth17current_timestamp
FNDA:6,_RNvNtCs8tODcHLrppc_17sqlrustgo_catalog4auth20generate_random_salt
FNDA:11,_RNvNtCs8tODcHLrppc_17sqlrustgo_catalog4auth6pbkdf2
FNDA:1,_RNvXs3_NtCs8tODcHLrppc_17sqlrustgo_catalog4authNtB5_9PrivilegeNtNtCs8nPosuWgJFh_4core3fmt7Display3fmt
FNF:86
FNH:49
DA:19,24
DA:20,24
DA:21,24
DA:22,24
DA:23,24
DA:24,24
DA:26,13
DA:27,13
DA:28,13
DA:29,13
DA:30,13
DA:31,13
DA:35,0
DA:36,0
DA:37,0
DA:39,0
DA:40,0
DA:44,0
DA:45,0
DA:46,0
DA:48,0
DA:49,0
DA:50,0
DA:51,0
DA:53,0
DA:55,0
DA:80,6
DA:81,6
DA:82,6
DA:84,6
DA:85,6
DA:86,6
DA:87,6
DA:89,6
DA:90,6
DA:91,6
DA:92,6
DA:93,6
DA:94,6
DA:95,6
DA:96,6
DA:98,5
DA:99,5
DA:100,5
DA:101,5
DA:102,5
DA:103,5
DA:106,6
DA:108,6
DA:109,6
DA:110,6
DA:111,6
DA:113,11
DA:117,11
DA:118,11
DA:120,17
DA:125,17
DA:126,17
DA:127,17
DA:128,17
DA:130,11
DA:132,11
DA:133,11
DA:134,11
DA:135,11
DA:137,5
DA:138,5
DA:139,0
DA:140,5
DA:141,5
DA:142,160
DA:143,160
DA:144,160
DA:145,5
DA:146,5
DA:163,5
DA:164,5
DA:165,5
DA:166,3
DA:167,2
DA:168,2
DA:169,2
DA:170,2
DA:171,2
DA:172,2
DA:173,2
DA:174,1
DA:176,5
DA:178,0
DA:179,0
DA:180,0
DA:181,0
DA:183,0
DA:187,1
DA:188,1
DA:189,0
DA:190,1
DA:191,0
DA:192,0
DA:193,0
DA:194,0
DA:195,0
DA:196,0
DA:197,0
DA:199,1
DA:211,0
DA:212,0
DA:213,0
DA:214,0
DA:215,0
DA:216,0
DA:218,0
DA:238,0
DA:239,0
DA:240,0
DA:241,0
DA:242,0
DA:243,0
DA:244,0
DA:245,0
DA:246,0
DA:247,0
DA:248,0
DA:261,2
DA:262,2
DA:263,2
DA:264,2
DA:265,2
DA:266,2
DA:267,2
DA:268,2
DA:269,2
DA:295,0
DA:296,0
DA:297,0
DA:298,0
DA:299,0
DA:300,0
DA:301,0
DA:302,0
DA:303,0
DA:304,0
DA:305,0
DA:306,0
DA:307,0
DA:308,0
DA:309,0
DA:310,0
DA:311,0
DA:312,0
DA:313,0
DA:314,0
DA:315,0
DA:316,0
DA:318,5
DA:319,5
DA:320,0
DA:321,5
DA:323,5
DA:324,2
DA:325,0
DA:326,2
DA:328,3
DA:330,3
DA:331,3
DA:332,3
DA:333,0
DA:335,0
DA:337,0
DA:338,0
DA:339,0
DA:340,0
DA:342,0
DA:344,0
DA:345,5
DA:356,2
DA:357,2
DA:358,2
DA:359,2
DA:360,2
DA:361,2
DA:362,2
DA:364,0
DA:365,0
DA:366,0
DA:367,0
DA:368,0
DA:369,0
DA:370,0
DA:372,3
DA:373,3
DA:374,3
DA:375,3
DA:376,3
DA:377,3
DA:378,3
DA:380,0
DA:381,0
DA:382,0
DA:403,0
DA:404,0
DA:405,0
DA:425,14
DA:426,14
DA:427,14
DA:428,14
DA:429,14
DA:430,14
DA:431,14
DA:432,14
DA:433,14
DA:434,14
DA:435,14
DA:436,14
DA:438,13
DA:439,13
DA:440,1
DA:441,1
DA:442,1
DA:443,1
DA:444,1
DA:445,1
DA:446,1
DA:447,12
DA:449,12
DA:450,12
DA:451,12
DA:452,12
DA:453,12
DA:454,12
DA:455,12
DA:457,12
DA:458,12
DA:459,13
DA:461,5
DA:462,5
DA:463,5
DA:465,2
DA:466,2
DA:467,2
DA:469,4
DA:470,4
DA:471,2
DA:472,2
DA:474,2
DA:475,2
DA:476,1
DA:477,1
DA:479,1
DA:480,1
DA:481,1
DA:482,1
DA:483,4
DA:485,3
DA:486,3
DA:487,3
DA:488,3
DA:489,3
DA:490,3
DA:491,3
DA:492,0
DA:493,0
DA:494,0
DA:495,0
DA:496,3
DA:498,3
DA:499,1
DA:500,1
DA:501,1
DA:502,1
DA:503,2
DA:505,2
DA:506,3
DA:508,2
DA:509,2
DA:510,2
DA:511,1
DA:513,1
DA:514,1
DA:515,1
DA:516,1
DA:518,2
DA:520,2
DA:521,2
DA:522,0
DA:523,0
DA:524,0
DA:525,0
DA:526,2
DA:528,2
DA:529,1
DA:530,0
DA:531,0
DA:532,0
DA:533,0
DA:534,1
DA:535,1
DA:537,2
DA:538,2
DA:540,2
DA:541,2
DA:542,2
DA:544,2
DA:545,2
DA:547,0
DA:548,0
DA:549,0
DA:551,0
DA:552,0
DA:553,0
DA:554,0
DA:555,0
DA:556,0
DA:557,0
DA:558,0
DA:559,0
DA:560,0
DA:561,0
DA:562,0
DA:564,0
DA:565,0
DA:566,0
DA:567,0
DA:568,0
DA:569,0
DA:571,0
DA:572,0
DA:573,0
DA:575,0
DA:576,0
DA:577,0
DA:578,0
DA:579,0
DA:580,0
DA:581,0
DA:583,0
DA:584,0
DA:585,0
DA:586,0
DA:587,0
DA:589,0
DA:590,0
DA:591,0
DA:592,0
DA:593,0
DA:594,0
DA:595,0
DA:596,0
DA:597,0
DA:598,0
DA:600,0
DA:602,0
DA:603,0
DA:604,0
DA:605,0
DA:606,0
DA:607,0
DA:608,0
DA:609,0
DA:610,0
DA:611,0
DA:613,4
DA:614,4
DA:615,4
DA:616,4
DA:617,4
DA:618,4
DA:619,4
DA:620,4
DA:621,4
DA:622,4
DA:624,4
DA:625,4
DA:626,4
DA:627,4
DA:628,4
DA:629,4
DA:630,4
DA:631,4
DA:632,4
DA:633,4
DA:634,4
DA:635,4
DA:637,4
DA:638,4
DA:639,4
DA:640,4
DA:642,4
DA:643,4
DA:645,0
DA:646,0
DA:647,0
DA:648,0
DA:649,0
DA:650,0
DA:651,0
DA:652,0
DA:653,0
DA:654,0
DA:656,0
DA:657,0
DA:658,0
DA:659,0
DA:660,0
DA:661,0
DA:662,0
DA:663,0
DA:664,0
DA:665,0
DA:666,0
DA:667,0
DA:669,0
DA:670,0
DA:671,0
DA:672,0
DA:673,0
DA:675,0
DA:676,0
DA:678,0
DA:679,0
DA:680,0
DA:681,0
DA:682,0
DA:683,0
DA:684,0
DA:685,0
DA:686,0
DA:687,0
DA:688,0
DA:689,0
DA:690,0
DA:691,0
DA:692,0
DA:693,0
DA:695,5
DA:696,5
DA:697,5
DA:698,5
DA:699,5
DA:700,5
DA:701,5
DA:703,5
DA:704,5
DA:705,5
DA:706,4
DA:707,1
DA:709,0
DA:711,1
DA:712,1
DA:713,0
DA:714,0
DA:715,0
DA:716,0
DA:718,1
DA:720,1
DA:721,1
DA:722,1
DA:723,1
DA:724,1
DA:725,1
DA:726,1
DA:727,5
DA:730,0
DA:731,0
DA:732,0
DA:733,0
DA:734,0
DA:735,0
DA:736,0
DA:737,0
DA:738,0
DA:739,0
DA:740,0
DA:741,0
DA:742,0
DA:743,0
DA:744,0
DA:747,0
DA:748,0
DA:749,0
DA:750,0
DA:751,0
DA:752,0
DA:753,0
DA:754,0
DA:755,0
DA:756,0
DA:757,0
DA:758,0
DA:761,0
DA:762,0
DA:763,0
DA:764,0
DA:765,0
DA:766,0
DA:767,0
DA:768,0
DA:769,0
DA:771,0
DA:772,0
DA:773,0
DA:775,0
DA:776,0
DA:777,0
DA:779,0
DA:780,0
DA:781,0
DA:783,0
DA:784,0
DA:786,0
DA:787,0
DA:788,0
DA:789,0
DA:790,0
DA:791,0
DA:793,0
DA:794,0
DA:795,0
DA:796,0
DA:797,0
DA:798,0
DA:799,0
DA:800,0
DA:801,0
DA:802,0
DA:803,0
DA:804,0
DA:805,0
DA:806,0
DA:807,0
DA:808,0
DA:809,0
DA:810,0
DA:812,0
DA:813,0
DA:814,0
DA:816,0
DA:817,0
DA:818,0
DA:820,0
DA:821,0
DA:822,0
DA:824,2
DA:825,2
DA:826,2
DA:828,2
DA:829,2
DA:830,2
DA:832,0
DA:833,0
DA:834,0
DA:835,0
DA:836,0
DA:838,0
DA:839,0
DA:841,0
DA:842,0
DA:845,0
DA:846,0
DA:847,0
DA:848,0
DA:851,0
DA:852,0
DA:856,0
DA:857,0
DA:858,0
DA:861,30
DA:862,30
DA:863,30
DA:864,30
DA:865,30
DA:866,30
DA:868,11
DA:872,11
DA:873,11
DA:874,11
DA:875,11
DA:877,3
DA:878,3
DA:879,3
DA:886,1
DA:887,1
DA:888,1
DA:889,1
DA:891,1
DA:892,1
DA:893,1
DA:894,1
DA:897,1
DA:898,1
DA:899,1
DA:900,1
DA:902,1
DA:903,1
DA:905,1
DA:906,1
DA:907,1
DA:908,1
DA:911,1
DA:912,1
DA:913,1
DA:914,1
DA:916,1
DA:918,1
DA:919,1
DA:920,1
DA:921,1
DA:922,1
DA:925,1
DA:926,1
DA:927,1
DA:928,1
DA:930,1
DA:932,1
DA:933,1
DA:935,1
DA:936,1
DA:937,1
DA:938,1
DA:941,1
DA:942,1
DA:943,1
DA:944,1
DA:946,1
DA:947,1
DA:949,1
DA:950,1
DA:951,1
DA:954,1
DA:955,1
DA:956,1
DA:957,1
DA:959,1
DA:960,1
DA:961,1
DA:964,1
DA:965,1
DA:966,1
DA:967,1
DA:968,1
DA:970,1
DA:971,1
DA:972,1
DA:974,1
DA:975,1
DA:976,1
DA:977,1
DA:978,1
DA:981,1
DA:982,1
DA:983,1
DA:984,1
DA:986,1
DA:987,1
DA:989,1
DA:990,1
DA:991,1
DA:994,1
DA:995,1
DA:996,1
DA:998,1
DA:999,1
DA:1000,1
DA:1006,1
DA:1009,1
DA:1010,1
DA:1011,1
DA:1012,1
DA:1014,1
DA:1016,1
DA:1017,1
DA:1018,1
DA:1024,1
DA:1027,1
DA:1028,1
DA:1029,1
DA:1030,1
DA:1032,1
DA:1034,1
DA:1035,1
DA:1037,1
DA:1038,1
DA:1039,1
DA:1040,1
DA:1041,1
DA:1042,1
DA:1043,1
DA:1046,1
DA:1047,1
DA:1048,1
DA:1049,1
DA:1051,1
DA:1053,1
DA:1054,1
DA:1056,1
DA:1057,1
DA:1058,1
DA:1059,1
DA:1060,1
DA:1061,1
DA:1062,1
DA:1063,1
DA:1064,1
DA:1065,1
DA:1066,1
DA:1067,1
DA:1068,1
DA:1069,1
DA:1070,1
DA:1071,1
DA:1072,1
DA:1073,1
DA:1076,1
DA:1077,1
DA:1078,1
DA:1079,1
DA:1080,1
DA:1081,1
DA:1082,1
DA:1085,1
DA:1086,1
DA:1087,1
DA:1088,1
DA:1091,1
DA:1092,1
DA:1094,1
DA:1095,1
DA:1096,1
DA:1097,1
DA:1098,1
DA:1099,1
DA:1102,1
DA:1103,1
DA:1104,1
DA:1106,1
DA:1107,1
DA:1110,1
DA:1111,1
DA:1113,1
DA:1114,1
DA:1117,1
DA:1118,1
DA:1121,1
DA:1122,1
DA:1123,1
DA:1126,1
DA:1127,1
DA:1128,1
DA:1130,1
DA:1131,1
DA:1132,1
DA:1133,1
DA:1136,1
DA:1137,1
DA:1138,1
DA:1140,1
DA:1141,1
DA:1142,1
DA:1143,1
DA:1144,1
DA:1146,1
DA:1147,1
DA:1148,1
BRF:0
BRH:0
LF:773
LH:455
end_of_record
SF:/home/openclaw/dev/yinglichina8848/sqlrustgo/crates/catalog/src/column.rs
FN:28,_RINvMNtCs8tODcHLrppc_17sqlrustgo_catalog6columnNtB3_16ColumnDefinition3newNtNtCsj0gLuUEfogP_5alloc6string6StringEB5_
FN:28,_RINvMNtCs8tODcHLrppc_17sqlrustgo_catalog6columnNtB3_16ColumnDefinition3newReEB5_
FN:120,_RNvNtNtCs8tODcHLrppc_17sqlrustgo_catalog6column5testss_20test_column_creation
FN:129,_RNvNtNtCs8tODcHLrppc_17sqlrustgo_catalog6column5testss_20test_column_not_null
FN:135,_RNvNtNtCs8tODcHLrppc_17sqlrustgo_catalog6column5testss_23test_column_primary_key
FN:159,_RNvNtNtCs8tODcHLrppc_17sqlrustgo_catalog6column5testss_23test_value_matches_type
FN:144,_RNvNtNtCs8tODcHLrppc_17sqlrustgo_catalog6column5testss_24test_validate_empty_name
FN:151,_RNvNtNtCs8tODcHLrppc_17sqlrustgo_catalog6column5testss_25test_validate_nullable_pk
FN:52,_RNvMNtCs8tODcHLrppc_17sqlrustgo_catalog6columnNtB2_16ColumnDefinition11primary_key
FN:60,_RNvMNtCs8tODcHLrppc_17sqlrustgo_catalog6columnNtB2_16ColumnDefinition13default_value
FN:66,_RNvMNtCs8tODcHLrppc_17sqlrustgo_catalog6columnNtB2_16ColumnDefinition14is_primary_key
FN:100,_RNvMNtCs8tODcHLrppc_17sqlrustgo_catalog6columnNtB2_16ColumnDefinition18value_matches_type
FN:46,_RNvMNtCs8tODcHLrppc_17sqlrustgo_catalog6columnNtB2_16ColumnDefinition6unique
FN:40,_RNvMNtCs8tODcHLrppc_17sqlrustgo_catalog6columnNtB2_16ColumnDefinition8not_null
FN:71,_RNvMNtCs8tODcHLrppc_17sqlrustgo_catalog6columnNtB2_16ColumnDefinition8validate
FNDA:14,_RINvMNtCs8tODcHLrppc_17sqlrustgo_catalog6columnNtB3_16ColumnDefinition3newNtNtCsj0gLuUEfogP_5alloc6string6StringEB5_
FNDA:77,_RINvMNtCs8tODcHLrppc_17sqlrustgo_catalog6columnNtB3_16ColumnDefinition3newReEB5_
FNDA:1,_RNvNtNtCs8tODcHLrppc_17sqlrustgo_catalog6column5testss_20test_column_creation
FNDA:1,_RNvNtNtCs8tODcHLrppc_17sqlrustgo_catalog6column5testss_20test_column_not_null
FNDA:1,_RNvNtNtCs8tODcHLrppc_17sqlrustgo_catalog6column5testss_23test_column_primary_key
FNDA:1,_RNvNtNtCs8tODcHLrppc_17sqlrustgo_catalog6column5testss_23test_value_matches_type
FNDA:1,_RNvNtNtCs8tODcHLrppc_17sqlrustgo_catalog6column5testss_24test_validate_empty_name
FNDA:1,_RNvNtNtCs8tODcHLrppc_17sqlrustgo_catalog6column5testss_25test_validate_nullable_pk
FNDA:7,_RNvMNtCs8tODcHLrppc_17sqlrustgo_catalog6columnNtB2_16ColumnDefinition11primary_key
FNDA:2,_RNvMNtCs8tODcHLrppc_17sqlrustgo_catalog6columnNtB2_16ColumnDefinition13default_value
FNDA:32,_RNvMNtCs8tODcHLrppc_17sqlrustgo_catalog6columnNtB2_16ColumnDefinition14is_primary_key
FNDA:2,_RNvMNtCs8tODcHLrppc_17sqlrustgo_catalog6columnNtB2_16ColumnDefinition18value_matches_type
FNDA:7,_RNvMNtCs8tODcHLrppc_17sqlrustgo_catalog6columnNtB2_16ColumnDefinition6unique
FNDA:16,_RNvMNtCs8tODcHLrppc_17sqlrustgo_catalog6columnNtB2_16ColumnDefinition8not_null
FNDA:31,_RNvMNtCs8tODcHLrppc_17sqlrustgo_catalog6columnNtB2_16ColumnDefinition8validate
FNF:14
FNH:14
DA:28,91
DA:29,91
DA:30,91
DA:31,91
DA:32,91
DA:33,91
DA:34,91
DA:35,91
DA:36,91
DA:37,91
DA:40,16
DA:41,16
DA:42,16
DA:43,16
DA:46,7
DA:47,7
DA:48,7
DA:49,7
DA:52,7
DA:53,7
DA:54,7
DA:55,7
DA:56,7
DA:57,7
DA:60,2
DA:61,2
DA:62,2
DA:63,2
DA:66,32
DA:67,32
DA:68,32
DA:71,31
DA:72,31
DA:73,1
DA:74,1
DA:75,1
DA:76,30
DA:79,30
DA:80,0
DA:81,0
DA:82,0
DA:83,0
DA:84,30
DA:87,30
DA:88,2
DA:89,0
DA:90,0
DA:91,0
DA:92,0
DA:93,2
DA:94,28
DA:96,30
DA:97,31
DA:100,2
DA:101,2
DA:102,1
DA:103,0
DA:104,1
DA:105,0
DA:106,0
DA:107,0
DA:108,0
DA:109,0
DA:110,0
DA:112,2
DA:120,1
DA:121,1
DA:122,1
DA:123,1
DA:124,1
DA:125,1
DA:126,1
DA:129,1
DA:130,1
DA:131,1
DA:132,1
DA:135,1
DA:136,1
DA:137,1
DA:138,1
DA:139,1
DA:140,1
DA:141,1
DA:144,1
DA:145,1
DA:146,1
DA:147,1
DA:148,1
DA:151,1
DA:152,1
DA:153,1
DA:154,1
DA:155,1
DA:156,1
DA:159,1
DA:160,1
DA:161,1
DA:162,1
DA:163,1
DA:166,1
DA:167,1
DA:168,1
DA:169,1
DA:170,1
BRF:0
BRH:0
LF:104
LH:89
end_of_record
SF:/home/openclaw/dev/yinglichina8848/sqlrustgo/crates/catalog/src/data_type.rs
FN:93,_RNvMNtCs8tODcHLrppc_17sqlrustgo_catalog9data_typeNtB2_8DataType12is_equatable
FN:88,_RNvMNtCs8tODcHLrppc_17sqlrustgo_catalog9data_typeNtB2_8DataType12is_orderable
FN:58,_RNvMNtCs8tODcHLrppc_17sqlrustgo_catalog9data_typeNtB2_8DataType14parse_sql_name
FN:76,_RNvMNtCs8tODcHLrppc_17sqlrustgo_catalog9data_typeNtB2_8DataType24is_valid_for_primary_key
FN:40,_RNvMNtCs8tODcHLrppc_17sqlrustgo_catalog9data_typeNtB2_8DataType8sql_name
FN:99,_RNvXs_NtCs8tODcHLrppc_17sqlrustgo_catalog9data_typeNtB4_8DataTypeNtNtCs8nPosuWgJFh_4core3fmt7Display3fmt
FN:140,_RNvNtNtCs8tODcHLrppc_17sqlrustgo_catalog9data_type5testss_12test_default
FN:145,_RNvNtNtCs8tODcHLrppc_17sqlrustgo_catalog9data_type5testss_12test_display
FN:133,_RNvNtNtCs8tODcHLrppc_17sqlrustgo_catalog9data_type5testss_17test_is_orderable
FN:241,_RNvNtNtCs8tODcHLrppc_17sqlrustgo_catalog9data_type5testss_19test_data_type_copy
FN:116,_RNvNtNtCs8tODcHLrppc_17sqlrustgo_catalog9data_type5testss_19test_parse_sql_name
FN:234,_RNvNtNtCs8tODcHLrppc_17sqlrustgo_catalog9data_type5testss_20test_data_type_clone
FN:248,_RNvNtNtCs8tODcHLrppc_17sqlrustgo_catalog9data_type5testss_20test_data_type_debug
FN:215,_RNvNtNtCs8tODcHLrppc_17sqlrustgo_catalog9data_type5testss_21test_is_equatable_all
FN:200,_RNvNtNtCs8tODcHLrppc_17sqlrustgo_catalog9data_type5testss_21test_is_orderable_all
FN:109,_RNvNtNtCs8tODcHLrppc_17sqlrustgo_catalog9data_type5testss_23test_data_type_sql_name
FN:166,_RNvNtNtCs8tODcHLrppc_17sqlrustgo_catalog9data_type5testss_23test_parse_sql_name_all
FN:125,_RNvNtNtCs8tODcHLrppc_17sqlrustgo_catalog9data_type5testss_26test_valid_for_primary_key
FN:151,_RNvNtNtCs8tODcHLrppc_17sqlrustgo_catalog9data_type5testss_27test_data_type_sql_name_all
FN:255,_RNvNtNtCs8tODcHLrppc_17sqlrustgo_catalog9data_type5testss_29test_data_type_partial_eq_all
FN:189,_RNvNtNtCs8tODcHLrppc_17sqlrustgo_catalog9data_type5testss_30test_valid_for_primary_key_all
FNDA:11,_RNvMNtCs8tODcHLrppc_17sqlrustgo_catalog9data_typeNtB2_8DataType12is_equatable
FNDA:14,_RNvMNtCs8tODcHLrppc_17sqlrustgo_catalog9data_typeNtB2_8DataType12is_orderable
FNDA:36,_RNvMNtCs8tODcHLrppc_17sqlrustgo_catalog9data_typeNtB2_8DataType14parse_sql_name
FNDA:11,_RNvMNtCs8tODcHLrppc_17sqlrustgo_catalog9data_typeNtB2_8DataType24is_valid_for_primary_key
FNDA:16,_RNvMNtCs8tODcHLrppc_17sqlrustgo_catalog9data_typeNtB2_8DataType8sql_name
FNDA:2,_RNvXs_NtCs8tODcHLrppc_17sqlrustgo_catalog9data_typeNtB4_8DataTypeNtNtCs8nPosuWgJFh_4core3fmt7Display3fmt
FNDA:1,_RNvNtNtCs8tODcHLrppc_17sqlrustgo_catalog9data_type5testss_12test_default
FNDA:1,_RNvNtNtCs8tODcHLrppc_17sqlrustgo_catalog9data_type5testss_12test_display
FNDA:1,_RNvNtNtCs8tODcHLrppc_17sqlrustgo_catalog9data_type5testss_17test_is_orderable
FNDA:1,_RNvNtNtCs8tODcHLrppc_17sqlrustgo_catalog9data_type5testss_19test_data_type_copy
FNDA:1,_RNvNtNtCs8tODcHLrppc_17sqlrustgo_catalog9data_type5testss_19test_parse_sql_name
FNDA:1,_RNvNtNtCs8tODcHLrppc_17sqlrustgo_catalog9data_type5testss_20test_data_type_clone
FNDA:1,_RNvNtNtCs8tODcHLrppc_17sqlrustgo_catalog9data_type5testss_20test_data_type_debug
FNDA:1,_RNvNtNtCs8tODcHLrppc_17sqlrustgo_catalog9data_type5testss_21test_is_equatable_all
FNDA:1,_RNvNtNtCs8tODcHLrppc_17sqlrustgo_catalog9data_type5testss_21test_is_orderable_all
FNDA:1,_RNvNtNtCs8tODcHLrppc_17sqlrustgo_catalog9data_type5testss_23test_data_type_sql_name
FNDA:1,_RNvNtNtCs8tODcHLrppc_17sqlrustgo_catalog9data_type5testss_23test_parse_sql_name_all
FNDA:1,_RNvNtNtCs8tODcHLrppc_17sqlrustgo_catalog9data_type5testss_26test_valid_for_primary_key
FNDA:1,_RNvNtNtCs8tODcHLrppc_17sqlrustgo_catalog9data_type5testss_27test_data_type_sql_name_all
FNDA:1,_RNvNtNtCs8tODcHLrppc_17sqlrustgo_catalog9data_type5testss_29test_data_type_partial_eq_all
FNDA:1,_RNvNtNtCs8tODcHLrppc_17sqlrustgo_catalog9data_type5testss_30test_valid_for_primary_key_all
FNF:21
FNH:21
DA:40,16
DA:41,16
DA:42,1
DA:43,2
DA:44,3
DA:45,1
DA:46,3
DA:47,1
DA:48,1
DA:49,1
DA:50,1
DA:51,1
DA:52,1
DA:54,16
DA:58,36
DA:59,36
DA:60,36
DA:61,35
DA:62,33
DA:63,21
DA:64,19
DA:65,10
DA:66,7
DA:67,7
DA:68,6
DA:69,5
DA:70,4
DA:71,3
DA:73,36
DA:76,11
DA:77,6
DA:78,11
DA:85,11
DA:88,14
DA:89,14
DA:90,14
DA:93,11
DA:94,11
DA:95,11
DA:99,2
DA:100,2
DA:101,2
DA:109,1
DA:110,1
DA:111,1
DA:112,1
DA:113,1
DA:116,1
DA:117,1
DA:118,1
DA:119,1
DA:120,1
DA:121,1
DA:122,1
DA:125,1
DA:126,1
DA:127,1
DA:128,1
DA:129,1
DA:130,1
DA:133,1
DA:134,1
DA:135,1
DA:136,1
DA:137,1
DA:140,1
DA:141,1
DA:142,1
DA:145,1
DA:146,1
DA:147,1
DA:148,1
DA:151,1
DA:152,1
DA:153,1
DA:154,1
DA:155,1
DA:156,1
DA:157,1
DA:158,1
DA:159,1
DA:160,1
DA:161,1
DA:162,1
DA:163,1
DA:166,1
DA:167,1
DA:168,1
DA:169,1
DA:170,1
DA:171,1
DA:172,1
DA:173,1
DA:174,1
DA:175,1
DA:176,1
DA:177,1
DA:178,1
DA:179,1
DA:182,1
DA:183,1
DA:184,1
DA:185,1
DA:186,1
DA:189,1
DA:190,1
DA:191,1
DA:192,1
DA:193,1
DA:194,1
DA:195,1
DA:196,1
DA:197,1
DA:200,1
DA:201,1
DA:202,1
DA:203,1
DA:204,1
DA:205,1
DA:206,1
DA:207,1
DA:208,1
DA:209,1
DA:210,1
DA:211,1
DA:212,1
DA:215,1
DA:216,11
DA:217,1
DA:218,1
DA:219,1
DA:220,1
DA:221,1
DA:222,1
DA:223,1
DA:224,1
DA:225,1
DA:226,1
DA:227,1
DA:228,1
DA:229,11
DA:231,1
DA:234,1
DA:235,1
DA:236,1
DA:237,1
DA:238,1
DA:241,1
DA:242,1
DA:243,1
DA:244,1
DA:245,1
DA:248,1
DA:249,1
DA:250,1
DA:251,1
DA:252,1
DA:255,1
DA:256,1
DA:257,1
DA:258,1
DA:259,1
DA:260,1
DA:261,1
DA:262,1
DA:263,1
DA:264,1
DA:265,1
DA:266,1
DA:267,1
DA:268,1
DA:269,11
DA:270,11
DA:272,1
DA:273,1
BRF:0
BRH:0
LF:175
LH:175
end_of_record
SF:/home/openclaw/dev/yinglichina8848/sqlrustgo/crates/catalog/src/error.rs
FN:111,_RNvNtNtCs8tODcHLrppc_17sqlrustgo_catalog5error5testss_20test_duplicate_table
FN:83,_RNvNtNtCs8tODcHLrppc_17sqlrustgo_catalog5error5testss_20test_table_not_found
FN:94,_RNvNtNtCs8tODcHLrppc_17sqlrustgo_catalog5error5testss_21test_column_not_found
FN:122,_RNvNtNtCs8tODcHLrppc_17sqlrustgo_catalog5error5testss_21test_duplicate_column
FN:105,_RNvNtNtCs8tODcHLrppc_17sqlrustgo_catalog5error5testss_21test_duplicate_schema
FN:77,_RNvNtNtCs8tODcHLrppc_17sqlrustgo_catalog5error5testss_21test_schema_not_found
FN:171,_RNvNtNtCs8tODcHLrppc_17sqlrustgo_catalog5error5testss_22test_catalog_result_ok
FN:153,_RNvNtNtCs8tODcHLrppc_17sqlrustgo_catalog5error5testss_22test_cyclic_dependency
FN:178,_RNvNtNtCs8tODcHLrppc_17sqlrustgo_catalog5error5testss_23test_catalog_result_err
FN:133,_RNvNtNtCs8tODcHLrppc_17sqlrustgo_catalog5error5testss_24test_invalid_primary_key
FN:159,_RNvNtNtCs8tODcHLrppc_17sqlrustgo_catalog5error5testss_24test_invariant_violation
FN:165,_RNvNtNtCs8tODcHLrppc_17sqlrustgo_catalog5error5testss_24test_serialization_error
FN:139,_RNvNtNtCs8tODcHLrppc_17sqlrustgo_catalog5error5testss_26test_foreign_key_violation
FNDA:1,_RNvNtNtCs8tODcHLrppc_17sqlrustgo_catalog5error5testss_20test_duplicate_table
FNDA:1,_RNvNtNtCs8tODcHLrppc_17sqlrustgo_catalog5error5testss_20test_table_not_found
FNDA:1,_RNvNtNtCs8tODcHLrppc_17sqlrustgo_catalog5error5testss_21test_column_not_found
FNDA:1,_RNvNtNtCs8tODcHLrppc_17sqlrustgo_catalog5error5testss_21test_duplicate_column
FNDA:1,_RNvNtNtCs8tODcHLrppc_17sqlrustgo_catalog5error5testss_21test_duplicate_schema
FNDA:1,_RNvNtNtCs8tODcHLrppc_17sqlrustgo_catalog5error5testss_21test_schema_not_found
FNDA:1,_RNvNtNtCs8tODcHLrppc_17sqlrustgo_catalog5error5testss_22test_catalog_result_ok
FNDA:1,_RNvNtNtCs8tODcHLrppc_17sqlrustgo_catalog5error5testss_22test_cyclic_dependency
FNDA:1,_RNvNtNtCs8tODcHLrppc_17sqlrustgo_catalog5error5testss_23test_catalog_result_err
FNDA:1,_RNvNtNtCs8tODcHLrppc_17sqlrustgo_catalog5error5testss_24test_invalid_primary_key
FNDA:1,_RNvNtNtCs8tODcHLrppc_17sqlrustgo_catalog5error5testss_24test_invariant_violation
FNDA:1,_RNvNtNtCs8tODcHLrppc_17sqlrustgo_catalog5error5testss_24test_serialization_error
FNDA:1,_RNvNtNtCs8tODcHLrppc_17sqlrustgo_catalog5error5testss_26test_foreign_key_violation
FNF:13
FNH:13
DA:77,1
DA:78,1
DA:79,1
DA:80,1
DA:83,1
DA:84,1
DA:85,1
DA:86,1
DA:87,1
DA:88,1
DA:89,1
DA:90,1
DA:91,1
DA:94,1
DA:95,1
DA:96,1
DA:97,1
DA:98,1
DA:99,1
DA:100,1
DA:101,1
DA:102,1
DA:105,1
DA:106,1
DA:107,1
DA:108,1
DA:111,1
DA:112,1
DA:113,1
DA:114,1
DA:115,1
DA:116,1
DA:117,1
DA:118,1
DA:119,1
DA:122,1
DA:123,1
DA:124,1
DA:125,1
DA:126,1
DA:127,1
DA:128,1
DA:129,1
DA:130,1
DA:133,1
DA:134,1
DA:135,1
DA:136,1
DA:139,1
DA:140,1
DA:141,1
DA:142,1
DA:143,1
DA:144,1
DA:145,1
DA:146,1
DA:147,1
DA:148,1
DA:149,1
DA:150,1
DA:153,1
DA:154,1
DA:155,1
DA:156,1
DA:159,1
DA:160,1
DA:161,1
DA:162,1
DA:165,1
DA:166,1
DA:167,1
DA:168,1
DA:171,1
DA:172,1
DA:173,1
DA:174,1
DA:175,1
DA:178,1
DA:179,1
DA:180,1
DA:181,1
BRF:0
BRH:0
LF:81
LH:81
end_of_record
SF:/home/openclaw/dev/yinglichina8848/sqlrustgo/crates/catalog/src/index.rs
FN:136,_RNvNtNtCs8tODcHLrppc_17sqlrustgo_catalog5index5testss_16test_index_clone
FN:144,_RNvNtNtCs8tODcHLrppc_17sqlrustgo_catalog5index5testss_16test_index_debug
FN:92,_RNvNtNtCs8tODcHLrppc_17sqlrustgo_catalog5index5testss_17test_unique_index
FN:75,_RNvNtNtCs8tODcHLrppc_17sqlrustgo_catalog5index5testss_19test_index_creation
FN:129,_RNvNtNtCs8tODcHLrppc_17sqlrustgo_catalog5index5testss_20test_index_type_enum
FN:105,_RNvNtNtCs8tODcHLrppc_17sqlrustgo_catalog5index5testss_20test_index_type_hash
FN:99,_RNvNtNtCs8tODcHLrppc_17sqlrustgo_catalog5index5testss_21test_index_type_btree
FN:85,_RNvNtNtCs8tODcHLrppc_17sqlrustgo_catalog5index5testss_22test_primary_key_index
FN:111,_RNvNtNtCs8tODcHLrppc_17sqlrustgo_catalog5index5testss_24test_index_type_fulltext
FN:117,_RNvNtNtCs8tODcHLrppc_17sqlrustgo_catalog5index5testss_32test_index_with_multiple_columns
FN:35,_RINvMNtCs8tODcHLrppc_17sqlrustgo_catalog5indexNtB3_9IndexInfo3newNtNtCsj0gLuUEfogP_5alloc6string6StringB11_EB5_
FN:35,_RINvMNtCs8tODcHLrppc_17sqlrustgo_catalog5indexNtB3_9IndexInfo3newReB11_EB5_
FN:51,_RNvMNtCs8tODcHLrppc_17sqlrustgo_catalog5indexNtB2_9IndexInfo11primary_key
FN:58,_RNvMNtCs8tODcHLrppc_17sqlrustgo_catalog5indexNtB2_9IndexInfo6unique
FN:64,_RNvMNtCs8tODcHLrppc_17sqlrustgo_catalog5indexNtB2_9IndexInfo9with_type
FNDA:1,_RNvNtNtCs8tODcHLrppc_17sqlrustgo_catalog5index5testss_16test_index_clone
FNDA:1,_RNvNtNtCs8tODcHLrppc_17sqlrustgo_catalog5index5testss_16test_index_debug
FNDA:1,_RNvNtNtCs8tODcHLrppc_17sqlrustgo_catalog5index5testss_17test_unique_index
FNDA:1,_RNvNtNtCs8tODcHLrppc_17sqlrustgo_catalog5index5testss_19test_index_creation
FNDA:1,_RNvNtNtCs8tODcHLrppc_17sqlrustgo_catalog5index5testss_20test_index_type_enum
FNDA:1,_RNvNtNtCs8tODcHLrppc_17sqlrustgo_catalog5index5testss_20test_index_type_hash
FNDA:1,_RNvNtNtCs8tODcHLrppc_17sqlrustgo_catalog5index5testss_21test_index_type_btree
FNDA:1,_RNvNtNtCs8tODcHLrppc_17sqlrustgo_catalog5index5testss_22test_primary_key_index
FNDA:1,_RNvNtNtCs8tODcHLrppc_17sqlrustgo_catalog5index5testss_24test_index_type_fulltext
FNDA:1,_RNvNtNtCs8tODcHLrppc_17sqlrustgo_catalog5index5testss_32test_index_with_multiple_columns
FNDA:21,_RINvMNtCs8tODcHLrppc_17sqlrustgo_catalog5indexNtB3_9IndexInfo3newNtNtCsj0gLuUEfogP_5alloc6string6StringB11_EB5_
FNDA:10,_RINvMNtCs8tODcHLrppc_17sqlrustgo_catalog5indexNtB3_9IndexInfo3newReB11_EB5_
FNDA:21,_RNvMNtCs8tODcHLrppc_17sqlrustgo_catalog5indexNtB2_9IndexInfo11primary_key
FNDA:1,_RNvMNtCs8tODcHLrppc_17sqlrustgo_catalog5indexNtB2_9IndexInfo6unique
FNDA:3,_RNvMNtCs8tODcHLrppc_17sqlrustgo_catalog5indexNtB2_9IndexInfo9with_type
FNF:14
FNH:14
DA:35,31
DA:36,31
DA:37,31
DA:38,31
DA:39,31
DA:40,31
DA:41,31
DA:42,31
DA:43,31
DA:44,31
DA:45,31
DA:46,31
DA:47,31
DA:48,31
DA:51,21
DA:52,21
DA:53,21
DA:54,21
DA:55,21
DA:58,1
DA:59,1
DA:60,1
DA:61,1
DA:64,3
DA:65,3
DA:66,3
DA:67,3
DA:75,1
DA:76,1
DA:77,1
DA:78,1
DA:79,1
DA:80,1
DA:81,1
DA:82,1
DA:85,1
DA:86,1
DA:87,1
DA:88,1
DA:89,1
DA:92,1
DA:93,1
DA:94,1
DA:95,1
DA:96,1
DA:99,1
DA:100,1
DA:101,1
DA:102,1
DA:105,1
DA:106,1
DA:107,1
DA:108,1
DA:111,1
DA:112,1
DA:113,1
DA:114,1
DA:117,1
DA:118,1
DA:121,1
DA:123,1
DA:124,1
DA:125,1
DA:126,1
DA:129,1
DA:130,1
DA:131,1
DA:132,1
DA:133,1
DA:136,1
DA:137,1
DA:138,1
DA:139,1
DA:140,1
DA:141,1
DA:144,1
DA:145,1
DA:146,1
DA:147,1
DA:148,1
DA:149,1
BRF:0
BRH:0
LF:81
LH:81
end_of_record
SF:/home/openclaw/dev/yinglichina8848/sqlrustgo/crates/catalog/src/lib.rs
FN:289,_RNCNCNvMs_Cs8tODcHLrppc_17sqlrustgo_catalogNtB8_7Catalog7rebuilds0_00B8_
FN:263,_RNCNCNvMs_Cs8tODcHLrppc_17sqlrustgo_catalogNtB8_7Catalog7rebuilds_00B8_
FN:136,_RNCNvMs_Cs8tODcHLrppc_17sqlrustgo_catalogNtB6_7Catalog19get_table_in_schema0B6_
FN:252,_RNCNvMs_Cs8tODcHLrppc_17sqlrustgo_catalogNtB6_7Catalog7rebuild0B6_
FN:288,_RNCNvMs_Cs8tODcHLrppc_17sqlrustgo_catalogNtB6_7Catalog7rebuilds0_0B6_
FN:316,_RNCNvMs_Cs8tODcHLrppc_17sqlrustgo_catalogNtB6_7Catalog7rebuilds1_0B6_
FN:262,_RNCNvMs_Cs8tODcHLrppc_17sqlrustgo_catalogNtB6_7Catalog7rebuilds_0B6_
FN:129,_RNCNvMs_Cs8tODcHLrppc_17sqlrustgo_catalogNtB6_7Catalog9get_table0B6_
FN:337,_RNvCs8tODcHLrppc_17sqlrustgo_catalog17convert_fk_action
FN:133,_RNvMs_Cs8tODcHLrppc_17sqlrustgo_catalogNtB4_7Catalog19get_table_in_schema
FN:247,_RNvMs_Cs8tODcHLrppc_17sqlrustgo_catalogNtB4_7Catalog7rebuild
FN:128,_RNvMs_Cs8tODcHLrppc_17sqlrustgo_catalogNtB4_7Catalog9get_table
FN:49,_RNvXCs8tODcHLrppc_17sqlrustgo_catalogNtB2_7CatalogNtNtCs8nPosuWgJFh_4core7default7Default7default
FN:365,_RNvNtCs8tODcHLrppc_17sqlrustgo_catalog5testss_15test_add_schema
FN:380,_RNvNtCs8tODcHLrppc_17sqlrustgo_catalog5testss_15test_get_schema
FN:401,_RNvNtCs8tODcHLrppc_17sqlrustgo_catalog5testss_16test_all_schemas
FN:350,_RNvNtCs8tODcHLrppc_17sqlrustgo_catalog5testss_21test_catalog_creation
FN:373,_RNvNtCs8tODcHLrppc_17sqlrustgo_catalog5testss_21test_duplicate_schema
FN:393,_RNvNtCs8tODcHLrppc_17sqlrustgo_catalog5testss_24test_get_schema_mut_read
FN:410,_RNvNtCs8tODcHLrppc_17sqlrustgo_catalog5testss_25test_add_stored_procedure
FN:444,_RNvNtCs8tODcHLrppc_17sqlrustgo_catalog5testss_25test_get_stored_procedure
FN:457,_RNvNtCs8tODcHLrppc_17sqlrustgo_catalog5testss_25test_has_stored_procedure
FN:470,_RNvNtCs8tODcHLrppc_17sqlrustgo_catalog5testss_26test_drop_stored_procedure
FN:484,_RNvNtCs8tODcHLrppc_17sqlrustgo_catalog5testss_27test_stored_procedure_names
FN:427,_RNvNtCs8tODcHLrppc_17sqlrustgo_catalog5testss_31test_duplicate_stored_procedure
FN:387,_RNvNtCs8tODcHLrppc_17sqlrustgo_catalog5testss_35test_check_invariants_empty_catalog
FN:358,_RNvNtCs8tODcHLrppc_17sqlrustgo_catalog5testss_39test_catalog_with_custom_default_schema
FN:104,_RNvMs_Cs8tODcHLrppc_17sqlrustgo_catalogNtB4_7Catalog10add_schema
FN:94,_RNvMs_Cs8tODcHLrppc_17sqlrustgo_catalogNtB4_7Catalog10get_schema
FN:123,_RNvMs_Cs8tODcHLrppc_17sqlrustgo_catalogNtB4_7Catalog10has_schema
FN:118,_RNvMs_Cs8tODcHLrppc_17sqlrustgo_catalogNtB4_7Catalog11all_schemas
FN:113,_RNvMs_Cs8tODcHLrppc_17sqlrustgo_catalogNtB4_7Catalog12schema_names
FN:89,_RNvMs_Cs8tODcHLrppc_17sqlrustgo_catalogNtB4_7Catalog14default_schema
FN:99,_RNvMs_Cs8tODcHLrppc_17sqlrustgo_catalogNtB4_7Catalog14get_schema_mut
FN:178,_RNvMs_Cs8tODcHLrppc_17sqlrustgo_catalogNtB4_7Catalog16check_invariants
FN:84,_RNvMs_Cs8tODcHLrppc_17sqlrustgo_catalogNtB4_7Catalog19default_schema_name
FN:140,_RNvMs_Cs8tODcHLrppc_17sqlrustgo_catalogNtB4_7Catalog20add_stored_procedure
FN:149,_RNvMs_Cs8tODcHLrppc_17sqlrustgo_catalogNtB4_7Catalog20get_stored_procedure
FN:154,_RNvMs_Cs8tODcHLrppc_17sqlrustgo_catalogNtB4_7Catalog20has_stored_procedure
FN:159,_RNvMs_Cs8tODcHLrppc_17sqlrustgo_catalogNtB4_7Catalog21drop_stored_procedure
FN:164,_RNvMs_Cs8tODcHLrppc_17sqlrustgo_catalogNtB4_7Catalog22stored_procedure_names
FN:56,_RNvMs_Cs8tODcHLrppc_17sqlrustgo_catalogNtB4_7Catalog3new
FN:70,_RINvMs_Cs8tODcHLrppc_17sqlrustgo_catalogNtB5_7Catalog19with_default_schemaReEB5_
FN:114,_RNCNvMs_Cs8tODcHLrppc_17sqlrustgo_catalogNtB6_7Catalog12schema_names0B6_
FN:167,_RNCNvMs_Cs8tODcHLrppc_17sqlrustgo_catalogNtB6_7Catalog22stored_procedure_names0B6_
FNDA:0,_RNCNCNvMs_Cs8tODcHLrppc_17sqlrustgo_catalogNtB8_7Catalog7rebuilds0_00B8_
FNDA:0,_RNCNCNvMs_Cs8tODcHLrppc_17sqlrustgo_catalogNtB8_7Catalog7rebuilds_00B8_
FNDA:0,_RNCNvMs_Cs8tODcHLrppc_17sqlrustgo_catalogNtB6_7Catalog19get_table_in_schema0B6_
FNDA:0,_RNCNvMs_Cs8tODcHLrppc_17sqlrustgo_catalogNtB6_7Catalog7rebuild0B6_
FNDA:0,_RNCNvMs_Cs8tODcHLrppc_17sqlrustgo_catalogNtB6_7Catalog7rebuilds0_0B6_
FNDA:0,_RNCNvMs_Cs8tODcHLrppc_17sqlrustgo_catalogNtB6_7Catalog7rebuilds1_0B6_
FNDA:0,_RNCNvMs_Cs8tODcHLrppc_17sqlrustgo_catalogNtB6_7Catalog7rebuilds_0B6_
FNDA:0,_RNCNvMs_Cs8tODcHLrppc_17sqlrustgo_catalogNtB6_7Catalog9get_table0B6_
FNDA:0,_RNvCs8tODcHLrppc_17sqlrustgo_catalog17convert_fk_action
FNDA:0,_RNvMs_Cs8tODcHLrppc_17sqlrustgo_catalogNtB4_7Catalog19get_table_in_schema
FNDA:0,_RNvMs_Cs8tODcHLrppc_17sqlrustgo_catalogNtB4_7Catalog7rebuild
FNDA:0,_RNvMs_Cs8tODcHLrppc_17sqlrustgo_catalogNtB4_7Catalog9get_table
FNDA:0,_RNvXCs8tODcHLrppc_17sqlrustgo_catalogNtB2_7CatalogNtNtCs8nPosuWgJFh_4core7default7Default7default
FNDA:1,_RNvNtCs8tODcHLrppc_17sqlrustgo_catalog5testss_15test_add_schema
FNDA:1,_RNvNtCs8tODcHLrppc_17sqlrustgo_catalog5testss_15test_get_schema
FNDA:1,_RNvNtCs8tODcHLrppc_17sqlrustgo_catalog5testss_16test_all_schemas
FNDA:1,_RNvNtCs8tODcHLrppc_17sqlrustgo_catalog5testss_21test_catalog_creation
FNDA:1,_RNvNtCs8tODcHLrppc_17sqlrustgo_catalog5testss_21test_duplicate_schema
FNDA:1,_RNvNtCs8tODcHLrppc_17sqlrustgo_catalog5testss_24test_get_schema_mut_read
FNDA:1,_RNvNtCs8tODcHLrppc_17sqlrustgo_catalog5testss_25test_add_stored_procedure
FNDA:1,_RNvNtCs8tODcHLrppc_17sqlrustgo_catalog5testss_25test_get_stored_procedure
FNDA:1,_RNvNtCs8tODcHLrppc_17sqlrustgo_catalog5testss_25test_has_stored_procedure
FNDA:1,_RNvNtCs8tODcHLrppc_17sqlrustgo_catalog5testss_26test_drop_stored_procedure
FNDA:1,_RNvNtCs8tODcHLrppc_17sqlrustgo_catalog5testss_27test_stored_procedure_names
FNDA:1,_RNvNtCs8tODcHLrppc_17sqlrustgo_catalog5testss_31test_duplicate_stored_procedure
FNDA:1,_RNvNtCs8tODcHLrppc_17sqlrustgo_catalog5testss_35test_check_invariants_empty_catalog
FNDA:1,_RNvNtCs8tODcHLrppc_17sqlrustgo_catalog5testss_39test_catalog_with_custom_default_schema
FNDA:4,_RNvMs_Cs8tODcHLrppc_17sqlrustgo_catalogNtB4_7Catalog10add_schema
FNDA:2,_RNvMs_Cs8tODcHLrppc_17sqlrustgo_catalogNtB4_7Catalog10get_schema
FNDA:3,_RNvMs_Cs8tODcHLrppc_17sqlrustgo_catalogNtB4_7Catalog10has_schema
FNDA:1,_RNvMs_Cs8tODcHLrppc_17sqlrustgo_catalogNtB4_7Catalog11all_schemas
FNDA:2,_RNvMs_Cs8tODcHLrppc_17sqlrustgo_catalogNtB4_7Catalog12schema_names
FNDA:5,_RNvMs_Cs8tODcHLrppc_17sqlrustgo_catalogNtB4_7Catalog14default_schema
FNDA:1,_RNvMs_Cs8tODcHLrppc_17sqlrustgo_catalogNtB4_7Catalog14get_schema_mut
FNDA:6,_RNvMs_Cs8tODcHLrppc_17sqlrustgo_catalogNtB4_7Catalog16check_invariants
FNDA:8,_RNvMs_Cs8tODcHLrppc_17sqlrustgo_catalogNtB4_7Catalog19default_schema_name
FNDA:8,_RNvMs_Cs8tODcHLrppc_17sqlrustgo_catalogNtB4_7Catalog20add_stored_procedure
FNDA:3,_RNvMs_Cs8tODcHLrppc_17sqlrustgo_catalogNtB4_7Catalog20get_stored_procedure
FNDA:3,_RNvMs_Cs8tODcHLrppc_17sqlrustgo_catalogNtB4_7Catalog20has_stored_procedure
FNDA:1,_RNvMs_Cs8tODcHLrppc_17sqlrustgo_catalogNtB4_7Catalog21drop_stored_procedure
FNDA:1,_RNvMs_Cs8tODcHLrppc_17sqlrustgo_catalogNtB4_7Catalog22stored_procedure_names
FNDA:19,_RNvMs_Cs8tODcHLrppc_17sqlrustgo_catalogNtB4_7Catalog3new
FNDA:1,_RINvMs_Cs8tODcHLrppc_17sqlrustgo_catalogNtB5_7Catalog19with_default_schemaReEB5_
FNDA:2,_RNCNvMs_Cs8tODcHLrppc_17sqlrustgo_catalogNtB6_7Catalog12schema_names0B6_
FNDA:2,_RNCNvMs_Cs8tODcHLrppc_17sqlrustgo_catalogNtB6_7Catalog22stored_procedure_names0B6_
FNF:45
FNH:32
DA:49,0
DA:50,0
DA:51,0
DA:56,19
DA:57,19
DA:58,19
DA:59,19
DA:60,19
DA:61,19
DA:63,19
DA:64,19
DA:65,19
DA:66,19
DA:67,19
DA:70,1
DA:71,1
DA:72,1
DA:73,1
DA:74,1
DA:75,1
DA:76,1
DA:77,1
DA:78,1
DA:80,1
DA:81,1
DA:84,8
DA:85,8
DA:86,8
DA:89,5
DA:90,5
DA:91,5
DA:94,2
DA:95,2
DA:96,2
DA:99,1
DA:100,1
DA:101,1
DA:104,4
DA:105,4
DA:106,1
DA:107,3
DA:108,3
DA:109,3
DA:110,4
DA:113,2
DA:114,2
DA:115,2
DA:118,1
DA:119,1
DA:120,1
DA:123,3
DA:124,3
DA:125,3
DA:128,0
DA:129,0
DA:130,0
DA:133,0
DA:134,0
DA:135,0
DA:136,0
DA:137,0
DA:140,8
DA:141,8
DA:142,1
DA:143,7
DA:144,7
DA:145,7
DA:146,8
DA:149,3
DA:150,3
DA:151,3
DA:154,3
DA:155,3
DA:156,3
DA:159,1
DA:160,1
DA:161,1
DA:164,1
DA:165,1
DA:166,1
DA:167,2
DA:168,1
DA:169,1
DA:178,6
DA:180,6
DA:181,6
DA:185,6
DA:186,6
DA:187,6
DA:189,2
DA:190,0
DA:191,0
DA:192,0
DA:193,0
DA:194,0
DA:195,0
DA:196,0
DA:197,0
DA:198,0
DA:199,0
DA:200,2
DA:203,2
DA:204,2
DA:205,0
DA:206,0
DA:207,0
DA:208,0
DA:209,0
DA:210,0
DA:211,0
DA:212,0
DA:213,0
DA:214,0
DA:215,2
DA:218,2
DA:219,2
DA:220,2
DA:221,0
DA:222,0
DA:223,0
DA:224,0
DA:225,0
DA:226,0
DA:227,0
DA:228,0
DA:229,0
DA:230,0
DA:231,0
DA:232,0
DA:233,0
DA:234,2
DA:240,6
DA:241,6
DA:247,0
DA:248,0
DA:249,0
DA:251,0
DA:252,0
DA:253,0
DA:254,0
DA:255,0
DA:256,0
DA:257,0
DA:259,0
DA:260,0
DA:261,0
DA:262,0
DA:263,0
DA:264,0
DA:265,0
DA:266,0
DA:267,0
DA:268,0
DA:270,0
DA:271,0
DA:272,0
DA:273,0
DA:274,0
DA:275,0
DA:276,0
DA:277,0
DA:278,0
DA:279,0
DA:281,0
DA:284,0
DA:285,0
DA:286,0
DA:287,0
DA:288,0
DA:289,0
DA:290,0
DA:291,0
DA:292,0
DA:293,0
DA:294,0
DA:295,0
DA:296,0
DA:297,0
DA:298,0
DA:299,0
DA:300,0
DA:301,0
DA:303,0
DA:307,0
DA:308,0
DA:309,0
DA:312,0
DA:313,0
DA:314,0
DA:315,0
DA:316,0
DA:318,0
DA:319,0
DA:320,0
DA:321,0
DA:322,0
DA:323,0
DA:325,0
DA:328,0
DA:331,0
DA:332,0
DA:333,0
DA:337,0
DA:338,0
DA:339,0
DA:340,0
DA:341,0
DA:343,0
DA:350,1
DA:351,1
DA:352,1
DA:353,1
DA:354,1
DA:355,1
DA:358,1
DA:359,1
DA:360,1
DA:361,1
DA:362,1
DA:365,1
DA:366,1
DA:367,1
DA:368,1
DA:369,1
DA:370,1
DA:373,1
DA:374,1
DA:375,1
DA:376,1
DA:377,1
DA:380,1
DA:381,1
DA:382,1
DA:383,1
DA:384,1
DA:387,1
DA:388,1
DA:389,1
DA:390,1
DA:393,1
DA:394,1
DA:395,1
DA:397,1
DA:398,1
DA:401,1
DA:402,1
DA:403,1
DA:404,1
DA:405,1
DA:406,1
DA:407,1
DA:410,1
DA:411,1
DA:412,1
DA:413,1
DA:414,1
DA:415,1
DA:416,1
DA:417,1
DA:418,1
DA:419,1
DA:421,1
DA:422,1
DA:423,1
DA:424,1
DA:427,1
DA:428,1
DA:429,1
DA:430,1
DA:431,1
DA:432,1
DA:434,1
DA:435,1
DA:436,1
DA:437,1
DA:438,1
DA:440,1
DA:441,1
DA:444,1
DA:445,1
DA:446,1
DA:447,1
DA:448,1
DA:449,1
DA:451,1
DA:452,1
DA:453,1
DA:454,1
DA:457,1
DA:458,1
DA:459,1
DA:460,1
DA:461,1
DA:462,1
DA:464,1
DA:465,1
DA:466,1
DA:467,1
DA:470,1
DA:471,1
DA:472,1
DA:473,1
DA:474,1
DA:475,1
DA:477,1
DA:478,1
DA:479,1
DA:480,1
DA:481,1
DA:484,1
DA:485,1
DA:486,1
DA:487,1
DA:488,1
DA:489,1
DA:490,1
DA:492,1
DA:493,1
DA:494,1
DA:495,1
DA:496,1
DA:497,1
DA:499,1
DA:500,1
DA:501,1
DA:502,1
DA:503,1
BRF:0
BRH:0
LF:339
LH:210
end_of_record
SF:/home/openclaw/dev/yinglichina8848/sqlrustgo/crates/catalog/src/rebuild.rs
FN:9,_RNvNtCs8tODcHLrppc_17sqlrustgo_catalog7rebuild17convert_data_type
FN:69,_RNCNCNvNtNtCs8tODcHLrppc_17sqlrustgo_catalog7rebuild5tests20rebuild_from_storages0_00B9_
FN:43,_RNCNCNvNtNtCs8tODcHLrppc_17sqlrustgo_catalog7rebuild5tests20rebuild_from_storages_00B9_
FN:32,_RNCNvNtNtCs8tODcHLrppc_17sqlrustgo_catalog7rebuild5tests20rebuild_from_storage0B7_
FN:68,_RNCNvNtNtCs8tODcHLrppc_17sqlrustgo_catalog7rebuild5tests20rebuild_from_storages0_0B7_
FN:96,_RNCNvNtNtCs8tODcHLrppc_17sqlrustgo_catalog7rebuild5tests20rebuild_from_storages1_0B7_
FN:42,_RNCNvNtNtCs8tODcHLrppc_17sqlrustgo_catalog7rebuild5tests20rebuild_from_storages_0B7_
FN:218,_RNCNvNtNtCs8tODcHLrppc_17sqlrustgo_catalog7rebuild5testss_24test_rebuild_with_tables0B7_
FN:220,_RNCNvNtNtCs8tODcHLrppc_17sqlrustgo_catalog7rebuild5testss_24test_rebuild_with_tabless0_0B7_
FN:219,_RNCNvNtNtCs8tODcHLrppc_17sqlrustgo_catalog7rebuild5testss_24test_rebuild_with_tabless_0B7_
FN:338,_RNCNvNtNtCs8tODcHLrppc_17sqlrustgo_catalog7rebuild5testss_29test_rebuild_preserves_unique0B7_
FN:344,_RNCNvNtNtCs8tODcHLrppc_17sqlrustgo_catalog7rebuild5testss_29test_rebuild_preserves_uniques_0B7_
FN:292,_RNCNvNtNtCs8tODcHLrppc_17sqlrustgo_catalog7rebuild5testss_31test_rebuild_preserves_nullable0B7_
FN:298,_RNCNvNtNtCs8tODcHLrppc_17sqlrustgo_catalog7rebuild5testss_31test_rebuild_preserves_nullables_0B7_
FN:116,_RNvNtNtCs8tODcHLrppc_17sqlrustgo_catalog7rebuild5tests17convert_fk_action
FN:124,_RNvNtNtCs8tODcHLrppc_17sqlrustgo_catalog7rebuild5tests19create_test_storage
FN:26,_RNvNtNtCs8tODcHLrppc_17sqlrustgo_catalog7rebuild5tests20rebuild_from_storage
FN:207,_RNvNtNtCs8tODcHLrppc_17sqlrustgo_catalog7rebuild5testss_24test_rebuild_with_tables
FN:224,_RNvNtNtCs8tODcHLrppc_17sqlrustgo_catalog7rebuild5testss_25test_rebuild_foreign_keys
FN:199,_RNvNtNtCs8tODcHLrppc_17sqlrustgo_catalog7rebuild5testss_26test_rebuild_empty_storage
FN:304,_RNvNtNtCs8tODcHLrppc_17sqlrustgo_catalog7rebuild5testss_29test_rebuild_preserves_unique
FN:236,_RNvNtNtCs8tODcHLrppc_17sqlrustgo_catalog7rebuild5testss_30test_rebuild_unknown_data_type
FN:258,_RNvNtNtCs8tODcHLrppc_17sqlrustgo_catalog7rebuild5testss_31test_rebuild_preserves_nullable
FNDA:15,_RNvNtCs8tODcHLrppc_17sqlrustgo_catalog7rebuild17convert_data_type
FNDA:2,_RNCNCNvNtNtCs8tODcHLrppc_17sqlrustgo_catalog7rebuild5tests20rebuild_from_storages0_00B9_
FNDA:1,_RNCNCNvNtNtCs8tODcHLrppc_17sqlrustgo_catalog7rebuild5tests20rebuild_from_storages_00B9_
FNDA:0,_RNCNvNtNtCs8tODcHLrppc_17sqlrustgo_catalog7rebuild5tests20rebuild_from_storage0B7_
FNDA:14,_RNCNvNtNtCs8tODcHLrppc_17sqlrustgo_catalog7rebuild5tests20rebuild_from_storages0_0B7_
FNDA:0,_RNCNvNtNtCs8tODcHLrppc_17sqlrustgo_catalog7rebuild5tests20rebuild_from_storages1_0B7_
FNDA:15,_RNCNvNtNtCs8tODcHLrppc_17sqlrustgo_catalog7rebuild5tests20rebuild_from_storages_0B7_
FNDA:1,_RNCNvNtNtCs8tODcHLrppc_17sqlrustgo_catalog7rebuild5testss_24test_rebuild_with_tables0B7_
FNDA:3,_RNCNvNtNtCs8tODcHLrppc_17sqlrustgo_catalog7rebuild5testss_24test_rebuild_with_tabless0_0B7_
FNDA:2,_RNCNvNtNtCs8tODcHLrppc_17sqlrustgo_catalog7rebuild5testss_24test_rebuild_with_tabless_0B7_
FNDA:1,_RNCNvNtNtCs8tODcHLrppc_17sqlrustgo_catalog7rebuild5testss_29test_rebuild_preserves_unique0B7_
FNDA:2,_RNCNvNtNtCs8tODcHLrppc_17sqlrustgo_catalog7rebuild5testss_29test_rebuild_preserves_uniques_0B7_
FNDA:1,_RNCNvNtNtCs8tODcHLrppc_17sqlrustgo_catalog7rebuild5testss_31test_rebuild_preserves_nullable0B7_
FNDA:2,_RNCNvNtNtCs8tODcHLrppc_17sqlrustgo_catalog7rebuild5testss_31test_rebuild_preserves_nullables_0B7_
FNDA:2,_RNvNtNtCs8tODcHLrppc_17sqlrustgo_catalog7rebuild5tests17convert_fk_action
FNDA:2,_RNvNtNtCs8tODcHLrppc_17sqlrustgo_catalog7rebuild5tests19create_test_storage
FNDA:6,_RNvNtNtCs8tODcHLrppc_17sqlrustgo_catalog7rebuild5tests20rebuild_from_storage
FNDA:1,_RNvNtNtCs8tODcHLrppc_17sqlrustgo_catalog7rebuild5testss_24test_rebuild_with_tables
FNDA:1,_RNvNtNtCs8tODcHLrppc_17sqlrustgo_catalog7rebuild5testss_25test_rebuild_foreign_keys
FNDA:1,_RNvNtNtCs8tODcHLrppc_17sqlrustgo_catalog7rebuild5testss_26test_rebuild_empty_storage
FNDA:1,_RNvNtNtCs8tODcHLrppc_17sqlrustgo_catalog7rebuild5testss_29test_rebuild_preserves_unique
FNDA:1,_RNvNtNtCs8tODcHLrppc_17sqlrustgo_catalog7rebuild5testss_30test_rebuild_unknown_data_type
FNDA:1,_RNvNtNtCs8tODcHLrppc_17sqlrustgo_catalog7rebuild5testss_31test_rebuild_preserves_nullable
FNF:23
FNH:21
DA:9,15
DA:10,15
DA:11,15
DA:26,6
DA:28,6
DA:29,6
DA:31,7
DA:32,7
DA:33,0
DA:34,0
DA:35,0
DA:36,0
DA:37,0
DA:39,7
DA:40,7
DA:41,7
DA:42,15
DA:43,15
DA:44,1
DA:45,1
DA:46,1
DA:47,1
DA:48,1
DA:50,14
DA:51,14
DA:52,9
DA:53,9
DA:54,14
DA:55,7
DA:56,7
DA:57,14
DA:58,15
DA:59,7
DA:61,6
DA:64,6
DA:65,6
DA:66,6
DA:67,6
DA:68,14
DA:69,14
DA:70,2
DA:71,2
DA:72,2
DA:73,2
DA:74,2
DA:75,2
DA:76,2
DA:77,2
DA:78,2
DA:79,2
DA:80,14
DA:81,6
DA:83,0
DA:87,6
DA:88,2
DA:89,2
DA:92,6
DA:93,6
DA:94,6
DA:95,6
DA:96,6
DA:98,6
DA:99,0
DA:100,0
DA:101,0
DA:102,0
DA:103,6
DA:105,6
DA:108,6
DA:111,5
DA:112,5
DA:113,6
DA:116,2
DA:117,2
DA:118,2
DA:119,0
DA:120,0
DA:122,2
DA:124,2
DA:125,2
DA:126,2
DA:127,2
DA:128,2
DA:129,2
DA:130,2
DA:131,2
DA:132,2
DA:133,2
DA:134,2
DA:135,2
DA:136,2
DA:137,2
DA:138,2
DA:139,2
DA:140,2
DA:141,2
DA:142,2
DA:143,2
DA:144,2
DA:145,2
DA:146,2
DA:147,2
DA:148,2
DA:149,2
DA:150,2
DA:151,2
DA:152,2
DA:153,2
DA:154,2
DA:155,2
DA:156,2
DA:157,2
DA:158,2
DA:159,2
DA:160,2
DA:161,2
DA:162,2
DA:163,2
DA:164,2
DA:165,2
DA:166,2
DA:167,2
DA:168,2
DA:169,2
DA:170,2
DA:171,2
DA:172,2
DA:173,2
DA:174,2
DA:175,2
DA:176,2
DA:177,2
DA:178,2
DA:179,2
DA:180,2
DA:181,2
DA:182,2
DA:183,2
DA:184,2
DA:185,2
DA:186,2
DA:187,2
DA:188,2
DA:189,2
DA:190,2
DA:191,2
DA:192,2
DA:193,2
DA:194,2
DA:195,2
DA:196,2
DA:199,1
DA:200,1
DA:201,1
DA:202,1
DA:203,1
DA:204,1
DA:207,1
DA:208,1
DA:209,1
DA:210,1
DA:212,1
DA:213,1
DA:214,1
DA:215,1
DA:216,1
DA:217,1
DA:218,1
DA:219,2
DA:220,3
DA:221,1
DA:224,1
DA:225,1
DA:226,1
DA:227,1
DA:228,1
DA:229,1
DA:230,1
DA:231,1
DA:232,1
DA:233,1
DA:236,1
DA:237,1
DA:238,1
DA:239,1
DA:240,1
DA:241,1
DA:242,1
DA:243,1
DA:244,1
DA:245,1
DA:246,1
DA:247,1
DA:248,1
DA:249,1
DA:250,1
DA:251,1
DA:252,1
DA:253,1
DA:254,1
DA:255,1
DA:258,1
DA:259,1
DA:260,1
DA:261,1
DA:262,1
DA:263,1
DA:264,1
DA:265,1
DA:266,1
DA:267,1
DA:268,1
DA:269,1
DA:270,1
DA:271,1
DA:272,1
DA:273,1
DA:274,1
DA:275,1
DA:276,1
DA:277,1
DA:278,1
DA:279,1
DA:280,1
DA:281,1
DA:282,1
DA:283,1
DA:284,1
DA:285,1
DA:286,1
DA:287,1
DA:288,1
DA:289,1
DA:290,1
DA:291,1
DA:292,1
DA:293,1
DA:294,1
DA:295,1
DA:296,1
DA:297,1
DA:298,2
DA:299,1
DA:300,1
DA:301,1
DA:304,1
DA:305,1
DA:306,1
DA:307,1
DA:308,1
DA:309,1
DA:310,1
DA:311,1
DA:312,1
DA:313,1
DA:314,1
DA:315,1
DA:316,1
DA:317,1
DA:318,1
DA:319,1
DA:320,1
DA:321,1
DA:322,1
DA:323,1
DA:324,1
DA:325,1
DA:326,1
DA:327,1
DA:328,1
DA:329,1
DA:330,1
DA:331,1
DA:332,1
DA:333,1
DA:334,1
DA:335,1
DA:336,1
DA:337,1
DA:338,1
DA:339,1
DA:340,1
DA:341,1
DA:342,1
DA:343,1
DA:344,2
DA:345,1
DA:346,1
DA:347,1
BRF:0
BRH:0
LF:304
LH:289
end_of_record
SF:/home/openclaw/dev/yinglichina8848/sqlrustgo/crates/catalog/src/schema.rs
FN:68,_RNvMNtCs8tODcHLrppc_17sqlrustgo_catalog6schemaNtB2_6Schema11table_count
FN:48,_RNvMNtCs8tODcHLrppc_17sqlrustgo_catalog6schemaNtB2_6Schema11table_names
FN:63,_RNvMNtCs8tODcHLrppc_17sqlrustgo_catalog6schemaNtB2_6Schema12remove_table
FN:53,_RNvMNtCs8tODcHLrppc_17sqlrustgo_catalog6schemaNtB2_6Schema6tables
FN:73,_RNvMNtCs8tODcHLrppc_17sqlrustgo_catalog6schemaNtB2_6Schema8validate
FN:31,_RNvMNtCs8tODcHLrppc_17sqlrustgo_catalog6schemaNtB2_6Schema9add_table
FN:43,_RNvMNtCs8tODcHLrppc_17sqlrustgo_catalog6schemaNtB2_6Schema9get_table
FN:58,_RNvMNtCs8tODcHLrppc_17sqlrustgo_catalog6schemaNtB2_6Schema9has_table
FN:23,_RINvMNtCs8tODcHLrppc_17sqlrustgo_catalog6schemaNtB3_6Schema3newRNtNtCsj0gLuUEfogP_5alloc6string6StringEB5_
FN:23,_RINvMNtCs8tODcHLrppc_17sqlrustgo_catalog6schemaNtB3_6Schema3newReEB5_
FN:49,_RNCNvMNtCs8tODcHLrppc_17sqlrustgo_catalog6schemaNtB4_6Schema11table_names0B6_
FN:54,_RNCNvMNtCs8tODcHLrppc_17sqlrustgo_catalog6schemaNtB4_6Schema6tables0B6_
FN:44,_RNCNvMNtCs8tODcHLrppc_17sqlrustgo_catalog6schemaNtB4_6Schema9get_table0B6_
FN:87,_RNvNtNtCs8tODcHLrppc_17sqlrustgo_catalog6schema5tests18create_test_schema
FN:111,_RNvNtNtCs8tODcHLrppc_17sqlrustgo_catalog6schema5testss_14test_get_table
FN:148,_RNvNtNtCs8tODcHLrppc_17sqlrustgo_catalog6schema5testss_14test_has_table
FN:140,_RNvNtNtCs8tODcHLrppc_17sqlrustgo_catalog6schema5testss_15test_schema_new
FN:219,_RNvNtNtCs8tODcHLrppc_17sqlrustgo_catalog6schema5testss_16test_table_count
FN:125,_RNvNtNtCs8tODcHLrppc_17sqlrustgo_catalog6schema5testss_16test_table_names
FN:132,_RNvNtNtCs8tODcHLrppc_17sqlrustgo_catalog6schema5testss_17test_remove_table
FN:187,_RNvNtNtCs8tODcHLrppc_17sqlrustgo_catalog6schema5testss_17test_schema_clone
FN:180,_RNvNtNtCs8tODcHLrppc_17sqlrustgo_catalog6schema5testss_17test_schema_debug
FN:118,_RNvNtNtCs8tODcHLrppc_17sqlrustgo_catalog6schema5testss_20test_duplicate_table
FN:195,_RNvNtNtCs8tODcHLrppc_17sqlrustgo_catalog6schema5testss_20test_multiple_tables
FN:104,_RNvNtNtCs8tODcHLrppc_17sqlrustgo_catalog6schema5testss_20test_schema_creation
FN:213,_RNvNtNtCs8tODcHLrppc_17sqlrustgo_catalog6schema5testss_20test_schema_validate
FN:155,_RNvNtNtCs8tODcHLrppc_17sqlrustgo_catalog6schema5testss_23test_tables_returns_arc
FN:164,_RNvNtNtCs8tODcHLrppc_17sqlrustgo_catalog6schema5testss_26test_get_table_returns_arc
FN:172,_RNvNtNtCs8tODcHLrppc_17sqlrustgo_catalog6schema5testss_29test_remove_nonexistent_table
FNDA:9,_RNvMNtCs8tODcHLrppc_17sqlrustgo_catalog6schemaNtB2_6Schema11table_count
FNDA:4,_RNvMNtCs8tODcHLrppc_17sqlrustgo_catalog6schemaNtB2_6Schema11table_names
FNDA:2,_RNvMNtCs8tODcHLrppc_17sqlrustgo_catalog6schemaNtB2_6Schema12remove_table
FNDA:7,_RNvMNtCs8tODcHLrppc_17sqlrustgo_catalog6schemaNtB2_6Schema6tables
FNDA:7,_RNvMNtCs8tODcHLrppc_17sqlrustgo_catalog6schemaNtB2_6Schema8validate
FNDA:23,_RNvMNtCs8tODcHLrppc_17sqlrustgo_catalog6schemaNtB2_6Schema9add_table
FNDA:9,_RNvMNtCs8tODcHLrppc_17sqlrustgo_catalog6schemaNtB2_6Schema9get_table
FNDA:13,_RNvMNtCs8tODcHLrppc_17sqlrustgo_catalog6schemaNtB2_6Schema9has_table
FNDA:1,_RINvMNtCs8tODcHLrppc_17sqlrustgo_catalog6schemaNtB3_6Schema3newRNtNtCsj0gLuUEfogP_5alloc6string6StringEB5_
FNDA:38,_RINvMNtCs8tODcHLrppc_17sqlrustgo_catalog6schemaNtB3_6Schema3newReEB5_
FNDA:3,_RNCNvMNtCs8tODcHLrppc_17sqlrustgo_catalog6schemaNtB4_6Schema11table_names0B6_
FNDA:7,_RNCNvMNtCs8tODcHLrppc_17sqlrustgo_catalog6schemaNtB4_6Schema6tables0B6_
FNDA:8,_RNCNvMNtCs8tODcHLrppc_17sqlrustgo_catalog6schemaNtB4_6Schema9get_table0B6_
FNDA:13,_RNvNtNtCs8tODcHLrppc_17sqlrustgo_catalog6schema5tests18create_test_schema
FNDA:1,_RNvNtNtCs8tODcHLrppc_17sqlrustgo_catalog6schema5testss_14test_get_table
FNDA:1,_RNvNtNtCs8tODcHLrppc_17sqlrustgo_catalog6schema5testss_14test_has_table
FNDA:1,_RNvNtNtCs8tODcHLrppc_17sqlrustgo_catalog6schema5testss_15test_schema_new
FNDA:1,_RNvNtNtCs8tODcHLrppc_17sqlrustgo_catalog6schema5testss_16test_table_count
FNDA:1,_RNvNtNtCs8tODcHLrppc_17sqlrustgo_catalog6schema5testss_16test_table_names
FNDA:1,_RNvNtNtCs8tODcHLrppc_17sqlrustgo_catalog6schema5testss_17test_remove_table
FNDA:1,_RNvNtNtCs8tODcHLrppc_17sqlrustgo_catalog6schema5testss_17test_schema_clone
FNDA:1,_RNvNtNtCs8tODcHLrppc_17sqlrustgo_catalog6schema5testss_17test_schema_debug
FNDA:1,_RNvNtNtCs8tODcHLrppc_17sqlrustgo_catalog6schema5testss_20test_duplicate_table
FNDA:1,_RNvNtNtCs8tODcHLrppc_17sqlrustgo_catalog6schema5testss_20test_multiple_tables
FNDA:1,_RNvNtNtCs8tODcHLrppc_17sqlrustgo_catalog6schema5testss_20test_schema_creation
FNDA:1,_RNvNtNtCs8tODcHLrppc_17sqlrustgo_catalog6schema5testss_20test_schema_validate
FNDA:1,_RNvNtNtCs8tODcHLrppc_17sqlrustgo_catalog6schema5testss_23test_tables_returns_arc
FNDA:1,_RNvNtNtCs8tODcHLrppc_17sqlrustgo_catalog6schema5testss_26test_get_table_returns_arc
FNDA:1,_RNvNtNtCs8tODcHLrppc_17sqlrustgo_catalog6schema5testss_29test_remove_nonexistent_table
FNF:28
FNH:28
DA:23,39
DA:24,39
DA:25,39
DA:26,39
DA:27,39
DA:28,39
DA:31,23
DA:32,23
DA:33,1
DA:34,1
DA:35,1
DA:36,1
DA:37,22
DA:38,22
DA:39,22
DA:40,23
DA:43,9
DA:44,9
DA:45,9
DA:48,4
DA:49,4
DA:50,4
DA:53,7
DA:54,7
DA:55,7
DA:58,13
DA:59,13
DA:60,13
DA:63,2
DA:64,2
DA:65,2
DA:68,9
DA:69,9
DA:70,9
DA:73,7
DA:74,7
DA:75,7
DA:77,7
DA:78,7
DA:87,13
DA:88,13
DA:89,13
DA:90,13
DA:92,13
DA:93,13
DA:94,13
DA:97,13
DA:98,13
DA:100,13
DA:101,13
DA:104,1
DA:105,1
DA:106,1
DA:107,1
DA:108,1
DA:111,1
DA:112,1
DA:113,1
DA:114,1
DA:115,1
DA:118,1
DA:119,1
DA:120,1
DA:121,1
DA:122,1
DA:125,1
DA:126,1
DA:127,1
DA:128,1
DA:129,1
DA:132,1
DA:133,1
DA:134,1
DA:135,1
DA:136,1
DA:137,1
DA:140,1
DA:141,1
DA:142,1
DA:143,1
DA:144,1
DA:145,1
DA:148,1
DA:149,1
DA:150,1
DA:151,1
DA:152,1
DA:155,1
DA:156,1
DA:157,1
DA:158,1
DA:160,1
DA:161,1
DA:164,1
DA:165,1
DA:166,1
DA:168,1
DA:169,1
DA:172,1
DA:173,1
DA:174,1
DA:175,1
DA:176,1
DA:177,1
DA:180,1
DA:181,1
DA:182,1
DA:183,1
DA:184,1
DA:187,1
DA:188,1
DA:189,1
DA:190,1
DA:191,1
DA:192,1
DA:195,1
DA:196,1
DA:197,1
DA:199,1
DA:201,1
DA:202,1
DA:204,1
DA:206,1
DA:207,1
DA:208,1
DA:209,1
DA:210,1
DA:213,1
DA:214,1
DA:215,1
DA:216,1
DA:219,1
DA:220,1
DA:221,1
DA:222,1
DA:223,1
DA:225,1
DA:227,1
DA:228,1
DA:229,1
BRF:0
BRH:0
LF:143
LH:143
end_of_record
SF:/home/openclaw/dev/yinglichina8848/sqlrustgo/crates/catalog/src/stored_proc.rs
FN:178,_RNvNtNtCs8tODcHLrppc_17sqlrustgo_catalog11stored_proc5testss_15test_param_mode
FN:161,_RNvNtNtCs8tODcHLrppc_17sqlrustgo_catalog11stored_proc5testss_30test_stored_procedure_creation
FN:151,_RNvMNtCs8tODcHLrppc_17sqlrustgo_catalog11stored_procNtB2_15StoredProcedure3new
FNDA:1,_RNvNtNtCs8tODcHLrppc_17sqlrustgo_catalog11stored_proc5testss_15test_param_mode
FNDA:1,_RNvNtNtCs8tODcHLrppc_17sqlrustgo_catalog11stored_proc5testss_30test_stored_procedure_creation
FNDA:9,_RNvMNtCs8tODcHLrppc_17sqlrustgo_catalog11stored_procNtB2_15StoredProcedure3new
FNF:3
FNH:3
DA:151,9
DA:152,9
DA:153,9
DA:161,1
DA:162,1
DA:163,1
DA:164,1
DA:165,1
DA:166,1
DA:167,1
DA:168,1
DA:169,1
DA:172,1
DA:173,1
DA:174,1
DA:175,1
DA:178,1
DA:179,1
DA:180,1
DA:181,1
DA:182,1
BRF:0
BRH:0
LF:21
LH:21
end_of_record
SF:/home/openclaw/dev/yinglichina8848/sqlrustgo/crates/catalog/src/system_tables/mysql_db.rs
FN:21,_RNvMNtNtCs8tODcHLrppc_17sqlrustgo_catalog13system_tables8mysql_dbNtB2_12MysqlDbTable4rows
FN:6,_RNvMNtNtCs8tODcHLrppc_17sqlrustgo_catalog13system_tables8mysql_dbNtB2_12MysqlDbTable6schema
FN:51,_RNvNtNtCs8tODcHLrppc_17sqlrustgo_catalog13system_tables8mysql_db10bool_to_yn
FN:47,_RNvNtNtCs8tODcHLrppc_17sqlrustgo_catalog13system_tables8mysql_db15extract_db_name
FN:98,_RNCNvNtNtNtCs8tODcHLrppc_17sqlrustgo_catalog13system_tables8mysql_db5testss_25test_rows_with_privileges0B9_
FN:104,_RNCNvNtNtNtCs8tODcHLrppc_17sqlrustgo_catalog13system_tables8mysql_db5testss_25test_rows_with_privilegess_0B9_
FN:61,_RNvNtNtNtCs8tODcHLrppc_17sqlrustgo_catalog13system_tables8mysql_db5testss_11test_schema
FN:117,_RNvNtNtNtCs8tODcHLrppc_17sqlrustgo_catalog13system_tables8mysql_db5testss_15test_bool_to_yn
FN:72,_RNvNtNtNtCs8tODcHLrppc_17sqlrustgo_catalog13system_tables8mysql_db5testss_15test_rows_empty
FN:110,_RNvNtNtNtCs8tODcHLrppc_17sqlrustgo_catalog13system_tables8mysql_db5testss_20test_extract_db_name
FN:79,_RNvNtNtNtCs8tODcHLrppc_17sqlrustgo_catalog13system_tables8mysql_db5testss_25test_rows_with_privileges
FNDA:2,_RNvMNtNtCs8tODcHLrppc_17sqlrustgo_catalog13system_tables8mysql_dbNtB2_12MysqlDbTable4rows
FNDA:1,_RNvMNtNtCs8tODcHLrppc_17sqlrustgo_catalog13system_tables8mysql_dbNtB2_12MysqlDbTable6schema
FNDA:16,_RNvNtNtCs8tODcHLrppc_17sqlrustgo_catalog13system_tables8mysql_db10bool_to_yn
FNDA:5,_RNvNtNtCs8tODcHLrppc_17sqlrustgo_catalog13system_tables8mysql_db15extract_db_name
FNDA:1,_RNCNvNtNtNtCs8tODcHLrppc_17sqlrustgo_catalog13system_tables8mysql_db5testss_25test_rows_with_privileges0B9_
FNDA:2,_RNCNvNtNtNtCs8tODcHLrppc_17sqlrustgo_catalog13system_tables8mysql_db5testss_25test_rows_with_privilegess_0B9_
FNDA:1,_RNvNtNtNtCs8tODcHLrppc_17sqlrustgo_catalog13system_tables8mysql_db5testss_11test_schema
FNDA:1,_RNvNtNtNtCs8tODcHLrppc_17sqlrustgo_catalog13system_tables8mysql_db5testss_15test_bool_to_yn
FNDA:1,_RNvNtNtNtCs8tODcHLrppc_17sqlrustgo_catalog13system_tables8mysql_db5testss_15test_rows_empty
FNDA:1,_RNvNtNtNtCs8tODcHLrppc_17sqlrustgo_catalog13system_tables8mysql_db5testss_20test_extract_db_name
FNDA:1,_RNvNtNtNtCs8tODcHLrppc_17sqlrustgo_catalog13system_tables8mysql_db5testss_25test_rows_with_privileges
FNF:11
FNH:11
DA:6,1
DA:7,1
DA:8,1
DA:9,1
DA:10,1
DA:11,1
DA:12,1
DA:13,1
DA:14,1
DA:15,1
DA:16,1
DA:17,1
DA:19,1
DA:21,2
DA:22,2
DA:24,2
DA:25,2
DA:26,2
DA:27,2
DA:28,2
DA:29,2
DA:30,2
DA:31,2
DA:32,2
DA:33,2
DA:34,2
DA:35,2
DA:36,2
DA:37,2
DA:38,2
DA:39,2
DA:43,2
DA:44,2
DA:47,5
DA:48,5
DA:49,5
DA:51,16
DA:52,16
DA:53,16
DA:61,1
DA:62,1
DA:63,1
DA:64,1
DA:65,1
DA:66,1
DA:67,1
DA:68,1
DA:69,1
DA:72,1
DA:73,1
DA:74,1
DA:75,1
DA:76,1
DA:79,1
DA:80,1
DA:81,1
DA:83,1
DA:84,1
DA:85,1
DA:86,1
DA:87,1
DA:88,1
DA:89,1
DA:90,1
DA:93,1
DA:95,1
DA:96,1
DA:98,1
DA:99,1
DA:100,1
DA:101,1
DA:102,1
DA:104,2
DA:105,1
DA:106,1
DA:107,1
DA:110,1
DA:111,1
DA:112,1
DA:113,1
DA:114,1
DA:117,1
DA:118,1
DA:119,1
DA:120,1
BRF:0
BRH:0
LF:87
LH:87
end_of_record
SF:/home/openclaw/dev/yinglichina8848/sqlrustgo/crates/catalog/src/system_tables/mysql_user.rs
FN:42,_RNvNtNtNtCs8tODcHLrppc_17sqlrustgo_catalog13system_tables10mysql_user5testss_11test_schema
FN:53,_RNvNtNtNtCs8tODcHLrppc_17sqlrustgo_catalog13system_tables10mysql_user5testss_15test_rows_empty
FN:60,_RNvNtNtNtCs8tODcHLrppc_17sqlrustgo_catalog13system_tables10mysql_user5testss_20test_rows_with_users
FN:16,_RNvMNtNtCs8tODcHLrppc_17sqlrustgo_catalog13system_tables10mysql_userNtB2_14MysqlUserTable4rows
FN:6,_RNvMNtNtCs8tODcHLrppc_17sqlrustgo_catalog13system_tables10mysql_userNtB2_14MysqlUserTable6schema
FN:32,_RNvNtNtCs8tODcHLrppc_17sqlrustgo_catalog13system_tables10mysql_user18encode_auth_string
FN:19,_RNCNvMNtNtCs8tODcHLrppc_17sqlrustgo_catalog13system_tables10mysql_userNtB4_14MysqlUserTable4rows0B8_
FN:71,_RNCNvNtNtNtCs8tODcHLrppc_17sqlrustgo_catalog13system_tables10mysql_user5testss_20test_rows_with_users0B9_
FN:77,_RNCNvNtNtNtCs8tODcHLrppc_17sqlrustgo_catalog13system_tables10mysql_user5testss_20test_rows_with_userss_0B9_
FNDA:1,_RNvNtNtNtCs8tODcHLrppc_17sqlrustgo_catalog13system_tables10mysql_user5testss_11test_schema
FNDA:1,_RNvNtNtNtCs8tODcHLrppc_17sqlrustgo_catalog13system_tables10mysql_user5testss_15test_rows_empty
FNDA:1,_RNvNtNtNtCs8tODcHLrppc_17sqlrustgo_catalog13system_tables10mysql_user5testss_20test_rows_with_users
FNDA:2,_RNvMNtNtCs8tODcHLrppc_17sqlrustgo_catalog13system_tables10mysql_userNtB2_14MysqlUserTable4rows
FNDA:1,_RNvMNtNtCs8tODcHLrppc_17sqlrustgo_catalog13system_tables10mysql_userNtB2_14MysqlUserTable6schema
FNDA:2,_RNvNtNtCs8tODcHLrppc_17sqlrustgo_catalog13system_tables10mysql_user18encode_auth_string
FNDA:2,_RNCNvMNtNtCs8tODcHLrppc_17sqlrustgo_catalog13system_tables10mysql_userNtB4_14MysqlUserTable4rows0B8_
FNDA:1,_RNCNvNtNtNtCs8tODcHLrppc_17sqlrustgo_catalog13system_tables10mysql_user5testss_20test_rows_with_users0B9_
FNDA:2,_RNCNvNtNtNtCs8tODcHLrppc_17sqlrustgo_catalog13system_tables10mysql_user5testss_20test_rows_with_userss_0B9_
FNF:9
FNH:9
DA:6,1
DA:7,1
DA:8,1
DA:9,1
DA:10,1
DA:11,1
DA:12,1
DA:14,1
DA:16,2
DA:17,2
DA:18,2
DA:19,2
DA:20,2
DA:21,2
DA:22,2
DA:23,2
DA:24,2
DA:25,2
DA:27,2
DA:28,2
DA:29,2
DA:32,2
DA:33,2
DA:34,2
DA:42,1
DA:43,1
DA:44,1
DA:45,1
DA:46,1
DA:47,1
DA:48,1
DA:49,1
DA:50,1
DA:53,1
DA:54,1
DA:55,1
DA:56,1
DA:57,1
DA:60,1
DA:61,1
DA:62,1
DA:63,1
DA:65,1
DA:66,1
DA:68,1
DA:69,1
DA:71,1
DA:72,1
DA:73,1
DA:74,1
DA:75,1
DA:77,2
DA:78,1
DA:79,1
BRF:0
BRH:0
LF:57
LH:57
end_of_record
SF:/home/openclaw/dev/yinglichina8848/sqlrustgo/crates/catalog/src/table.rs
FN:72,_RNvMNtCs8tODcHLrppc_17sqlrustgo_catalog5tableNtB2_5Table10add_column
FN:136,_RNvMNtCs8tODcHLrppc_17sqlrustgo_catalog5tableNtB2_5Table10get_column
FN:87,_RNvMNtCs8tODcHLrppc_17sqlrustgo_catalog5tableNtB2_5Table11primary_key
FN:141,_RNvMNtCs8tODcHLrppc_17sqlrustgo_catalog5tableNtB2_5Table12column_names
FN:206,_RNvMNtCs8tODcHLrppc_17sqlrustgo_catalog5tableNtB2_5Table13set_row_count
FN:124,_RNvMNtCs8tODcHLrppc_17sqlrustgo_catalog5tableNtB2_5Table15add_foreign_key
FN:212,_RNvMNtCs8tODcHLrppc_17sqlrustgo_catalog5tableNtB2_5Table23get_primary_key_columns
FN:146,_RNvMNtCs8tODcHLrppc_17sqlrustgo_catalog5tableNtB2_5Table8validate
FN:130,_RNvMNtCs8tODcHLrppc_17sqlrustgo_catalog5tableNtB2_5Table9add_index
FN:230,_RNvNtNtCs8tODcHLrppc_17sqlrustgo_catalog5table5tests17create_test_table
FN:338,_RNvNtNtCs8tODcHLrppc_17sqlrustgo_catalog5table5testss_14test_add_index
FN:298,_RNvNtNtCs8tODcHLrppc_17sqlrustgo_catalog5table5testss_15test_add_column
FN:251,_RNvNtNtCs8tODcHLrppc_17sqlrustgo_catalog5table5testss_15test_get_column
FN:258,_RNvNtNtCs8tODcHLrppc_17sqlrustgo_catalog5table5testss_17test_column_names
FN:346,_RNvNtNtCs8tODcHLrppc_17sqlrustgo_catalog5table5testss_18test_set_row_count
FN:492,_RNvNtNtCs8tODcHLrppc_17sqlrustgo_catalog5table5testss_19test_get_column_mut
FN:244,_RNvNtNtCs8tODcHLrppc_17sqlrustgo_catalog5table5testss_19test_table_creation
FN:320,_RNvNtNtCs8tODcHLrppc_17sqlrustgo_catalog5table5testss_20test_add_foreign_key
FN:502,_RNvNtNtCs8tODcHLrppc_17sqlrustgo_catalog5table5testss_23test_table_with_indices
FN:281,_RNvNtNtCs8tODcHLrppc_17sqlrustgo_catalog5table5testss_25test_validate_pk_nullable
FN:356,_RNvNtNtCs8tODcHLrppc_17sqlrustgo_catalog5table5testss_28test_get_primary_key_columns
FN:267,_RNvNtNtCs8tODcHLrppc_17sqlrustgo_catalog5table5testss_30test_validate_duplicate_column
FN:310,_RNvNtNtCs8tODcHLrppc_17sqlrustgo_catalog5table5testss_31test_add_column_duplicate_error
FN:366,_RNvNtNtCs8tODcHLrppc_17sqlrustgo_catalog5table5testss_33test_get_primary_key_columns_none
FN:397,_RNvNtNtCs8tODcHLrppc_17sqlrustgo_catalog5table5testss_33test_primary_key_column_not_found
FN:443,_RNvNtNtCs8tODcHLrppc_17sqlrustgo_catalog5table5testss_35test_add_column_duplicate_detection
FN:469,_RNvNtNtCs8tODcHLrppc_17sqlrustgo_catalog5table5testss_35test_validate_composite_foreign_key
FN:453,_RNvNtNtCs8tODcHLrppc_17sqlrustgo_catalog5table5testss_35test_validate_composite_primary_key
FN:430,_RNvNtNtCs8tODcHLrppc_17sqlrustgo_catalog5table5testss_37test_validate_duplicate_column_in_new
FN:407,_RNvNtNtCs8tODcHLrppc_17sqlrustgo_catalog5table5testss_42test_validate_self_referencing_foreign_key
FN:375,_RNvNtNtCs8tODcHLrppc_17sqlrustgo_catalog5table5testss_47test_validate_foreign_key_column_count_mismatch
FN:60,_RINvMNtCs8tODcHLrppc_17sqlrustgo_catalog5tableNtB3_5Table3newNtNtCsj0gLuUEfogP_5alloc6string6StringEB5_
FN:60,_RINvMNtCs8tODcHLrppc_17sqlrustgo_catalog5tableNtB3_5Table3newReEB5_
FN:216,_RNCNCNCNvMNtCs8tODcHLrppc_17sqlrustgo_catalog5tableNtB8_5Table23get_primary_key_columns000Ba_
FN:216,_RNCNCNvMNtCs8tODcHLrppc_17sqlrustgo_catalog5tableNtB6_5Table23get_primary_key_columns00B8_
FN:74,_RNCNvMNtCs8tODcHLrppc_17sqlrustgo_catalog5tableNtB4_5Table10add_column0B6_
FN:137,_RNCNvMNtCs8tODcHLrppc_17sqlrustgo_catalog5tableNtB4_5Table10get_column0B6_
FN:89,_RNCNvMNtCs8tODcHLrppc_17sqlrustgo_catalog5tableNtB4_5Table11primary_key0B6_
FN:102,_RNCNvMNtCs8tODcHLrppc_17sqlrustgo_catalog5tableNtB4_5Table11primary_keys_0B6_
FN:142,_RNCNvMNtCs8tODcHLrppc_17sqlrustgo_catalog5tableNtB4_5Table12column_names0B6_
FN:213,_RNCNvMNtCs8tODcHLrppc_17sqlrustgo_catalog5tableNtB4_5Table23get_primary_key_columns0B6_
FNDA:3,_RNvMNtCs8tODcHLrppc_17sqlrustgo_catalog5tableNtB2_5Table10add_column
FNDA:9,_RNvMNtCs8tODcHLrppc_17sqlrustgo_catalog5tableNtB2_5Table10get_column
FNDA:21,_RNvMNtCs8tODcHLrppc_17sqlrustgo_catalog5tableNtB2_5Table11primary_key
FNDA:5,_RNvMNtCs8tODcHLrppc_17sqlrustgo_catalog5tableNtB2_5Table12column_names
FNDA:1,_RNvMNtCs8tODcHLrppc_17sqlrustgo_catalog5tableNtB2_5Table13set_row_count
FNDA:6,_RNvMNtCs8tODcHLrppc_17sqlrustgo_catalog5tableNtB2_5Table15add_foreign_key
FNDA:2,_RNvMNtCs8tODcHLrppc_17sqlrustgo_catalog5tableNtB2_5Table23get_primary_key_columns
FNDA:14,_RNvMNtCs8tODcHLrppc_17sqlrustgo_catalog5tableNtB2_5Table8validate
FNDA:2,_RNvMNtCs8tODcHLrppc_17sqlrustgo_catalog5tableNtB2_5Table9add_index
FNDA:4,_RNvNtNtCs8tODcHLrppc_17sqlrustgo_catalog5table5tests17create_test_table
FNDA:1,_RNvNtNtCs8tODcHLrppc_17sqlrustgo_catalog5table5testss_14test_add_index
FNDA:1,_RNvNtNtCs8tODcHLrppc_17sqlrustgo_catalog5table5testss_15test_add_column
FNDA:1,_RNvNtNtCs8tODcHLrppc_17sqlrustgo_catalog5table5testss_15test_get_column
FNDA:1,_RNvNtNtCs8tODcHLrppc_17sqlrustgo_catalog5table5testss_17test_column_names
FNDA:1,_RNvNtNtCs8tODcHLrppc_17sqlrustgo_catalog5table5testss_18test_set_row_count
FNDA:1,_RNvNtNtCs8tODcHLrppc_17sqlrustgo_catalog5table5testss_19test_get_column_mut
FNDA:1,_RNvNtNtCs8tODcHLrppc_17sqlrustgo_catalog5table5testss_19test_table_creation
FNDA:1,_RNvNtNtCs8tODcHLrppc_17sqlrustgo_catalog5table5testss_20test_add_foreign_key
FNDA:1,_RNvNtNtCs8tODcHLrppc_17sqlrustgo_catalog5table5testss_23test_table_with_indices
FNDA:1,_RNvNtNtCs8tODcHLrppc_17sqlrustgo_catalog5table5testss_25test_validate_pk_nullable
FNDA:1,_RNvNtNtCs8tODcHLrppc_17sqlrustgo_catalog5table5testss_28test_get_primary_key_columns
FNDA:1,_RNvNtNtCs8tODcHLrppc_17sqlrustgo_catalog5table5testss_30test_validate_duplicate_column
FNDA:1,_RNvNtNtCs8tODcHLrppc_17sqlrustgo_catalog5table5testss_31test_add_column_duplicate_error
FNDA:1,_RNvNtNtCs8tODcHLrppc_17sqlrustgo_catalog5table5testss_33test_get_primary_key_columns_none
FNDA:1,_RNvNtNtCs8tODcHLrppc_17sqlrustgo_catalog5table5testss_33test_primary_key_column_not_found
FNDA:1,_RNvNtNtCs8tODcHLrppc_17sqlrustgo_catalog5table5testss_35test_add_column_duplicate_detection
FNDA:1,_RNvNtNtCs8tODcHLrppc_17sqlrustgo_catalog5table5testss_35test_validate_composite_foreign_key
FNDA:1,_RNvNtNtCs8tODcHLrppc_17sqlrustgo_catalog5table5testss_35test_validate_composite_primary_key
FNDA:1,_RNvNtNtCs8tODcHLrppc_17sqlrustgo_catalog5table5testss_37test_validate_duplicate_column_in_new
FNDA:1,_RNvNtNtCs8tODcHLrppc_17sqlrustgo_catalog5table5testss_42test_validate_self_referencing_foreign_key
FNDA:1,_RNvNtNtCs8tODcHLrppc_17sqlrustgo_catalog5table5testss_47test_validate_foreign_key_column_count_mismatch
FNDA:6,_RINvMNtCs8tODcHLrppc_17sqlrustgo_catalog5tableNtB3_5Table3newNtNtCsj0gLuUEfogP_5alloc6string6StringEB5_
FNDA:38,_RINvMNtCs8tODcHLrppc_17sqlrustgo_catalog5tableNtB3_5Table3newReEB5_
FNDA:1,_RNCNCNCNvMNtCs8tODcHLrppc_17sqlrustgo_catalog5tableNtB8_5Table23get_primary_key_columns000Ba_
FNDA:1,_RNCNCNvMNtCs8tODcHLrppc_17sqlrustgo_catalog5tableNtB6_5Table23get_primary_key_columns00B8_
FNDA:3,_RNCNvMNtCs8tODcHLrppc_17sqlrustgo_catalog5tableNtB4_5Table10add_column0B6_
FNDA:13,_RNCNvMNtCs8tODcHLrppc_17sqlrustgo_catalog5tableNtB4_5Table10get_column0B6_
FNDA:45,_RNCNvMNtCs8tODcHLrppc_17sqlrustgo_catalog5tableNtB4_5Table11primary_key0B6_
FNDA:22,_RNCNvMNtCs8tODcHLrppc_17sqlrustgo_catalog5tableNtB4_5Table11primary_keys_0B6_
FNDA:12,_RNCNvMNtCs8tODcHLrppc_17sqlrustgo_catalog5tableNtB4_5Table12column_names0B6_
FNDA:1,_RNCNvMNtCs8tODcHLrppc_17sqlrustgo_catalog5tableNtB4_5Table23get_primary_key_columns0B6_
FNF:40
FNH:40
DA:60,44
DA:61,44
DA:62,44
DA:63,44
DA:64,44
DA:65,44
DA:66,44
DA:67,44
DA:68,44
DA:69,44
DA:72,3
DA:74,3
DA:75,2
DA:76,2
DA:77,2
DA:78,2
DA:79,2
DA:80,1
DA:82,1
DA:83,1
DA:84,3
DA:87,21
DA:89,45
DA:90,22
DA:91,22
DA:92,1
DA:93,1
DA:94,1
DA:95,1
DA:96,1
DA:97,21
DA:101,21
DA:102,22
DA:103,21
DA:104,21
DA:105,21
DA:106,21
DA:110,20
DA:111,20
DA:112,20
DA:113,20
DA:114,20
DA:116,20
DA:119,20
DA:120,20
DA:121,21
DA:124,6
DA:125,6
DA:126,6
DA:127,6
DA:130,2
DA:131,2
DA:132,2
DA:133,2
DA:136,9
DA:137,13
DA:138,9
DA:141,5
DA:142,12
DA:143,5
DA:146,14
DA:148,14
DA:149,31
DA:150,31
DA:151,2
DA:152,2
DA:153,2
DA:154,2
DA:155,2
DA:156,29
DA:160,27
DA:161,27
DA:165,12
DA:166,4
DA:167,4
DA:168,0
DA:169,0
DA:170,0
DA:171,0
DA:172,0
DA:173,4
DA:177,4
DA:178,4
DA:179,4
DA:180,0
DA:181,0
DA:182,0
DA:183,0
DA:184,4
DA:185,0
DA:187,9
DA:190,12
DA:191,5
DA:192,1
DA:193,1
DA:194,1
DA:195,1
DA:196,1
DA:197,1
DA:198,1
DA:199,4
DA:202,11
DA:203,14
DA:206,1
DA:207,1
DA:208,1
DA:209,1
DA:212,2
DA:213,2
DA:214,1
DA:215,1
DA:216,1
DA:217,1
DA:218,1
DA:219,2
DA:230,4
DA:231,4
DA:233,4
DA:234,4
DA:235,4
DA:236,4
DA:239,4
DA:240,4
DA:241,4
DA:244,1
DA:245,1
DA:246,1
DA:247,1
DA:248,1
DA:251,1
DA:252,1
DA:253,1
DA:254,1
DA:255,1
DA:258,1
DA:259,1
DA:260,1
DA:261,1
DA:262,1
DA:263,1
DA:264,1
DA:267,1
DA:268,1
DA:269,1
DA:270,1
DA:271,1
DA:272,1
DA:273,1
DA:274,1
DA:275,1
DA:277,1
DA:278,1
DA:281,1
DA:282,1
DA:283,1
DA:284,1
DA:285,1
DA:286,1
DA:287,1
DA:288,1
DA:289,1
DA:290,1
DA:291,1
DA:292,1
DA:294,1
DA:295,1
DA:298,1
DA:299,1
DA:301,1
DA:303,1
DA:304,1
DA:305,1
DA:306,1
DA:307,1
DA:310,1
DA:311,1
DA:313,1
DA:315,1
DA:316,1
DA:317,1
DA:320,1
DA:321,1
DA:322,1
DA:323,1
DA:324,1
DA:325,1
DA:326,1
DA:327,1
DA:328,1
DA:329,1
DA:331,1
DA:333,1
DA:334,1
DA:335,1
DA:338,1
DA:339,1
DA:340,1
DA:341,1
DA:342,1
DA:343,1
DA:346,1
DA:347,1
DA:349,1
DA:351,1
DA:352,1
DA:353,1
DA:356,1
DA:357,1
DA:358,1
DA:359,1
DA:360,1
DA:361,1
DA:362,1
DA:363,1
DA:366,1
DA:367,1
DA:369,1
DA:371,1
DA:372,1
DA:375,1
DA:376,1
DA:377,1
DA:378,1
DA:379,1
DA:380,1
DA:381,1
DA:382,1
DA:383,1
DA:384,1
DA:386,1
DA:388,1
DA:389,1
DA:390,1
DA:391,1
DA:394,1
DA:397,1
DA:398,1
DA:400,1
DA:402,1
DA:403,1
DA:404,1
DA:407,1
DA:408,1
DA:409,1
DA:410,1
DA:411,1
DA:412,1
DA:413,1
DA:414,1
DA:415,1
DA:416,1
DA:417,1
DA:418,1
DA:419,1
DA:420,1
DA:421,1
DA:422,1
DA:423,1
DA:424,1
DA:425,1
DA:426,1
DA:427,1
DA:430,1
DA:431,1
DA:432,1
DA:433,1
DA:434,1
DA:435,1
DA:436,1
DA:437,1
DA:438,1
DA:439,1
DA:440,1
DA:443,1
DA:444,1
DA:446,1
DA:448,1
DA:449,1
DA:450,1
DA:453,1
DA:454,1
DA:455,1
DA:456,1
DA:457,1
DA:458,1
DA:459,1
DA:460,1
DA:461,1
DA:462,1
DA:463,1
DA:464,1
DA:465,1
DA:466,1
DA:469,1
DA:470,1
DA:471,1
DA:472,1
DA:473,1
DA:474,1
DA:475,1
DA:476,1
DA:477,1
DA:478,1
DA:479,1
DA:480,1
DA:481,1
DA:482,1
DA:483,1
DA:484,1
DA:485,1
DA:486,1
DA:487,1
DA:488,1
DA:489,1
DA:492,1
DA:493,1
DA:495,1
DA:497,1
DA:498,1
DA:499,1
DA:502,1
DA:503,1
DA:505,1
DA:506,1
DA:507,1
DA:510,1
DA:511,1
DA:512,1
DA:513,1
DA:515,1
DA:516,1
DA:517,1
DA:518,1
BRF:0
BRH:0
LF:341
LH:331
end_of_record