SF:/home/openclaw/dev/yinglichina8848/sqlrustgo/crates/graph/src/cypher/executor.rs
FN:244,_RNvNtNtNtCshHW17pKFbCA_15sqlrustgo_graph6cypher8executor5tests17create_test_store
FN:258,_RNvNtNtNtCshHW17pKFbCA_15sqlrustgo_graph6cypher8executor5testss_25test_execute_simple_match
FN:324,_RNvNtNtNtCshHW17pKFbCA_15sqlrustgo_graph6cypher8executor5testss_26test_execute_match_with_or
FN:315,_RNvNtNtNtCshHW17pKFbCA_15sqlrustgo_graph6cypher8executor5testss_27test_execute_match_with_and
FN:332,_RNvNtNtNtCshHW17pKFbCA_15sqlrustgo_graph6cypher8executor5testss_27test_execute_match_with_not
FN:339,_RNvNtNtNtCshHW17pKFbCA_15sqlrustgo_graph6cypher8executor5testss_29test_execute_match_no_results
FN:265,_RNvNtNtNtCshHW17pKFbCA_15sqlrustgo_graph6cypher8executor5testss_29test_execute_match_with_label
FN:272,_RNvNtNtNtCshHW17pKFbCA_15sqlrustgo_graph6cypher8executor5testss_29test_execute_match_with_where
FN:355,_RNvNtNtNtCshHW17pKFbCA_15sqlrustgo_graph6cypher8executor5testss_34test_execute_match_string_property
FN:294,_RNvNtNtNtCshHW17pKFbCA_15sqlrustgo_graph6cypher8executor5testss_34test_execute_match_with_where_less
FN:279,_RNvNtNtNtCshHW17pKFbCA_15sqlrustgo_graph6cypher8executor5testss_36test_execute_match_with_where_equals
FN:308,_RNvNtNtNtCshHW17pKFbCA_15sqlrustgo_graph6cypher8executor5testss_37test_execute_match_with_where_less_eq
FN:347,_RNvNtNtNtCshHW17pKFbCA_15sqlrustgo_graph6cypher8executor5testss_39test_execute_match_with_property_access
FN:377,_RNvNtNtNtCshHW17pKFbCA_15sqlrustgo_graph6cypher8executor5testss_40test_execute_match_label_filter_no_match
FN:301,_RNvNtNtNtCshHW17pKFbCA_15sqlrustgo_graph6cypher8executor5testss_40test_execute_match_with_where_greater_eq
FN:287,_RNvNtNtNtCshHW17pKFbCA_15sqlrustgo_graph6cypher8executor5testss_40test_execute_match_with_where_not_equals
FN:101,_RNCNCNCNvNtNtCshHW17pKFbCA_15sqlrustgo_graph6cypher8executor20execute_node_patterns1_000Bb_
FN:97,_RNCNCNvNtNtCshHW17pKFbCA_15sqlrustgo_graph6cypher8executor20execute_node_patterns1_00B9_
FN:184,_RNCNvNtNtCshHW17pKFbCA_15sqlrustgo_graph6cypher8executor13node_to_value0B7_
FN:66,_RNCNvNtNtCshHW17pKFbCA_15sqlrustgo_graph6cypher8executor20execute_node_pattern0B7_
FN:83,_RNCNvNtNtCshHW17pKFbCA_15sqlrustgo_graph6cypher8executor20execute_node_patterns0_0B7_
FN:94,_RNCNvNtNtCshHW17pKFbCA_15sqlrustgo_graph6cypher8executor20execute_node_patterns1_0B7_
FN:72,_RNCNvNtNtCshHW17pKFbCA_15sqlrustgo_graph6cypher8executor20execute_node_patterns_0B7_
FN:126,_RNCNvNtNtCshHW17pKFbCA_15sqlrustgo_graph6cypher8executor28execute_relationship_pattern0B7_
FN:161,_RNCNvNtNtCshHW17pKFbCA_15sqlrustgo_graph6cypher8executor28execute_relationship_patterns0_0B7_
FN:148,_RNCNvNtNtCshHW17pKFbCA_15sqlrustgo_graph6cypher8executor28execute_relationship_patterns_0B7_
FN:30,_RNvNtNtCshHW17pKFbCA_15sqlrustgo_graph6cypher8executor13execute_query
FN:176,_RNvNtNtCshHW17pKFbCA_15sqlrustgo_graph6cypher8executor13node_to_value
FN:13,_RNvNtNtCshHW17pKFbCA_15sqlrustgo_graph6cypher8executor14execute_cypher
FN:191,_RNvNtNtCshHW17pKFbCA_15sqlrustgo_graph6cypher8executor18evaluate_predicate
FN:54,_RNvNtNtCshHW17pKFbCA_15sqlrustgo_graph6cypher8executor20execute_node_pattern
FN:114,_RNvNtNtCshHW17pKFbCA_15sqlrustgo_graph6cypher8executor28execute_relationship_pattern
FN:101,_RNCNCNCNvNtNtCskxg4ERNDwTM_15sqlrustgo_graph6cypher8executor20execute_node_patterns1_000Bb_
FN:97,_RNCNCNvNtNtCskxg4ERNDwTM_15sqlrustgo_graph6cypher8executor20execute_node_patterns1_00B9_
FN:184,_RNCNvNtNtCskxg4ERNDwTM_15sqlrustgo_graph6cypher8executor13node_to_value0B7_
FN:66,_RNCNvNtNtCskxg4ERNDwTM_15sqlrustgo_graph6cypher8executor20execute_node_pattern0B7_
FN:83,_RNCNvNtNtCskxg4ERNDwTM_15sqlrustgo_graph6cypher8executor20execute_node_patterns0_0B7_
FN:94,_RNCNvNtNtCskxg4ERNDwTM_15sqlrustgo_graph6cypher8executor20execute_node_patterns1_0B7_
FN:72,_RNCNvNtNtCskxg4ERNDwTM_15sqlrustgo_graph6cypher8executor20execute_node_patterns_0B7_
FN:126,_RNCNvNtNtCskxg4ERNDwTM_15sqlrustgo_graph6cypher8executor28execute_relationship_pattern0B7_
FN:161,_RNCNvNtNtCskxg4ERNDwTM_15sqlrustgo_graph6cypher8executor28execute_relationship_patterns0_0B7_
FN:148,_RNCNvNtNtCskxg4ERNDwTM_15sqlrustgo_graph6cypher8executor28execute_relationship_patterns_0B7_
FN:30,_RNvNtNtCskxg4ERNDwTM_15sqlrustgo_graph6cypher8executor13execute_query
FN:176,_RNvNtNtCskxg4ERNDwTM_15sqlrustgo_graph6cypher8executor13node_to_value
FN:13,_RNvNtNtCskxg4ERNDwTM_15sqlrustgo_graph6cypher8executor14execute_cypher
FN:191,_RNvNtNtCskxg4ERNDwTM_15sqlrustgo_graph6cypher8executor18evaluate_predicate
FN:54,_RNvNtNtCskxg4ERNDwTM_15sqlrustgo_graph6cypher8executor20execute_node_pattern
FN:114,_RNvNtNtCskxg4ERNDwTM_15sqlrustgo_graph6cypher8executor28execute_relationship_pattern
FNDA:14,_RNvNtNtNtCshHW17pKFbCA_15sqlrustgo_graph6cypher8executor5tests17create_test_store
FNDA:1,_RNvNtNtNtCshHW17pKFbCA_15sqlrustgo_graph6cypher8executor5testss_25test_execute_simple_match
FNDA:1,_RNvNtNtNtCshHW17pKFbCA_15sqlrustgo_graph6cypher8executor5testss_26test_execute_match_with_or
FNDA:1,_RNvNtNtNtCshHW17pKFbCA_15sqlrustgo_graph6cypher8executor5testss_27test_execute_match_with_and
FNDA:1,_RNvNtNtNtCshHW17pKFbCA_15sqlrustgo_graph6cypher8executor5testss_27test_execute_match_with_not
FNDA:1,_RNvNtNtNtCshHW17pKFbCA_15sqlrustgo_graph6cypher8executor5testss_29test_execute_match_no_results
FNDA:1,_RNvNtNtNtCshHW17pKFbCA_15sqlrustgo_graph6cypher8executor5testss_29test_execute_match_with_label
FNDA:1,_RNvNtNtNtCshHW17pKFbCA_15sqlrustgo_graph6cypher8executor5testss_29test_execute_match_with_where
FNDA:1,_RNvNtNtNtCshHW17pKFbCA_15sqlrustgo_graph6cypher8executor5testss_34test_execute_match_string_property
FNDA:1,_RNvNtNtNtCshHW17pKFbCA_15sqlrustgo_graph6cypher8executor5testss_34test_execute_match_with_where_less
FNDA:1,_RNvNtNtNtCshHW17pKFbCA_15sqlrustgo_graph6cypher8executor5testss_36test_execute_match_with_where_equals
FNDA:1,_RNvNtNtNtCshHW17pKFbCA_15sqlrustgo_graph6cypher8executor5testss_37test_execute_match_with_where_less_eq
FNDA:1,_RNvNtNtNtCshHW17pKFbCA_15sqlrustgo_graph6cypher8executor5testss_39test_execute_match_with_property_access
FNDA:1,_RNvNtNtNtCshHW17pKFbCA_15sqlrustgo_graph6cypher8executor5testss_40test_execute_match_label_filter_no_match
FNDA:1,_RNvNtNtNtCshHW17pKFbCA_15sqlrustgo_graph6cypher8executor5testss_40test_execute_match_with_where_greater_eq
FNDA:1,_RNvNtNtNtCshHW17pKFbCA_15sqlrustgo_graph6cypher8executor5testss_40test_execute_match_with_where_not_equals
FNDA:3,_RNCNCNCNvNtNtCshHW17pKFbCA_15sqlrustgo_graph6cypher8executor20execute_node_patterns1_000Bb_
FNDA:18,_RNCNCNvNtNtCshHW17pKFbCA_15sqlrustgo_graph6cypher8executor20execute_node_patterns1_00B9_
FNDA:0,_RNCNvNtNtCshHW17pKFbCA_15sqlrustgo_graph6cypher8executor13node_to_value0B7_
FNDA:26,_RNCNvNtNtCshHW17pKFbCA_15sqlrustgo_graph6cypher8executor20execute_node_pattern0B7_
FNDA:15,_RNCNvNtNtCshHW17pKFbCA_15sqlrustgo_graph6cypher8executor20execute_node_patterns0_0B7_
FNDA:18,_RNCNvNtNtCshHW17pKFbCA_15sqlrustgo_graph6cypher8executor20execute_node_patterns1_0B7_
FNDA:28,_RNCNvNtNtCshHW17pKFbCA_15sqlrustgo_graph6cypher8executor20execute_node_patterns_0B7_
FNDA:0,_RNCNvNtNtCshHW17pKFbCA_15sqlrustgo_graph6cypher8executor28execute_relationship_pattern0B7_
FNDA:0,_RNCNvNtNtCshHW17pKFbCA_15sqlrustgo_graph6cypher8executor28execute_relationship_patterns0_0B7_
FNDA:0,_RNCNvNtNtCshHW17pKFbCA_15sqlrustgo_graph6cypher8executor28execute_relationship_patterns_0B7_
FNDA:15,_RNvNtNtCshHW17pKFbCA_15sqlrustgo_graph6cypher8executor13execute_query
FNDA:0,_RNvNtNtCshHW17pKFbCA_15sqlrustgo_graph6cypher8executor13node_to_value
FNDA:15,_RNvNtNtCshHW17pKFbCA_15sqlrustgo_graph6cypher8executor14execute_cypher
FNDA:31,_RNvNtNtCshHW17pKFbCA_15sqlrustgo_graph6cypher8executor18evaluate_predicate
FNDA:15,_RNvNtNtCshHW17pKFbCA_15sqlrustgo_graph6cypher8executor20execute_node_pattern
FNDA:0,_RNvNtNtCshHW17pKFbCA_15sqlrustgo_graph6cypher8executor28execute_relationship_pattern
FNDA:0,_RNCNCNCNvNtNtCskxg4ERNDwTM_15sqlrustgo_graph6cypher8executor20execute_node_patterns1_000Bb_
FNDA:0,_RNCNCNvNtNtCskxg4ERNDwTM_15sqlrustgo_graph6cypher8executor20execute_node_patterns1_00B9_
FNDA:0,_RNCNvNtNtCskxg4ERNDwTM_15sqlrustgo_graph6cypher8executor13node_to_value0B7_
FNDA:0,_RNCNvNtNtCskxg4ERNDwTM_15sqlrustgo_graph6cypher8executor20execute_node_pattern0B7_
FNDA:0,_RNCNvNtNtCskxg4ERNDwTM_15sqlrustgo_graph6cypher8executor20execute_node_patterns0_0B7_
FNDA:0,_RNCNvNtNtCskxg4ERNDwTM_15sqlrustgo_graph6cypher8executor20execute_node_patterns1_0B7_
FNDA:0,_RNCNvNtNtCskxg4ERNDwTM_15sqlrustgo_graph6cypher8executor20execute_node_patterns_0B7_
FNDA:0,_RNCNvNtNtCskxg4ERNDwTM_15sqlrustgo_graph6cypher8executor28execute_relationship_pattern0B7_
FNDA:0,_RNCNvNtNtCskxg4ERNDwTM_15sqlrustgo_graph6cypher8executor28execute_relationship_patterns0_0B7_
FNDA:0,_RNCNvNtNtCskxg4ERNDwTM_15sqlrustgo_graph6cypher8executor28execute_relationship_patterns_0B7_
FNDA:0,_RNvNtNtCskxg4ERNDwTM_15sqlrustgo_graph6cypher8executor13execute_query
FNDA:0,_RNvNtNtCskxg4ERNDwTM_15sqlrustgo_graph6cypher8executor13node_to_value
FNDA:0,_RNvNtNtCskxg4ERNDwTM_15sqlrustgo_graph6cypher8executor14execute_cypher
FNDA:0,_RNvNtNtCskxg4ERNDwTM_15sqlrustgo_graph6cypher8executor18evaluate_predicate
FNDA:0,_RNvNtNtCskxg4ERNDwTM_15sqlrustgo_graph6cypher8executor20execute_node_pattern
FNDA:0,_RNvNtNtCskxg4ERNDwTM_15sqlrustgo_graph6cypher8executor28execute_relationship_pattern
FNF:32
FNH:26
DA:13,15
DA:14,15
DA:15,15
DA:17,192
DA:18,192
DA:19,15
DA:20,177
DA:21,177
DA:24,15
DA:25,15
DA:27,15
DA:28,15
DA:30,15
DA:31,15
DA:32,15
DA:33,15
DA:34,15
DA:35,15
DA:36,15
DA:39,0
DA:40,0
DA:41,0
DA:43,0
DA:44,0
DA:45,0
DA:46,0
DA:47,0
DA:48,0
DA:49,0
DA:52,15
DA:54,15
DA:55,15
DA:56,15
DA:57,15
DA:58,15
DA:59,15
DA:60,15
DA:62,15
DA:63,2
DA:65,13
DA:66,26
DA:67,13
DA:70,15
DA:71,15
DA:72,28
DA:73,28
DA:74,22
DA:76,6
DA:78,28
DA:79,15
DA:81,15
DA:82,15
DA:83,15
DA:84,15
DA:85,2
DA:87,13
DA:89,15
DA:90,15
DA:92,15
DA:93,15
DA:94,18
DA:95,18
DA:96,18
DA:97,18
DA:98,18
DA:99,3
DA:100,3
DA:101,3
DA:102,3
DA:104,15
DA:106,18
DA:107,18
DA:108,18
DA:109,15
DA:111,15
DA:112,15
DA:114,0
DA:115,0
DA:116,0
DA:117,0
DA:118,0
DA:119,0
DA:120,0
DA:121,0
DA:122,0
DA:123,0
DA:125,0
DA:126,0
DA:127,0
DA:130,0
DA:132,0
DA:133,0
DA:134,0
DA:136,0
DA:139,0
DA:140,0
DA:141,0
DA:142,0
DA:143,0
DA:144,0
DA:146,0
DA:147,0
DA:148,0
DA:149,0
DA:150,0
DA:151,0
DA:152,0
DA:153,0
DA:155,0
DA:159,0
DA:160,0
DA:161,0
DA:162,0
DA:163,0
DA:165,0
DA:167,0
DA:168,0
DA:170,0
DA:171,0
DA:172,0
DA:173,0
DA:174,0
DA:176,0
DA:177,0
DA:178,0
DA:179,0
DA:180,0
DA:181,0
DA:182,0
DA:183,0
DA:184,0
DA:185,0
DA:187,0
DA:189,0
DA:191,31
DA:192,31
DA:193,31
DA:194,31
DA:195,31
DA:196,31
DA:199,25
DA:200,25
DA:201,25
DA:203,25
DA:204,25
DA:205,0
DA:208,25
DA:209,25
DA:210,0
DA:213,25
DA:214,23
DA:215,2
DA:216,0
DA:217,0
DA:220,25
DA:221,9
DA:222,2
DA:223,6
DA:224,4
DA:225,2
DA:226,2
DA:229,2
DA:230,2
DA:232,2
DA:233,2
DA:235,2
DA:237,31
DA:244,14
DA:245,14
DA:246,14
DA:247,14
DA:248,14
DA:249,14
DA:250,14
DA:251,14
DA:252,14
DA:253,14
DA:254,14
DA:255,14
DA:258,1
DA:259,1
DA:260,1
DA:261,1
DA:262,1
DA:265,1
DA:266,1
DA:267,1
DA:268,1
DA:269,1
DA:272,1
DA:273,1
DA:274,1
DA:275,1
DA:276,1
DA:279,1
DA:280,1
DA:281,1
DA:282,1
DA:283,1
DA:284,1
DA:287,1
DA:288,1
DA:289,1
DA:290,1
DA:291,1
DA:294,1
DA:295,1
DA:296,1
DA:297,1
DA:298,1
DA:301,1
DA:302,1
DA:303,1
DA:304,1
DA:305,1
DA:308,1
DA:309,1
DA:310,1
DA:311,1
DA:312,1
DA:315,1
DA:316,1
DA:317,1
DA:318,1
DA:320,1
DA:321,1
DA:324,1
DA:325,1
DA:326,1
DA:327,1
DA:328,1
DA:329,1
DA:332,1
DA:333,1
DA:334,1
DA:335,1
DA:336,1
DA:339,1
DA:340,1
DA:341,1
DA:342,1
DA:343,1
DA:344,1
DA:347,1
DA:348,1
DA:349,1
DA:350,1
DA:351,1
DA:352,1
DA:355,1
DA:356,1
DA:357,1
DA:358,1
DA:359,1
DA:360,1
DA:362,1
DA:363,1
DA:364,1
DA:365,1
DA:367,1
DA:368,1
DA:369,1
DA:370,1
DA:371,1
DA:372,1
DA:374,1
DA:377,1
DA:378,1
DA:379,1
DA:380,1
DA:381,1
BRF:0
BRH:0
LF:281
LH:205
end_of_record
SF:/home/openclaw/dev/yinglichina8848/sqlrustgo/crates/graph/src/cypher/lexer.rs
FN:34,_RNvXNtNtCshHW17pKFbCA_15sqlrustgo_graph6cypher5lexerNtB2_11CypherTokenNtNtCs8nPosuWgJFh_4core3fmt7Display3fmt
FN:79,_RNvMs_NtNtCshHW17pKFbCA_15sqlrustgo_graph6cypher5lexerNtB4_11CypherLexer10next_token
FN:211,_RNvMs_NtNtCshHW17pKFbCA_15sqlrustgo_graph6cypher5lexerNtB4_11CypherLexer11read_number
FN:197,_RNvMs_NtNtCshHW17pKFbCA_15sqlrustgo_graph6cypher5lexerNtB4_11CypherLexer11read_string
FN:175,_RNvMs_NtNtCshHW17pKFbCA_15sqlrustgo_graph6cypher5lexerNtB4_11CypherLexer15read_identifier
FN:169,_RNvMs_NtNtCshHW17pKFbCA_15sqlrustgo_graph6cypher5lexerNtB4_11CypherLexer15skip_whitespace
FN:72,_RNvMs_NtNtCshHW17pKFbCA_15sqlrustgo_graph6cypher5lexerNtB4_11CypherLexer3new
FN:161,_RNvMs_NtNtCshHW17pKFbCA_15sqlrustgo_graph6cypher5lexerNtB4_11CypherLexer4peek
FN:165,_RNvMs_NtNtCshHW17pKFbCA_15sqlrustgo_graph6cypher5lexerNtB4_11CypherLexer7advance
FN:312,_RNvNtNtNtCshHW17pKFbCA_15sqlrustgo_graph6cypher5lexer5testss_19test_tokenize_float
FN:319,_RNvNtNtNtCshHW17pKFbCA_15sqlrustgo_graph6cypher5lexer5testss_19test_tokenize_label
FN:246,_RNvNtNtNtCshHW17pKFbCA_15sqlrustgo_graph6cypher5lexer5testss_19test_tokenize_match
FN:280,_RNvNtNtNtCshHW17pKFbCA_15sqlrustgo_graph6cypher5lexer5testss_19test_tokenize_where
FN:305,_RNvNtNtNtCshHW17pKFbCA_15sqlrustgo_graph6cypher5lexer5testss_21test_tokenize_integer
FN:333,_RNvNtNtNtCshHW17pKFbCA_15sqlrustgo_graph6cypher5lexer5testss_24test_tokenize_not_equals
FN:258,_RNvNtNtNtCshHW17pKFbCA_15sqlrustgo_graph6cypher5lexer5testss_26test_tokenize_relationship
FN:295,_RNvNtNtNtCshHW17pKFbCA_15sqlrustgo_graph6cypher5lexer5testss_28test_tokenize_string_literal
FN:79,_RNvMs_NtNtCskxg4ERNDwTM_15sqlrustgo_graph6cypher5lexerNtB4_11CypherLexer10next_token
FN:211,_RNvMs_NtNtCskxg4ERNDwTM_15sqlrustgo_graph6cypher5lexerNtB4_11CypherLexer11read_number
FN:197,_RNvMs_NtNtCskxg4ERNDwTM_15sqlrustgo_graph6cypher5lexerNtB4_11CypherLexer11read_string
FN:175,_RNvMs_NtNtCskxg4ERNDwTM_15sqlrustgo_graph6cypher5lexerNtB4_11CypherLexer15read_identifier
FN:169,_RNvMs_NtNtCskxg4ERNDwTM_15sqlrustgo_graph6cypher5lexerNtB4_11CypherLexer15skip_whitespace
FN:72,_RNvMs_NtNtCskxg4ERNDwTM_15sqlrustgo_graph6cypher5lexerNtB4_11CypherLexer3new
FN:161,_RNvMs_NtNtCskxg4ERNDwTM_15sqlrustgo_graph6cypher5lexerNtB4_11CypherLexer4peek
FN:165,_RNvMs_NtNtCskxg4ERNDwTM_15sqlrustgo_graph6cypher5lexerNtB4_11CypherLexer7advance
FN:34,_RNvXNtNtCskxg4ERNDwTM_15sqlrustgo_graph6cypher5lexerNtB2_11CypherTokenNtNtCs8nPosuWgJFh_4core3fmt7Display3fmt
FNDA:0,_RNvXNtNtCshHW17pKFbCA_15sqlrustgo_graph6cypher5lexerNtB2_11CypherTokenNtNtCs8nPosuWgJFh_4core3fmt7Display3fmt
FNDA:241,_RNvMs_NtNtCshHW17pKFbCA_15sqlrustgo_graph6cypher5lexerNtB4_11CypherLexer10next_token
FNDA:15,_RNvMs_NtNtCshHW17pKFbCA_15sqlrustgo_graph6cypher5lexerNtB4_11CypherLexer11read_number
FNDA:2,_RNvMs_NtNtCshHW17pKFbCA_15sqlrustgo_graph6cypher5lexerNtB4_11CypherLexer11read_string
FNDA:121,_RNvMs_NtNtCshHW17pKFbCA_15sqlrustgo_graph6cypher5lexerNtB4_11CypherLexer15read_identifier
FNDA:241,_RNvMs_NtNtCshHW17pKFbCA_15sqlrustgo_graph6cypher5lexerNtB4_11CypherLexer15skip_whitespace
FNDA:24,_RNvMs_NtNtCshHW17pKFbCA_15sqlrustgo_graph6cypher5lexerNtB4_11CypherLexer3new
FNDA:1113,_RNvMs_NtNtCshHW17pKFbCA_15sqlrustgo_graph6cypher5lexerNtB4_11CypherLexer4peek
FNDA:619,_RNvMs_NtNtCshHW17pKFbCA_15sqlrustgo_graph6cypher5lexerNtB4_11CypherLexer7advance
FNDA:1,_RNvNtNtNtCshHW17pKFbCA_15sqlrustgo_graph6cypher5lexer5testss_19test_tokenize_float
FNDA:1,_RNvNtNtNtCshHW17pKFbCA_15sqlrustgo_graph6cypher5lexer5testss_19test_tokenize_label
FNDA:1,_RNvNtNtNtCshHW17pKFbCA_15sqlrustgo_graph6cypher5lexer5testss_19test_tokenize_match
FNDA:1,_RNvNtNtNtCshHW17pKFbCA_15sqlrustgo_graph6cypher5lexer5testss_19test_tokenize_where
FNDA:1,_RNvNtNtNtCshHW17pKFbCA_15sqlrustgo_graph6cypher5lexer5testss_21test_tokenize_integer
FNDA:1,_RNvNtNtNtCshHW17pKFbCA_15sqlrustgo_graph6cypher5lexer5testss_24test_tokenize_not_equals
FNDA:1,_RNvNtNtNtCshHW17pKFbCA_15sqlrustgo_graph6cypher5lexer5testss_26test_tokenize_relationship
FNDA:1,_RNvNtNtNtCshHW17pKFbCA_15sqlrustgo_graph6cypher5lexer5testss_28test_tokenize_string_literal
FNDA:0,_RNvMs_NtNtCskxg4ERNDwTM_15sqlrustgo_graph6cypher5lexerNtB4_11CypherLexer10next_token
FNDA:0,_RNvMs_NtNtCskxg4ERNDwTM_15sqlrustgo_graph6cypher5lexerNtB4_11CypherLexer11read_number
FNDA:0,_RNvMs_NtNtCskxg4ERNDwTM_15sqlrustgo_graph6cypher5lexerNtB4_11CypherLexer11read_string
FNDA:0,_RNvMs_NtNtCskxg4ERNDwTM_15sqlrustgo_graph6cypher5lexerNtB4_11CypherLexer15read_identifier
FNDA:0,_RNvMs_NtNtCskxg4ERNDwTM_15sqlrustgo_graph6cypher5lexerNtB4_11CypherLexer15skip_whitespace
FNDA:0,_RNvMs_NtNtCskxg4ERNDwTM_15sqlrustgo_graph6cypher5lexerNtB4_11CypherLexer3new
FNDA:0,_RNvMs_NtNtCskxg4ERNDwTM_15sqlrustgo_graph6cypher5lexerNtB4_11CypherLexer4peek
FNDA:0,_RNvMs_NtNtCskxg4ERNDwTM_15sqlrustgo_graph6cypher5lexerNtB4_11CypherLexer7advance
FNDA:0,_RNvXNtNtCskxg4ERNDwTM_15sqlrustgo_graph6cypher5lexerNtB2_11CypherTokenNtNtCs8nPosuWgJFh_4core3fmt7Display3fmt
FNF:17
FNH:16
DA:34,0
DA:35,0
DA:36,0
DA:37,0
DA:38,0
DA:39,0
DA:40,0
DA:41,0
DA:42,0
DA:43,0
DA:44,0
DA:45,0
DA:46,0
DA:47,0
DA:48,0
DA:49,0
DA:50,0
DA:51,0
DA:52,0
DA:53,0
DA:54,0
DA:55,0
DA:56,0
DA:57,0
DA:58,0
DA:59,0
DA:60,0
DA:61,0
DA:63,0
DA:72,24
DA:73,24
DA:74,24
DA:75,24
DA:76,24
DA:77,24
DA:79,241
DA:80,241
DA:82,241
DA:83,24
DA:84,217
DA:86,217
DA:88,121
DA:90,20
DA:91,20
DA:94,20
DA:95,20
DA:98,1
DA:99,1
DA:102,1
DA:103,1
DA:106,4
DA:107,4
DA:110,0
DA:111,0
DA:114,16
DA:115,16
DA:118,2
DA:119,2
DA:120,1
DA:121,1
DA:123,1
DA:127,5
DA:128,5
DA:129,1
DA:130,1
DA:132,4
DA:136,5
DA:137,5
DA:138,1
DA:139,1
DA:140,4
DA:141,2
DA:142,2
DA:144,2
DA:148,5
DA:149,5
DA:151,2
DA:152,136
DA:153,121
DA:155,0
DA:156,0
DA:159,241
DA:161,1113
DA:162,1113
DA:163,1113
DA:165,619
DA:166,619
DA:167,619
DA:169,241
DA:170,349
DA:171,108
DA:172,108
DA:173,241
DA:175,121
DA:176,121
DA:177,499
DA:178,482
DA:179,482
DA:180,378
DA:181,378
DA:182,378
DA:183,104
DA:186,121
DA:187,121
DA:188,103
DA:189,86
DA:190,74
DA:191,73
DA:192,72
DA:193,71
DA:195,121
DA:197,2
DA:198,2
DA:199,2
DA:200,2
DA:201,14
DA:202,12
DA:203,12
DA:204,12
DA:205,2
DA:206,2
DA:207,2
DA:208,2
DA:209,2
DA:211,15
DA:212,15
DA:213,15
DA:214,48
DA:215,45
DA:216,45
DA:217,32
DA:218,32
DA:219,32
DA:220,1
DA:221,1
DA:222,1
DA:223,1
DA:224,12
DA:227,15
DA:228,1
DA:229,1
DA:230,1
DA:231,1
DA:233,14
DA:234,14
DA:235,14
DA:236,14
DA:238,15
DA:246,1
DA:247,1
DA:248,1
DA:249,1
DA:250,1
DA:251,1
DA:252,1
DA:253,1
DA:254,1
DA:255,1
DA:258,1
DA:259,1
DA:260,1
DA:261,1
DA:262,1
DA:263,1
DA:264,1
DA:265,1
DA:266,1
DA:267,1
DA:268,1
DA:269,1
DA:271,1
DA:272,1
DA:273,1
DA:274,1
DA:275,1
DA:276,1
DA:277,1
DA:280,1
DA:281,1
DA:282,1
DA:283,1
DA:284,1
DA:285,1
DA:286,1
DA:287,1
DA:289,1
DA:290,1
DA:291,1
DA:292,1
DA:295,1
DA:296,1
DA:297,1
DA:298,1
DA:299,1
DA:301,1
DA:302,1
DA:305,1
DA:306,1
DA:307,1
DA:308,1
DA:309,1
DA:312,1
DA:313,1
DA:314,1
DA:315,1
DA:316,1
DA:319,1
DA:320,1
DA:321,1
DA:322,1
DA:323,1
DA:324,1
DA:325,1
DA:326,1
DA:328,1
DA:329,1
DA:330,1
DA:333,1
DA:334,1
DA:335,1
DA:336,1
DA:337,1
BRF:0
BRH:0
LF:222
LH:189
end_of_record
SF:/home/openclaw/dev/yinglichina8848/sqlrustgo/crates/graph/src/cypher/parser.rs
FN:350,_RNvNtNtNtCshHW17pKFbCA_15sqlrustgo_graph6cypher6parser5testss_23test_parse_simple_match
FN:430,_RNvNtNtNtCshHW17pKFbCA_15sqlrustgo_graph6cypher6parser5testss_23test_tokenize_and_parse
FN:368,_RNvNtNtNtCshHW17pKFbCA_15sqlrustgo_graph6cypher6parser5testss_27test_parse_match_with_label
FN:391,_RNvNtNtNtCshHW17pKFbCA_15sqlrustgo_graph6cypher6parser5testss_34test_parse_match_with_relationship
FN:78,_RNvMNtNtCshHW17pKFbCA_15sqlrustgo_graph6cypher6parserNtB2_12CypherParser11parse_query
FN:316,_RNvMNtNtCshHW17pKFbCA_15sqlrustgo_graph6cypher6parserNtB2_12CypherParser12expect_token
FN:294,_RNvMNtNtCshHW17pKFbCA_15sqlrustgo_graph6cypher6parserNtB2_12CypherParser13current_token
FN:239,_RNvMNtNtCshHW17pKFbCA_15sqlrustgo_graph6cypher6parserNtB2_12CypherParser13parse_literal
FN:91,_RNvMNtNtCshHW17pKFbCA_15sqlrustgo_graph6cypher6parserNtB2_12CypherParser13parse_pattern
FN:155,_RNvMNtNtCshHW17pKFbCA_15sqlrustgo_graph6cypher6parserNtB2_12CypherParser15parse_predicate
FN:183,_RNvMNtNtCshHW17pKFbCA_15sqlrustgo_graph6cypher6parserNtB2_12CypherParser16parse_comparison
FN:115,_RNvMNtNtCshHW17pKFbCA_15sqlrustgo_graph6cypher6parserNtB2_12CypherParser18parse_node_pattern
FN:96,_RNvMNtNtCshHW17pKFbCA_15sqlrustgo_graph6cypher6parserNtB2_12CypherParser18parse_pattern_body
FN:268,_RNvMNtNtCshHW17pKFbCA_15sqlrustgo_graph6cypher6parserNtB2_12CypherParser18parse_return_items
FN:147,_RNvMNtNtCshHW17pKFbCA_15sqlrustgo_graph6cypher6parserNtB2_12CypherParser18parse_where_clause
FN:302,_RNvMNtNtCshHW17pKFbCA_15sqlrustgo_graph6cypher6parserNtB2_12CypherParser26advance_and_get_identifier
FN:138,_RNvMNtNtCshHW17pKFbCA_15sqlrustgo_graph6cypher6parserNtB2_12CypherParser26parse_relationship_pattern
FN:71,_RNvMNtNtCshHW17pKFbCA_15sqlrustgo_graph6cypher6parserNtB2_12CypherParser3new
FN:298,_RNvMNtNtCshHW17pKFbCA_15sqlrustgo_graph6cypher6parserNtB2_12CypherParser7advance
FN:330,_RNvNtNtCshHW17pKFbCA_15sqlrustgo_graph6cypher6parser18tokenize_and_parse
FN:78,_RNvMNtNtCskxg4ERNDwTM_15sqlrustgo_graph6cypher6parserNtB2_12CypherParser11parse_query
FN:316,_RNvMNtNtCskxg4ERNDwTM_15sqlrustgo_graph6cypher6parserNtB2_12CypherParser12expect_token
FN:294,_RNvMNtNtCskxg4ERNDwTM_15sqlrustgo_graph6cypher6parserNtB2_12CypherParser13current_token
FN:239,_RNvMNtNtCskxg4ERNDwTM_15sqlrustgo_graph6cypher6parserNtB2_12CypherParser13parse_literal
FN:91,_RNvMNtNtCskxg4ERNDwTM_15sqlrustgo_graph6cypher6parserNtB2_12CypherParser13parse_pattern
FN:155,_RNvMNtNtCskxg4ERNDwTM_15sqlrustgo_graph6cypher6parserNtB2_12CypherParser15parse_predicate
FN:183,_RNvMNtNtCskxg4ERNDwTM_15sqlrustgo_graph6cypher6parserNtB2_12CypherParser16parse_comparison
FN:115,_RNvMNtNtCskxg4ERNDwTM_15sqlrustgo_graph6cypher6parserNtB2_12CypherParser18parse_node_pattern
FN:96,_RNvMNtNtCskxg4ERNDwTM_15sqlrustgo_graph6cypher6parserNtB2_12CypherParser18parse_pattern_body
FN:268,_RNvMNtNtCskxg4ERNDwTM_15sqlrustgo_graph6cypher6parserNtB2_12CypherParser18parse_return_items
FN:147,_RNvMNtNtCskxg4ERNDwTM_15sqlrustgo_graph6cypher6parserNtB2_12CypherParser18parse_where_clause
FN:302,_RNvMNtNtCskxg4ERNDwTM_15sqlrustgo_graph6cypher6parserNtB2_12CypherParser26advance_and_get_identifier
FN:138,_RNvMNtNtCskxg4ERNDwTM_15sqlrustgo_graph6cypher6parserNtB2_12CypherParser26parse_relationship_pattern
FN:71,_RNvMNtNtCskxg4ERNDwTM_15sqlrustgo_graph6cypher6parserNtB2_12CypherParser3new
FN:298,_RNvMNtNtCskxg4ERNDwTM_15sqlrustgo_graph6cypher6parserNtB2_12CypherParser7advance
FN:330,_RNvNtNtCskxg4ERNDwTM_15sqlrustgo_graph6cypher6parser18tokenize_and_parse
FNDA:1,_RNvNtNtNtCshHW17pKFbCA_15sqlrustgo_graph6cypher6parser5testss_23test_parse_simple_match
FNDA:1,_RNvNtNtNtCshHW17pKFbCA_15sqlrustgo_graph6cypher6parser5testss_23test_tokenize_and_parse
FNDA:1,_RNvNtNtNtCshHW17pKFbCA_15sqlrustgo_graph6cypher6parser5testss_27test_parse_match_with_label
FNDA:1,_RNvNtNtNtCshHW17pKFbCA_15sqlrustgo_graph6cypher6parser5testss_34test_parse_match_with_relationship
FNDA:19,_RNvMNtNtCshHW17pKFbCA_15sqlrustgo_graph6cypher6parserNtB2_12CypherParser11parse_query
FNDA:82,_RNvMNtNtCshHW17pKFbCA_15sqlrustgo_graph6cypher6parserNtB2_12CypherParser12expect_token
FNDA:297,_RNvMNtNtCshHW17pKFbCA_15sqlrustgo_graph6cypher6parserNtB2_12CypherParser13current_token
FNDA:13,_RNvMNtNtCshHW17pKFbCA_15sqlrustgo_graph6cypher6parserNtB2_12CypherParser13parse_literal
FNDA:19,_RNvMNtNtCshHW17pKFbCA_15sqlrustgo_graph6cypher6parserNtB2_12CypherParser13parse_pattern
FNDA:13,_RNvMNtNtCshHW17pKFbCA_15sqlrustgo_graph6cypher6parserNtB2_12CypherParser15parse_predicate
FNDA:13,_RNvMNtNtCshHW17pKFbCA_15sqlrustgo_graph6cypher6parserNtB2_12CypherParser16parse_comparison
FNDA:20,_RNvMNtNtCshHW17pKFbCA_15sqlrustgo_graph6cypher6parserNtB2_12CypherParser18parse_node_pattern
FNDA:19,_RNvMNtNtCshHW17pKFbCA_15sqlrustgo_graph6cypher6parserNtB2_12CypherParser18parse_pattern_body
FNDA:19,_RNvMNtNtCshHW17pKFbCA_15sqlrustgo_graph6cypher6parserNtB2_12CypherParser18parse_return_items
FNDA:19,_RNvMNtNtCshHW17pKFbCA_15sqlrustgo_graph6cypher6parserNtB2_12CypherParser18parse_where_clause
FNDA:72,_RNvMNtNtCshHW17pKFbCA_15sqlrustgo_graph6cypher6parserNtB2_12CypherParser26advance_and_get_identifier
FNDA:1,_RNvMNtNtCshHW17pKFbCA_15sqlrustgo_graph6cypher6parserNtB2_12CypherParser26parse_relationship_pattern
FNDA:19,_RNvMNtNtCshHW17pKFbCA_15sqlrustgo_graph6cypher6parserNtB2_12CypherParser3new
FNDA:214,_RNvMNtNtCshHW17pKFbCA_15sqlrustgo_graph6cypher6parserNtB2_12CypherParser7advance
FNDA:1,_RNvNtNtCshHW17pKFbCA_15sqlrustgo_graph6cypher6parser18tokenize_and_parse
FNDA:0,_RNvMNtNtCskxg4ERNDwTM_15sqlrustgo_graph6cypher6parserNtB2_12CypherParser11parse_query
FNDA:0,_RNvMNtNtCskxg4ERNDwTM_15sqlrustgo_graph6cypher6parserNtB2_12CypherParser12expect_token
FNDA:0,_RNvMNtNtCskxg4ERNDwTM_15sqlrustgo_graph6cypher6parserNtB2_12CypherParser13current_token
FNDA:0,_RNvMNtNtCskxg4ERNDwTM_15sqlrustgo_graph6cypher6parserNtB2_12CypherParser13parse_literal
FNDA:0,_RNvMNtNtCskxg4ERNDwTM_15sqlrustgo_graph6cypher6parserNtB2_12CypherParser13parse_pattern
FNDA:0,_RNvMNtNtCskxg4ERNDwTM_15sqlrustgo_graph6cypher6parserNtB2_12CypherParser15parse_predicate
FNDA:0,_RNvMNtNtCskxg4ERNDwTM_15sqlrustgo_graph6cypher6parserNtB2_12CypherParser16parse_comparison
FNDA:0,_RNvMNtNtCskxg4ERNDwTM_15sqlrustgo_graph6cypher6parserNtB2_12CypherParser18parse_node_pattern
FNDA:0,_RNvMNtNtCskxg4ERNDwTM_15sqlrustgo_graph6cypher6parserNtB2_12CypherParser18parse_pattern_body
FNDA:0,_RNvMNtNtCskxg4ERNDwTM_15sqlrustgo_graph6cypher6parserNtB2_12CypherParser18parse_return_items
FNDA:0,_RNvMNtNtCskxg4ERNDwTM_15sqlrustgo_graph6cypher6parserNtB2_12CypherParser18parse_where_clause
FNDA:0,_RNvMNtNtCskxg4ERNDwTM_15sqlrustgo_graph6cypher6parserNtB2_12CypherParser26advance_and_get_identifier
FNDA:0,_RNvMNtNtCskxg4ERNDwTM_15sqlrustgo_graph6cypher6parserNtB2_12CypherParser26parse_relationship_pattern
FNDA:0,_RNvMNtNtCskxg4ERNDwTM_15sqlrustgo_graph6cypher6parserNtB2_12CypherParser3new
FNDA:0,_RNvMNtNtCskxg4ERNDwTM_15sqlrustgo_graph6cypher6parserNtB2_12CypherParser7advance
FNDA:0,_RNvNtNtCskxg4ERNDwTM_15sqlrustgo_graph6cypher6parser18tokenize_and_parse
FNF:20
FNH:20
DA:71,19
DA:72,19
DA:73,19
DA:74,19
DA:75,19
DA:76,19
DA:78,19
DA:79,19
DA:80,19
DA:81,19
DA:82,19
DA:84,19
DA:85,19
DA:86,19
DA:87,19
DA:88,19
DA:89,19
DA:91,19
DA:92,19
DA:93,19
DA:94,19
DA:96,19
DA:97,19
DA:99,19
DA:100,1
DA:101,1
DA:102,1
DA:104,1
DA:105,1
DA:106,1
DA:107,1
DA:108,1
DA:109,1
DA:110,18
DA:112,18
DA:113,19
DA:115,20
DA:116,20
DA:118,20
DA:120,20
DA:121,20
DA:123,0
DA:126,20
DA:127,3
DA:128,3
DA:130,17
DA:133,20
DA:135,20
DA:136,20
DA:138,1
DA:139,1
DA:140,1
DA:141,1
DA:142,1
DA:143,1
DA:144,1
DA:145,1
DA:147,19
DA:148,19
DA:149,8
DA:150,11
DA:151,11
DA:152,11
DA:153,19
DA:155,13
DA:157,13
DA:158,1
DA:159,1
DA:160,12
DA:162,12
DA:164,12
DA:166,1
DA:167,1
DA:168,1
DA:171,1
DA:172,1
DA:173,1
DA:176,0
DA:177,0
DA:179,10
DA:181,13
DA:183,13
DA:184,13
DA:186,13
DA:188,13
DA:189,13
DA:191,13
DA:193,5
DA:194,5
DA:197,1
DA:198,1
DA:201,3
DA:202,3
DA:205,2
DA:206,2
DA:209,1
DA:210,1
DA:213,1
DA:214,1
DA:217,0
DA:218,0
DA:219,0
DA:220,0
DA:224,13
DA:226,13
DA:227,13
DA:228,13
DA:229,13
DA:230,13
DA:231,13
DA:233,0
DA:234,0
DA:235,0
DA:237,13
DA:239,13
DA:240,13
DA:241,1
DA:242,1
DA:243,1
DA:245,12
DA:246,12
DA:247,12
DA:249,0
DA:250,0
DA:251,0
DA:253,0
DA:254,0
DA:255,0
DA:256,0
DA:257,0
DA:258,0
DA:261,0
DA:262,0
DA:263,0
DA:264,0
DA:266,13
DA:268,19
DA:269,19
DA:272,20
DA:273,20
DA:274,20
DA:276,2
DA:277,2
DA:279,18
DA:282,20
DA:284,20
DA:285,1
DA:286,1
DA:287,19
DA:291,19
DA:292,19
DA:294,297
DA:295,297
DA:296,297
DA:298,214
DA:299,214
DA:300,214
DA:302,72
DA:303,72
DA:304,72
DA:305,72
DA:306,72
DA:307,72
DA:309,72
DA:310,72
DA:312,0
DA:314,72
DA:316,82
DA:317,82
DA:318,82
DA:319,82
DA:321,0
DA:322,0
DA:323,0
DA:324,0
DA:325,0
DA:327,82
DA:330,1
DA:331,1
DA:332,1
DA:334,7
DA:335,7
DA:336,1
DA:337,6
DA:338,6
DA:341,1
DA:342,1
DA:343,1
DA:350,1
DA:351,1
DA:352,1
DA:353,1
DA:354,1
DA:355,1
DA:356,1
DA:357,1
DA:359,1
DA:360,1
DA:362,1
DA:363,1
DA:364,1
DA:365,1
DA:368,1
DA:369,1
DA:370,1
DA:371,1
DA:372,1
DA:373,1
DA:374,1
DA:375,1
DA:376,1
DA:377,1
DA:379,1
DA:380,1
DA:382,1
DA:383,1
DA:384,1
DA:386,0
DA:388,1
DA:391,1
DA:392,1
DA:393,1
DA:394,1
DA:395,1
DA:396,1
DA:397,1
DA:398,1
DA:399,1
DA:400,1
DA:401,1
DA:402,1
DA:403,1
DA:404,1
DA:405,1
DA:406,1
DA:407,1
DA:408,1
DA:409,1
DA:411,1
DA:412,1
DA:414,1
DA:416,1
DA:417,1
DA:418,1
DA:421,1
DA:422,1
DA:423,1
DA:425,0
DA:427,1
DA:430,1
DA:431,1
DA:432,1
DA:433,1
DA:434,1
BRF:0
BRH:0
LF:254
LH:223
end_of_record
SF:/home/openclaw/dev/yinglichina8848/sqlrustgo/crates/graph/src/graph_generator.rs
FN:10,_RNvMNtCshHW17pKFbCA_15sqlrustgo_graph15graph_generatorNtB2_14GraphGenerator3new
FN:14,_RNvMNtCshHW17pKFbCA_15sqlrustgo_graph15graph_generatorNtB2_14GraphGenerator8generate
FN:108,_RNvMs_NtCshHW17pKFbCA_15sqlrustgo_graph15graph_generatorNtB4_9SimpleRng11next_double
FN:99,_RNvMs_NtCshHW17pKFbCA_15sqlrustgo_graph15graph_generatorNtB4_9SimpleRng3new
FN:103,_RNvMs_NtCshHW17pKFbCA_15sqlrustgo_graph15graph_generatorNtB4_9SimpleRng4next
FN:113,_RNvNtCshHW17pKFbCA_15sqlrustgo_graph15graph_generator12is_connected
FN:155,_RNvNtNtCshHW17pKFbCA_15sqlrustgo_graph15graph_generator5testss_26test_graph_generator_small
FN:148,_RNvNtNtCshHW17pKFbCA_15sqlrustgo_graph15graph_generator5testss_30test_graph_generator_100_nodes
FN:189,_RNvNtNtCshHW17pKFbCA_15sqlrustgo_graph15graph_generator5testss_31test_graph_generator_zero_nodes
FN:196,_RNvNtNtCshHW17pKFbCA_15sqlrustgo_graph15graph_generator5testss_32test_graph_generator_single_node
FN:182,_RNvNtNtCshHW17pKFbCA_15sqlrustgo_graph15graph_generator5testss_33test_graph_generator_connectivity
FN:163,_RNvNtNtCshHW17pKFbCA_15sqlrustgo_graph15graph_generator5testss_34test_graph_generator_deterministic
FN:204,_RNvNtNtCshHW17pKFbCA_15sqlrustgo_graph15graph_generator5testss_43test_graph_generator_edges_per_node_limited
FNDA:8,_RNvMNtCshHW17pKFbCA_15sqlrustgo_graph15graph_generatorNtB2_14GraphGenerator3new
FNDA:8,_RNvMNtCshHW17pKFbCA_15sqlrustgo_graph15graph_generatorNtB2_14GraphGenerator8generate
FNDA:976,_RNvMs_NtCshHW17pKFbCA_15sqlrustgo_graph15graph_generatorNtB4_9SimpleRng11next_double
FNDA:8,_RNvMs_NtCshHW17pKFbCA_15sqlrustgo_graph15graph_generatorNtB4_9SimpleRng3new
FNDA:976,_RNvMs_NtCshHW17pKFbCA_15sqlrustgo_graph15graph_generatorNtB4_9SimpleRng4next
FNDA:1,_RNvNtCshHW17pKFbCA_15sqlrustgo_graph15graph_generator12is_connected
FNDA:1,_RNvNtNtCshHW17pKFbCA_15sqlrustgo_graph15graph_generator5testss_26test_graph_generator_small
FNDA:1,_RNvNtNtCshHW17pKFbCA_15sqlrustgo_graph15graph_generator5testss_30test_graph_generator_100_nodes
FNDA:1,_RNvNtNtCshHW17pKFbCA_15sqlrustgo_graph15graph_generator5testss_31test_graph_generator_zero_nodes
FNDA:1,_RNvNtNtCshHW17pKFbCA_15sqlrustgo_graph15graph_generator5testss_32test_graph_generator_single_node
FNDA:1,_RNvNtNtCshHW17pKFbCA_15sqlrustgo_graph15graph_generator5testss_33test_graph_generator_connectivity
FNDA:1,_RNvNtNtCshHW17pKFbCA_15sqlrustgo_graph15graph_generator5testss_34test_graph_generator_deterministic
FNDA:1,_RNvNtNtCshHW17pKFbCA_15sqlrustgo_graph15graph_generator5testss_43test_graph_generator_edges_per_node_limited
FNF:13
FNH:13
DA:10,8
DA:11,8
DA:12,8
DA:14,8
DA:15,8
DA:16,8
DA:18,8
DA:19,1
DA:20,7
DA:22,7
DA:23,7
DA:24,1
DA:25,1
DA:26,1
DA:27,1
DA:28,6
DA:30,6
DA:31,24
DA:32,24
DA:33,24
DA:35,6
DA:36,6
DA:37,24
DA:38,24
DA:39,24
DA:40,24
DA:42,24
DA:43,37
DA:44,37
DA:45,37
DA:46,37
DA:47,37
DA:48,37
DA:49,37
DA:50,37
DA:51,37
DA:52,37
DA:55,291
DA:56,291
DA:57,291
DA:59,291
DA:60,291
DA:62,1267
DA:63,976
DA:64,976
DA:66,2587
DA:67,2587
DA:68,2587
DA:69,866
DA:70,866
DA:71,866
DA:72,866
DA:73,866
DA:74,1721
DA:78,866
DA:79,866
DA:80,866
DA:81,866
DA:82,866
DA:83,866
DA:84,866
DA:85,866
DA:86,866
DA:87,866
DA:90,6
DA:91,8
DA:99,8
DA:100,8
DA:101,8
DA:103,976
DA:104,976
DA:105,976
DA:106,976
DA:108,976
DA:109,976
DA:110,976
DA:113,1
DA:114,1
DA:115,0
DA:116,1
DA:118,1
DA:119,1
DA:121,1
DA:122,1
DA:123,1
DA:125,101
DA:126,294
DA:127,294
DA:128,3
DA:129,3
DA:130,291
DA:132,294
DA:133,294
DA:134,96
DA:135,96
DA:136,198
DA:140,1
DA:141,1
DA:148,1
DA:149,1
DA:150,1
DA:151,1
DA:152,1
DA:155,1
DA:156,1
DA:157,1
DA:158,1
DA:159,1
DA:160,1
DA:163,1
DA:164,1
DA:165,1
DA:167,1
DA:168,1
DA:170,1
DA:171,1
DA:173,50
DA:174,50
DA:175,50
DA:176,50
DA:177,50
DA:179,1
DA:182,1
DA:183,1
DA:184,1
DA:185,1
DA:186,1
DA:189,1
DA:190,1
DA:191,1
DA:192,1
DA:193,1
DA:196,1
DA:197,1
DA:198,1
DA:199,1
DA:200,1
DA:201,1
DA:204,1
DA:205,1
DA:206,1
DA:207,1
DA:208,1
DA:209,1
BRF:0
BRH:0
LF:144
LH:143
end_of_record
SF:/home/openclaw/dev/yinglichina8848/sqlrustgo/crates/graph/src/model/edge.rs
FN:102,_RINvMNtNtCshHW17pKFbCA_15sqlrustgo_graph5model4edgeNtB3_4Edge12set_propertyppEB7_
FN:97,_RNvMNtNtCshHW17pKFbCA_15sqlrustgo_graph5model4edgeNtB2_4Edge12get_property
FN:81,_RNvMNtNtCshHW17pKFbCA_15sqlrustgo_graph5model4edgeNtB2_4Edge5is_to
FN:76,_RNvMNtNtCshHW17pKFbCA_15sqlrustgo_graph5model4edgeNtB2_4Edge7is_from
FN:86,_RNvMNtNtCshHW17pKFbCA_15sqlrustgo_graph5model4edgeNtB2_4Edge14other_endpoint
FN:52,_RNvMNtNtCshHW17pKFbCA_15sqlrustgo_graph5model4edgeNtB2_4Edge14with_direction
FN:35,_RNvMNtNtCshHW17pKFbCA_15sqlrustgo_graph5model4edgeNtB2_4Edge3new
FN:71,_RNvMNtNtCshHW17pKFbCA_15sqlrustgo_graph5model4edgeNtB2_4Edge8connects
FN:150,_RNvNtNtNtCshHW17pKFbCA_15sqlrustgo_graph5model4edge5testss_18test_edge_connects
FN:129,_RNvNtNtNtCshHW17pKFbCA_15sqlrustgo_graph5model4edge5testss_18test_edge_creation
FN:203,_RNvNtNtNtCshHW17pKFbCA_15sqlrustgo_graph5model4edge5testss_20test_gmp_edge_labels
FN:165,_RNvNtNtNtCshHW17pKFbCA_15sqlrustgo_graph5model4edge5testss_24test_edge_other_endpoint
FN:180,_RNvNtNtNtCshHW17pKFbCA_15sqlrustgo_graph5model4edge5testss_24test_edge_with_direction
FN:97,_RNvMNtNtCskxg4ERNDwTM_15sqlrustgo_graph5model4edgeNtB2_4Edge12get_property
FN:86,_RNvMNtNtCskxg4ERNDwTM_15sqlrustgo_graph5model4edgeNtB2_4Edge14other_endpoint
FN:52,_RNvMNtNtCskxg4ERNDwTM_15sqlrustgo_graph5model4edgeNtB2_4Edge14with_direction
FN:35,_RNvMNtNtCskxg4ERNDwTM_15sqlrustgo_graph5model4edgeNtB2_4Edge3new
FN:81,_RNvMNtNtCskxg4ERNDwTM_15sqlrustgo_graph5model4edgeNtB2_4Edge5is_to
FN:76,_RNvMNtNtCskxg4ERNDwTM_15sqlrustgo_graph5model4edgeNtB2_4Edge7is_from
FN:71,_RNvMNtNtCskxg4ERNDwTM_15sqlrustgo_graph5model4edgeNtB2_4Edge8connects
FNDA:0,_RINvMNtNtCshHW17pKFbCA_15sqlrustgo_graph5model4edgeNtB3_4Edge12set_propertyppEB7_
FNDA:0,_RNvMNtNtCshHW17pKFbCA_15sqlrustgo_graph5model4edgeNtB2_4Edge12get_property
FNDA:0,_RNvMNtNtCshHW17pKFbCA_15sqlrustgo_graph5model4edgeNtB2_4Edge5is_to
FNDA:0,_RNvMNtNtCshHW17pKFbCA_15sqlrustgo_graph5model4edgeNtB2_4Edge7is_from
FNDA:3,_RNvMNtNtCshHW17pKFbCA_15sqlrustgo_graph5model4edgeNtB2_4Edge14other_endpoint
FNDA:7,_RNvMNtNtCshHW17pKFbCA_15sqlrustgo_graph5model4edgeNtB2_4Edge14with_direction
FNDA:914,_RNvMNtNtCshHW17pKFbCA_15sqlrustgo_graph5model4edgeNtB2_4Edge3new
FNDA:3,_RNvMNtNtCshHW17pKFbCA_15sqlrustgo_graph5model4edgeNtB2_4Edge8connects
FNDA:1,_RNvNtNtNtCshHW17pKFbCA_15sqlrustgo_graph5model4edge5testss_18test_edge_connects
FNDA:1,_RNvNtNtNtCshHW17pKFbCA_15sqlrustgo_graph5model4edge5testss_18test_edge_creation
FNDA:1,_RNvNtNtNtCshHW17pKFbCA_15sqlrustgo_graph5model4edge5testss_20test_gmp_edge_labels
FNDA:1,_RNvNtNtNtCshHW17pKFbCA_15sqlrustgo_graph5model4edge5testss_24test_edge_other_endpoint
FNDA:1,_RNvNtNtNtCshHW17pKFbCA_15sqlrustgo_graph5model4edge5testss_24test_edge_with_direction
FNDA:0,_RNvMNtNtCskxg4ERNDwTM_15sqlrustgo_graph5model4edgeNtB2_4Edge12get_property
FNDA:0,_RNvMNtNtCskxg4ERNDwTM_15sqlrustgo_graph5model4edgeNtB2_4Edge14other_endpoint
FNDA:0,_RNvMNtNtCskxg4ERNDwTM_15sqlrustgo_graph5model4edgeNtB2_4Edge14with_direction
FNDA:0,_RNvMNtNtCskxg4ERNDwTM_15sqlrustgo_graph5model4edgeNtB2_4Edge3new
FNDA:0,_RNvMNtNtCskxg4ERNDwTM_15sqlrustgo_graph5model4edgeNtB2_4Edge5is_to
FNDA:0,_RNvMNtNtCskxg4ERNDwTM_15sqlrustgo_graph5model4edgeNtB2_4Edge7is_from
FNDA:0,_RNvMNtNtCskxg4ERNDwTM_15sqlrustgo_graph5model4edgeNtB2_4Edge8connects
FNF:13
FNH:9
DA:35,914
DA:36,914
DA:37,914
DA:38,914
DA:39,914
DA:40,914
DA:41,914
DA:42,914
DA:43,914
DA:44,914
DA:45,914
DA:46,914
DA:47,914
DA:48,914
DA:49,914
DA:50,914
DA:52,7
DA:53,7
DA:54,7
DA:55,7
DA:56,7
DA:57,7
DA:58,7
DA:59,7
DA:60,7
DA:61,7
DA:62,7
DA:63,7
DA:64,7
DA:65,7
DA:66,7
DA:67,7
DA:68,7
DA:71,3
DA:72,3
DA:73,3
DA:76,0
DA:77,0
DA:78,0
DA:81,0
DA:82,0
DA:83,0
DA:86,3
DA:87,3
DA:88,1
DA:89,2
DA:90,1
DA:92,1
DA:94,3
DA:97,0
DA:98,0
DA:99,0
DA:102,0
DA:103,0
DA:104,0
DA:105,0
DA:106,0
DA:107,0
DA:108,0
DA:129,1
DA:130,1
DA:131,1
DA:132,1
DA:134,1
DA:135,1
DA:136,1
DA:137,1
DA:138,1
DA:139,1
DA:142,1
DA:143,1
DA:144,1
DA:145,1
DA:146,1
DA:147,1
DA:150,1
DA:151,1
DA:152,1
DA:153,1
DA:154,1
DA:155,1
DA:156,1
DA:159,1
DA:160,1
DA:161,1
DA:162,1
DA:165,1
DA:166,1
DA:167,1
DA:168,1
DA:169,1
DA:170,1
DA:171,1
DA:174,1
DA:175,1
DA:176,1
DA:177,1
DA:180,1
DA:181,1
DA:182,1
DA:183,1
DA:184,1
DA:185,1
DA:186,1
DA:187,1
DA:189,1
DA:191,1
DA:192,1
DA:193,1
DA:194,1
DA:195,1
DA:196,1
DA:197,1
DA:199,1
DA:200,1
DA:203,1
DA:204,1
DA:205,1
DA:206,1
DA:207,1
BRF:0
BRH:0
LF:120
LH:104
end_of_record
SF:/home/openclaw/dev/yinglichina8848/sqlrustgo/crates/graph/src/model/ids.rs
FN:90,_RNvXs5_NtNtCshHW17pKFbCA_15sqlrustgo_graph5model3idsNtB5_6EdgeIdNtNtCs8nPosuWgJFh_4core3fmt7Display3fmt
FN:103,_RNvXs7_NtNtCshHW17pKFbCA_15sqlrustgo_graph5model3idsNtB5_6EdgeIdINtNtNtCs8nPosuWgJFh_4core3ops5arith9AddAssignyE10add_assign
FN:139,_RNvXsa_NtNtCshHW17pKFbCA_15sqlrustgo_graph5model3idsNtB5_7LabelIdNtNtCs8nPosuWgJFh_4core3fmt7Display3fmt
FN:152,_RNvXsc_NtNtCshHW17pKFbCA_15sqlrustgo_graph5model3idsNtB5_7LabelIdINtNtNtCs8nPosuWgJFh_4core3ops5arith9AddAssignmE10add_assign
FN:181,_RNvNtNtNtCshHW17pKFbCA_15sqlrustgo_graph5model3ids5testss_12test_edge_id
FN:219,_RNvNtNtNtCshHW17pKFbCA_15sqlrustgo_graph5model3ids5testss_12test_id_hash
FN:162,_RNvNtNtNtCshHW17pKFbCA_15sqlrustgo_graph5model3ids5testss_12test_node_id
FN:196,_RNvNtNtNtCshHW17pKFbCA_15sqlrustgo_graph5model3ids5testss_13test_label_id
FN:211,_RNvNtNtNtCshHW17pKFbCA_15sqlrustgo_graph5model3ids5testss_16test_id_equality
FN:189,_RNvNtNtNtCshHW17pKFbCA_15sqlrustgo_graph5model3ids5testss_23test_edge_id_operations
FN:171,_RNvNtNtNtCshHW17pKFbCA_15sqlrustgo_graph5model3ids5testss_23test_node_id_operations
FN:204,_RNvNtNtNtCshHW17pKFbCA_15sqlrustgo_graph5model3ids5testss_24test_label_id_operations
FN:19,_RNvMNtNtCshHW17pKFbCA_15sqlrustgo_graph5model3idsNtB2_6NodeId3newB6_
FN:29,_RNvMNtNtCshHW17pKFbCA_15sqlrustgo_graph5model3idsNtB2_6NodeId4nextB6_
FN:24,_RNvMNtNtCshHW17pKFbCA_15sqlrustgo_graph5model3idsNtB2_6NodeId6as_u64B6_
FN:68,_RNvMs3_NtNtCshHW17pKFbCA_15sqlrustgo_graph5model3idsNtB5_6EdgeId3newB9_
FN:78,_RNvMs3_NtNtCshHW17pKFbCA_15sqlrustgo_graph5model3idsNtB5_6EdgeId4nextB9_
FN:73,_RNvMs3_NtNtCshHW17pKFbCA_15sqlrustgo_graph5model3idsNtB5_6EdgeId6as_u64B9_
FN:117,_RNvMs8_NtNtCshHW17pKFbCA_15sqlrustgo_graph5model3idsNtB5_7LabelId3newB9_
FN:127,_RNvMs8_NtNtCshHW17pKFbCA_15sqlrustgo_graph5model3idsNtB5_7LabelId4nextB9_
FN:122,_RNvMs8_NtNtCshHW17pKFbCA_15sqlrustgo_graph5model3idsNtB5_7LabelId6as_u32B9_
FN:41,_RNvXs0_NtNtCshHW17pKFbCA_15sqlrustgo_graph5model3idsNtB5_6NodeIdNtNtCs8nPosuWgJFh_4core3fmt7Display3fmt
FN:48,_RNvXs1_NtNtCshHW17pKFbCA_15sqlrustgo_graph5model3idsNtB5_6NodeIdINtNtNtCs8nPosuWgJFh_4core3ops5arith3AddyE3add
FN:54,_RNvXs2_NtNtCshHW17pKFbCA_15sqlrustgo_graph5model3idsNtB5_6NodeIdINtNtNtCs8nPosuWgJFh_4core3ops5arith9AddAssignyE10add_assign
FN:84,_RNvXs4_NtNtCshHW17pKFbCA_15sqlrustgo_graph5model3idsNtB5_6EdgeIdNtNtCs8nPosuWgJFh_4core3fmt5Debug3fmt
FN:97,_RNvXs6_NtNtCshHW17pKFbCA_15sqlrustgo_graph5model3idsNtB5_6EdgeIdINtNtNtCs8nPosuWgJFh_4core3ops5arith3AddyE3add
FN:133,_RNvXs9_NtNtCshHW17pKFbCA_15sqlrustgo_graph5model3idsNtB5_7LabelIdNtNtCs8nPosuWgJFh_4core3fmt5Debug3fmt
FN:35,_RNvXs_NtNtCshHW17pKFbCA_15sqlrustgo_graph5model3idsNtB4_6NodeIdNtNtCs8nPosuWgJFh_4core3fmt5Debug3fmt
FN:146,_RNvXsb_NtNtCshHW17pKFbCA_15sqlrustgo_graph5model3idsNtB5_7LabelIdINtNtNtCs8nPosuWgJFh_4core3ops5arith3AddmE3add
FN:19,_RNvMNtNtCskxg4ERNDwTM_15sqlrustgo_graph5model3idsNtB2_6NodeId3newB6_
FN:29,_RNvMNtNtCskxg4ERNDwTM_15sqlrustgo_graph5model3idsNtB2_6NodeId4nextB6_
FN:78,_RNvMs3_NtNtCskxg4ERNDwTM_15sqlrustgo_graph5model3idsNtB5_6EdgeId4nextB9_
FN:127,_RNvMs8_NtNtCskxg4ERNDwTM_15sqlrustgo_graph5model3idsNtB5_7LabelId4nextB9_
FN:41,_RNvXs0_NtNtCskxg4ERNDwTM_15sqlrustgo_graph5model3idsNtB5_6NodeIdNtNtCs8nPosuWgJFh_4core3fmt7Display3fmt
FN:48,_RNvXs1_NtNtCskxg4ERNDwTM_15sqlrustgo_graph5model3idsNtB5_6NodeIdINtNtNtCs8nPosuWgJFh_4core3ops5arith3AddyE3add
FN:54,_RNvXs2_NtNtCskxg4ERNDwTM_15sqlrustgo_graph5model3idsNtB5_6NodeIdINtNtNtCs8nPosuWgJFh_4core3ops5arith9AddAssignyE10add_assign
FN:84,_RNvXs4_NtNtCskxg4ERNDwTM_15sqlrustgo_graph5model3idsNtB5_6EdgeIdNtNtCs8nPosuWgJFh_4core3fmt5Debug3fmt
FN:90,_RNvXs5_NtNtCskxg4ERNDwTM_15sqlrustgo_graph5model3idsNtB5_6EdgeIdNtNtCs8nPosuWgJFh_4core3fmt7Display3fmt
FN:97,_RNvXs6_NtNtCskxg4ERNDwTM_15sqlrustgo_graph5model3idsNtB5_6EdgeIdINtNtNtCs8nPosuWgJFh_4core3ops5arith3AddyE3add
FN:103,_RNvXs7_NtNtCskxg4ERNDwTM_15sqlrustgo_graph5model3idsNtB5_6EdgeIdINtNtNtCs8nPosuWgJFh_4core3ops5arith9AddAssignyE10add_assign
FN:133,_RNvXs9_NtNtCskxg4ERNDwTM_15sqlrustgo_graph5model3idsNtB5_7LabelIdNtNtCs8nPosuWgJFh_4core3fmt5Debug3fmt
FN:35,_RNvXs_NtNtCskxg4ERNDwTM_15sqlrustgo_graph5model3idsNtB4_6NodeIdNtNtCs8nPosuWgJFh_4core3fmt5Debug3fmt
FN:139,_RNvXsa_NtNtCskxg4ERNDwTM_15sqlrustgo_graph5model3idsNtB5_7LabelIdNtNtCs8nPosuWgJFh_4core3fmt7Display3fmt
FN:146,_RNvXsb_NtNtCskxg4ERNDwTM_15sqlrustgo_graph5model3idsNtB5_7LabelIdINtNtNtCs8nPosuWgJFh_4core3ops5arith3AddmE3add
FN:152,_RNvXsc_NtNtCskxg4ERNDwTM_15sqlrustgo_graph5model3idsNtB5_7LabelIdINtNtNtCs8nPosuWgJFh_4core3ops5arith9AddAssignmE10add_assign
FNDA:0,_RNvXs5_NtNtCshHW17pKFbCA_15sqlrustgo_graph5model3idsNtB5_6EdgeIdNtNtCs8nPosuWgJFh_4core3fmt7Display3fmt
FNDA:0,_RNvXs7_NtNtCshHW17pKFbCA_15sqlrustgo_graph5model3idsNtB5_6EdgeIdINtNtNtCs8nPosuWgJFh_4core3ops5arith9AddAssignyE10add_assign
FNDA:0,_RNvXsa_NtNtCshHW17pKFbCA_15sqlrustgo_graph5model3idsNtB5_7LabelIdNtNtCs8nPosuWgJFh_4core3fmt7Display3fmt
FNDA:0,_RNvXsc_NtNtCshHW17pKFbCA_15sqlrustgo_graph5model3idsNtB5_7LabelIdINtNtNtCs8nPosuWgJFh_4core3ops5arith9AddAssignmE10add_assign
FNDA:1,_RNvNtNtNtCshHW17pKFbCA_15sqlrustgo_graph5model3ids5testss_12test_edge_id
FNDA:1,_RNvNtNtNtCshHW17pKFbCA_15sqlrustgo_graph5model3ids5testss_12test_id_hash
FNDA:1,_RNvNtNtNtCshHW17pKFbCA_15sqlrustgo_graph5model3ids5testss_12test_node_id
FNDA:1,_RNvNtNtNtCshHW17pKFbCA_15sqlrustgo_graph5model3ids5testss_13test_label_id
FNDA:1,_RNvNtNtNtCshHW17pKFbCA_15sqlrustgo_graph5model3ids5testss_16test_id_equality
FNDA:1,_RNvNtNtNtCshHW17pKFbCA_15sqlrustgo_graph5model3ids5testss_23test_edge_id_operations
FNDA:1,_RNvNtNtNtCshHW17pKFbCA_15sqlrustgo_graph5model3ids5testss_23test_node_id_operations
FNDA:1,_RNvNtNtNtCshHW17pKFbCA_15sqlrustgo_graph5model3ids5testss_24test_label_id_operations
FNDA:41,_RNvMNtNtCshHW17pKFbCA_15sqlrustgo_graph5model3idsNtB2_6NodeId3newB6_
FNDA:347,_RNvMNtNtCshHW17pKFbCA_15sqlrustgo_graph5model3idsNtB2_6NodeId4nextB6_
FNDA:1,_RNvMNtNtCshHW17pKFbCA_15sqlrustgo_graph5model3idsNtB2_6NodeId6as_u64B6_
FNDA:7,_RNvMs3_NtNtCshHW17pKFbCA_15sqlrustgo_graph5model3idsNtB5_6EdgeId3newB9_
FNDA:904,_RNvMs3_NtNtCshHW17pKFbCA_15sqlrustgo_graph5model3idsNtB5_6EdgeId4nextB9_
FNDA:1,_RNvMs3_NtNtCshHW17pKFbCA_15sqlrustgo_graph5model3idsNtB5_6EdgeId6as_u64B9_
FNDA:9,_RNvMs8_NtNtCshHW17pKFbCA_15sqlrustgo_graph5model3idsNtB5_7LabelId3newB9_
FNDA:400,_RNvMs8_NtNtCshHW17pKFbCA_15sqlrustgo_graph5model3idsNtB5_7LabelId4nextB9_
FNDA:1,_RNvMs8_NtNtCshHW17pKFbCA_15sqlrustgo_graph5model3idsNtB5_7LabelId6as_u32B9_
FNDA:16,_RNvXs0_NtNtCshHW17pKFbCA_15sqlrustgo_graph5model3idsNtB5_6NodeIdNtNtCs8nPosuWgJFh_4core3fmt7Display3fmt
FNDA:1,_RNvXs1_NtNtCshHW17pKFbCA_15sqlrustgo_graph5model3idsNtB5_6NodeIdINtNtNtCs8nPosuWgJFh_4core3ops5arith3AddyE3add
FNDA:1,_RNvXs2_NtNtCshHW17pKFbCA_15sqlrustgo_graph5model3idsNtB5_6NodeIdINtNtNtCs8nPosuWgJFh_4core3ops5arith9AddAssignyE10add_assign
FNDA:1,_RNvXs4_NtNtCshHW17pKFbCA_15sqlrustgo_graph5model3idsNtB5_6EdgeIdNtNtCs8nPosuWgJFh_4core3fmt5Debug3fmt
FNDA:1,_RNvXs6_NtNtCshHW17pKFbCA_15sqlrustgo_graph5model3idsNtB5_6EdgeIdINtNtNtCs8nPosuWgJFh_4core3ops5arith3AddyE3add
FNDA:1,_RNvXs9_NtNtCshHW17pKFbCA_15sqlrustgo_graph5model3idsNtB5_7LabelIdNtNtCs8nPosuWgJFh_4core3fmt5Debug3fmt
FNDA:1,_RNvXs_NtNtCshHW17pKFbCA_15sqlrustgo_graph5model3idsNtB4_6NodeIdNtNtCs8nPosuWgJFh_4core3fmt5Debug3fmt
FNDA:1,_RNvXsb_NtNtCshHW17pKFbCA_15sqlrustgo_graph5model3idsNtB5_7LabelIdINtNtNtCs8nPosuWgJFh_4core3ops5arith3AddmE3add
FNDA:0,_RNvMNtNtCskxg4ERNDwTM_15sqlrustgo_graph5model3idsNtB2_6NodeId3newB6_
FNDA:0,_RNvMNtNtCskxg4ERNDwTM_15sqlrustgo_graph5model3idsNtB2_6NodeId4nextB6_
FNDA:0,_RNvMs3_NtNtCskxg4ERNDwTM_15sqlrustgo_graph5model3idsNtB5_6EdgeId4nextB9_
FNDA:0,_RNvMs8_NtNtCskxg4ERNDwTM_15sqlrustgo_graph5model3idsNtB5_7LabelId4nextB9_
FNDA:0,_RNvXs0_NtNtCskxg4ERNDwTM_15sqlrustgo_graph5model3idsNtB5_6NodeIdNtNtCs8nPosuWgJFh_4core3fmt7Display3fmt
FNDA:0,_RNvXs1_NtNtCskxg4ERNDwTM_15sqlrustgo_graph5model3idsNtB5_6NodeIdINtNtNtCs8nPosuWgJFh_4core3ops5arith3AddyE3add
FNDA:0,_RNvXs2_NtNtCskxg4ERNDwTM_15sqlrustgo_graph5model3idsNtB5_6NodeIdINtNtNtCs8nPosuWgJFh_4core3ops5arith9AddAssignyE10add_assign
FNDA:0,_RNvXs4_NtNtCskxg4ERNDwTM_15sqlrustgo_graph5model3idsNtB5_6EdgeIdNtNtCs8nPosuWgJFh_4core3fmt5Debug3fmt
FNDA:0,_RNvXs5_NtNtCskxg4ERNDwTM_15sqlrustgo_graph5model3idsNtB5_6EdgeIdNtNtCs8nPosuWgJFh_4core3fmt7Display3fmt
FNDA:0,_RNvXs6_NtNtCskxg4ERNDwTM_15sqlrustgo_graph5model3idsNtB5_6EdgeIdINtNtNtCs8nPosuWgJFh_4core3ops5arith3AddyE3add
FNDA:0,_RNvXs7_NtNtCskxg4ERNDwTM_15sqlrustgo_graph5model3idsNtB5_6EdgeIdINtNtNtCs8nPosuWgJFh_4core3ops5arith9AddAssignyE10add_assign
FNDA:0,_RNvXs9_NtNtCskxg4ERNDwTM_15sqlrustgo_graph5model3idsNtB5_7LabelIdNtNtCs8nPosuWgJFh_4core3fmt5Debug3fmt
FNDA:0,_RNvXs_NtNtCskxg4ERNDwTM_15sqlrustgo_graph5model3idsNtB4_6NodeIdNtNtCs8nPosuWgJFh_4core3fmt5Debug3fmt
FNDA:0,_RNvXsa_NtNtCskxg4ERNDwTM_15sqlrustgo_graph5model3idsNtB5_7LabelIdNtNtCs8nPosuWgJFh_4core3fmt7Display3fmt
FNDA:0,_RNvXsb_NtNtCskxg4ERNDwTM_15sqlrustgo_graph5model3idsNtB5_7LabelIdINtNtNtCs8nPosuWgJFh_4core3ops5arith3AddmE3add
FNDA:0,_RNvXsc_NtNtCskxg4ERNDwTM_15sqlrustgo_graph5model3idsNtB5_7LabelIdINtNtNtCs8nPosuWgJFh_4core3ops5arith9AddAssignmE10add_assign
FNF:29
FNH:25
DA:19,41
DA:20,41
DA:21,41
DA:24,1
DA:25,1
DA:26,1
DA:29,347
DA:30,347
DA:31,347
DA:35,1
DA:36,1
DA:37,1
DA:41,16
DA:42,16
DA:43,16
DA:48,1
DA:49,1
DA:50,1
DA:54,1
DA:55,1
DA:56,1
DA:68,7
DA:69,7
DA:70,7
DA:73,1
DA:74,1
DA:75,1
DA:78,904
DA:79,904
DA:80,904
DA:84,1
DA:85,1
DA:86,1
DA:90,0
DA:91,0
DA:92,0
DA:97,1
DA:98,1
DA:99,1
DA:103,0
DA:104,0
DA:105,0
DA:117,9
DA:118,9
DA:119,9
DA:122,1
DA:123,1
DA:124,1
DA:127,400
DA:128,400
DA:129,400
DA:133,1
DA:134,1
DA:135,1
DA:139,0
DA:140,0
DA:141,0
DA:146,1
DA:147,1
DA:148,1
DA:152,0
DA:153,0
DA:154,0
DA:162,1
DA:163,1
DA:164,1
DA:165,1
DA:166,1
DA:167,1
DA:168,1
DA:171,1
DA:172,1
DA:173,1
DA:174,1
DA:175,1
DA:176,1
DA:177,1
DA:178,1
DA:181,1
DA:182,1
DA:183,1
DA:184,1
DA:185,1
DA:186,1
DA:189,1
DA:190,1
DA:191,1
DA:192,1
DA:193,1
DA:196,1
DA:197,1
DA:198,1
DA:199,1
DA:200,1
DA:201,1
DA:204,1
DA:205,1
DA:206,1
DA:207,1
DA:208,1
DA:211,1
DA:212,1
DA:213,1
DA:214,1
DA:215,1
DA:216,1
DA:219,1
DA:221,1
DA:222,1
DA:223,1
DA:224,1
DA:225,1
DA:226,1
BRF:0
BRH:0
LF:113
LH:101
end_of_record
SF:/home/openclaw/dev/yinglichina8848/sqlrustgo/crates/graph/src/model/node.rs
FN:102,_RNvNtNtNtCshHW17pKFbCA_15sqlrustgo_graph5model4node5testss_15test_gmp_labels
FN:92,_RNvNtNtNtCshHW17pKFbCA_15sqlrustgo_graph5model4node5testss_17test_node_builder
FN:75,_RNvNtNtNtCshHW17pKFbCA_15sqlrustgo_graph5model4node5testss_18test_node_creation
FN:42,_RINvMNtNtCshHW17pKFbCA_15sqlrustgo_graph5model4nodeNtB3_4Node12set_propertyReB1b_EB7_
FN:42,_RINvMNtNtCshHW17pKFbCA_15sqlrustgo_graph5model4nodeNtB3_4Node12set_propertyRebEB7_
FN:37,_RNvMNtNtCshHW17pKFbCA_15sqlrustgo_graph5model4nodeNtB2_4Node12get_property
FN:51,_RNvMNtNtCshHW17pKFbCA_15sqlrustgo_graph5model4nodeNtB2_4Node12has_property
FN:28,_RNvMNtNtCshHW17pKFbCA_15sqlrustgo_graph5model4nodeNtB2_4Node13with_capacity
FN:20,_RNvMNtNtCshHW17pKFbCA_15sqlrustgo_graph5model4nodeNtB2_4Node3new
FN:37,_RNvMNtNtCskxg4ERNDwTM_15sqlrustgo_graph5model4nodeNtB2_4Node12get_property
FN:51,_RNvMNtNtCskxg4ERNDwTM_15sqlrustgo_graph5model4nodeNtB2_4Node12has_property
FN:28,_RNvMNtNtCskxg4ERNDwTM_15sqlrustgo_graph5model4nodeNtB2_4Node13with_capacity
FN:20,_RNvMNtNtCskxg4ERNDwTM_15sqlrustgo_graph5model4nodeNtB2_4Node3new
FNDA:1,_RNvNtNtNtCshHW17pKFbCA_15sqlrustgo_graph5model4node5testss_15test_gmp_labels
FNDA:1,_RNvNtNtNtCshHW17pKFbCA_15sqlrustgo_graph5model4node5testss_17test_node_builder
FNDA:1,_RNvNtNtNtCshHW17pKFbCA_15sqlrustgo_graph5model4node5testss_18test_node_creation
FNDA:1,_RINvMNtNtCshHW17pKFbCA_15sqlrustgo_graph5model4nodeNtB3_4Node12set_propertyReB1b_EB7_
FNDA:1,_RINvMNtNtCshHW17pKFbCA_15sqlrustgo_graph5model4nodeNtB3_4Node12set_propertyRebEB7_
FNDA:3,_RNvMNtNtCshHW17pKFbCA_15sqlrustgo_graph5model4nodeNtB2_4Node12get_property
FNDA:2,_RNvMNtNtCshHW17pKFbCA_15sqlrustgo_graph5model4nodeNtB2_4Node12has_property
FNDA:1,_RNvMNtNtCshHW17pKFbCA_15sqlrustgo_graph5model4nodeNtB2_4Node13with_capacity
FNDA:377,_RNvMNtNtCshHW17pKFbCA_15sqlrustgo_graph5model4nodeNtB2_4Node3new
FNDA:0,_RNvMNtNtCskxg4ERNDwTM_15sqlrustgo_graph5model4nodeNtB2_4Node12get_property
FNDA:0,_RNvMNtNtCskxg4ERNDwTM_15sqlrustgo_graph5model4nodeNtB2_4Node12has_property
FNDA:0,_RNvMNtNtCskxg4ERNDwTM_15sqlrustgo_graph5model4nodeNtB2_4Node13with_capacity
FNDA:0,_RNvMNtNtCskxg4ERNDwTM_15sqlrustgo_graph5model4nodeNtB2_4Node3new
FNF:8
FNH:8
DA:20,377
DA:21,377
DA:22,377
DA:23,377
DA:24,377
DA:25,377
DA:26,377
DA:28,1
DA:29,1
DA:30,1
DA:31,1
DA:32,1
DA:33,1
DA:34,1
DA:37,3
DA:38,3
DA:39,3
DA:42,2
DA:43,2
DA:44,2
DA:45,2
DA:46,2
DA:47,2
DA:48,2
DA:51,2
DA:52,2
DA:53,2
DA:75,1
DA:76,1
DA:77,1
DA:78,1
DA:80,1
DA:82,1
DA:83,1
DA:84,1
DA:85,1
DA:86,1
DA:88,1
DA:89,1
DA:92,1
DA:93,1
DA:94,1
DA:95,1
DA:97,1
DA:98,1
DA:99,1
DA:102,1
DA:103,1
DA:104,1
DA:105,1
DA:106,1
DA:107,1
BRF:0
BRH:0
LF:52
LH:52
end_of_record
SF:/home/openclaw/dev/yinglichina8848/sqlrustgo/crates/graph/src/model/property.rs
FN:221,_RNvNtNtNtCshHW17pKFbCA_15sqlrustgo_graph5model8property5testss_19test_property_value
FN:264,_RNvNtNtNtCshHW17pKFbCA_15sqlrustgo_graph5model8property5testss_22test_property_map_iter
FN:236,_RNvNtNtNtCshHW17pKFbCA_15sqlrustgo_graph5model8property5testss_24test_property_map_basics
FN:275,_RNvNtNtNtCshHW17pKFbCA_15sqlrustgo_graph5model8property5testss_24test_property_map_extend
FN:249,_RNvNtNtNtCshHW17pKFbCA_15sqlrustgo_graph5model8property5testss_25test_property_map_builder
FN:166,_RINvXININtNtCshHW17pKFbCA_15sqlrustgo_graph5model8propertys7_0ppENtB6_11PropertyMapINtNtNtNtCs8nPosuWgJFh_4core4iter6traits7collect6ExtendTppEE6extendpEBa_
FN:132,_RNvMs6_NtNtCshHW17pKFbCA_15sqlrustgo_graph5model8propertyNtB5_11PropertyMap6remove
FN:148,_RNvMs6_NtNtCshHW17pKFbCA_15sqlrustgo_graph5model8propertyNtB5_11PropertyMap6values
FN:160,_RNvMs6_NtNtCshHW17pKFbCA_15sqlrustgo_graph5model8propertyNtB5_11PropertyMap8contains
FN:140,_RNvMs6_NtNtCshHW17pKFbCA_15sqlrustgo_graph5model8propertyNtB5_11PropertyMap8is_empty
FN:194,_RNvMs9_NtNtCshHW17pKFbCA_15sqlrustgo_graph5model8propertyNtB5_18PropertyMapBuilder13with_capacity
FN:68,_RNvXs1_NtNtCshHW17pKFbCA_15sqlrustgo_graph5model8propertyNtB5_13PropertyValueINtNtCs8nPosuWgJFh_4core7convert4FromNtNtCsj0gLuUEfogP_5alloc6string6StringE4from
FN:80,_RNvXs3_NtNtCshHW17pKFbCA_15sqlrustgo_graph5model8propertyNtB5_13PropertyValueINtNtCs8nPosuWgJFh_4core7convert4FromlE4from
FN:177,_RNvXs8_NtNtCshHW17pKFbCA_15sqlrustgo_graph5model8propertyNtB5_11PropertyMapNtNtNtNtCs8nPosuWgJFh_4core4iter6traits7collect12IntoIterator9into_iter
FN:49,_RNvXs_NtNtCshHW17pKFbCA_15sqlrustgo_graph5model8propertyNtB4_13PropertyValueNtNtCs8nPosuWgJFh_4core3fmt7Display3fmt
FN:211,_RNvXsa_NtNtCshHW17pKFbCA_15sqlrustgo_graph5model8propertyNtB5_18PropertyMapBuilderNtNtCs8nPosuWgJFh_4core7default7Default7default
FN:116,_RINvMs6_NtNtCshHW17pKFbCA_15sqlrustgo_graph5model8propertyNtB6_11PropertyMap6insertNtNtCsj0gLuUEfogP_5alloc6string6StringNtB6_13PropertyValueEBa_
FN:116,_RINvMs6_NtNtCshHW17pKFbCA_15sqlrustgo_graph5model8propertyNtB6_11PropertyMap6insertReB1j_EBa_
FN:116,_RINvMs6_NtNtCshHW17pKFbCA_15sqlrustgo_graph5model8propertyNtB6_11PropertyMap6insertRebEBa_
FN:116,_RINvMs6_NtNtCshHW17pKFbCA_15sqlrustgo_graph5model8propertyNtB6_11PropertyMap6insertRexEBa_
FN:200,_RINvMs9_NtNtCshHW17pKFbCA_15sqlrustgo_graph5model8propertyNtB6_18PropertyMapBuilder6insertReB1q_EBa_
FN:200,_RINvMs9_NtNtCshHW17pKFbCA_15sqlrustgo_graph5model8propertyNtB6_18PropertyMapBuilder6insertRexEBa_
FN:26,_RNvMNtNtCshHW17pKFbCA_15sqlrustgo_graph5model8propertyNtB2_13PropertyValue6as_int
FN:40,_RNvMNtNtCshHW17pKFbCA_15sqlrustgo_graph5model8propertyNtB2_13PropertyValue7as_bool
FN:33,_RNvMNtNtCshHW17pKFbCA_15sqlrustgo_graph5model8propertyNtB2_13PropertyValue8as_float
FN:19,_RNvMNtNtCshHW17pKFbCA_15sqlrustgo_graph5model8propertyNtB2_13PropertyValue9as_string
FN:128,_RNvMs6_NtNtCshHW17pKFbCA_15sqlrustgo_graph5model8propertyNtB5_11PropertyMap12contains_key
FN:110,_RNvMs6_NtNtCshHW17pKFbCA_15sqlrustgo_graph5model8propertyNtB5_11PropertyMap13with_capacity
FN:124,_RNvMs6_NtNtCshHW17pKFbCA_15sqlrustgo_graph5model8propertyNtB5_11PropertyMap3get
FN:136,_RNvMs6_NtNtCshHW17pKFbCA_15sqlrustgo_graph5model8propertyNtB5_11PropertyMap3len
FN:104,_RNvMs6_NtNtCshHW17pKFbCA_15sqlrustgo_graph5model8propertyNtB5_11PropertyMap3new
FN:152,_RNvMs6_NtNtCshHW17pKFbCA_15sqlrustgo_graph5model8propertyNtB5_11PropertyMap4iter
FN:144,_RNvMs6_NtNtCshHW17pKFbCA_15sqlrustgo_graph5model8propertyNtB5_11PropertyMap4keys
FN:156,_RNvMs6_NtNtCshHW17pKFbCA_15sqlrustgo_graph5model8propertyNtB5_11PropertyMap6extend
FN:188,_RNvMs9_NtNtCshHW17pKFbCA_15sqlrustgo_graph5model8propertyNtB5_18PropertyMapBuilder3new
FN:205,_RNvMs9_NtNtCshHW17pKFbCA_15sqlrustgo_graph5model8propertyNtB5_18PropertyMapBuilder5build
FN:62,_RNvXs0_NtNtCshHW17pKFbCA_15sqlrustgo_graph5model8propertyNtB5_13PropertyValueINtNtCs8nPosuWgJFh_4core7convert4FromReE4from
FN:74,_RNvXs2_NtNtCshHW17pKFbCA_15sqlrustgo_graph5model8propertyNtB5_13PropertyValueINtNtCs8nPosuWgJFh_4core7convert4FromxE4from
FN:86,_RNvXs4_NtNtCshHW17pKFbCA_15sqlrustgo_graph5model8propertyNtB5_13PropertyValueINtNtCs8nPosuWgJFh_4core7convert4FromdE4from
FN:92,_RNvXs5_NtNtCshHW17pKFbCA_15sqlrustgo_graph5model8propertyNtB5_13PropertyValueINtNtCs8nPosuWgJFh_4core7convert4FrombE4from
FN:116,_RINvMs6_NtNtCskxg4ERNDwTM_15sqlrustgo_graph5model8propertyNtB6_11PropertyMap6insertNtNtCsj0gLuUEfogP_5alloc6string6StringNtB6_13PropertyValueEBa_
FN:26,_RNvMNtNtCskxg4ERNDwTM_15sqlrustgo_graph5model8propertyNtB2_13PropertyValue6as_int
FN:40,_RNvMNtNtCskxg4ERNDwTM_15sqlrustgo_graph5model8propertyNtB2_13PropertyValue7as_bool
FN:33,_RNvMNtNtCskxg4ERNDwTM_15sqlrustgo_graph5model8propertyNtB2_13PropertyValue8as_float
FN:19,_RNvMNtNtCskxg4ERNDwTM_15sqlrustgo_graph5model8propertyNtB2_13PropertyValue9as_string
FN:128,_RNvMs6_NtNtCskxg4ERNDwTM_15sqlrustgo_graph5model8propertyNtB5_11PropertyMap12contains_key
FN:110,_RNvMs6_NtNtCskxg4ERNDwTM_15sqlrustgo_graph5model8propertyNtB5_11PropertyMap13with_capacity
FN:124,_RNvMs6_NtNtCskxg4ERNDwTM_15sqlrustgo_graph5model8propertyNtB5_11PropertyMap3get
FN:136,_RNvMs6_NtNtCskxg4ERNDwTM_15sqlrustgo_graph5model8propertyNtB5_11PropertyMap3len
FN:104,_RNvMs6_NtNtCskxg4ERNDwTM_15sqlrustgo_graph5model8propertyNtB5_11PropertyMap3new
FN:152,_RNvMs6_NtNtCskxg4ERNDwTM_15sqlrustgo_graph5model8propertyNtB5_11PropertyMap4iter
FN:144,_RNvMs6_NtNtCskxg4ERNDwTM_15sqlrustgo_graph5model8propertyNtB5_11PropertyMap4keys
FN:156,_RNvMs6_NtNtCskxg4ERNDwTM_15sqlrustgo_graph5model8propertyNtB5_11PropertyMap6extend
FN:132,_RNvMs6_NtNtCskxg4ERNDwTM_15sqlrustgo_graph5model8propertyNtB5_11PropertyMap6remove
FN:148,_RNvMs6_NtNtCskxg4ERNDwTM_15sqlrustgo_graph5model8propertyNtB5_11PropertyMap6values
FN:160,_RNvMs6_NtNtCskxg4ERNDwTM_15sqlrustgo_graph5model8propertyNtB5_11PropertyMap8contains
FN:140,_RNvMs6_NtNtCskxg4ERNDwTM_15sqlrustgo_graph5model8propertyNtB5_11PropertyMap8is_empty
FN:194,_RNvMs9_NtNtCskxg4ERNDwTM_15sqlrustgo_graph5model8propertyNtB5_18PropertyMapBuilder13with_capacity
FN:188,_RNvMs9_NtNtCskxg4ERNDwTM_15sqlrustgo_graph5model8propertyNtB5_18PropertyMapBuilder3new
FN:205,_RNvMs9_NtNtCskxg4ERNDwTM_15sqlrustgo_graph5model8propertyNtB5_18PropertyMapBuilder5build
FN:62,_RNvXs0_NtNtCskxg4ERNDwTM_15sqlrustgo_graph5model8propertyNtB5_13PropertyValueINtNtCs8nPosuWgJFh_4core7convert4FromReE4from
FN:68,_RNvXs1_NtNtCskxg4ERNDwTM_15sqlrustgo_graph5model8propertyNtB5_13PropertyValueINtNtCs8nPosuWgJFh_4core7convert4FromNtNtCsj0gLuUEfogP_5alloc6string6StringE4from
FN:74,_RNvXs2_NtNtCskxg4ERNDwTM_15sqlrustgo_graph5model8propertyNtB5_13PropertyValueINtNtCs8nPosuWgJFh_4core7convert4FromxE4from
FN:80,_RNvXs3_NtNtCskxg4ERNDwTM_15sqlrustgo_graph5model8propertyNtB5_13PropertyValueINtNtCs8nPosuWgJFh_4core7convert4FromlE4from
FN:86,_RNvXs4_NtNtCskxg4ERNDwTM_15sqlrustgo_graph5model8propertyNtB5_13PropertyValueINtNtCs8nPosuWgJFh_4core7convert4FromdE4from
FN:92,_RNvXs5_NtNtCskxg4ERNDwTM_15sqlrustgo_graph5model8propertyNtB5_13PropertyValueINtNtCs8nPosuWgJFh_4core7convert4FrombE4from
FN:177,_RNvXs8_NtNtCskxg4ERNDwTM_15sqlrustgo_graph5model8propertyNtB5_11PropertyMapNtNtNtNtCs8nPosuWgJFh_4core4iter6traits7collect12IntoIterator9into_iter
FN:49,_RNvXs_NtNtCskxg4ERNDwTM_15sqlrustgo_graph5model8propertyNtB4_13PropertyValueNtNtCs8nPosuWgJFh_4core3fmt7Display3fmt
FN:211,_RNvXsa_NtNtCskxg4ERNDwTM_15sqlrustgo_graph5model8propertyNtB5_18PropertyMapBuilderNtNtCs8nPosuWgJFh_4core7default7Default7default
FNDA:1,_RNvNtNtNtCshHW17pKFbCA_15sqlrustgo_graph5model8property5testss_19test_property_value
FNDA:1,_RNvNtNtNtCshHW17pKFbCA_15sqlrustgo_graph5model8property5testss_22test_property_map_iter
FNDA:1,_RNvNtNtNtCshHW17pKFbCA_15sqlrustgo_graph5model8property5testss_24test_property_map_basics
FNDA:1,_RNvNtNtNtCshHW17pKFbCA_15sqlrustgo_graph5model8property5testss_24test_property_map_extend
FNDA:1,_RNvNtNtNtCshHW17pKFbCA_15sqlrustgo_graph5model8property5testss_25test_property_map_builder
FNDA:0,_RINvXININtNtCshHW17pKFbCA_15sqlrustgo_graph5model8propertys7_0ppENtB6_11PropertyMapINtNtNtNtCs8nPosuWgJFh_4core4iter6traits7collect6ExtendTppEE6extendpEBa_
FNDA:0,_RNvMs6_NtNtCshHW17pKFbCA_15sqlrustgo_graph5model8propertyNtB5_11PropertyMap6remove
FNDA:0,_RNvMs6_NtNtCshHW17pKFbCA_15sqlrustgo_graph5model8propertyNtB5_11PropertyMap6values
FNDA:0,_RNvMs6_NtNtCshHW17pKFbCA_15sqlrustgo_graph5model8propertyNtB5_11PropertyMap8contains
FNDA:0,_RNvMs6_NtNtCshHW17pKFbCA_15sqlrustgo_graph5model8propertyNtB5_11PropertyMap8is_empty
FNDA:0,_RNvMs9_NtNtCshHW17pKFbCA_15sqlrustgo_graph5model8propertyNtB5_18PropertyMapBuilder13with_capacity
FNDA:0,_RNvXs1_NtNtCshHW17pKFbCA_15sqlrustgo_graph5model8propertyNtB5_13PropertyValueINtNtCs8nPosuWgJFh_4core7convert4FromNtNtCsj0gLuUEfogP_5alloc6string6StringE4from
FNDA:0,_RNvXs3_NtNtCshHW17pKFbCA_15sqlrustgo_graph5model8propertyNtB5_13PropertyValueINtNtCs8nPosuWgJFh_4core7convert4FromlE4from
FNDA:0,_RNvXs8_NtNtCshHW17pKFbCA_15sqlrustgo_graph5model8propertyNtB5_11PropertyMapNtNtNtNtCs8nPosuWgJFh_4core4iter6traits7collect12IntoIterator9into_iter
FNDA:0,_RNvXs_NtNtCshHW17pKFbCA_15sqlrustgo_graph5model8propertyNtB4_13PropertyValueNtNtCs8nPosuWgJFh_4core3fmt7Display3fmt
FNDA:0,_RNvXsa_NtNtCshHW17pKFbCA_15sqlrustgo_graph5model8propertyNtB5_18PropertyMapBuilderNtNtCs8nPosuWgJFh_4core7default7Default7default
FNDA:3,_RINvMs6_NtNtCshHW17pKFbCA_15sqlrustgo_graph5model8propertyNtB6_11PropertyMap6insertNtNtCsj0gLuUEfogP_5alloc6string6StringNtB6_13PropertyValueEBa_
FNDA:49,_RINvMs6_NtNtCshHW17pKFbCA_15sqlrustgo_graph5model8propertyNtB6_11PropertyMap6insertReB1j_EBa_
FNDA:2,_RINvMs6_NtNtCshHW17pKFbCA_15sqlrustgo_graph5model8propertyNtB6_11PropertyMap6insertRebEBa_
FNDA:36,_RINvMs6_NtNtCshHW17pKFbCA_15sqlrustgo_graph5model8propertyNtB6_11PropertyMap6insertRexEBa_
FNDA:2,_RINvMs9_NtNtCshHW17pKFbCA_15sqlrustgo_graph5model8propertyNtB6_18PropertyMapBuilder6insertReB1q_EBa_
FNDA:1,_RINvMs9_NtNtCshHW17pKFbCA_15sqlrustgo_graph5model8propertyNtB6_18PropertyMapBuilder6insertRexEBa_
FNDA:3,_RNvMNtNtCshHW17pKFbCA_15sqlrustgo_graph5model8propertyNtB2_13PropertyValue6as_int
FNDA:1,_RNvMNtNtCshHW17pKFbCA_15sqlrustgo_graph5model8propertyNtB2_13PropertyValue7as_bool
FNDA:1,_RNvMNtNtCshHW17pKFbCA_15sqlrustgo_graph5model8propertyNtB2_13PropertyValue8as_float
FNDA:5,_RNvMNtNtCshHW17pKFbCA_15sqlrustgo_graph5model8propertyNtB2_13PropertyValue9as_string
FNDA:5,_RNvMs6_NtNtCshHW17pKFbCA_15sqlrustgo_graph5model8propertyNtB5_11PropertyMap12contains_key
FNDA:1,_RNvMs6_NtNtCshHW17pKFbCA_15sqlrustgo_graph5model8propertyNtB5_11PropertyMap13with_capacity
FNDA:34,_RNvMs6_NtNtCshHW17pKFbCA_15sqlrustgo_graph5model8propertyNtB5_11PropertyMap3get
FNDA:3,_RNvMs6_NtNtCshHW17pKFbCA_15sqlrustgo_graph5model8propertyNtB5_11PropertyMap3len
FNDA:1304,_RNvMs6_NtNtCshHW17pKFbCA_15sqlrustgo_graph5model8propertyNtB5_11PropertyMap3new
FNDA:81,_RNvMs6_NtNtCshHW17pKFbCA_15sqlrustgo_graph5model8propertyNtB5_11PropertyMap4iter
FNDA:1,_RNvMs6_NtNtCshHW17pKFbCA_15sqlrustgo_graph5model8propertyNtB5_11PropertyMap4keys
FNDA:2,_RNvMs6_NtNtCshHW17pKFbCA_15sqlrustgo_graph5model8propertyNtB5_11PropertyMap6extend
FNDA:1,_RNvMs9_NtNtCshHW17pKFbCA_15sqlrustgo_graph5model8propertyNtB5_18PropertyMapBuilder3new
FNDA:1,_RNvMs9_NtNtCshHW17pKFbCA_15sqlrustgo_graph5model8propertyNtB5_18PropertyMapBuilder5build
FNDA:50,_RNvXs0_NtNtCshHW17pKFbCA_15sqlrustgo_graph5model8propertyNtB5_13PropertyValueINtNtCs8nPosuWgJFh_4core7convert4FromReE4from
FNDA:37,_RNvXs2_NtNtCshHW17pKFbCA_15sqlrustgo_graph5model8propertyNtB5_13PropertyValueINtNtCs8nPosuWgJFh_4core7convert4FromxE4from
FNDA:1,_RNvXs4_NtNtCshHW17pKFbCA_15sqlrustgo_graph5model8propertyNtB5_13PropertyValueINtNtCs8nPosuWgJFh_4core7convert4FromdE4from
FNDA:3,_RNvXs5_NtNtCshHW17pKFbCA_15sqlrustgo_graph5model8propertyNtB5_13PropertyValueINtNtCs8nPosuWgJFh_4core7convert4FrombE4from
FNDA:0,_RINvMs6_NtNtCskxg4ERNDwTM_15sqlrustgo_graph5model8propertyNtB6_11PropertyMap6insertNtNtCsj0gLuUEfogP_5alloc6string6StringNtB6_13PropertyValueEBa_
FNDA:0,_RNvMNtNtCskxg4ERNDwTM_15sqlrustgo_graph5model8propertyNtB2_13PropertyValue6as_int
FNDA:0,_RNvMNtNtCskxg4ERNDwTM_15sqlrustgo_graph5model8propertyNtB2_13PropertyValue7as_bool
FNDA:0,_RNvMNtNtCskxg4ERNDwTM_15sqlrustgo_graph5model8propertyNtB2_13PropertyValue8as_float
FNDA:0,_RNvMNtNtCskxg4ERNDwTM_15sqlrustgo_graph5model8propertyNtB2_13PropertyValue9as_string
FNDA:0,_RNvMs6_NtNtCskxg4ERNDwTM_15sqlrustgo_graph5model8propertyNtB5_11PropertyMap12contains_key
FNDA:0,_RNvMs6_NtNtCskxg4ERNDwTM_15sqlrustgo_graph5model8propertyNtB5_11PropertyMap13with_capacity
FNDA:0,_RNvMs6_NtNtCskxg4ERNDwTM_15sqlrustgo_graph5model8propertyNtB5_11PropertyMap3get
FNDA:0,_RNvMs6_NtNtCskxg4ERNDwTM_15sqlrustgo_graph5model8propertyNtB5_11PropertyMap3len
FNDA:0,_RNvMs6_NtNtCskxg4ERNDwTM_15sqlrustgo_graph5model8propertyNtB5_11PropertyMap3new
FNDA:0,_RNvMs6_NtNtCskxg4ERNDwTM_15sqlrustgo_graph5model8propertyNtB5_11PropertyMap4iter
FNDA:0,_RNvMs6_NtNtCskxg4ERNDwTM_15sqlrustgo_graph5model8propertyNtB5_11PropertyMap4keys
FNDA:0,_RNvMs6_NtNtCskxg4ERNDwTM_15sqlrustgo_graph5model8propertyNtB5_11PropertyMap6extend
FNDA:0,_RNvMs6_NtNtCskxg4ERNDwTM_15sqlrustgo_graph5model8propertyNtB5_11PropertyMap6remove
FNDA:0,_RNvMs6_NtNtCskxg4ERNDwTM_15sqlrustgo_graph5model8propertyNtB5_11PropertyMap6values
FNDA:0,_RNvMs6_NtNtCskxg4ERNDwTM_15sqlrustgo_graph5model8propertyNtB5_11PropertyMap8contains
FNDA:0,_RNvMs6_NtNtCskxg4ERNDwTM_15sqlrustgo_graph5model8propertyNtB5_11PropertyMap8is_empty
FNDA:0,_RNvMs9_NtNtCskxg4ERNDwTM_15sqlrustgo_graph5model8propertyNtB5_18PropertyMapBuilder13with_capacity
FNDA:0,_RNvMs9_NtNtCskxg4ERNDwTM_15sqlrustgo_graph5model8propertyNtB5_18PropertyMapBuilder3new
FNDA:0,_RNvMs9_NtNtCskxg4ERNDwTM_15sqlrustgo_graph5model8propertyNtB5_18PropertyMapBuilder5build
FNDA:0,_RNvXs0_NtNtCskxg4ERNDwTM_15sqlrustgo_graph5model8propertyNtB5_13PropertyValueINtNtCs8nPosuWgJFh_4core7convert4FromReE4from
FNDA:0,_RNvXs1_NtNtCskxg4ERNDwTM_15sqlrustgo_graph5model8propertyNtB5_13PropertyValueINtNtCs8nPosuWgJFh_4core7convert4FromNtNtCsj0gLuUEfogP_5alloc6string6StringE4from
FNDA:0,_RNvXs2_NtNtCskxg4ERNDwTM_15sqlrustgo_graph5model8propertyNtB5_13PropertyValueINtNtCs8nPosuWgJFh_4core7convert4FromxE4from
FNDA:0,_RNvXs3_NtNtCskxg4ERNDwTM_15sqlrustgo_graph5model8propertyNtB5_13PropertyValueINtNtCs8nPosuWgJFh_4core7convert4FromlE4from
FNDA:0,_RNvXs4_NtNtCskxg4ERNDwTM_15sqlrustgo_graph5model8propertyNtB5_13PropertyValueINtNtCs8nPosuWgJFh_4core7convert4FromdE4from
FNDA:0,_RNvXs5_NtNtCskxg4ERNDwTM_15sqlrustgo_graph5model8propertyNtB5_13PropertyValueINtNtCs8nPosuWgJFh_4core7convert4FrombE4from
FNDA:0,_RNvXs8_NtNtCskxg4ERNDwTM_15sqlrustgo_graph5model8propertyNtB5_11PropertyMapNtNtNtNtCs8nPosuWgJFh_4core4iter6traits7collect12IntoIterator9into_iter
FNDA:0,_RNvXs_NtNtCskxg4ERNDwTM_15sqlrustgo_graph5model8propertyNtB4_13PropertyValueNtNtCs8nPosuWgJFh_4core3fmt7Display3fmt
FNDA:0,_RNvXsa_NtNtCskxg4ERNDwTM_15sqlrustgo_graph5model8propertyNtB5_18PropertyMapBuilderNtNtCs8nPosuWgJFh_4core7default7Default7default
FNF:36
FNH:25
DA:19,5
DA:20,5
DA:21,5
DA:22,0
DA:24,5
DA:26,3
DA:27,3
DA:28,3
DA:29,0
DA:31,3
DA:33,1
DA:34,1
DA:35,1
DA:36,0
DA:38,1
DA:40,1
DA:41,1
DA:42,1
DA:43,0
DA:45,1
DA:49,0
DA:50,0
DA:51,0
DA:52,0
DA:53,0
DA:54,0
DA:55,0
DA:56,0
DA:58,0
DA:62,50
DA:63,50
DA:64,50
DA:68,0
DA:69,0
DA:70,0
DA:74,37
DA:75,37
DA:76,37
DA:80,0
DA:81,0
DA:82,0
DA:86,1
DA:87,1
DA:88,1
DA:92,3
DA:93,3
DA:94,3
DA:104,1304
DA:105,1304
DA:106,1304
DA:107,1304
DA:108,1304
DA:110,1
DA:111,1
DA:112,1
DA:113,1
DA:114,1
DA:116,90
DA:117,90
DA:118,90
DA:119,90
DA:120,90
DA:121,90
DA:122,90
DA:124,34
DA:125,34
DA:126,34
DA:128,5
DA:129,5
DA:130,5
DA:132,0
DA:133,0
DA:134,0
DA:136,3
DA:137,3
DA:138,3
DA:140,0
DA:141,0
DA:142,0
DA:144,1
DA:145,1
DA:146,1
DA:148,0
DA:149,0
DA:150,0
DA:152,81
DA:153,81
DA:154,81
DA:156,2
DA:157,2
DA:158,2
DA:160,0
DA:161,0
DA:162,0
DA:166,0
DA:167,0
DA:168,0
DA:169,0
DA:170,0
DA:177,0
DA:178,0
DA:179,0
DA:188,1
DA:189,1
DA:190,1
DA:191,1
DA:192,1
DA:194,0
DA:195,0
DA:196,0
DA:197,0
DA:198,0
DA:200,3
DA:201,3
DA:202,3
DA:203,3
DA:205,1
DA:206,1
DA:207,1
DA:211,0
DA:212,0
DA:213,0
DA:221,1
DA:222,1
DA:223,1
DA:225,1
DA:226,1
DA:228,1
DA:229,1
DA:231,1
DA:232,1
DA:233,1
DA:236,1
DA:237,1
DA:238,1
DA:239,1
DA:240,1
DA:242,1
DA:243,1
DA:244,1
DA:245,1
DA:246,1
DA:249,1
DA:250,1
DA:251,1
DA:252,1
DA:253,1
DA:254,1
DA:256,1
DA:257,1
DA:258,1
DA:259,1
DA:261,1
DA:264,1
DA:265,1
DA:266,1
DA:267,1
DA:269,1
DA:270,1
DA:271,1
DA:272,1
DA:275,1
DA:276,1
DA:277,1
DA:279,1
DA:280,1
DA:281,1
DA:283,1
DA:284,1
DA:285,1
DA:286,1
BRF:0
BRH:0
LF:171
LH:124
end_of_record
SF:/home/openclaw/dev/yinglichina8848/sqlrustgo/crates/graph/src/store/adjacency_index.rs
FN:32,_RNvMNtNtCshHW17pKFbCA_15sqlrustgo_graph5store15adjacency_indexNtB2_14AdjacencyIndex11remove_edge
FN:41,_RNvMNtNtCshHW17pKFbCA_15sqlrustgo_graph5store15adjacency_indexNtB2_14AdjacencyIndex13get_neighbors
FN:51,_RNvMNtNtCshHW17pKFbCA_15sqlrustgo_graph5store15adjacency_indexNtB2_14AdjacencyIndex17get_all_neighbors
FN:16,_RNvMNtNtCshHW17pKFbCA_15sqlrustgo_graph5store15adjacency_indexNtB2_14AdjacencyIndex3new
FN:23,_RNvMNtNtCshHW17pKFbCA_15sqlrustgo_graph5store15adjacency_indexNtB2_14AdjacencyIndex8add_edge
FN:65,_RNvMNtNtCshHW17pKFbCA_15sqlrustgo_graph5store15adjacency_indexNtB2_14AdjacencyIndex9get_edges
FN:131,_RNvNtNtNtCshHW17pKFbCA_15sqlrustgo_graph5store15adjacency_index5testss_21test_adjacency_remove
FN:90,_RNvNtNtNtCshHW17pKFbCA_15sqlrustgo_graph5store15adjacency_index5testss_22test_adjacency_add_get
FN:107,_RNvNtNtNtCshHW17pKFbCA_15sqlrustgo_graph5store15adjacency_index5testss_24test_adjacency_get_edges
FN:119,_RNvNtNtNtCshHW17pKFbCA_15sqlrustgo_graph5store15adjacency_index5testss_32test_adjacency_get_all_neighbors
FN:75,_RNvMNtNtCshHW17pKFbCA_15sqlrustgo_graph5store15adjacency_indexNtB2_14AdjacencyIndex10clear_node
FN:80,_RNvMNtNtCshHW17pKFbCA_15sqlrustgo_graph5store15adjacency_indexNtB2_14AdjacencyIndex5clear
FN:35,_RNCNvMNtNtCshHW17pKFbCA_15sqlrustgo_graph5store15adjacency_indexNtB4_14AdjacencyIndex11remove_edge0B8_
FN:26,_RNCNvMNtNtCshHW17pKFbCA_15sqlrustgo_graph5store15adjacency_indexNtB4_14AdjacencyIndex8add_edge0B8_
FN:35,_RNCNvMNtNtCskxg4ERNDwTM_15sqlrustgo_graph5store15adjacency_indexNtB4_14AdjacencyIndex11remove_edge0B8_
FN:26,_RNCNvMNtNtCskxg4ERNDwTM_15sqlrustgo_graph5store15adjacency_indexNtB4_14AdjacencyIndex8add_edge0B8_
FN:75,_RNvMNtNtCskxg4ERNDwTM_15sqlrustgo_graph5store15adjacency_indexNtB2_14AdjacencyIndex10clear_node
FN:32,_RNvMNtNtCskxg4ERNDwTM_15sqlrustgo_graph5store15adjacency_indexNtB2_14AdjacencyIndex11remove_edge
FN:41,_RNvMNtNtCskxg4ERNDwTM_15sqlrustgo_graph5store15adjacency_indexNtB2_14AdjacencyIndex13get_neighbors
FN:51,_RNvMNtNtCskxg4ERNDwTM_15sqlrustgo_graph5store15adjacency_indexNtB2_14AdjacencyIndex17get_all_neighbors
FN:16,_RNvMNtNtCskxg4ERNDwTM_15sqlrustgo_graph5store15adjacency_indexNtB2_14AdjacencyIndex3new
FN:80,_RNvMNtNtCskxg4ERNDwTM_15sqlrustgo_graph5store15adjacency_indexNtB2_14AdjacencyIndex5clear
FN:23,_RNvMNtNtCskxg4ERNDwTM_15sqlrustgo_graph5store15adjacency_indexNtB2_14AdjacencyIndex8add_edge
FN:65,_RNvMNtNtCskxg4ERNDwTM_15sqlrustgo_graph5store15adjacency_indexNtB2_14AdjacencyIndex9get_edges
FNDA:2,_RNvMNtNtCshHW17pKFbCA_15sqlrustgo_graph5store15adjacency_indexNtB2_14AdjacencyIndex11remove_edge
FNDA:3,_RNvMNtNtCshHW17pKFbCA_15sqlrustgo_graph5store15adjacency_indexNtB2_14AdjacencyIndex13get_neighbors
FNDA:208,_RNvMNtNtCshHW17pKFbCA_15sqlrustgo_graph5store15adjacency_indexNtB2_14AdjacencyIndex17get_all_neighbors
FNDA:40,_RNvMNtNtCshHW17pKFbCA_15sqlrustgo_graph5store15adjacency_indexNtB2_14AdjacencyIndex3new
FNDA:919,_RNvMNtNtCshHW17pKFbCA_15sqlrustgo_graph5store15adjacency_indexNtB2_14AdjacencyIndex8add_edge
FNDA:1,_RNvMNtNtCshHW17pKFbCA_15sqlrustgo_graph5store15adjacency_indexNtB2_14AdjacencyIndex9get_edges
FNDA:1,_RNvNtNtNtCshHW17pKFbCA_15sqlrustgo_graph5store15adjacency_index5testss_21test_adjacency_remove
FNDA:1,_RNvNtNtNtCshHW17pKFbCA_15sqlrustgo_graph5store15adjacency_index5testss_22test_adjacency_add_get
FNDA:1,_RNvNtNtNtCshHW17pKFbCA_15sqlrustgo_graph5store15adjacency_index5testss_24test_adjacency_get_edges
FNDA:1,_RNvNtNtNtCshHW17pKFbCA_15sqlrustgo_graph5store15adjacency_index5testss_32test_adjacency_get_all_neighbors
FNDA:0,_RNvMNtNtCshHW17pKFbCA_15sqlrustgo_graph5store15adjacency_indexNtB2_14AdjacencyIndex10clear_node
FNDA:0,_RNvMNtNtCshHW17pKFbCA_15sqlrustgo_graph5store15adjacency_indexNtB2_14AdjacencyIndex5clear
FNDA:2,_RNCNvMNtNtCshHW17pKFbCA_15sqlrustgo_graph5store15adjacency_indexNtB4_14AdjacencyIndex11remove_edge0B8_
FNDA:889,_RNCNvMNtNtCshHW17pKFbCA_15sqlrustgo_graph5store15adjacency_indexNtB4_14AdjacencyIndex8add_edge0B8_
FNDA:0,_RNCNvMNtNtCskxg4ERNDwTM_15sqlrustgo_graph5store15adjacency_indexNtB4_14AdjacencyIndex11remove_edge0B8_
FNDA:0,_RNCNvMNtNtCskxg4ERNDwTM_15sqlrustgo_graph5store15adjacency_indexNtB4_14AdjacencyIndex8add_edge0B8_
FNDA:0,_RNvMNtNtCskxg4ERNDwTM_15sqlrustgo_graph5store15adjacency_indexNtB2_14AdjacencyIndex10clear_node
FNDA:0,_RNvMNtNtCskxg4ERNDwTM_15sqlrustgo_graph5store15adjacency_indexNtB2_14AdjacencyIndex11remove_edge
FNDA:0,_RNvMNtNtCskxg4ERNDwTM_15sqlrustgo_graph5store15adjacency_indexNtB2_14AdjacencyIndex13get_neighbors
FNDA:0,_RNvMNtNtCskxg4ERNDwTM_15sqlrustgo_graph5store15adjacency_indexNtB2_14AdjacencyIndex17get_all_neighbors
FNDA:0,_RNvMNtNtCskxg4ERNDwTM_15sqlrustgo_graph5store15adjacency_indexNtB2_14AdjacencyIndex3new
FNDA:0,_RNvMNtNtCskxg4ERNDwTM_15sqlrustgo_graph5store15adjacency_indexNtB2_14AdjacencyIndex5clear
FNDA:0,_RNvMNtNtCskxg4ERNDwTM_15sqlrustgo_graph5store15adjacency_indexNtB2_14AdjacencyIndex8add_edge
FNDA:0,_RNvMNtNtCskxg4ERNDwTM_15sqlrustgo_graph5store15adjacency_indexNtB2_14AdjacencyIndex9get_edges
FNF:14
FNH:12
DA:16,40
DA:17,40
DA:18,40
DA:19,40
DA:20,40
DA:23,919
DA:24,919
DA:25,919
DA:26,919
DA:27,919
DA:28,919
DA:29,919
DA:32,2
DA:33,2
DA:34,2
DA:35,2
DA:36,0
DA:37,0
DA:38,2
DA:41,3
DA:42,3
DA:43,3
DA:44,3
DA:45,0
DA:46,0
DA:47,0
DA:48,3
DA:51,208
DA:52,208
DA:53,203
DA:54,204
DA:55,590
DA:56,590
DA:57,590
DA:59,203
DA:60,5
DA:61,5
DA:62,208
DA:65,1
DA:66,1
DA:67,1
DA:68,1
DA:69,0
DA:70,0
DA:71,0
DA:72,1
DA:75,0
DA:76,0
DA:77,0
DA:80,0
DA:81,0
DA:82,0
DA:90,1
DA:91,1
DA:92,1
DA:93,1
DA:94,1
DA:96,1
DA:97,1
DA:98,1
DA:99,1
DA:101,1
DA:102,1
DA:103,1
DA:104,1
DA:107,1
DA:108,1
DA:109,1
DA:110,1
DA:112,1
DA:113,1
DA:114,1
DA:115,1
DA:116,1
DA:119,1
DA:120,1
DA:121,1
DA:122,1
DA:124,1
DA:125,1
DA:126,1
DA:127,1
DA:128,1
DA:131,1
DA:132,1
DA:133,1
DA:134,1
DA:136,1
DA:137,1
DA:138,1
BRF:0
BRH:0
LF:92
LH:78
end_of_record
SF:/home/openclaw/dev/yinglichina8848/sqlrustgo/crates/graph/src/store/disk_graph_store.rs
FN:794,_RNCNvNtNtNtCshHW17pKFbCA_15sqlrustgo_graph5store16disk_graph_store5testss_18test_bfs_traversal0B9_
FN:817,_RNCNvNtNtNtCshHW17pKFbCA_15sqlrustgo_graph5store16disk_graph_store5testss_18test_dfs_traversal0B9_
FN:26,_RNvXNtNtCshHW17pKFbCA_15sqlrustgo_graph5store16disk_graph_storeNtB2_9GraphMetaNtNtCs8nPosuWgJFh_4core7default7Default7default
FN:633,_RNvXs0_NtNtCshHW17pKFbCA_15sqlrustgo_graph5store16disk_graph_storeNtB5_14DiskGraphStoreNtNtB7_11graph_store10GraphStore10edge_count
FN:629,_RNvXs0_NtNtCshHW17pKFbCA_15sqlrustgo_graph5store16disk_graph_storeNtB5_14DiskGraphStoreNtNtB7_11graph_store10GraphStore10node_count
FN:594,_RNvXs0_NtNtCshHW17pKFbCA_15sqlrustgo_graph5store16disk_graph_storeNtB5_14DiskGraphStoreNtNtB7_11graph_store10GraphStore11delete_edge
FN:590,_RNvXs0_NtNtCshHW17pKFbCA_15sqlrustgo_graph5store16disk_graph_storeNtB5_14DiskGraphStoreNtNtB7_11graph_store10GraphStore14edges_by_label
FN:607,_RNvXs0_NtNtCshHW17pKFbCA_15sqlrustgo_graph5store16disk_graph_storeNtB5_14DiskGraphStoreNtNtB7_11graph_store10GraphStore18incoming_neighbors
FN:611,_RNvXs0_NtNtCshHW17pKFbCA_15sqlrustgo_graph5store16disk_graph_storeNtB5_14DiskGraphStoreNtNtB7_11graph_store10GraphStore23neighbors_by_edge_label
FN:615,_RINvXs0_NtNtCshHW17pKFbCA_15sqlrustgo_graph5store16disk_graph_storeNtB6_14DiskGraphStoreNtNtB8_11graph_store10GraphStore3bfsNCNvNtB6_5testss_18test_bfs_traversal0EBa_
FN:622,_RINvXs0_NtNtCshHW17pKFbCA_15sqlrustgo_graph5store16disk_graph_storeNtB6_14DiskGraphStoreNtNtB8_11graph_store10GraphStore3dfsNCNvNtB6_5testss_18test_dfs_traversal0EBa_
FN:248,_RNCNvMs_NtNtCshHW17pKFbCA_15sqlrustgo_graph5store16disk_graph_storeNtB6_14DiskGraphStore10load_edges0Ba_
FN:260,_RNCNvMs_NtNtCshHW17pKFbCA_15sqlrustgo_graph5store16disk_graph_storeNtB6_14DiskGraphStore10load_edgess_0Ba_
FN:185,_RNCNvMs_NtNtCshHW17pKFbCA_15sqlrustgo_graph5store16disk_graph_storeNtB6_14DiskGraphStore10load_nodes0Ba_
FN:194,_RNCNvMs_NtNtCshHW17pKFbCA_15sqlrustgo_graph5store16disk_graph_storeNtB6_14DiskGraphStore10load_nodess_0Ba_
FN:410,_RNCNvMs_NtNtCshHW17pKFbCA_15sqlrustgo_graph5store16disk_graph_storeNtB6_14DiskGraphStore10replay_wal0Ba_
FN:412,_RNCNvMs_NtNtCshHW17pKFbCA_15sqlrustgo_graph5store16disk_graph_storeNtB6_14DiskGraphStore10replay_wals_0Ba_
FN:328,_RNCNvMs_NtNtCshHW17pKFbCA_15sqlrustgo_graph5store16disk_graph_storeNtB6_14DiskGraphStore11load_labels0Ba_
FN:336,_RNCNvMs_NtNtCshHW17pKFbCA_15sqlrustgo_graph5store16disk_graph_storeNtB6_14DiskGraphStore11load_labelss_0Ba_
FN:175,_RNCNvMs_NtNtCshHW17pKFbCA_15sqlrustgo_graph5store16disk_graph_storeNtB6_14DiskGraphStore12persist_meta0Ba_
FN:177,_RNCNvMs_NtNtCshHW17pKFbCA_15sqlrustgo_graph5store16disk_graph_storeNtB6_14DiskGraphStore12persist_metas_0Ba_
FN:385,_RNCNvMs_NtNtCshHW17pKFbCA_15sqlrustgo_graph5store16disk_graph_storeNtB6_14DiskGraphStore13log_wal_entry0Ba_
FN:395,_RNCNvMs_NtNtCshHW17pKFbCA_15sqlrustgo_graph5store16disk_graph_storeNtB6_14DiskGraphStore13log_wal_entrys0_0Ba_
FN:397,_RNCNvMs_NtNtCshHW17pKFbCA_15sqlrustgo_graph5store16disk_graph_storeNtB6_14DiskGraphStore13log_wal_entrys1_0Ba_
FN:400,_RNCNvMs_NtNtCshHW17pKFbCA_15sqlrustgo_graph5store16disk_graph_storeNtB6_14DiskGraphStore13log_wal_entrys2_0Ba_
FN:391,_RNCNvMs_NtNtCshHW17pKFbCA_15sqlrustgo_graph5store16disk_graph_storeNtB6_14DiskGraphStore13log_wal_entrys_0Ba_
FN:300,_RNCNvMs_NtNtCshHW17pKFbCA_15sqlrustgo_graph5store16disk_graph_storeNtB6_14DiskGraphStore13persist_edges0Ba_
FN:318,_RNCNvMs_NtNtCshHW17pKFbCA_15sqlrustgo_graph5store16disk_graph_storeNtB6_14DiskGraphStore13persist_edgess0_0Ba_
FN:320,_RNCNvMs_NtNtCshHW17pKFbCA_15sqlrustgo_graph5store16disk_graph_storeNtB6_14DiskGraphStore13persist_edgess1_0Ba_
FN:301,_RNCNvMs_NtNtCshHW17pKFbCA_15sqlrustgo_graph5store16disk_graph_storeNtB6_14DiskGraphStore13persist_edgess_0Ba_
FN:223,_RNCNvMs_NtNtCshHW17pKFbCA_15sqlrustgo_graph5store16disk_graph_storeNtB6_14DiskGraphStore13persist_nodes0Ba_
FN:238,_RNCNvMs_NtNtCshHW17pKFbCA_15sqlrustgo_graph5store16disk_graph_storeNtB6_14DiskGraphStore13persist_nodess0_0Ba_
FN:240,_RNCNvMs_NtNtCshHW17pKFbCA_15sqlrustgo_graph5store16disk_graph_storeNtB6_14DiskGraphStore13persist_nodess1_0Ba_
FN:224,_RNCNvMs_NtNtCshHW17pKFbCA_15sqlrustgo_graph5store16disk_graph_storeNtB6_14DiskGraphStore13persist_nodess_0Ba_
FN:367,_RNCNvMs_NtNtCshHW17pKFbCA_15sqlrustgo_graph5store16disk_graph_storeNtB6_14DiskGraphStore14persist_labels0Ba_
FN:375,_RNCNvMs_NtNtCshHW17pKFbCA_15sqlrustgo_graph5store16disk_graph_storeNtB6_14DiskGraphStore14persist_labelss0_0Ba_
FN:373,_RNCNvMs_NtNtCshHW17pKFbCA_15sqlrustgo_graph5store16disk_graph_storeNtB6_14DiskGraphStore14persist_labelss_0Ba_
FN:90,_RNCNvMs_NtNtCshHW17pKFbCA_15sqlrustgo_graph5store16disk_graph_storeNtB6_14DiskGraphStore15new_without_wal0Ba_
FN:72,_RNCNvMs_NtNtCshHW17pKFbCA_15sqlrustgo_graph5store16disk_graph_storeNtB6_14DiskGraphStore3new0Ba_
FN:159,_RNCNvMs_NtNtCshHW17pKFbCA_15sqlrustgo_graph5store16disk_graph_storeNtB6_14DiskGraphStore9load_meta0Ba_
FN:161,_RNCNvMs_NtNtCshHW17pKFbCA_15sqlrustgo_graph5store16disk_graph_storeNtB6_14DiskGraphStore9load_metas_0Ba_
FN:693,_RNvNtNtNtCshHW17pKFbCA_15sqlrustgo_graph5store16disk_graph_store5testss_14test_edge_crud
FN:762,_RNvNtNtNtCshHW17pKFbCA_15sqlrustgo_graph5store16disk_graph_store5testss_14test_neighbors
FN:726,_RNvNtNtNtCshHW17pKFbCA_15sqlrustgo_graph5store16disk_graph_store5testss_16test_update_node
FN:837,_RNvNtNtNtCshHW17pKFbCA_15sqlrustgo_graph5store16disk_graph_store5testss_17test_wal_disabled
FN:782,_RNvNtNtNtCshHW17pKFbCA_15sqlrustgo_graph5store16disk_graph_store5testss_18test_bfs_traversal
FN:805,_RNvNtNtNtCshHW17pKFbCA_15sqlrustgo_graph5store16disk_graph_store5testss_18test_dfs_traversal
FN:746,_RNvNtNtNtCshHW17pKFbCA_15sqlrustgo_graph5store16disk_graph_store5testss_19test_nodes_by_label
FN:828,_RNvNtNtNtCshHW17pKFbCA_15sqlrustgo_graph5store16disk_graph_store5testss_21test_without_wal_mode
FN:671,_RNvNtNtNtCshHW17pKFbCA_15sqlrustgo_graph5store16disk_graph_store5testss_23test_persist_and_reload
FN:658,_RNvNtNtNtCshHW17pKFbCA_15sqlrustgo_graph5store16disk_graph_store5testss_24test_create_and_get_node
FN:709,_RNvNtNtNtCshHW17pKFbCA_15sqlrustgo_graph5store16disk_graph_store5testss_30test_delete_node_removes_edges
FN:648,_RNvNtNtNtCshHW17pKFbCA_15sqlrustgo_graph5store16disk_graph_store5testss_30test_disk_graph_store_creation
FN:140,_RNvMs_NtNtCshHW17pKFbCA_15sqlrustgo_graph5store16disk_graph_storeNtB4_14DiskGraphStore10edge_count
FN:244,_RNvMs_NtNtCshHW17pKFbCA_15sqlrustgo_graph5store16disk_graph_storeNtB4_14DiskGraphStore10load_edges
FN:181,_RNvMs_NtNtCshHW17pKFbCA_15sqlrustgo_graph5store16disk_graph_storeNtB4_14DiskGraphStore10load_nodes
FN:136,_RNvMs_NtNtCshHW17pKFbCA_15sqlrustgo_graph5store16disk_graph_storeNtB4_14DiskGraphStore10node_count
FN:405,_RNvMs_NtNtCshHW17pKFbCA_15sqlrustgo_graph5store16disk_graph_storeNtB4_14DiskGraphStore10replay_wal
FN:324,_RNvMs_NtNtCshHW17pKFbCA_15sqlrustgo_graph5store16disk_graph_storeNtB4_14DiskGraphStore11load_labels
FN:150,_RNvMs_NtNtCshHW17pKFbCA_15sqlrustgo_graph5store16disk_graph_storeNtB4_14DiskGraphStore12next_edge_id
FN:144,_RNvMs_NtNtCshHW17pKFbCA_15sqlrustgo_graph5store16disk_graph_storeNtB4_14DiskGraphStore12next_node_id
FN:168,_RNvMs_NtNtCshHW17pKFbCA_15sqlrustgo_graph5store16disk_graph_storeNtB4_14DiskGraphStore12persist_meta
FN:379,_RNvMs_NtNtCshHW17pKFbCA_15sqlrustgo_graph5store16disk_graph_storeNtB4_14DiskGraphStore13log_wal_entry
FN:284,_RNvMs_NtNtCshHW17pKFbCA_15sqlrustgo_graph5store16disk_graph_storeNtB4_14DiskGraphStore13persist_edges
FN:210,_RNvMs_NtNtCshHW17pKFbCA_15sqlrustgo_graph5store16disk_graph_storeNtB4_14DiskGraphStore13persist_nodes
FN:355,_RNvMs_NtNtCshHW17pKFbCA_15sqlrustgo_graph5store16disk_graph_storeNtB4_14DiskGraphStore14persist_labels
FN:429,_RNvMs_NtNtCshHW17pKFbCA_15sqlrustgo_graph5store16disk_graph_storeNtB4_14DiskGraphStore15apply_wal_entry
FN:89,_RNvMs_NtNtCshHW17pKFbCA_15sqlrustgo_graph5store16disk_graph_storeNtB4_14DiskGraphStore15new_without_wal
FN:132,_RNvMs_NtNtCshHW17pKFbCA_15sqlrustgo_graph5store16disk_graph_storeNtB4_14DiskGraphStore15set_wal_enabled
FN:71,_RNvMs_NtNtCshHW17pKFbCA_15sqlrustgo_graph5store16disk_graph_storeNtB4_14DiskGraphStore3new
FN:104,_RNvMs_NtNtCshHW17pKFbCA_15sqlrustgo_graph5store16disk_graph_storeNtB4_14DiskGraphStore4load
FN:156,_RNvMs_NtNtCshHW17pKFbCA_15sqlrustgo_graph5store16disk_graph_storeNtB4_14DiskGraphStore9load_meta
FN:544,_RNvXs0_NtNtCshHW17pKFbCA_15sqlrustgo_graph5store16disk_graph_storeNtB5_14DiskGraphStoreNtNtB7_11graph_store10GraphStore11create_edge
FN:485,_RNvXs0_NtNtCshHW17pKFbCA_15sqlrustgo_graph5store16disk_graph_storeNtB5_14DiskGraphStoreNtNtB7_11graph_store10GraphStore11create_node
FN:535,_RNvXs0_NtNtCshHW17pKFbCA_15sqlrustgo_graph5store16disk_graph_storeNtB5_14DiskGraphStoreNtNtB7_11graph_store10GraphStore11delete_node
FN:519,_RNvXs0_NtNtCshHW17pKFbCA_15sqlrustgo_graph5store16disk_graph_storeNtB5_14DiskGraphStoreNtNtB7_11graph_store10GraphStore11update_node
FN:637,_RNvXs0_NtNtCshHW17pKFbCA_15sqlrustgo_graph5store16disk_graph_storeNtB5_14DiskGraphStoreNtNtB7_11graph_store10GraphStore14label_registry
FN:515,_RNvXs0_NtNtCshHW17pKFbCA_15sqlrustgo_graph5store16disk_graph_storeNtB5_14DiskGraphStoreNtNtB7_11graph_store10GraphStore14nodes_by_label
FN:603,_RNvXs0_NtNtCshHW17pKFbCA_15sqlrustgo_graph5store16disk_graph_storeNtB5_14DiskGraphStoreNtNtB7_11graph_store10GraphStore18outgoing_neighbors
FN:586,_RNvXs0_NtNtCshHW17pKFbCA_15sqlrustgo_graph5store16disk_graph_storeNtB5_14DiskGraphStoreNtNtB7_11graph_store10GraphStore8get_edge
FN:511,_RNvXs0_NtNtCshHW17pKFbCA_15sqlrustgo_graph5store16disk_graph_storeNtB5_14DiskGraphStoreNtNtB7_11graph_store10GraphStore8get_node
FN:248,_RNCNvMs_NtNtCskxg4ERNDwTM_15sqlrustgo_graph5store16disk_graph_storeNtB6_14DiskGraphStore10load_edges0Ba_
FN:260,_RNCNvMs_NtNtCskxg4ERNDwTM_15sqlrustgo_graph5store16disk_graph_storeNtB6_14DiskGraphStore10load_edgess_0Ba_
FN:185,_RNCNvMs_NtNtCskxg4ERNDwTM_15sqlrustgo_graph5store16disk_graph_storeNtB6_14DiskGraphStore10load_nodes0Ba_
FN:194,_RNCNvMs_NtNtCskxg4ERNDwTM_15sqlrustgo_graph5store16disk_graph_storeNtB6_14DiskGraphStore10load_nodess_0Ba_
FN:410,_RNCNvMs_NtNtCskxg4ERNDwTM_15sqlrustgo_graph5store16disk_graph_storeNtB6_14DiskGraphStore10replay_wal0Ba_
FN:412,_RNCNvMs_NtNtCskxg4ERNDwTM_15sqlrustgo_graph5store16disk_graph_storeNtB6_14DiskGraphStore10replay_wals_0Ba_
FN:328,_RNCNvMs_NtNtCskxg4ERNDwTM_15sqlrustgo_graph5store16disk_graph_storeNtB6_14DiskGraphStore11load_labels0Ba_
FN:336,_RNCNvMs_NtNtCskxg4ERNDwTM_15sqlrustgo_graph5store16disk_graph_storeNtB6_14DiskGraphStore11load_labelss_0Ba_
FN:175,_RNCNvMs_NtNtCskxg4ERNDwTM_15sqlrustgo_graph5store16disk_graph_storeNtB6_14DiskGraphStore12persist_meta0Ba_
FN:177,_RNCNvMs_NtNtCskxg4ERNDwTM_15sqlrustgo_graph5store16disk_graph_storeNtB6_14DiskGraphStore12persist_metas_0Ba_
FN:385,_RNCNvMs_NtNtCskxg4ERNDwTM_15sqlrustgo_graph5store16disk_graph_storeNtB6_14DiskGraphStore13log_wal_entry0Ba_
FN:395,_RNCNvMs_NtNtCskxg4ERNDwTM_15sqlrustgo_graph5store16disk_graph_storeNtB6_14DiskGraphStore13log_wal_entrys0_0Ba_
FN:397,_RNCNvMs_NtNtCskxg4ERNDwTM_15sqlrustgo_graph5store16disk_graph_storeNtB6_14DiskGraphStore13log_wal_entrys1_0Ba_
FN:400,_RNCNvMs_NtNtCskxg4ERNDwTM_15sqlrustgo_graph5store16disk_graph_storeNtB6_14DiskGraphStore13log_wal_entrys2_0Ba_
FN:391,_RNCNvMs_NtNtCskxg4ERNDwTM_15sqlrustgo_graph5store16disk_graph_storeNtB6_14DiskGraphStore13log_wal_entrys_0Ba_
FN:300,_RNCNvMs_NtNtCskxg4ERNDwTM_15sqlrustgo_graph5store16disk_graph_storeNtB6_14DiskGraphStore13persist_edges0Ba_
FN:318,_RNCNvMs_NtNtCskxg4ERNDwTM_15sqlrustgo_graph5store16disk_graph_storeNtB6_14DiskGraphStore13persist_edgess0_0Ba_
FN:320,_RNCNvMs_NtNtCskxg4ERNDwTM_15sqlrustgo_graph5store16disk_graph_storeNtB6_14DiskGraphStore13persist_edgess1_0Ba_
FN:301,_RNCNvMs_NtNtCskxg4ERNDwTM_15sqlrustgo_graph5store16disk_graph_storeNtB6_14DiskGraphStore13persist_edgess_0Ba_
FN:223,_RNCNvMs_NtNtCskxg4ERNDwTM_15sqlrustgo_graph5store16disk_graph_storeNtB6_14DiskGraphStore13persist_nodes0Ba_
FN:238,_RNCNvMs_NtNtCskxg4ERNDwTM_15sqlrustgo_graph5store16disk_graph_storeNtB6_14DiskGraphStore13persist_nodess0_0Ba_
FN:240,_RNCNvMs_NtNtCskxg4ERNDwTM_15sqlrustgo_graph5store16disk_graph_storeNtB6_14DiskGraphStore13persist_nodess1_0Ba_
FN:224,_RNCNvMs_NtNtCskxg4ERNDwTM_15sqlrustgo_graph5store16disk_graph_storeNtB6_14DiskGraphStore13persist_nodess_0Ba_
FN:367,_RNCNvMs_NtNtCskxg4ERNDwTM_15sqlrustgo_graph5store16disk_graph_storeNtB6_14DiskGraphStore14persist_labels0Ba_
FN:375,_RNCNvMs_NtNtCskxg4ERNDwTM_15sqlrustgo_graph5store16disk_graph_storeNtB6_14DiskGraphStore14persist_labelss0_0Ba_
FN:373,_RNCNvMs_NtNtCskxg4ERNDwTM_15sqlrustgo_graph5store16disk_graph_storeNtB6_14DiskGraphStore14persist_labelss_0Ba_
FN:90,_RNCNvMs_NtNtCskxg4ERNDwTM_15sqlrustgo_graph5store16disk_graph_storeNtB6_14DiskGraphStore15new_without_wal0Ba_
FN:72,_RNCNvMs_NtNtCskxg4ERNDwTM_15sqlrustgo_graph5store16disk_graph_storeNtB6_14DiskGraphStore3new0Ba_
FN:159,_RNCNvMs_NtNtCskxg4ERNDwTM_15sqlrustgo_graph5store16disk_graph_storeNtB6_14DiskGraphStore9load_meta0Ba_
FN:161,_RNCNvMs_NtNtCskxg4ERNDwTM_15sqlrustgo_graph5store16disk_graph_storeNtB6_14DiskGraphStore9load_metas_0Ba_
FN:140,_RNvMs_NtNtCskxg4ERNDwTM_15sqlrustgo_graph5store16disk_graph_storeNtB4_14DiskGraphStore10edge_count
FN:244,_RNvMs_NtNtCskxg4ERNDwTM_15sqlrustgo_graph5store16disk_graph_storeNtB4_14DiskGraphStore10load_edges
FN:181,_RNvMs_NtNtCskxg4ERNDwTM_15sqlrustgo_graph5store16disk_graph_storeNtB4_14DiskGraphStore10load_nodes
FN:136,_RNvMs_NtNtCskxg4ERNDwTM_15sqlrustgo_graph5store16disk_graph_storeNtB4_14DiskGraphStore10node_count
FN:405,_RNvMs_NtNtCskxg4ERNDwTM_15sqlrustgo_graph5store16disk_graph_storeNtB4_14DiskGraphStore10replay_wal
FN:324,_RNvMs_NtNtCskxg4ERNDwTM_15sqlrustgo_graph5store16disk_graph_storeNtB4_14DiskGraphStore11load_labels
FN:150,_RNvMs_NtNtCskxg4ERNDwTM_15sqlrustgo_graph5store16disk_graph_storeNtB4_14DiskGraphStore12next_edge_id
FN:144,_RNvMs_NtNtCskxg4ERNDwTM_15sqlrustgo_graph5store16disk_graph_storeNtB4_14DiskGraphStore12next_node_id
FN:168,_RNvMs_NtNtCskxg4ERNDwTM_15sqlrustgo_graph5store16disk_graph_storeNtB4_14DiskGraphStore12persist_meta
FN:379,_RNvMs_NtNtCskxg4ERNDwTM_15sqlrustgo_graph5store16disk_graph_storeNtB4_14DiskGraphStore13log_wal_entry
FN:284,_RNvMs_NtNtCskxg4ERNDwTM_15sqlrustgo_graph5store16disk_graph_storeNtB4_14DiskGraphStore13persist_edges
FN:210,_RNvMs_NtNtCskxg4ERNDwTM_15sqlrustgo_graph5store16disk_graph_storeNtB4_14DiskGraphStore13persist_nodes
FN:355,_RNvMs_NtNtCskxg4ERNDwTM_15sqlrustgo_graph5store16disk_graph_storeNtB4_14DiskGraphStore14persist_labels
FN:429,_RNvMs_NtNtCskxg4ERNDwTM_15sqlrustgo_graph5store16disk_graph_storeNtB4_14DiskGraphStore15apply_wal_entry
FN:89,_RNvMs_NtNtCskxg4ERNDwTM_15sqlrustgo_graph5store16disk_graph_storeNtB4_14DiskGraphStore15new_without_wal
FN:132,_RNvMs_NtNtCskxg4ERNDwTM_15sqlrustgo_graph5store16disk_graph_storeNtB4_14DiskGraphStore15set_wal_enabled
FN:71,_RNvMs_NtNtCskxg4ERNDwTM_15sqlrustgo_graph5store16disk_graph_storeNtB4_14DiskGraphStore3new
FN:104,_RNvMs_NtNtCskxg4ERNDwTM_15sqlrustgo_graph5store16disk_graph_storeNtB4_14DiskGraphStore4load
FN:156,_RNvMs_NtNtCskxg4ERNDwTM_15sqlrustgo_graph5store16disk_graph_storeNtB4_14DiskGraphStore9load_meta
FN:26,_RNvXNtNtCskxg4ERNDwTM_15sqlrustgo_graph5store16disk_graph_storeNtB2_9GraphMetaNtNtCs8nPosuWgJFh_4core7default7Default7default
FN:633,_RNvXs0_NtNtCskxg4ERNDwTM_15sqlrustgo_graph5store16disk_graph_storeNtB5_14DiskGraphStoreNtNtB7_11graph_store10GraphStore10edge_count
FN:629,_RNvXs0_NtNtCskxg4ERNDwTM_15sqlrustgo_graph5store16disk_graph_storeNtB5_14DiskGraphStoreNtNtB7_11graph_store10GraphStore10node_count
FN:544,_RNvXs0_NtNtCskxg4ERNDwTM_15sqlrustgo_graph5store16disk_graph_storeNtB5_14DiskGraphStoreNtNtB7_11graph_store10GraphStore11create_edge
FN:485,_RNvXs0_NtNtCskxg4ERNDwTM_15sqlrustgo_graph5store16disk_graph_storeNtB5_14DiskGraphStoreNtNtB7_11graph_store10GraphStore11create_node
FN:594,_RNvXs0_NtNtCskxg4ERNDwTM_15sqlrustgo_graph5store16disk_graph_storeNtB5_14DiskGraphStoreNtNtB7_11graph_store10GraphStore11delete_edge
FN:535,_RNvXs0_NtNtCskxg4ERNDwTM_15sqlrustgo_graph5store16disk_graph_storeNtB5_14DiskGraphStoreNtNtB7_11graph_store10GraphStore11delete_node
FN:519,_RNvXs0_NtNtCskxg4ERNDwTM_15sqlrustgo_graph5store16disk_graph_storeNtB5_14DiskGraphStoreNtNtB7_11graph_store10GraphStore11update_node
FN:590,_RNvXs0_NtNtCskxg4ERNDwTM_15sqlrustgo_graph5store16disk_graph_storeNtB5_14DiskGraphStoreNtNtB7_11graph_store10GraphStore14edges_by_label
FN:637,_RNvXs0_NtNtCskxg4ERNDwTM_15sqlrustgo_graph5store16disk_graph_storeNtB5_14DiskGraphStoreNtNtB7_11graph_store10GraphStore14label_registry
FN:515,_RNvXs0_NtNtCskxg4ERNDwTM_15sqlrustgo_graph5store16disk_graph_storeNtB5_14DiskGraphStoreNtNtB7_11graph_store10GraphStore14nodes_by_label
FN:607,_RNvXs0_NtNtCskxg4ERNDwTM_15sqlrustgo_graph5store16disk_graph_storeNtB5_14DiskGraphStoreNtNtB7_11graph_store10GraphStore18incoming_neighbors
FN:603,_RNvXs0_NtNtCskxg4ERNDwTM_15sqlrustgo_graph5store16disk_graph_storeNtB5_14DiskGraphStoreNtNtB7_11graph_store10GraphStore18outgoing_neighbors
FN:611,_RNvXs0_NtNtCskxg4ERNDwTM_15sqlrustgo_graph5store16disk_graph_storeNtB5_14DiskGraphStoreNtNtB7_11graph_store10GraphStore23neighbors_by_edge_label
FN:586,_RNvXs0_NtNtCskxg4ERNDwTM_15sqlrustgo_graph5store16disk_graph_storeNtB5_14DiskGraphStoreNtNtB7_11graph_store10GraphStore8get_edge
FN:511,_RNvXs0_NtNtCskxg4ERNDwTM_15sqlrustgo_graph5store16disk_graph_storeNtB5_14DiskGraphStoreNtNtB7_11graph_store10GraphStore8get_node
FNDA:3,_RNCNvNtNtNtCshHW17pKFbCA_15sqlrustgo_graph5store16disk_graph_store5testss_18test_bfs_traversal0B9_
FNDA:3,_RNCNvNtNtNtCshHW17pKFbCA_15sqlrustgo_graph5store16disk_graph_store5testss_18test_dfs_traversal0B9_
FNDA:0,_RNvXNtNtCshHW17pKFbCA_15sqlrustgo_graph5store16disk_graph_storeNtB2_9GraphMetaNtNtCs8nPosuWgJFh_4core7default7Default7default
FNDA:0,_RNvXs0_NtNtCshHW17pKFbCA_15sqlrustgo_graph5store16disk_graph_storeNtB5_14DiskGraphStoreNtNtB7_11graph_store10GraphStore10edge_count
FNDA:0,_RNvXs0_NtNtCshHW17pKFbCA_15sqlrustgo_graph5store16disk_graph_storeNtB5_14DiskGraphStoreNtNtB7_11graph_store10GraphStore10node_count
FNDA:0,_RNvXs0_NtNtCshHW17pKFbCA_15sqlrustgo_graph5store16disk_graph_storeNtB5_14DiskGraphStoreNtNtB7_11graph_store10GraphStore11delete_edge
FNDA:0,_RNvXs0_NtNtCshHW17pKFbCA_15sqlrustgo_graph5store16disk_graph_storeNtB5_14DiskGraphStoreNtNtB7_11graph_store10GraphStore14edges_by_label
FNDA:0,_RNvXs0_NtNtCshHW17pKFbCA_15sqlrustgo_graph5store16disk_graph_storeNtB5_14DiskGraphStoreNtNtB7_11graph_store10GraphStore18incoming_neighbors
FNDA:0,_RNvXs0_NtNtCshHW17pKFbCA_15sqlrustgo_graph5store16disk_graph_storeNtB5_14DiskGraphStoreNtNtB7_11graph_store10GraphStore23neighbors_by_edge_label
FNDA:1,_RINvXs0_NtNtCshHW17pKFbCA_15sqlrustgo_graph5store16disk_graph_storeNtB6_14DiskGraphStoreNtNtB8_11graph_store10GraphStore3bfsNCNvNtB6_5testss_18test_bfs_traversal0EBa_
FNDA:1,_RINvXs0_NtNtCshHW17pKFbCA_15sqlrustgo_graph5store16disk_graph_storeNtB6_14DiskGraphStoreNtNtB8_11graph_store10GraphStore3dfsNCNvNtB6_5testss_18test_dfs_traversal0EBa_
FNDA:0,_RNCNvMs_NtNtCshHW17pKFbCA_15sqlrustgo_graph5store16disk_graph_storeNtB6_14DiskGraphStore10load_edges0Ba_
FNDA:0,_RNCNvMs_NtNtCshHW17pKFbCA_15sqlrustgo_graph5store16disk_graph_storeNtB6_14DiskGraphStore10load_edgess_0Ba_
FNDA:0,_RNCNvMs_NtNtCshHW17pKFbCA_15sqlrustgo_graph5store16disk_graph_storeNtB6_14DiskGraphStore10load_nodes0Ba_
FNDA:0,_RNCNvMs_NtNtCshHW17pKFbCA_15sqlrustgo_graph5store16disk_graph_storeNtB6_14DiskGraphStore10load_nodess_0Ba_
FNDA:0,_RNCNvMs_NtNtCshHW17pKFbCA_15sqlrustgo_graph5store16disk_graph_storeNtB6_14DiskGraphStore10replay_wal0Ba_
FNDA:169,_RNCNvMs_NtNtCshHW17pKFbCA_15sqlrustgo_graph5store16disk_graph_storeNtB6_14DiskGraphStore10replay_wals_0Ba_
FNDA:0,_RNCNvMs_NtNtCshHW17pKFbCA_15sqlrustgo_graph5store16disk_graph_storeNtB6_14DiskGraphStore11load_labels0Ba_
FNDA:0,_RNCNvMs_NtNtCshHW17pKFbCA_15sqlrustgo_graph5store16disk_graph_storeNtB6_14DiskGraphStore11load_labelss_0Ba_
FNDA:0,_RNCNvMs_NtNtCshHW17pKFbCA_15sqlrustgo_graph5store16disk_graph_storeNtB6_14DiskGraphStore12persist_meta0Ba_
FNDA:0,_RNCNvMs_NtNtCshHW17pKFbCA_15sqlrustgo_graph5store16disk_graph_storeNtB6_14DiskGraphStore12persist_metas_0Ba_
FNDA:0,_RNCNvMs_NtNtCshHW17pKFbCA_15sqlrustgo_graph5store16disk_graph_storeNtB6_14DiskGraphStore13log_wal_entry0Ba_
FNDA:0,_RNCNvMs_NtNtCshHW17pKFbCA_15sqlrustgo_graph5store16disk_graph_storeNtB6_14DiskGraphStore13log_wal_entrys0_0Ba_
FNDA:0,_RNCNvMs_NtNtCshHW17pKFbCA_15sqlrustgo_graph5store16disk_graph_storeNtB6_14DiskGraphStore13log_wal_entrys1_0Ba_
FNDA:0,_RNCNvMs_NtNtCshHW17pKFbCA_15sqlrustgo_graph5store16disk_graph_storeNtB6_14DiskGraphStore13log_wal_entrys2_0Ba_
FNDA:0,_RNCNvMs_NtNtCshHW17pKFbCA_15sqlrustgo_graph5store16disk_graph_storeNtB6_14DiskGraphStore13log_wal_entrys_0Ba_
FNDA:11,_RNCNvMs_NtNtCshHW17pKFbCA_15sqlrustgo_graph5store16disk_graph_storeNtB6_14DiskGraphStore13persist_edges0Ba_
FNDA:0,_RNCNvMs_NtNtCshHW17pKFbCA_15sqlrustgo_graph5store16disk_graph_storeNtB6_14DiskGraphStore13persist_edgess0_0Ba_
FNDA:0,_RNCNvMs_NtNtCshHW17pKFbCA_15sqlrustgo_graph5store16disk_graph_storeNtB6_14DiskGraphStore13persist_edgess1_0Ba_
FNDA:11,_RNCNvMs_NtNtCshHW17pKFbCA_15sqlrustgo_graph5store16disk_graph_storeNtB6_14DiskGraphStore13persist_edgess_0Ba_
FNDA:39,_RNCNvMs_NtNtCshHW17pKFbCA_15sqlrustgo_graph5store16disk_graph_storeNtB6_14DiskGraphStore13persist_nodes0Ba_
FNDA:0,_RNCNvMs_NtNtCshHW17pKFbCA_15sqlrustgo_graph5store16disk_graph_storeNtB6_14DiskGraphStore13persist_nodess0_0Ba_
FNDA:0,_RNCNvMs_NtNtCshHW17pKFbCA_15sqlrustgo_graph5store16disk_graph_storeNtB6_14DiskGraphStore13persist_nodess1_0Ba_
FNDA:39,_RNCNvMs_NtNtCshHW17pKFbCA_15sqlrustgo_graph5store16disk_graph_storeNtB6_14DiskGraphStore13persist_nodess_0Ba_
FNDA:332,_RNCNvMs_NtNtCshHW17pKFbCA_15sqlrustgo_graph5store16disk_graph_storeNtB6_14DiskGraphStore14persist_labels0Ba_
FNDA:0,_RNCNvMs_NtNtCshHW17pKFbCA_15sqlrustgo_graph5store16disk_graph_storeNtB6_14DiskGraphStore14persist_labelss0_0Ba_
FNDA:0,_RNCNvMs_NtNtCshHW17pKFbCA_15sqlrustgo_graph5store16disk_graph_storeNtB6_14DiskGraphStore14persist_labelss_0Ba_
FNDA:0,_RNCNvMs_NtNtCshHW17pKFbCA_15sqlrustgo_graph5store16disk_graph_storeNtB6_14DiskGraphStore15new_without_wal0Ba_
FNDA:0,_RNCNvMs_NtNtCshHW17pKFbCA_15sqlrustgo_graph5store16disk_graph_storeNtB6_14DiskGraphStore3new0Ba_
FNDA:0,_RNCNvMs_NtNtCshHW17pKFbCA_15sqlrustgo_graph5store16disk_graph_storeNtB6_14DiskGraphStore9load_meta0Ba_
FNDA:0,_RNCNvMs_NtNtCshHW17pKFbCA_15sqlrustgo_graph5store16disk_graph_storeNtB6_14DiskGraphStore9load_metas_0Ba_
FNDA:1,_RNvNtNtNtCshHW17pKFbCA_15sqlrustgo_graph5store16disk_graph_store5testss_14test_edge_crud
FNDA:1,_RNvNtNtNtCshHW17pKFbCA_15sqlrustgo_graph5store16disk_graph_store5testss_14test_neighbors
FNDA:1,_RNvNtNtNtCshHW17pKFbCA_15sqlrustgo_graph5store16disk_graph_store5testss_16test_update_node
FNDA:1,_RNvNtNtNtCshHW17pKFbCA_15sqlrustgo_graph5store16disk_graph_store5testss_17test_wal_disabled
FNDA:1,_RNvNtNtNtCshHW17pKFbCA_15sqlrustgo_graph5store16disk_graph_store5testss_18test_bfs_traversal
FNDA:1,_RNvNtNtNtCshHW17pKFbCA_15sqlrustgo_graph5store16disk_graph_store5testss_18test_dfs_traversal
FNDA:1,_RNvNtNtNtCshHW17pKFbCA_15sqlrustgo_graph5store16disk_graph_store5testss_19test_nodes_by_label
FNDA:1,_RNvNtNtNtCshHW17pKFbCA_15sqlrustgo_graph5store16disk_graph_store5testss_21test_without_wal_mode
FNDA:1,_RNvNtNtNtCshHW17pKFbCA_15sqlrustgo_graph5store16disk_graph_store5testss_23test_persist_and_reload
FNDA:1,_RNvNtNtNtCshHW17pKFbCA_15sqlrustgo_graph5store16disk_graph_store5testss_24test_create_and_get_node
FNDA:1,_RNvNtNtNtCshHW17pKFbCA_15sqlrustgo_graph5store16disk_graph_store5testss_30test_delete_node_removes_edges
FNDA:1,_RNvNtNtNtCshHW17pKFbCA_15sqlrustgo_graph5store16disk_graph_store5testss_30test_disk_graph_store_creation
FNDA:3,_RNvMs_NtNtCshHW17pKFbCA_15sqlrustgo_graph5store16disk_graph_storeNtB4_14DiskGraphStore10edge_count
FNDA:1,_RNvMs_NtNtCshHW17pKFbCA_15sqlrustgo_graph5store16disk_graph_storeNtB4_14DiskGraphStore10load_edges
FNDA:1,_RNvMs_NtNtCshHW17pKFbCA_15sqlrustgo_graph5store16disk_graph_storeNtB4_14DiskGraphStore10load_nodes
FNDA:3,_RNvMs_NtNtCshHW17pKFbCA_15sqlrustgo_graph5store16disk_graph_storeNtB4_14DiskGraphStore10node_count
FNDA:1,_RNvMs_NtNtCshHW17pKFbCA_15sqlrustgo_graph5store16disk_graph_storeNtB4_14DiskGraphStore10replay_wal
FNDA:1,_RNvMs_NtNtCshHW17pKFbCA_15sqlrustgo_graph5store16disk_graph_storeNtB4_14DiskGraphStore11load_labels
FNDA:8,_RNvMs_NtNtCshHW17pKFbCA_15sqlrustgo_graph5store16disk_graph_storeNtB4_14DiskGraphStore12next_edge_id
FNDA:22,_RNvMs_NtNtCshHW17pKFbCA_15sqlrustgo_graph5store16disk_graph_storeNtB4_14DiskGraphStore12next_node_id
FNDA:41,_RNvMs_NtNtCshHW17pKFbCA_15sqlrustgo_graph5store16disk_graph_storeNtB4_14DiskGraphStore12persist_meta
FNDA:32,_RNvMs_NtNtCshHW17pKFbCA_15sqlrustgo_graph5store16disk_graph_storeNtB4_14DiskGraphStore13log_wal_entry
FNDA:8,_RNvMs_NtNtCshHW17pKFbCA_15sqlrustgo_graph5store16disk_graph_storeNtB4_14DiskGraphStore13persist_edges
FNDA:24,_RNvMs_NtNtCshHW17pKFbCA_15sqlrustgo_graph5store16disk_graph_storeNtB4_14DiskGraphStore13persist_nodes
FNDA:30,_RNvMs_NtNtCshHW17pKFbCA_15sqlrustgo_graph5store16disk_graph_storeNtB4_14DiskGraphStore14persist_labels
FNDA:1,_RNvMs_NtNtCshHW17pKFbCA_15sqlrustgo_graph5store16disk_graph_storeNtB4_14DiskGraphStore15apply_wal_entry
FNDA:1,_RNvMs_NtNtCshHW17pKFbCA_15sqlrustgo_graph5store16disk_graph_storeNtB4_14DiskGraphStore15new_without_wal
FNDA:1,_RNvMs_NtNtCshHW17pKFbCA_15sqlrustgo_graph5store16disk_graph_storeNtB4_14DiskGraphStore15set_wal_enabled
FNDA:11,_RNvMs_NtNtCshHW17pKFbCA_15sqlrustgo_graph5store16disk_graph_storeNtB4_14DiskGraphStore3new
FNDA:1,_RNvMs_NtNtCshHW17pKFbCA_15sqlrustgo_graph5store16disk_graph_storeNtB4_14DiskGraphStore4load
FNDA:1,_RNvMs_NtNtCshHW17pKFbCA_15sqlrustgo_graph5store16disk_graph_storeNtB4_14DiskGraphStore9load_meta
FNDA:8,_RNvXs0_NtNtCshHW17pKFbCA_15sqlrustgo_graph5store16disk_graph_storeNtB5_14DiskGraphStoreNtNtB7_11graph_store10GraphStore11create_edge
FNDA:22,_RNvXs0_NtNtCshHW17pKFbCA_15sqlrustgo_graph5store16disk_graph_storeNtB5_14DiskGraphStoreNtNtB7_11graph_store10GraphStore11create_node
FNDA:1,_RNvXs0_NtNtCshHW17pKFbCA_15sqlrustgo_graph5store16disk_graph_storeNtB5_14DiskGraphStoreNtNtB7_11graph_store10GraphStore11delete_node
FNDA:1,_RNvXs0_NtNtCshHW17pKFbCA_15sqlrustgo_graph5store16disk_graph_storeNtB5_14DiskGraphStoreNtNtB7_11graph_store10GraphStore11update_node
FNDA:2,_RNvXs0_NtNtCshHW17pKFbCA_15sqlrustgo_graph5store16disk_graph_storeNtB5_14DiskGraphStoreNtNtB7_11graph_store10GraphStore14label_registry
FNDA:2,_RNvXs0_NtNtCshHW17pKFbCA_15sqlrustgo_graph5store16disk_graph_storeNtB5_14DiskGraphStoreNtNtB7_11graph_store10GraphStore14nodes_by_label
FNDA:1,_RNvXs0_NtNtCshHW17pKFbCA_15sqlrustgo_graph5store16disk_graph_storeNtB5_14DiskGraphStoreNtNtB7_11graph_store10GraphStore18outgoing_neighbors
FNDA:1,_RNvXs0_NtNtCshHW17pKFbCA_15sqlrustgo_graph5store16disk_graph_storeNtB5_14DiskGraphStoreNtNtB7_11graph_store10GraphStore8get_edge
FNDA:2,_RNvXs0_NtNtCshHW17pKFbCA_15sqlrustgo_graph5store16disk_graph_storeNtB5_14DiskGraphStoreNtNtB7_11graph_store10GraphStore8get_node
FNDA:0,_RNCNvMs_NtNtCskxg4ERNDwTM_15sqlrustgo_graph5store16disk_graph_storeNtB6_14DiskGraphStore10load_edges0Ba_
FNDA:0,_RNCNvMs_NtNtCskxg4ERNDwTM_15sqlrustgo_graph5store16disk_graph_storeNtB6_14DiskGraphStore10load_edgess_0Ba_
FNDA:0,_RNCNvMs_NtNtCskxg4ERNDwTM_15sqlrustgo_graph5store16disk_graph_storeNtB6_14DiskGraphStore10load_nodes0Ba_
FNDA:0,_RNCNvMs_NtNtCskxg4ERNDwTM_15sqlrustgo_graph5store16disk_graph_storeNtB6_14DiskGraphStore10load_nodess_0Ba_
FNDA:0,_RNCNvMs_NtNtCskxg4ERNDwTM_15sqlrustgo_graph5store16disk_graph_storeNtB6_14DiskGraphStore10replay_wal0Ba_
FNDA:0,_RNCNvMs_NtNtCskxg4ERNDwTM_15sqlrustgo_graph5store16disk_graph_storeNtB6_14DiskGraphStore10replay_wals_0Ba_
FNDA:0,_RNCNvMs_NtNtCskxg4ERNDwTM_15sqlrustgo_graph5store16disk_graph_storeNtB6_14DiskGraphStore11load_labels0Ba_
FNDA:0,_RNCNvMs_NtNtCskxg4ERNDwTM_15sqlrustgo_graph5store16disk_graph_storeNtB6_14DiskGraphStore11load_labelss_0Ba_
FNDA:0,_RNCNvMs_NtNtCskxg4ERNDwTM_15sqlrustgo_graph5store16disk_graph_storeNtB6_14DiskGraphStore12persist_meta0Ba_
FNDA:0,_RNCNvMs_NtNtCskxg4ERNDwTM_15sqlrustgo_graph5store16disk_graph_storeNtB6_14DiskGraphStore12persist_metas_0Ba_
FNDA:0,_RNCNvMs_NtNtCskxg4ERNDwTM_15sqlrustgo_graph5store16disk_graph_storeNtB6_14DiskGraphStore13log_wal_entry0Ba_
FNDA:0,_RNCNvMs_NtNtCskxg4ERNDwTM_15sqlrustgo_graph5store16disk_graph_storeNtB6_14DiskGraphStore13log_wal_entrys0_0Ba_
FNDA:0,_RNCNvMs_NtNtCskxg4ERNDwTM_15sqlrustgo_graph5store16disk_graph_storeNtB6_14DiskGraphStore13log_wal_entrys1_0Ba_
FNDA:0,_RNCNvMs_NtNtCskxg4ERNDwTM_15sqlrustgo_graph5store16disk_graph_storeNtB6_14DiskGraphStore13log_wal_entrys2_0Ba_
FNDA:0,_RNCNvMs_NtNtCskxg4ERNDwTM_15sqlrustgo_graph5store16disk_graph_storeNtB6_14DiskGraphStore13log_wal_entrys_0Ba_
FNDA:0,_RNCNvMs_NtNtCskxg4ERNDwTM_15sqlrustgo_graph5store16disk_graph_storeNtB6_14DiskGraphStore13persist_edges0Ba_
FNDA:0,_RNCNvMs_NtNtCskxg4ERNDwTM_15sqlrustgo_graph5store16disk_graph_storeNtB6_14DiskGraphStore13persist_edgess0_0Ba_
FNDA:0,_RNCNvMs_NtNtCskxg4ERNDwTM_15sqlrustgo_graph5store16disk_graph_storeNtB6_14DiskGraphStore13persist_edgess1_0Ba_
FNDA:0,_RNCNvMs_NtNtCskxg4ERNDwTM_15sqlrustgo_graph5store16disk_graph_storeNtB6_14DiskGraphStore13persist_edgess_0Ba_
FNDA:0,_RNCNvMs_NtNtCskxg4ERNDwTM_15sqlrustgo_graph5store16disk_graph_storeNtB6_14DiskGraphStore13persist_nodes0Ba_
FNDA:0,_RNCNvMs_NtNtCskxg4ERNDwTM_15sqlrustgo_graph5store16disk_graph_storeNtB6_14DiskGraphStore13persist_nodess0_0Ba_
FNDA:0,_RNCNvMs_NtNtCskxg4ERNDwTM_15sqlrustgo_graph5store16disk_graph_storeNtB6_14DiskGraphStore13persist_nodess1_0Ba_
FNDA:0,_RNCNvMs_NtNtCskxg4ERNDwTM_15sqlrustgo_graph5store16disk_graph_storeNtB6_14DiskGraphStore13persist_nodess_0Ba_
FNDA:0,_RNCNvMs_NtNtCskxg4ERNDwTM_15sqlrustgo_graph5store16disk_graph_storeNtB6_14DiskGraphStore14persist_labels0Ba_
FNDA:0,_RNCNvMs_NtNtCskxg4ERNDwTM_15sqlrustgo_graph5store16disk_graph_storeNtB6_14DiskGraphStore14persist_labelss0_0Ba_
FNDA:0,_RNCNvMs_NtNtCskxg4ERNDwTM_15sqlrustgo_graph5store16disk_graph_storeNtB6_14DiskGraphStore14persist_labelss_0Ba_
FNDA:0,_RNCNvMs_NtNtCskxg4ERNDwTM_15sqlrustgo_graph5store16disk_graph_storeNtB6_14DiskGraphStore15new_without_wal0Ba_
FNDA:0,_RNCNvMs_NtNtCskxg4ERNDwTM_15sqlrustgo_graph5store16disk_graph_storeNtB6_14DiskGraphStore3new0Ba_
FNDA:0,_RNCNvMs_NtNtCskxg4ERNDwTM_15sqlrustgo_graph5store16disk_graph_storeNtB6_14DiskGraphStore9load_meta0Ba_
FNDA:0,_RNCNvMs_NtNtCskxg4ERNDwTM_15sqlrustgo_graph5store16disk_graph_storeNtB6_14DiskGraphStore9load_metas_0Ba_
FNDA:0,_RNvMs_NtNtCskxg4ERNDwTM_15sqlrustgo_graph5store16disk_graph_storeNtB4_14DiskGraphStore10edge_count
FNDA:0,_RNvMs_NtNtCskxg4ERNDwTM_15sqlrustgo_graph5store16disk_graph_storeNtB4_14DiskGraphStore10load_edges
FNDA:0,_RNvMs_NtNtCskxg4ERNDwTM_15sqlrustgo_graph5store16disk_graph_storeNtB4_14DiskGraphStore10load_nodes
FNDA:0,_RNvMs_NtNtCskxg4ERNDwTM_15sqlrustgo_graph5store16disk_graph_storeNtB4_14DiskGraphStore10node_count
FNDA:0,_RNvMs_NtNtCskxg4ERNDwTM_15sqlrustgo_graph5store16disk_graph_storeNtB4_14DiskGraphStore10replay_wal
FNDA:0,_RNvMs_NtNtCskxg4ERNDwTM_15sqlrustgo_graph5store16disk_graph_storeNtB4_14DiskGraphStore11load_labels
FNDA:0,_RNvMs_NtNtCskxg4ERNDwTM_15sqlrustgo_graph5store16disk_graph_storeNtB4_14DiskGraphStore12next_edge_id
FNDA:0,_RNvMs_NtNtCskxg4ERNDwTM_15sqlrustgo_graph5store16disk_graph_storeNtB4_14DiskGraphStore12next_node_id
FNDA:0,_RNvMs_NtNtCskxg4ERNDwTM_15sqlrustgo_graph5store16disk_graph_storeNtB4_14DiskGraphStore12persist_meta
FNDA:0,_RNvMs_NtNtCskxg4ERNDwTM_15sqlrustgo_graph5store16disk_graph_storeNtB4_14DiskGraphStore13log_wal_entry
FNDA:0,_RNvMs_NtNtCskxg4ERNDwTM_15sqlrustgo_graph5store16disk_graph_storeNtB4_14DiskGraphStore13persist_edges
FNDA:0,_RNvMs_NtNtCskxg4ERNDwTM_15sqlrustgo_graph5store16disk_graph_storeNtB4_14DiskGraphStore13persist_nodes
FNDA:0,_RNvMs_NtNtCskxg4ERNDwTM_15sqlrustgo_graph5store16disk_graph_storeNtB4_14DiskGraphStore14persist_labels
FNDA:0,_RNvMs_NtNtCskxg4ERNDwTM_15sqlrustgo_graph5store16disk_graph_storeNtB4_14DiskGraphStore15apply_wal_entry
FNDA:0,_RNvMs_NtNtCskxg4ERNDwTM_15sqlrustgo_graph5store16disk_graph_storeNtB4_14DiskGraphStore15new_without_wal
FNDA:0,_RNvMs_NtNtCskxg4ERNDwTM_15sqlrustgo_graph5store16disk_graph_storeNtB4_14DiskGraphStore15set_wal_enabled
FNDA:0,_RNvMs_NtNtCskxg4ERNDwTM_15sqlrustgo_graph5store16disk_graph_storeNtB4_14DiskGraphStore3new
FNDA:0,_RNvMs_NtNtCskxg4ERNDwTM_15sqlrustgo_graph5store16disk_graph_storeNtB4_14DiskGraphStore4load
FNDA:0,_RNvMs_NtNtCskxg4ERNDwTM_15sqlrustgo_graph5store16disk_graph_storeNtB4_14DiskGraphStore9load_meta
FNDA:0,_RNvXNtNtCskxg4ERNDwTM_15sqlrustgo_graph5store16disk_graph_storeNtB2_9GraphMetaNtNtCs8nPosuWgJFh_4core7default7Default7default
FNDA:0,_RNvXs0_NtNtCskxg4ERNDwTM_15sqlrustgo_graph5store16disk_graph_storeNtB5_14DiskGraphStoreNtNtB7_11graph_store10GraphStore10edge_count
FNDA:0,_RNvXs0_NtNtCskxg4ERNDwTM_15sqlrustgo_graph5store16disk_graph_storeNtB5_14DiskGraphStoreNtNtB7_11graph_store10GraphStore10node_count
FNDA:0,_RNvXs0_NtNtCskxg4ERNDwTM_15sqlrustgo_graph5store16disk_graph_storeNtB5_14DiskGraphStoreNtNtB7_11graph_store10GraphStore11create_edge
FNDA:0,_RNvXs0_NtNtCskxg4ERNDwTM_15sqlrustgo_graph5store16disk_graph_storeNtB5_14DiskGraphStoreNtNtB7_11graph_store10GraphStore11create_node
FNDA:0,_RNvXs0_NtNtCskxg4ERNDwTM_15sqlrustgo_graph5store16disk_graph_storeNtB5_14DiskGraphStoreNtNtB7_11graph_store10GraphStore11delete_edge
FNDA:0,_RNvXs0_NtNtCskxg4ERNDwTM_15sqlrustgo_graph5store16disk_graph_storeNtB5_14DiskGraphStoreNtNtB7_11graph_store10GraphStore11delete_node
FNDA:0,_RNvXs0_NtNtCskxg4ERNDwTM_15sqlrustgo_graph5store16disk_graph_storeNtB5_14DiskGraphStoreNtNtB7_11graph_store10GraphStore11update_node
FNDA:0,_RNvXs0_NtNtCskxg4ERNDwTM_15sqlrustgo_graph5store16disk_graph_storeNtB5_14DiskGraphStoreNtNtB7_11graph_store10GraphStore14edges_by_label
FNDA:0,_RNvXs0_NtNtCskxg4ERNDwTM_15sqlrustgo_graph5store16disk_graph_storeNtB5_14DiskGraphStoreNtNtB7_11graph_store10GraphStore14label_registry
FNDA:0,_RNvXs0_NtNtCskxg4ERNDwTM_15sqlrustgo_graph5store16disk_graph_storeNtB5_14DiskGraphStoreNtNtB7_11graph_store10GraphStore14nodes_by_label
FNDA:0,_RNvXs0_NtNtCskxg4ERNDwTM_15sqlrustgo_graph5store16disk_graph_storeNtB5_14DiskGraphStoreNtNtB7_11graph_store10GraphStore18incoming_neighbors
FNDA:0,_RNvXs0_NtNtCskxg4ERNDwTM_15sqlrustgo_graph5store16disk_graph_storeNtB5_14DiskGraphStoreNtNtB7_11graph_store10GraphStore18outgoing_neighbors
FNDA:0,_RNvXs0_NtNtCskxg4ERNDwTM_15sqlrustgo_graph5store16disk_graph_storeNtB5_14DiskGraphStoreNtNtB7_11graph_store10GraphStore23neighbors_by_edge_label
FNDA:0,_RNvXs0_NtNtCskxg4ERNDwTM_15sqlrustgo_graph5store16disk_graph_storeNtB5_14DiskGraphStoreNtNtB7_11graph_store10GraphStore8get_edge
FNDA:0,_RNvXs0_NtNtCskxg4ERNDwTM_15sqlrustgo_graph5store16disk_graph_storeNtB5_14DiskGraphStoreNtNtB7_11graph_store10GraphStore8get_node
FNF:81
FNH:50
DA:26,0
DA:27,0
DA:28,0
DA:29,0
DA:30,0
DA:31,0
DA:32,0
DA:71,11
DA:72,11
DA:74,11
DA:76,11
DA:77,11
DA:78,11
DA:79,11
DA:80,11
DA:81,11
DA:82,11
DA:83,11
DA:85,11
DA:86,11
DA:87,11
DA:89,1
DA:90,1
DA:92,1
DA:94,1
DA:95,1
DA:96,1
DA:97,1
DA:98,1
DA:99,1
DA:100,1
DA:101,1
DA:102,1
DA:104,1
DA:105,1
DA:106,0
DA:107,1
DA:109,1
DA:111,1
DA:113,1
DA:114,1
DA:115,1
DA:116,1
DA:118,1
DA:119,1
DA:120,1
DA:121,1
DA:122,1
DA:123,1
DA:124,1
DA:125,1
DA:127,1
DA:129,1
DA:130,1
DA:132,1
DA:133,1
DA:134,1
DA:136,3
DA:137,3
DA:138,3
DA:140,3
DA:141,3
DA:142,3
DA:144,22
DA:145,22
DA:146,22
DA:147,22
DA:148,22
DA:150,8
DA:151,8
DA:152,8
DA:153,8
DA:154,8
DA:156,1
DA:157,1
DA:158,1
DA:159,1
DA:160,1
DA:161,1
DA:162,1
DA:164,0
DA:166,1
DA:168,41
DA:169,41
DA:170,41
DA:171,41
DA:172,41
DA:173,41
DA:174,41
DA:175,41
DA:176,41
DA:177,41
DA:178,41
DA:179,41
DA:181,1
DA:182,1
DA:183,1
DA:184,1
DA:185,1
DA:193,1
DA:194,1
DA:195,2
DA:196,2
DA:197,2
DA:198,2
DA:199,2
DA:200,2
DA:201,2
DA:202,2
DA:203,2
DA:204,2
DA:206,0
DA:207,1
DA:208,1
DA:210,24
DA:218,24
DA:219,24
DA:220,24
DA:221,24
DA:222,24
DA:223,39
DA:224,39
DA:225,39
DA:226,39
DA:227,6
DA:228,6
DA:229,39
DA:230,39
DA:231,39
DA:232,39
DA:233,39
DA:234,39
DA:235,24
DA:237,24
DA:238,24
DA:239,24
DA:240,24
DA:241,24
DA:242,24
DA:244,1
DA:245,1
DA:246,1
DA:247,0
DA:248,0
DA:259,0
DA:260,0
DA:261,0
DA:262,0
DA:263,0
DA:264,0
DA:265,0
DA:266,0
DA:267,0
DA:268,0
DA:269,0
DA:270,0
DA:271,0
DA:272,0
DA:273,0
DA:274,0
DA:275,0
DA:276,0
DA:277,0
DA:278,0
DA:280,1
DA:281,1
DA:282,1
DA:284,8
DA:295,8
DA:296,8
DA:297,8
DA:298,8
DA:299,8
DA:300,11
DA:301,11
DA:302,11
DA:303,11
DA:304,0
DA:305,0
DA:306,11
DA:307,11
DA:308,11
DA:309,11
DA:310,11
DA:311,11
DA:312,11
DA:313,11
DA:314,11
DA:315,8
DA:317,8
DA:318,8
DA:319,8
DA:320,8
DA:321,8
DA:322,8
DA:324,1
DA:325,1
DA:326,1
DA:327,1
DA:328,1
DA:335,1
DA:336,1
DA:337,10
DA:338,10
DA:339,10
DA:340,10
DA:341,10
DA:342,10
DA:343,10
DA:344,10
DA:345,10
DA:346,10
DA:347,10
DA:348,0
DA:349,10
DA:351,0
DA:352,1
DA:353,1
DA:355,30
DA:362,30
DA:363,30
DA:364,30
DA:365,30
DA:366,30
DA:367,332
DA:368,332
DA:369,332
DA:370,30
DA:372,30
DA:373,30
DA:374,30
DA:375,30
DA:376,30
DA:377,30
DA:379,32
DA:380,32
DA:381,2
DA:382,30
DA:384,30
DA:385,30
DA:387,30
DA:388,30
DA:389,30
DA:390,30
DA:391,30
DA:394,30
DA:395,30
DA:396,30
DA:397,30
DA:399,30
DA:400,30
DA:402,30
DA:403,32
DA:405,1
DA:406,1
DA:407,0
DA:408,1
DA:410,1
DA:412,169
DA:413,3
DA:414,0
DA:415,3
DA:417,3
DA:418,1
DA:419,2
DA:421,2
DA:422,1
DA:423,1
DA:426,1
DA:427,1
DA:429,1
DA:430,1
DA:432,1
DA:433,1
DA:434,1
DA:436,1
DA:437,1
DA:438,1
DA:439,1
DA:440,1
DA:441,1
DA:442,1
DA:444,0
DA:445,0
DA:446,0
DA:447,0
DA:448,0
DA:449,0
DA:450,0
DA:451,0
DA:452,0
DA:453,0
DA:455,0
DA:456,0
DA:457,0
DA:459,0
DA:460,0
DA:461,0
DA:462,0
DA:463,0
DA:465,0
DA:466,0
DA:467,0
DA:468,0
DA:469,0
DA:470,0
DA:471,0
DA:472,0
DA:473,0
DA:474,0
DA:476,0
DA:477,0
DA:478,0
DA:480,1
DA:481,1
DA:485,22
DA:486,22
DA:487,22
DA:488,22
DA:490,22
DA:491,22
DA:492,4
DA:493,4
DA:494,22
DA:495,22
DA:496,22
DA:497,22
DA:498,22
DA:499,22
DA:501,22
DA:502,22
DA:504,22
DA:505,22
DA:506,22
DA:508,22
DA:509,22
DA:511,2
DA:512,2
DA:513,2
DA:515,2
DA:516,2
DA:517,2
DA:519,1
DA:520,1
DA:521,1
DA:522,1
DA:523,1
DA:524,1
DA:525,1
DA:526,1
DA:527,1
DA:528,1
DA:530,1
DA:531,1
DA:532,1
DA:533,1
DA:535,1
DA:536,1
DA:537,1
DA:539,1
DA:540,1
DA:541,1
DA:542,1
DA:544,8
DA:545,8
DA:546,8
DA:547,8
DA:548,8
DA:549,8
DA:550,8
DA:551,8
DA:552,0
DA:553,8
DA:554,8
DA:555,0
DA:556,8
DA:558,8
DA:559,8
DA:560,8
DA:562,8
DA:563,8
DA:564,0
DA:565,0
DA:566,8
DA:567,8
DA:568,8
DA:569,8
DA:570,8
DA:571,8
DA:572,8
DA:573,8
DA:575,8
DA:576,8
DA:577,8
DA:579,8
DA:580,8
DA:581,8
DA:583,8
DA:584,8
DA:586,1
DA:587,1
DA:588,1
DA:590,0
DA:591,0
DA:592,0
DA:594,0
DA:595,0
DA:596,0
DA:598,0
DA:599,0
DA:600,0
DA:601,0
DA:603,1
DA:604,1
DA:605,1
DA:607,0
DA:608,0
DA:609,0
DA:611,0
DA:612,0
DA:613,0
DA:615,1
DA:616,1
DA:617,1
DA:619,1
DA:620,1
DA:622,1
DA:623,1
DA:624,1
DA:626,1
DA:627,1
DA:629,0
DA:630,0
DA:631,0
DA:633,0
DA:634,0
DA:635,0
DA:637,2
DA:638,2
DA:639,2
DA:648,1
DA:649,1
DA:650,1
DA:652,1
DA:653,1
DA:654,1
DA:655,1
DA:658,1
DA:659,1
DA:660,1
DA:662,1
DA:663,1
DA:665,1
DA:666,1
DA:667,1
DA:668,1
DA:671,1
DA:672,1
DA:673,1
DA:675,1
DA:676,1
DA:677,1
DA:678,1
DA:679,1
DA:680,1
DA:681,1
DA:682,1
DA:683,1
DA:684,1
DA:686,1
DA:687,1
DA:688,1
DA:689,1
DA:690,1
DA:693,1
DA:694,1
DA:695,1
DA:697,1
DA:698,1
DA:700,1
DA:701,1
DA:702,1
DA:704,1
DA:705,1
DA:706,1
DA:709,1
DA:710,1
DA:711,1
DA:713,1
DA:714,1
DA:715,1
DA:716,1
DA:717,1
DA:719,1
DA:721,1
DA:722,1
DA:723,1
DA:726,1
DA:727,1
DA:728,1
DA:730,1
DA:731,1
DA:732,1
DA:734,1
DA:735,1
DA:736,1
DA:738,1
DA:739,1
DA:740,1
DA:741,1
DA:743,1
DA:746,1
DA:747,1
DA:748,1
DA:750,1
DA:751,1
DA:752,1
DA:754,1
DA:755,1
DA:757,1
DA:758,1
DA:759,1
DA:762,1
DA:763,1
DA:764,1
DA:766,1
DA:767,1
DA:768,1
DA:770,1
DA:771,1
DA:772,1
DA:773,1
DA:774,1
DA:775,1
DA:777,1
DA:778,1
DA:779,1
DA:782,1
DA:783,1
DA:784,1
DA:786,1
DA:787,1
DA:788,1
DA:790,1
DA:791,1
DA:793,1
DA:794,3
DA:795,3
DA:796,3
DA:797,3
DA:799,1
DA:800,1
DA:801,1
DA:802,1
DA:805,1
DA:806,1
DA:807,1
DA:809,1
DA:810,1
DA:811,1
DA:813,1
DA:814,1
DA:816,1
DA:817,3
DA:818,3
DA:819,3
DA:820,3
DA:822,1
DA:823,1
DA:824,1
DA:825,1
DA:828,1
DA:829,1
DA:830,1
DA:832,1
DA:833,1
DA:834,1
DA:837,1
DA:838,1
DA:839,1
DA:841,1
DA:842,1
DA:844,1
DA:845,1
BRF:0
BRH:0
LF:615
LH:496
end_of_record
SF:/home/openclaw/dev/yinglichina8848/sqlrustgo/crates/graph/src/store/edge_store.rs
FN:61,_RNvMNtNtCshHW17pKFbCA_15sqlrustgo_graph5store10edge_storeNtB2_9EdgeStore12get_incoming
FN:53,_RNvMNtNtCshHW17pKFbCA_15sqlrustgo_graph5store10edge_storeNtB2_9EdgeStore12get_outgoing
FN:48,_RNvMNtNtCshHW17pKFbCA_15sqlrustgo_graph5store10edge_storeNtB2_9EdgeStore3get
FN:69,_RNvMNtNtCshHW17pKFbCA_15sqlrustgo_graph5store10edge_storeNtB2_9EdgeStore3ids
FN:74,_RNvMNtNtCshHW17pKFbCA_15sqlrustgo_graph5store10edge_storeNtB2_9EdgeStore3len
FN:18,_RNvMNtNtCshHW17pKFbCA_15sqlrustgo_graph5store10edge_storeNtB2_9EdgeStore3new
FN:27,_RNvMNtNtCshHW17pKFbCA_15sqlrustgo_graph5store10edge_storeNtB2_9EdgeStore6insert
FN:89,_RNvMNtNtCshHW17pKFbCA_15sqlrustgo_graph5store10edge_storeNtB2_9EdgeStore6remove
FN:84,_RNvMNtNtCshHW17pKFbCA_15sqlrustgo_graph5store10edge_storeNtB2_9EdgeStore8contains
FN:117,_RNvNtNtNtCshHW17pKFbCA_15sqlrustgo_graph5store10edge_store5tests16create_test_edge
FN:168,_RNvNtNtNtCshHW17pKFbCA_15sqlrustgo_graph5store10edge_store5testss_22test_edge_store_remove
FN:122,_RNvNtNtNtCshHW17pKFbCA_15sqlrustgo_graph5store10edge_store5testss_26test_edge_store_insert_get
FN:136,_RNvNtNtNtCshHW17pKFbCA_15sqlrustgo_graph5store10edge_store5testss_33test_edge_store_outgoing_incoming
FN:105,_RNvMNtNtCshHW17pKFbCA_15sqlrustgo_graph5store10edge_storeNtB2_9EdgeStore5clear
FN:79,_RNvMNtNtCshHW17pKFbCA_15sqlrustgo_graph5store10edge_storeNtB2_9EdgeStore8is_empty
FN:64,_RNCNvMNtNtCshHW17pKFbCA_15sqlrustgo_graph5store10edge_storeNtB4_9EdgeStore12get_incoming0B8_
FN:56,_RNCNvMNtNtCshHW17pKFbCA_15sqlrustgo_graph5store10edge_storeNtB4_9EdgeStore12get_outgoing0B8_
FN:49,_RNCNvMNtNtCshHW17pKFbCA_15sqlrustgo_graph5store10edge_storeNtB4_9EdgeStore3get0B8_
FN:70,_RNCNvMNtNtCshHW17pKFbCA_15sqlrustgo_graph5store10edge_storeNtB4_9EdgeStore3ids0B8_
FN:93,_RNCNvMNtNtCshHW17pKFbCA_15sqlrustgo_graph5store10edge_storeNtB4_9EdgeStore6remove0B8_
FN:96,_RNCNvMNtNtCshHW17pKFbCA_15sqlrustgo_graph5store10edge_storeNtB4_9EdgeStore6removes_0B8_
FN:61,_RNvMNtNtCskxg4ERNDwTM_15sqlrustgo_graph5store10edge_storeNtB2_9EdgeStore12get_incoming
FN:53,_RNvMNtNtCskxg4ERNDwTM_15sqlrustgo_graph5store10edge_storeNtB2_9EdgeStore12get_outgoing
FN:48,_RNvMNtNtCskxg4ERNDwTM_15sqlrustgo_graph5store10edge_storeNtB2_9EdgeStore3get
FN:69,_RNvMNtNtCskxg4ERNDwTM_15sqlrustgo_graph5store10edge_storeNtB2_9EdgeStore3ids
FN:74,_RNvMNtNtCskxg4ERNDwTM_15sqlrustgo_graph5store10edge_storeNtB2_9EdgeStore3len
FN:18,_RNvMNtNtCskxg4ERNDwTM_15sqlrustgo_graph5store10edge_storeNtB2_9EdgeStore3new
FN:105,_RNvMNtNtCskxg4ERNDwTM_15sqlrustgo_graph5store10edge_storeNtB2_9EdgeStore5clear
FN:27,_RNvMNtNtCskxg4ERNDwTM_15sqlrustgo_graph5store10edge_storeNtB2_9EdgeStore6insert
FN:89,_RNvMNtNtCskxg4ERNDwTM_15sqlrustgo_graph5store10edge_storeNtB2_9EdgeStore6remove
FN:84,_RNvMNtNtCskxg4ERNDwTM_15sqlrustgo_graph5store10edge_storeNtB2_9EdgeStore8contains
FN:79,_RNvMNtNtCskxg4ERNDwTM_15sqlrustgo_graph5store10edge_storeNtB2_9EdgeStore8is_empty
FN:64,_RNCNvMNtNtCskxg4ERNDwTM_15sqlrustgo_graph5store10edge_storeNtB4_9EdgeStore12get_incoming0B8_
FN:56,_RNCNvMNtNtCskxg4ERNDwTM_15sqlrustgo_graph5store10edge_storeNtB4_9EdgeStore12get_outgoing0B8_
FN:49,_RNCNvMNtNtCskxg4ERNDwTM_15sqlrustgo_graph5store10edge_storeNtB4_9EdgeStore3get0B8_
FN:70,_RNCNvMNtNtCskxg4ERNDwTM_15sqlrustgo_graph5store10edge_storeNtB4_9EdgeStore3ids0B8_
FN:93,_RNCNvMNtNtCskxg4ERNDwTM_15sqlrustgo_graph5store10edge_storeNtB4_9EdgeStore6remove0B8_
FN:96,_RNCNvMNtNtCskxg4ERNDwTM_15sqlrustgo_graph5store10edge_storeNtB4_9EdgeStore6removes_0B8_
FNDA:102,_RNvMNtNtCshHW17pKFbCA_15sqlrustgo_graph5store10edge_storeNtB2_9EdgeStore12get_incoming
FNDA:2,_RNvMNtNtCshHW17pKFbCA_15sqlrustgo_graph5store10edge_storeNtB2_9EdgeStore12get_outgoing
FNDA:307,_RNvMNtNtCshHW17pKFbCA_15sqlrustgo_graph5store10edge_storeNtB2_9EdgeStore3get
FNDA:8,_RNvMNtNtCshHW17pKFbCA_15sqlrustgo_graph5store10edge_storeNtB2_9EdgeStore3ids
FNDA:8,_RNvMNtNtCshHW17pKFbCA_15sqlrustgo_graph5store10edge_storeNtB2_9EdgeStore3len
FNDA:39,_RNvMNtNtCshHW17pKFbCA_15sqlrustgo_graph5store10edge_storeNtB2_9EdgeStore3new
FNDA:916,_RNvMNtNtCshHW17pKFbCA_15sqlrustgo_graph5store10edge_storeNtB2_9EdgeStore6insert
FNDA:2,_RNvMNtNtCshHW17pKFbCA_15sqlrustgo_graph5store10edge_storeNtB2_9EdgeStore6remove
FNDA:2,_RNvMNtNtCshHW17pKFbCA_15sqlrustgo_graph5store10edge_storeNtB2_9EdgeStore8contains
FNDA:5,_RNvNtNtNtCshHW17pKFbCA_15sqlrustgo_graph5store10edge_store5tests16create_test_edge
FNDA:1,_RNvNtNtNtCshHW17pKFbCA_15sqlrustgo_graph5store10edge_store5testss_22test_edge_store_remove
FNDA:1,_RNvNtNtNtCshHW17pKFbCA_15sqlrustgo_graph5store10edge_store5testss_26test_edge_store_insert_get
FNDA:1,_RNvNtNtNtCshHW17pKFbCA_15sqlrustgo_graph5store10edge_store5testss_33test_edge_store_outgoing_incoming
FNDA:0,_RNvMNtNtCshHW17pKFbCA_15sqlrustgo_graph5store10edge_storeNtB2_9EdgeStore5clear
FNDA:0,_RNvMNtNtCshHW17pKFbCA_15sqlrustgo_graph5store10edge_storeNtB2_9EdgeStore8is_empty
FNDA:5,_RNCNvMNtNtCshHW17pKFbCA_15sqlrustgo_graph5store10edge_storeNtB4_9EdgeStore12get_incoming0B8_
FNDA:2,_RNCNvMNtNtCshHW17pKFbCA_15sqlrustgo_graph5store10edge_storeNtB4_9EdgeStore12get_outgoing0B8_
FNDA:307,_RNCNvMNtNtCshHW17pKFbCA_15sqlrustgo_graph5store10edge_storeNtB4_9EdgeStore3get0B8_
FNDA:11,_RNCNvMNtNtCshHW17pKFbCA_15sqlrustgo_graph5store10edge_storeNtB4_9EdgeStore3ids0B8_
FNDA:2,_RNCNvMNtNtCshHW17pKFbCA_15sqlrustgo_graph5store10edge_storeNtB4_9EdgeStore6remove0B8_
FNDA:2,_RNCNvMNtNtCshHW17pKFbCA_15sqlrustgo_graph5store10edge_storeNtB4_9EdgeStore6removes_0B8_
FNDA:0,_RNvMNtNtCskxg4ERNDwTM_15sqlrustgo_graph5store10edge_storeNtB2_9EdgeStore12get_incoming
FNDA:0,_RNvMNtNtCskxg4ERNDwTM_15sqlrustgo_graph5store10edge_storeNtB2_9EdgeStore12get_outgoing
FNDA:0,_RNvMNtNtCskxg4ERNDwTM_15sqlrustgo_graph5store10edge_storeNtB2_9EdgeStore3get
FNDA:0,_RNvMNtNtCskxg4ERNDwTM_15sqlrustgo_graph5store10edge_storeNtB2_9EdgeStore3ids
FNDA:0,_RNvMNtNtCskxg4ERNDwTM_15sqlrustgo_graph5store10edge_storeNtB2_9EdgeStore3len
FNDA:0,_RNvMNtNtCskxg4ERNDwTM_15sqlrustgo_graph5store10edge_storeNtB2_9EdgeStore3new
FNDA:0,_RNvMNtNtCskxg4ERNDwTM_15sqlrustgo_graph5store10edge_storeNtB2_9EdgeStore5clear
FNDA:0,_RNvMNtNtCskxg4ERNDwTM_15sqlrustgo_graph5store10edge_storeNtB2_9EdgeStore6insert
FNDA:0,_RNvMNtNtCskxg4ERNDwTM_15sqlrustgo_graph5store10edge_storeNtB2_9EdgeStore6remove
FNDA:0,_RNvMNtNtCskxg4ERNDwTM_15sqlrustgo_graph5store10edge_storeNtB2_9EdgeStore8contains
FNDA:0,_RNvMNtNtCskxg4ERNDwTM_15sqlrustgo_graph5store10edge_storeNtB2_9EdgeStore8is_empty
FNDA:0,_RNCNvMNtNtCskxg4ERNDwTM_15sqlrustgo_graph5store10edge_storeNtB4_9EdgeStore12get_incoming0B8_
FNDA:0,_RNCNvMNtNtCskxg4ERNDwTM_15sqlrustgo_graph5store10edge_storeNtB4_9EdgeStore12get_outgoing0B8_
FNDA:0,_RNCNvMNtNtCskxg4ERNDwTM_15sqlrustgo_graph5store10edge_storeNtB4_9EdgeStore3get0B8_
FNDA:0,_RNCNvMNtNtCskxg4ERNDwTM_15sqlrustgo_graph5store10edge_storeNtB4_9EdgeStore3ids0B8_
FNDA:0,_RNCNvMNtNtCskxg4ERNDwTM_15sqlrustgo_graph5store10edge_storeNtB4_9EdgeStore6remove0B8_
FNDA:0,_RNCNvMNtNtCskxg4ERNDwTM_15sqlrustgo_graph5store10edge_storeNtB4_9EdgeStore6removes_0B8_
FNF:21
FNH:19
DA:18,39
DA:19,39
DA:20,39
DA:21,39
DA:22,39
DA:23,39
DA:24,39
DA:27,916
DA:28,916
DA:29,916
DA:30,916
DA:32,916
DA:35,916
DA:36,916
DA:37,916
DA:38,916
DA:41,916
DA:42,916
DA:43,916
DA:44,916
DA:45,916
DA:48,307
DA:49,307
DA:50,307
DA:53,2
DA:54,2
DA:55,2
DA:56,2
DA:57,2
DA:58,2
DA:61,102
DA:62,102
DA:63,102
DA:64,102
DA:65,102
DA:66,102
DA:69,8
DA:70,11
DA:71,8
DA:74,8
DA:75,8
DA:76,8
DA:79,0
DA:80,0
DA:81,0
DA:84,2
DA:85,2
DA:86,2
DA:89,2
DA:90,2
DA:92,2
DA:93,2
DA:94,0
DA:95,2
DA:96,2
DA:97,0
DA:98,2
DA:100,0
DA:102,2
DA:105,0
DA:106,0
DA:107,0
DA:108,0
DA:109,0
DA:117,5
DA:118,5
DA:119,5
DA:122,1
DA:123,1
DA:124,1
DA:126,1
DA:128,1
DA:129,1
DA:130,1
DA:131,1
DA:132,1
DA:133,1
DA:136,1
DA:137,1
DA:138,1
DA:139,1
DA:140,1
DA:141,1
DA:142,1
DA:144,1
DA:145,1
DA:146,1
DA:147,1
DA:148,1
DA:150,1
DA:151,1
DA:152,1
DA:153,1
DA:154,1
DA:157,1
DA:158,1
DA:159,1
DA:160,1
DA:162,1
DA:163,1
DA:164,1
DA:165,1
DA:168,1
DA:169,1
DA:170,1
DA:171,1
DA:172,1
DA:173,1
DA:174,1
DA:177,1
DA:178,1
DA:179,1
DA:180,1
DA:181,1
BRF:0
BRH:0
LF:120
LH:109
end_of_record
SF:/home/openclaw/dev/yinglichina8848/sqlrustgo/crates/graph/src/store/graph_store.rs
FN:110,_RNvMNtNtCshHW17pKFbCA_15sqlrustgo_graph5store11graph_storeNtB2_18InMemoryGraphStore12next_edge_id
FN:104,_RNvMNtNtCshHW17pKFbCA_15sqlrustgo_graph5store11graph_storeNtB2_18InMemoryGraphStore12next_node_id
FN:92,_RNvMNtNtCshHW17pKFbCA_15sqlrustgo_graph5store11graph_storeNtB2_18InMemoryGraphStore3new
FN:289,_RNvXs_NtNtCshHW17pKFbCA_15sqlrustgo_graph5store11graph_storeNtB4_18InMemoryGraphStoreNtB4_10GraphStore10edge_count
FN:285,_RNvXs_NtNtCshHW17pKFbCA_15sqlrustgo_graph5store11graph_storeNtB4_18InMemoryGraphStoreNtB4_10GraphStore10node_count
FN:166,_RNvXs_NtNtCshHW17pKFbCA_15sqlrustgo_graph5store11graph_storeNtB4_18InMemoryGraphStoreNtB4_10GraphStore11create_edge
FN:118,_RNvXs_NtNtCshHW17pKFbCA_15sqlrustgo_graph5store11graph_storeNtB4_18InMemoryGraphStoreNtB4_10GraphStore11create_node
FN:203,_RNvXs_NtNtCshHW17pKFbCA_15sqlrustgo_graph5store11graph_storeNtB4_18InMemoryGraphStoreNtB4_10GraphStore11delete_edge
FN:149,_RNvXs_NtNtCshHW17pKFbCA_15sqlrustgo_graph5store11graph_storeNtB4_18InMemoryGraphStoreNtB4_10GraphStore11delete_node
FN:138,_RNvXs_NtNtCshHW17pKFbCA_15sqlrustgo_graph5store11graph_storeNtB4_18InMemoryGraphStoreNtB4_10GraphStore11update_node
FN:293,_RNvXs_NtNtCshHW17pKFbCA_15sqlrustgo_graph5store11graph_storeNtB4_18InMemoryGraphStoreNtB4_10GraphStore14label_registry
FN:131,_RNvXs_NtNtCshHW17pKFbCA_15sqlrustgo_graph5store11graph_storeNtB4_18InMemoryGraphStoreNtB4_10GraphStore14nodes_by_label
FN:218,_RNvXs_NtNtCshHW17pKFbCA_15sqlrustgo_graph5store11graph_storeNtB4_18InMemoryGraphStoreNtB4_10GraphStore18incoming_neighbors
FN:214,_RNvXs_NtNtCshHW17pKFbCA_15sqlrustgo_graph5store11graph_storeNtB4_18InMemoryGraphStoreNtB4_10GraphStore18outgoing_neighbors
FN:227,_RNvXs_NtNtCshHW17pKFbCA_15sqlrustgo_graph5store11graph_storeNtB4_18InMemoryGraphStoreNtB4_10GraphStore23neighbors_by_edge_label
FN:192,_RNvXs_NtNtCshHW17pKFbCA_15sqlrustgo_graph5store11graph_storeNtB4_18InMemoryGraphStoreNtB4_10GraphStore8get_edge
FN:127,_RNvXs_NtNtCshHW17pKFbCA_15sqlrustgo_graph5store11graph_storeNtB4_18InMemoryGraphStoreNtB4_10GraphStore8get_node
FN:199,_RNCNvXs_NtNtCshHW17pKFbCA_15sqlrustgo_graph5store11graph_storeNtB6_18InMemoryGraphStoreNtB6_10GraphStore14edges_by_label0Ba_
FN:196,_RNvXs_NtNtCshHW17pKFbCA_15sqlrustgo_graph5store11graph_storeNtB4_18InMemoryGraphStoreNtB4_10GraphStore14edges_by_label
FN:234,_RINvXs_NtNtCshHW17pKFbCA_15sqlrustgo_graph5store11graph_storeNtB5_18InMemoryGraphStoreNtB5_10GraphStore3bfsNCNvNtNtB7_16disk_graph_store5testss_18test_bfs_traversal0EB9_
FN:259,_RINvXs_NtNtCshHW17pKFbCA_15sqlrustgo_graph5store11graph_storeNtB5_18InMemoryGraphStoreNtB5_10GraphStore3dfsNCNvNtNtB7_16disk_graph_store5testss_18test_dfs_traversal0EB9_
FN:134,_RNCNvXs_NtNtCshHW17pKFbCA_15sqlrustgo_graph5store11graph_storeNtB6_18InMemoryGraphStoreNtB6_10GraphStore14nodes_by_label0Ba_
FN:222,_RNCNvXs_NtNtCshHW17pKFbCA_15sqlrustgo_graph5store11graph_storeNtB6_18InMemoryGraphStoreNtB6_10GraphStore18incoming_neighbors0Ba_
FN:230,_RNCNvXs_NtNtCshHW17pKFbCA_15sqlrustgo_graph5store11graph_storeNtB6_18InMemoryGraphStoreNtB6_10GraphStore23neighbors_by_edge_label0Ba_
FN:110,_RNvMNtNtCskxg4ERNDwTM_15sqlrustgo_graph5store11graph_storeNtB2_18InMemoryGraphStore12next_edge_id
FN:104,_RNvMNtNtCskxg4ERNDwTM_15sqlrustgo_graph5store11graph_storeNtB2_18InMemoryGraphStore12next_node_id
FN:92,_RNvMNtNtCskxg4ERNDwTM_15sqlrustgo_graph5store11graph_storeNtB2_18InMemoryGraphStore3new
FN:289,_RNvXs_NtNtCskxg4ERNDwTM_15sqlrustgo_graph5store11graph_storeNtB4_18InMemoryGraphStoreNtB4_10GraphStore10edge_count
FN:285,_RNvXs_NtNtCskxg4ERNDwTM_15sqlrustgo_graph5store11graph_storeNtB4_18InMemoryGraphStoreNtB4_10GraphStore10node_count
FN:166,_RNvXs_NtNtCskxg4ERNDwTM_15sqlrustgo_graph5store11graph_storeNtB4_18InMemoryGraphStoreNtB4_10GraphStore11create_edge
FN:118,_RNvXs_NtNtCskxg4ERNDwTM_15sqlrustgo_graph5store11graph_storeNtB4_18InMemoryGraphStoreNtB4_10GraphStore11create_node
FN:203,_RNvXs_NtNtCskxg4ERNDwTM_15sqlrustgo_graph5store11graph_storeNtB4_18InMemoryGraphStoreNtB4_10GraphStore11delete_edge
FN:149,_RNvXs_NtNtCskxg4ERNDwTM_15sqlrustgo_graph5store11graph_storeNtB4_18InMemoryGraphStoreNtB4_10GraphStore11delete_node
FN:138,_RNvXs_NtNtCskxg4ERNDwTM_15sqlrustgo_graph5store11graph_storeNtB4_18InMemoryGraphStoreNtB4_10GraphStore11update_node
FN:196,_RNvXs_NtNtCskxg4ERNDwTM_15sqlrustgo_graph5store11graph_storeNtB4_18InMemoryGraphStoreNtB4_10GraphStore14edges_by_label
FN:293,_RNvXs_NtNtCskxg4ERNDwTM_15sqlrustgo_graph5store11graph_storeNtB4_18InMemoryGraphStoreNtB4_10GraphStore14label_registry
FN:131,_RNvXs_NtNtCskxg4ERNDwTM_15sqlrustgo_graph5store11graph_storeNtB4_18InMemoryGraphStoreNtB4_10GraphStore14nodes_by_label
FN:218,_RNvXs_NtNtCskxg4ERNDwTM_15sqlrustgo_graph5store11graph_storeNtB4_18InMemoryGraphStoreNtB4_10GraphStore18incoming_neighbors
FN:214,_RNvXs_NtNtCskxg4ERNDwTM_15sqlrustgo_graph5store11graph_storeNtB4_18InMemoryGraphStoreNtB4_10GraphStore18outgoing_neighbors
FN:227,_RNvXs_NtNtCskxg4ERNDwTM_15sqlrustgo_graph5store11graph_storeNtB4_18InMemoryGraphStoreNtB4_10GraphStore23neighbors_by_edge_label
FN:192,_RNvXs_NtNtCskxg4ERNDwTM_15sqlrustgo_graph5store11graph_storeNtB4_18InMemoryGraphStoreNtB4_10GraphStore8get_edge
FN:127,_RNvXs_NtNtCskxg4ERNDwTM_15sqlrustgo_graph5store11graph_storeNtB4_18InMemoryGraphStoreNtB4_10GraphStore8get_node
FN:199,_RNCNvXs_NtNtCskxg4ERNDwTM_15sqlrustgo_graph5store11graph_storeNtB6_18InMemoryGraphStoreNtB6_10GraphStore14edges_by_label0Ba_
FN:134,_RNCNvXs_NtNtCskxg4ERNDwTM_15sqlrustgo_graph5store11graph_storeNtB6_18InMemoryGraphStoreNtB6_10GraphStore14nodes_by_label0Ba_
FN:222,_RNCNvXs_NtNtCskxg4ERNDwTM_15sqlrustgo_graph5store11graph_storeNtB6_18InMemoryGraphStoreNtB6_10GraphStore18incoming_neighbors0Ba_
FN:230,_RNCNvXs_NtNtCskxg4ERNDwTM_15sqlrustgo_graph5store11graph_storeNtB6_18InMemoryGraphStoreNtB6_10GraphStore23neighbors_by_edge_label0Ba_
FNDA:903,_RNvMNtNtCshHW17pKFbCA_15sqlrustgo_graph5store11graph_storeNtB2_18InMemoryGraphStore12next_edge_id
FNDA:346,_RNvMNtNtCshHW17pKFbCA_15sqlrustgo_graph5store11graph_storeNtB2_18InMemoryGraphStore12next_node_id
FNDA:36,_RNvMNtNtCshHW17pKFbCA_15sqlrustgo_graph5store11graph_storeNtB2_18InMemoryGraphStore3new
FNDA:8,_RNvXs_NtNtCshHW17pKFbCA_15sqlrustgo_graph5store11graph_storeNtB4_18InMemoryGraphStoreNtB4_10GraphStore10edge_count
FNDA:26,_RNvXs_NtNtCshHW17pKFbCA_15sqlrustgo_graph5store11graph_storeNtB4_18InMemoryGraphStoreNtB4_10GraphStore10node_count
FNDA:903,_RNvXs_NtNtCshHW17pKFbCA_15sqlrustgo_graph5store11graph_storeNtB4_18InMemoryGraphStoreNtB4_10GraphStore11create_edge
FNDA:346,_RNvXs_NtNtCshHW17pKFbCA_15sqlrustgo_graph5store11graph_storeNtB4_18InMemoryGraphStoreNtB4_10GraphStore11create_node
FNDA:1,_RNvXs_NtNtCshHW17pKFbCA_15sqlrustgo_graph5store11graph_storeNtB4_18InMemoryGraphStoreNtB4_10GraphStore11delete_edge
FNDA:1,_RNvXs_NtNtCshHW17pKFbCA_15sqlrustgo_graph5store11graph_storeNtB4_18InMemoryGraphStoreNtB4_10GraphStore11delete_node
FNDA:1,_RNvXs_NtNtCshHW17pKFbCA_15sqlrustgo_graph5store11graph_storeNtB4_18InMemoryGraphStoreNtB4_10GraphStore11update_node
FNDA:2,_RNvXs_NtNtCshHW17pKFbCA_15sqlrustgo_graph5store11graph_storeNtB4_18InMemoryGraphStoreNtB4_10GraphStore14label_registry
FNDA:4,_RNvXs_NtNtCshHW17pKFbCA_15sqlrustgo_graph5store11graph_storeNtB4_18InMemoryGraphStoreNtB4_10GraphStore14nodes_by_label
FNDA:100,_RNvXs_NtNtCshHW17pKFbCA_15sqlrustgo_graph5store11graph_storeNtB4_18InMemoryGraphStoreNtB4_10GraphStore18incoming_neighbors
FNDA:207,_RNvXs_NtNtCshHW17pKFbCA_15sqlrustgo_graph5store11graph_storeNtB4_18InMemoryGraphStoreNtB4_10GraphStore18outgoing_neighbors
FNDA:0,_RNvXs_NtNtCshHW17pKFbCA_15sqlrustgo_graph5store11graph_storeNtB4_18InMemoryGraphStoreNtB4_10GraphStore23neighbors_by_edge_label
FNDA:1,_RNvXs_NtNtCshHW17pKFbCA_15sqlrustgo_graph5store11graph_storeNtB4_18InMemoryGraphStoreNtB4_10GraphStore8get_edge
FNDA:30,_RNvXs_NtNtCshHW17pKFbCA_15sqlrustgo_graph5store11graph_storeNtB4_18InMemoryGraphStoreNtB4_10GraphStore8get_node
FNDA:0,_RNCNvXs_NtNtCshHW17pKFbCA_15sqlrustgo_graph5store11graph_storeNtB6_18InMemoryGraphStoreNtB6_10GraphStore14edges_by_label0Ba_
FNDA:0,_RNvXs_NtNtCshHW17pKFbCA_15sqlrustgo_graph5store11graph_storeNtB4_18InMemoryGraphStoreNtB4_10GraphStore14edges_by_label
FNDA:1,_RINvXs_NtNtCshHW17pKFbCA_15sqlrustgo_graph5store11graph_storeNtB5_18InMemoryGraphStoreNtB5_10GraphStore3bfsNCNvNtNtB7_16disk_graph_store5testss_18test_bfs_traversal0EB9_
FNDA:1,_RINvXs_NtNtCshHW17pKFbCA_15sqlrustgo_graph5store11graph_storeNtB5_18InMemoryGraphStoreNtB5_10GraphStore3dfsNCNvNtNtB7_16disk_graph_store5testss_18test_dfs_traversal0EB9_
FNDA:3,_RNCNvXs_NtNtCshHW17pKFbCA_15sqlrustgo_graph5store11graph_storeNtB6_18InMemoryGraphStoreNtB6_10GraphStore14nodes_by_label0Ba_
FNDA:294,_RNCNvXs_NtNtCshHW17pKFbCA_15sqlrustgo_graph5store11graph_storeNtB6_18InMemoryGraphStoreNtB6_10GraphStore18incoming_neighbors0Ba_
FNDA:0,_RNCNvXs_NtNtCshHW17pKFbCA_15sqlrustgo_graph5store11graph_storeNtB6_18InMemoryGraphStoreNtB6_10GraphStore23neighbors_by_edge_label0Ba_
FNDA:0,_RNvMNtNtCskxg4ERNDwTM_15sqlrustgo_graph5store11graph_storeNtB2_18InMemoryGraphStore12next_edge_id
FNDA:0,_RNvMNtNtCskxg4ERNDwTM_15sqlrustgo_graph5store11graph_storeNtB2_18InMemoryGraphStore12next_node_id
FNDA:0,_RNvMNtNtCskxg4ERNDwTM_15sqlrustgo_graph5store11graph_storeNtB2_18InMemoryGraphStore3new
FNDA:0,_RNvXs_NtNtCskxg4ERNDwTM_15sqlrustgo_graph5store11graph_storeNtB4_18InMemoryGraphStoreNtB4_10GraphStore10edge_count
FNDA:0,_RNvXs_NtNtCskxg4ERNDwTM_15sqlrustgo_graph5store11graph_storeNtB4_18InMemoryGraphStoreNtB4_10GraphStore10node_count
FNDA:0,_RNvXs_NtNtCskxg4ERNDwTM_15sqlrustgo_graph5store11graph_storeNtB4_18InMemoryGraphStoreNtB4_10GraphStore11create_edge
FNDA:0,_RNvXs_NtNtCskxg4ERNDwTM_15sqlrustgo_graph5store11graph_storeNtB4_18InMemoryGraphStoreNtB4_10GraphStore11create_node
FNDA:0,_RNvXs_NtNtCskxg4ERNDwTM_15sqlrustgo_graph5store11graph_storeNtB4_18InMemoryGraphStoreNtB4_10GraphStore11delete_edge
FNDA:0,_RNvXs_NtNtCskxg4ERNDwTM_15sqlrustgo_graph5store11graph_storeNtB4_18InMemoryGraphStoreNtB4_10GraphStore11delete_node
FNDA:0,_RNvXs_NtNtCskxg4ERNDwTM_15sqlrustgo_graph5store11graph_storeNtB4_18InMemoryGraphStoreNtB4_10GraphStore11update_node
FNDA:0,_RNvXs_NtNtCskxg4ERNDwTM_15sqlrustgo_graph5store11graph_storeNtB4_18InMemoryGraphStoreNtB4_10GraphStore14edges_by_label
FNDA:0,_RNvXs_NtNtCskxg4ERNDwTM_15sqlrustgo_graph5store11graph_storeNtB4_18InMemoryGraphStoreNtB4_10GraphStore14label_registry
FNDA:0,_RNvXs_NtNtCskxg4ERNDwTM_15sqlrustgo_graph5store11graph_storeNtB4_18InMemoryGraphStoreNtB4_10GraphStore14nodes_by_label
FNDA:0,_RNvXs_NtNtCskxg4ERNDwTM_15sqlrustgo_graph5store11graph_storeNtB4_18InMemoryGraphStoreNtB4_10GraphStore18incoming_neighbors
FNDA:0,_RNvXs_NtNtCskxg4ERNDwTM_15sqlrustgo_graph5store11graph_storeNtB4_18InMemoryGraphStoreNtB4_10GraphStore18outgoing_neighbors
FNDA:0,_RNvXs_NtNtCskxg4ERNDwTM_15sqlrustgo_graph5store11graph_storeNtB4_18InMemoryGraphStoreNtB4_10GraphStore23neighbors_by_edge_label
FNDA:0,_RNvXs_NtNtCskxg4ERNDwTM_15sqlrustgo_graph5store11graph_storeNtB4_18InMemoryGraphStoreNtB4_10GraphStore8get_edge
FNDA:0,_RNvXs_NtNtCskxg4ERNDwTM_15sqlrustgo_graph5store11graph_storeNtB4_18InMemoryGraphStoreNtB4_10GraphStore8get_node
FNDA:0,_RNCNvXs_NtNtCskxg4ERNDwTM_15sqlrustgo_graph5store11graph_storeNtB6_18InMemoryGraphStoreNtB6_10GraphStore14edges_by_label0Ba_
FNDA:0,_RNCNvXs_NtNtCskxg4ERNDwTM_15sqlrustgo_graph5store11graph_storeNtB6_18InMemoryGraphStoreNtB6_10GraphStore14nodes_by_label0Ba_
FNDA:0,_RNCNvXs_NtNtCskxg4ERNDwTM_15sqlrustgo_graph5store11graph_storeNtB6_18InMemoryGraphStoreNtB6_10GraphStore18incoming_neighbors0Ba_
FNDA:0,_RNCNvXs_NtNtCskxg4ERNDwTM_15sqlrustgo_graph5store11graph_storeNtB6_18InMemoryGraphStoreNtB6_10GraphStore23neighbors_by_edge_label0Ba_
FNF:24
FNH:20
DA:92,36
DA:93,36
DA:94,36
DA:95,36
DA:96,36
DA:97,36
DA:98,36
DA:99,36
DA:100,36
DA:101,36
DA:102,36
DA:104,346
DA:105,346
DA:106,346
DA:107,346
DA:108,346
DA:110,903
DA:111,903
DA:112,903
DA:113,903
DA:114,903
DA:118,346
DA:119,346
DA:120,346
DA:121,346
DA:122,346
DA:123,346
DA:124,346
DA:125,346
DA:127,30
DA:128,30
DA:129,30
DA:131,4
DA:132,4
DA:133,4
DA:134,4
DA:135,4
DA:136,4
DA:138,1
DA:139,1
DA:140,1
DA:141,1
DA:142,1
DA:143,1
DA:145,0
DA:147,1
DA:149,1
DA:151,1
DA:152,1
DA:153,1
DA:154,1
DA:155,1
DA:158,1
DA:159,1
DA:160,1
DA:162,0
DA:164,1
DA:166,903
DA:167,903
DA:168,903
DA:169,903
DA:170,903
DA:171,903
DA:172,903
DA:174,903
DA:175,0
DA:176,903
DA:177,903
DA:178,0
DA:179,903
DA:181,903
DA:182,903
DA:183,903
DA:185,903
DA:186,903
DA:187,903
DA:189,903
DA:190,903
DA:192,1
DA:193,1
DA:194,1
DA:196,0
DA:197,0
DA:198,0
DA:199,0
DA:200,0
DA:201,0
DA:203,1
DA:204,1
DA:205,1
DA:206,1
DA:207,1
DA:208,1
DA:210,0
DA:212,1
DA:214,207
DA:215,207
DA:216,207
DA:218,100
DA:219,100
DA:220,100
DA:221,100
DA:222,294
DA:223,100
DA:224,100
DA:225,100
DA:227,0
DA:228,0
DA:229,0
DA:230,0
DA:231,0
DA:232,0
DA:234,1
DA:235,1
DA:236,1
DA:239,1
DA:240,1
DA:242,1
DA:243,1
DA:245,4
DA:246,3
DA:247,0
DA:248,3
DA:250,3
DA:251,2
DA:252,2
DA:253,2
DA:254,2
DA:257,1
DA:259,1
DA:260,1
DA:261,1
DA:264,1
DA:265,1
DA:267,4
DA:268,3
DA:269,0
DA:270,3
DA:271,3
DA:273,3
DA:274,0
DA:275,3
DA:277,3
DA:278,2
DA:279,2
DA:280,2
DA:283,1
DA:285,26
DA:286,26
DA:287,26
DA:289,8
DA:290,8
DA:291,8
DA:293,2
DA:294,2
DA:295,2
BRF:0
BRH:0
LF:160
LH:138
end_of_record
SF:/home/openclaw/dev/yinglichina8848/sqlrustgo/crates/graph/src/store/label_index.rs
FN:98,_RNCNvMNtNtCshHW17pKFbCA_15sqlrustgo_graph5store11label_indexNtB4_10LabelIndex11edge_labels0B8_
FN:93,_RNCNvMNtNtCshHW17pKFbCA_15sqlrustgo_graph5store11label_indexNtB4_10LabelIndex11node_labels0B8_
FN:66,_RNCNvMNtNtCshHW17pKFbCA_15sqlrustgo_graph5store11label_indexNtB4_10LabelIndex11remove_edge0B8_
FN:36,_RNCNvMNtNtCshHW17pKFbCA_15sqlrustgo_graph5store11label_indexNtB4_10LabelIndex11remove_node0B8_
FN:74,_RNCNvMNtNtCshHW17pKFbCA_15sqlrustgo_graph5store11label_indexNtB4_10LabelIndex18get_edges_by_label0B8_
FN:44,_RNCNvMNtNtCshHW17pKFbCA_15sqlrustgo_graph5store11label_indexNtB4_10LabelIndex18get_nodes_by_label0B8_
FN:50,_RNCNvMNtNtCshHW17pKFbCA_15sqlrustgo_graph5store11label_indexNtB4_10LabelIndex19node_count_by_label0B8_
FN:80,_RNCNvMNtNtCshHW17pKFbCA_15sqlrustgo_graph5store11label_indexNtB4_10LabelIndex19edge_count_by_label0B8_
FN:79,_RNvMNtNtCshHW17pKFbCA_15sqlrustgo_graph5store11label_indexNtB2_10LabelIndex19edge_count_by_label
FN:86,_RNvMNtNtCshHW17pKFbCA_15sqlrustgo_graph5store11label_indexNtB2_10LabelIndex5clear
FN:97,_RNvMNtNtCshHW17pKFbCA_15sqlrustgo_graph5store11label_indexNtB2_10LabelIndex11edge_labels
FN:92,_RNvMNtNtCshHW17pKFbCA_15sqlrustgo_graph5store11label_indexNtB2_10LabelIndex11node_labels
FN:64,_RNvMNtNtCshHW17pKFbCA_15sqlrustgo_graph5store11label_indexNtB2_10LabelIndex11remove_edge
FN:34,_RNvMNtNtCshHW17pKFbCA_15sqlrustgo_graph5store11label_indexNtB2_10LabelIndex11remove_node
FN:71,_RNvMNtNtCshHW17pKFbCA_15sqlrustgo_graph5store11label_indexNtB2_10LabelIndex18get_edges_by_label
FN:41,_RNvMNtNtCshHW17pKFbCA_15sqlrustgo_graph5store11label_indexNtB2_10LabelIndex18get_nodes_by_label
FN:49,_RNvMNtNtCshHW17pKFbCA_15sqlrustgo_graph5store11label_indexNtB2_10LabelIndex19node_count_by_label
FN:16,_RNvMNtNtCshHW17pKFbCA_15sqlrustgo_graph5store11label_indexNtB2_10LabelIndex3new
FN:56,_RNvMNtNtCshHW17pKFbCA_15sqlrustgo_graph5store11label_indexNtB2_10LabelIndex8add_edge
FN:26,_RNvMNtNtCshHW17pKFbCA_15sqlrustgo_graph5store11label_indexNtB2_10LabelIndex8add_node
FN:138,_RNvNtNtNtCshHW17pKFbCA_15sqlrustgo_graph5store11label_index5testss_22test_label_index_edges
FN:107,_RNvNtNtNtCshHW17pKFbCA_15sqlrustgo_graph5store11label_index5testss_22test_label_index_nodes
FN:153,_RNvNtNtNtCshHW17pKFbCA_15sqlrustgo_graph5store11label_index5testss_23test_label_index_labels
FN:125,_RNvNtNtNtCshHW17pKFbCA_15sqlrustgo_graph5store11label_index5testss_28test_label_index_remove_node
FN:97,_RNvMNtNtCskxg4ERNDwTM_15sqlrustgo_graph5store11label_indexNtB2_10LabelIndex11edge_labels
FN:92,_RNvMNtNtCskxg4ERNDwTM_15sqlrustgo_graph5store11label_indexNtB2_10LabelIndex11node_labels
FN:64,_RNvMNtNtCskxg4ERNDwTM_15sqlrustgo_graph5store11label_indexNtB2_10LabelIndex11remove_edge
FN:34,_RNvMNtNtCskxg4ERNDwTM_15sqlrustgo_graph5store11label_indexNtB2_10LabelIndex11remove_node
FN:71,_RNvMNtNtCskxg4ERNDwTM_15sqlrustgo_graph5store11label_indexNtB2_10LabelIndex18get_edges_by_label
FN:41,_RNvMNtNtCskxg4ERNDwTM_15sqlrustgo_graph5store11label_indexNtB2_10LabelIndex18get_nodes_by_label
FN:79,_RNvMNtNtCskxg4ERNDwTM_15sqlrustgo_graph5store11label_indexNtB2_10LabelIndex19edge_count_by_label
FN:49,_RNvMNtNtCskxg4ERNDwTM_15sqlrustgo_graph5store11label_indexNtB2_10LabelIndex19node_count_by_label
FN:16,_RNvMNtNtCskxg4ERNDwTM_15sqlrustgo_graph5store11label_indexNtB2_10LabelIndex3new
FN:86,_RNvMNtNtCskxg4ERNDwTM_15sqlrustgo_graph5store11label_indexNtB2_10LabelIndex5clear
FN:56,_RNvMNtNtCskxg4ERNDwTM_15sqlrustgo_graph5store11label_indexNtB2_10LabelIndex8add_edge
FN:26,_RNvMNtNtCskxg4ERNDwTM_15sqlrustgo_graph5store11label_indexNtB2_10LabelIndex8add_node
FN:98,_RNCNvMNtNtCskxg4ERNDwTM_15sqlrustgo_graph5store11label_indexNtB4_10LabelIndex11edge_labels0B8_
FN:93,_RNCNvMNtNtCskxg4ERNDwTM_15sqlrustgo_graph5store11label_indexNtB4_10LabelIndex11node_labels0B8_
FN:66,_RNCNvMNtNtCskxg4ERNDwTM_15sqlrustgo_graph5store11label_indexNtB4_10LabelIndex11remove_edge0B8_
FN:36,_RNCNvMNtNtCskxg4ERNDwTM_15sqlrustgo_graph5store11label_indexNtB4_10LabelIndex11remove_node0B8_
FN:74,_RNCNvMNtNtCskxg4ERNDwTM_15sqlrustgo_graph5store11label_indexNtB4_10LabelIndex18get_edges_by_label0B8_
FN:44,_RNCNvMNtNtCskxg4ERNDwTM_15sqlrustgo_graph5store11label_indexNtB4_10LabelIndex18get_nodes_by_label0B8_
FN:80,_RNCNvMNtNtCskxg4ERNDwTM_15sqlrustgo_graph5store11label_indexNtB4_10LabelIndex19edge_count_by_label0B8_
FN:50,_RNCNvMNtNtCskxg4ERNDwTM_15sqlrustgo_graph5store11label_indexNtB4_10LabelIndex19node_count_by_label0B8_
FNDA:1,_RNCNvMNtNtCshHW17pKFbCA_15sqlrustgo_graph5store11label_indexNtB4_10LabelIndex11edge_labels0B8_
FNDA:1,_RNCNvMNtNtCshHW17pKFbCA_15sqlrustgo_graph5store11label_indexNtB4_10LabelIndex11node_labels0B8_
FNDA:1,_RNCNvMNtNtCshHW17pKFbCA_15sqlrustgo_graph5store11label_indexNtB4_10LabelIndex11remove_edge0B8_
FNDA:3,_RNCNvMNtNtCshHW17pKFbCA_15sqlrustgo_graph5store11label_indexNtB4_10LabelIndex11remove_node0B8_
FNDA:2,_RNCNvMNtNtCshHW17pKFbCA_15sqlrustgo_graph5store11label_indexNtB4_10LabelIndex18get_edges_by_label0B8_
FNDA:6,_RNCNvMNtNtCshHW17pKFbCA_15sqlrustgo_graph5store11label_indexNtB4_10LabelIndex18get_nodes_by_label0B8_
FNDA:1,_RNCNvMNtNtCshHW17pKFbCA_15sqlrustgo_graph5store11label_indexNtB4_10LabelIndex19node_count_by_label0B8_
FNDA:0,_RNCNvMNtNtCshHW17pKFbCA_15sqlrustgo_graph5store11label_indexNtB4_10LabelIndex19edge_count_by_label0B8_
FNDA:0,_RNvMNtNtCshHW17pKFbCA_15sqlrustgo_graph5store11label_indexNtB2_10LabelIndex19edge_count_by_label
FNDA:0,_RNvMNtNtCshHW17pKFbCA_15sqlrustgo_graph5store11label_indexNtB2_10LabelIndex5clear
FNDA:1,_RNvMNtNtCshHW17pKFbCA_15sqlrustgo_graph5store11label_indexNtB2_10LabelIndex11edge_labels
FNDA:1,_RNvMNtNtCshHW17pKFbCA_15sqlrustgo_graph5store11label_indexNtB2_10LabelIndex11node_labels
FNDA:1,_RNvMNtNtCshHW17pKFbCA_15sqlrustgo_graph5store11label_indexNtB2_10LabelIndex11remove_edge
FNDA:2,_RNvMNtNtCshHW17pKFbCA_15sqlrustgo_graph5store11label_indexNtB2_10LabelIndex11remove_node
FNDA:2,_RNvMNtNtCshHW17pKFbCA_15sqlrustgo_graph5store11label_indexNtB2_10LabelIndex18get_edges_by_label
FNDA:6,_RNvMNtNtCshHW17pKFbCA_15sqlrustgo_graph5store11label_indexNtB2_10LabelIndex18get_nodes_by_label
FNDA:1,_RNvMNtNtCshHW17pKFbCA_15sqlrustgo_graph5store11label_indexNtB2_10LabelIndex19node_count_by_label
FNDA:40,_RNvMNtNtCshHW17pKFbCA_15sqlrustgo_graph5store11label_indexNtB2_10LabelIndex3new
FNDA:915,_RNvMNtNtCshHW17pKFbCA_15sqlrustgo_graph5store11label_indexNtB2_10LabelIndex8add_edge
FNDA:377,_RNvMNtNtCshHW17pKFbCA_15sqlrustgo_graph5store11label_indexNtB2_10LabelIndex8add_node
FNDA:1,_RNvNtNtNtCshHW17pKFbCA_15sqlrustgo_graph5store11label_index5testss_22test_label_index_edges
FNDA:1,_RNvNtNtNtCshHW17pKFbCA_15sqlrustgo_graph5store11label_index5testss_22test_label_index_nodes
FNDA:1,_RNvNtNtNtCshHW17pKFbCA_15sqlrustgo_graph5store11label_index5testss_23test_label_index_labels
FNDA:1,_RNvNtNtNtCshHW17pKFbCA_15sqlrustgo_graph5store11label_index5testss_28test_label_index_remove_node
FNDA:0,_RNvMNtNtCskxg4ERNDwTM_15sqlrustgo_graph5store11label_indexNtB2_10LabelIndex11edge_labels
FNDA:0,_RNvMNtNtCskxg4ERNDwTM_15sqlrustgo_graph5store11label_indexNtB2_10LabelIndex11node_labels
FNDA:0,_RNvMNtNtCskxg4ERNDwTM_15sqlrustgo_graph5store11label_indexNtB2_10LabelIndex11remove_edge
FNDA:0,_RNvMNtNtCskxg4ERNDwTM_15sqlrustgo_graph5store11label_indexNtB2_10LabelIndex11remove_node
FNDA:0,_RNvMNtNtCskxg4ERNDwTM_15sqlrustgo_graph5store11label_indexNtB2_10LabelIndex18get_edges_by_label
FNDA:0,_RNvMNtNtCskxg4ERNDwTM_15sqlrustgo_graph5store11label_indexNtB2_10LabelIndex18get_nodes_by_label
FNDA:0,_RNvMNtNtCskxg4ERNDwTM_15sqlrustgo_graph5store11label_indexNtB2_10LabelIndex19edge_count_by_label
FNDA:0,_RNvMNtNtCskxg4ERNDwTM_15sqlrustgo_graph5store11label_indexNtB2_10LabelIndex19node_count_by_label
FNDA:0,_RNvMNtNtCskxg4ERNDwTM_15sqlrustgo_graph5store11label_indexNtB2_10LabelIndex3new
FNDA:0,_RNvMNtNtCskxg4ERNDwTM_15sqlrustgo_graph5store11label_indexNtB2_10LabelIndex5clear
FNDA:0,_RNvMNtNtCskxg4ERNDwTM_15sqlrustgo_graph5store11label_indexNtB2_10LabelIndex8add_edge
FNDA:0,_RNvMNtNtCskxg4ERNDwTM_15sqlrustgo_graph5store11label_indexNtB2_10LabelIndex8add_node
FNDA:0,_RNCNvMNtNtCskxg4ERNDwTM_15sqlrustgo_graph5store11label_indexNtB4_10LabelIndex11edge_labels0B8_
FNDA:0,_RNCNvMNtNtCskxg4ERNDwTM_15sqlrustgo_graph5store11label_indexNtB4_10LabelIndex11node_labels0B8_
FNDA:0,_RNCNvMNtNtCskxg4ERNDwTM_15sqlrustgo_graph5store11label_indexNtB4_10LabelIndex11remove_edge0B8_
FNDA:0,_RNCNvMNtNtCskxg4ERNDwTM_15sqlrustgo_graph5store11label_indexNtB4_10LabelIndex11remove_node0B8_
FNDA:0,_RNCNvMNtNtCskxg4ERNDwTM_15sqlrustgo_graph5store11label_indexNtB4_10LabelIndex18get_edges_by_label0B8_
FNDA:0,_RNCNvMNtNtCskxg4ERNDwTM_15sqlrustgo_graph5store11label_indexNtB4_10LabelIndex18get_nodes_by_label0B8_
FNDA:0,_RNCNvMNtNtCskxg4ERNDwTM_15sqlrustgo_graph5store11label_indexNtB4_10LabelIndex19edge_count_by_label0B8_
FNDA:0,_RNCNvMNtNtCskxg4ERNDwTM_15sqlrustgo_graph5store11label_indexNtB4_10LabelIndex19node_count_by_label0B8_
FNF:24
FNH:21
DA:16,40
DA:17,40
DA:18,40
DA:19,40
DA:20,40
DA:21,40
DA:26,377
DA:27,377
DA:28,377
DA:29,376
DA:30,376
DA:31,377
DA:34,2
DA:35,2
DA:36,3
DA:37,0
DA:38,2
DA:41,6
DA:42,6
DA:43,6
DA:44,6
DA:45,6
DA:46,6
DA:49,1
DA:50,1
DA:51,1
DA:56,915
DA:57,915
DA:58,915
DA:59,915
DA:60,915
DA:61,915
DA:64,1
DA:65,1
DA:66,1
DA:67,0
DA:68,1
DA:71,2
DA:72,2
DA:73,2
DA:74,2
DA:75,2
DA:76,2
DA:79,0
DA:80,0
DA:81,0
DA:86,0
DA:87,0
DA:88,0
DA:89,0
DA:92,1
DA:93,1
DA:94,1
DA:97,1
DA:98,1
DA:99,1
DA:107,1
DA:108,1
DA:110,1
DA:111,1
DA:112,1
DA:114,1
DA:115,1
DA:117,1
DA:118,1
DA:120,1
DA:121,1
DA:122,1
DA:125,1
DA:126,1
DA:128,1
DA:129,1
DA:130,1
DA:132,1
DA:133,1
DA:134,1
DA:135,1
DA:138,1
DA:139,1
DA:141,1
DA:142,1
DA:143,1
DA:145,1
DA:146,1
DA:148,1
DA:149,1
DA:150,1
DA:153,1
DA:154,1
DA:156,1
DA:157,1
DA:159,1
DA:160,1
DA:162,1
DA:163,1
DA:164,1
BRF:0
BRH:0
LF:104
LH:94
end_of_record
SF:/home/openclaw/dev/yinglichina8848/sqlrustgo/crates/graph/src/store/label_registry.rs
FN:56,_RNvMNtNtCshHW17pKFbCA_15sqlrustgo_graph5store14label_registryNtB2_13LabelRegistry3len
FN:52,_RNvMNtNtCshHW17pKFbCA_15sqlrustgo_graph5store14label_registryNtB2_13LabelRegistry8contains
FN:60,_RNvMNtNtCshHW17pKFbCA_15sqlrustgo_graph5store14label_registryNtB2_13LabelRegistry8is_empty
FN:48,_RNvMNtNtCshHW17pKFbCA_15sqlrustgo_graph5store14label_registryNtB2_13LabelRegistry9get_label
FN:39,_RNvMNtNtCshHW17pKFbCA_15sqlrustgo_graph5store14label_registryNtB2_13LabelRegistry15get_or_register
FN:44,_RNvMNtNtCshHW17pKFbCA_15sqlrustgo_graph5store14label_registryNtB2_13LabelRegistry3get
FN:16,_RNvMNtNtCshHW17pKFbCA_15sqlrustgo_graph5store14label_registryNtB2_13LabelRegistry3new
FN:64,_RNvMNtNtCshHW17pKFbCA_15sqlrustgo_graph5store14label_registryNtB2_13LabelRegistry4iter
FN:28,_RNvMNtNtCshHW17pKFbCA_15sqlrustgo_graph5store14label_registryNtB2_13LabelRegistry8register
FN:41,_RNCNvMNtNtCshHW17pKFbCA_15sqlrustgo_graph5store14label_registryNtB4_13LabelRegistry15get_or_register0B8_
FN:65,_RNCNvMNtNtCshHW17pKFbCA_15sqlrustgo_graph5store14label_registryNtB4_13LabelRegistry4iter0B8_
FN:39,_RNvMNtNtCskxg4ERNDwTM_15sqlrustgo_graph5store14label_registryNtB2_13LabelRegistry15get_or_register
FN:44,_RNvMNtNtCskxg4ERNDwTM_15sqlrustgo_graph5store14label_registryNtB2_13LabelRegistry3get
FN:56,_RNvMNtNtCskxg4ERNDwTM_15sqlrustgo_graph5store14label_registryNtB2_13LabelRegistry3len
FN:16,_RNvMNtNtCskxg4ERNDwTM_15sqlrustgo_graph5store14label_registryNtB2_13LabelRegistry3new
FN:64,_RNvMNtNtCskxg4ERNDwTM_15sqlrustgo_graph5store14label_registryNtB2_13LabelRegistry4iter
FN:52,_RNvMNtNtCskxg4ERNDwTM_15sqlrustgo_graph5store14label_registryNtB2_13LabelRegistry8contains
FN:60,_RNvMNtNtCskxg4ERNDwTM_15sqlrustgo_graph5store14label_registryNtB2_13LabelRegistry8is_empty
FN:28,_RNvMNtNtCskxg4ERNDwTM_15sqlrustgo_graph5store14label_registryNtB2_13LabelRegistry8register
FN:48,_RNvMNtNtCskxg4ERNDwTM_15sqlrustgo_graph5store14label_registryNtB2_13LabelRegistry9get_label
FN:41,_RNCNvMNtNtCskxg4ERNDwTM_15sqlrustgo_graph5store14label_registryNtB4_13LabelRegistry15get_or_register0B8_
FN:65,_RNCNvMNtNtCskxg4ERNDwTM_15sqlrustgo_graph5store14label_registryNtB4_13LabelRegistry4iter0B8_
FNDA:0,_RNvMNtNtCshHW17pKFbCA_15sqlrustgo_graph5store14label_registryNtB2_13LabelRegistry3len
FNDA:0,_RNvMNtNtCshHW17pKFbCA_15sqlrustgo_graph5store14label_registryNtB2_13LabelRegistry8contains
FNDA:0,_RNvMNtNtCshHW17pKFbCA_15sqlrustgo_graph5store14label_registryNtB2_13LabelRegistry8is_empty
FNDA:0,_RNvMNtNtCshHW17pKFbCA_15sqlrustgo_graph5store14label_registryNtB2_13LabelRegistry9get_label
FNDA:1279,_RNvMNtNtCshHW17pKFbCA_15sqlrustgo_graph5store14label_registryNtB2_13LabelRegistry15get_or_register
FNDA:1285,_RNvMNtNtCshHW17pKFbCA_15sqlrustgo_graph5store14label_registryNtB2_13LabelRegistry3get
FNDA:36,_RNvMNtNtCshHW17pKFbCA_15sqlrustgo_graph5store14label_registryNtB2_13LabelRegistry3new
FNDA:30,_RNvMNtNtCshHW17pKFbCA_15sqlrustgo_graph5store14label_registryNtB2_13LabelRegistry4iter
FNDA:399,_RNvMNtNtCshHW17pKFbCA_15sqlrustgo_graph5store14label_registryNtB2_13LabelRegistry8register
FNDA:39,_RNCNvMNtNtCshHW17pKFbCA_15sqlrustgo_graph5store14label_registryNtB4_13LabelRegistry15get_or_register0B8_
FNDA:332,_RNCNvMNtNtCshHW17pKFbCA_15sqlrustgo_graph5store14label_registryNtB4_13LabelRegistry4iter0B8_
FNDA:0,_RNvMNtNtCskxg4ERNDwTM_15sqlrustgo_graph5store14label_registryNtB2_13LabelRegistry15get_or_register
FNDA:0,_RNvMNtNtCskxg4ERNDwTM_15sqlrustgo_graph5store14label_registryNtB2_13LabelRegistry3get
FNDA:0,_RNvMNtNtCskxg4ERNDwTM_15sqlrustgo_graph5store14label_registryNtB2_13LabelRegistry3len
FNDA:0,_RNvMNtNtCskxg4ERNDwTM_15sqlrustgo_graph5store14label_registryNtB2_13LabelRegistry3new
FNDA:0,_RNvMNtNtCskxg4ERNDwTM_15sqlrustgo_graph5store14label_registryNtB2_13LabelRegistry4iter
FNDA:0,_RNvMNtNtCskxg4ERNDwTM_15sqlrustgo_graph5store14label_registryNtB2_13LabelRegistry8contains
FNDA:0,_RNvMNtNtCskxg4ERNDwTM_15sqlrustgo_graph5store14label_registryNtB2_13LabelRegistry8is_empty
FNDA:0,_RNvMNtNtCskxg4ERNDwTM_15sqlrustgo_graph5store14label_registryNtB2_13LabelRegistry8register
FNDA:0,_RNvMNtNtCskxg4ERNDwTM_15sqlrustgo_graph5store14label_registryNtB2_13LabelRegistry9get_label
FNDA:0,_RNCNvMNtNtCskxg4ERNDwTM_15sqlrustgo_graph5store14label_registryNtB4_13LabelRegistry15get_or_register0B8_
FNDA:0,_RNCNvMNtNtCskxg4ERNDwTM_15sqlrustgo_graph5store14label_registryNtB4_13LabelRegistry4iter0B8_
FNF:11
FNH:7
DA:16,36
DA:17,36
DA:18,36
DA:19,36
DA:20,36
DA:21,36
DA:22,360
DA:23,360
DA:24,360
DA:25,36
DA:26,36
DA:28,399
DA:29,399
DA:30,0
DA:31,399
DA:32,399
DA:33,399
DA:34,399
DA:35,399
DA:36,399
DA:37,399
DA:39,1279
DA:40,1279
DA:41,1279
DA:42,1279
DA:44,1285
DA:45,1285
DA:46,1285
DA:48,0
DA:49,0
DA:50,0
DA:52,0
DA:53,0
DA:54,0
DA:56,0
DA:57,0
DA:58,0
DA:60,0
DA:61,0
DA:62,0
DA:64,30
DA:65,332
DA:66,30
BRF:0
BRH:0
LF:45
LH:32
end_of_record
SF:/home/openclaw/dev/yinglichina8848/sqlrustgo/crates/graph/src/store/node_store.rs
FN:44,_RNCNvMNtNtCshHW17pKFbCA_15sqlrustgo_graph5store10node_storeNtB4_9NodeStore12get_by_label0B8_
FN:37,_RNCNvMNtNtCshHW17pKFbCA_15sqlrustgo_graph5store10node_storeNtB4_9NodeStore3get0B8_
FN:50,_RNCNvMNtNtCshHW17pKFbCA_15sqlrustgo_graph5store10node_storeNtB4_9NodeStore3ids0B8_
FN:73,_RNCNvMNtNtCshHW17pKFbCA_15sqlrustgo_graph5store10node_storeNtB4_9NodeStore6remove0B8_
FN:41,_RNvMNtNtCshHW17pKFbCA_15sqlrustgo_graph5store10node_storeNtB2_9NodeStore12get_by_label
FN:36,_RNvMNtNtCshHW17pKFbCA_15sqlrustgo_graph5store10node_storeNtB2_9NodeStore3get
FN:49,_RNvMNtNtCshHW17pKFbCA_15sqlrustgo_graph5store10node_storeNtB2_9NodeStore3ids
FN:54,_RNvMNtNtCshHW17pKFbCA_15sqlrustgo_graph5store10node_storeNtB2_9NodeStore3len
FN:16,_RNvMNtNtCshHW17pKFbCA_15sqlrustgo_graph5store10node_storeNtB2_9NodeStore3new
FN:24,_RNvMNtNtCshHW17pKFbCA_15sqlrustgo_graph5store10node_storeNtB2_9NodeStore6insert
FN:69,_RNvMNtNtCshHW17pKFbCA_15sqlrustgo_graph5store10node_storeNtB2_9NodeStore6remove
FN:64,_RNvMNtNtCshHW17pKFbCA_15sqlrustgo_graph5store10node_storeNtB2_9NodeStore8contains
FN:82,_RNvMNtNtCshHW17pKFbCA_15sqlrustgo_graph5store10node_storeNtB2_9NodeStore5clear
FN:59,_RNvMNtNtCshHW17pKFbCA_15sqlrustgo_graph5store10node_storeNtB2_9NodeStore8is_empty
FN:92,_RNvNtNtNtCshHW17pKFbCA_15sqlrustgo_graph5store10node_store5tests16create_test_node
FN:133,_RNvNtNtNtCshHW17pKFbCA_15sqlrustgo_graph5store10node_store5testss_22test_node_store_remove
FN:99,_RNvNtNtNtCshHW17pKFbCA_15sqlrustgo_graph5store10node_store5testss_26test_node_store_insert_get
FN:119,_RNvNtNtNtCshHW17pKFbCA_15sqlrustgo_graph5store10node_store5testss_28test_node_store_get_by_label
FN:41,_RNvMNtNtCskxg4ERNDwTM_15sqlrustgo_graph5store10node_storeNtB2_9NodeStore12get_by_label
FN:36,_RNvMNtNtCskxg4ERNDwTM_15sqlrustgo_graph5store10node_storeNtB2_9NodeStore3get
FN:49,_RNvMNtNtCskxg4ERNDwTM_15sqlrustgo_graph5store10node_storeNtB2_9NodeStore3ids
FN:54,_RNvMNtNtCskxg4ERNDwTM_15sqlrustgo_graph5store10node_storeNtB2_9NodeStore3len
FN:16,_RNvMNtNtCskxg4ERNDwTM_15sqlrustgo_graph5store10node_storeNtB2_9NodeStore3new
FN:82,_RNvMNtNtCskxg4ERNDwTM_15sqlrustgo_graph5store10node_storeNtB2_9NodeStore5clear
FN:24,_RNvMNtNtCskxg4ERNDwTM_15sqlrustgo_graph5store10node_storeNtB2_9NodeStore6insert
FN:69,_RNvMNtNtCskxg4ERNDwTM_15sqlrustgo_graph5store10node_storeNtB2_9NodeStore6remove
FN:64,_RNvMNtNtCskxg4ERNDwTM_15sqlrustgo_graph5store10node_storeNtB2_9NodeStore8contains
FN:59,_RNvMNtNtCskxg4ERNDwTM_15sqlrustgo_graph5store10node_storeNtB2_9NodeStore8is_empty
FN:44,_RNCNvMNtNtCskxg4ERNDwTM_15sqlrustgo_graph5store10node_storeNtB4_9NodeStore12get_by_label0B8_
FN:37,_RNCNvMNtNtCskxg4ERNDwTM_15sqlrustgo_graph5store10node_storeNtB4_9NodeStore3get0B8_
FN:50,_RNCNvMNtNtCskxg4ERNDwTM_15sqlrustgo_graph5store10node_storeNtB4_9NodeStore3ids0B8_
FN:73,_RNCNvMNtNtCskxg4ERNDwTM_15sqlrustgo_graph5store10node_storeNtB4_9NodeStore6remove0B8_
FNDA:2,_RNCNvMNtNtCshHW17pKFbCA_15sqlrustgo_graph5store10node_storeNtB4_9NodeStore12get_by_label0B8_
FNDA:71,_RNCNvMNtNtCshHW17pKFbCA_15sqlrustgo_graph5store10node_storeNtB4_9NodeStore3get0B8_
FNDA:39,_RNCNvMNtNtCshHW17pKFbCA_15sqlrustgo_graph5store10node_storeNtB4_9NodeStore3ids0B8_
FNDA:2,_RNCNvMNtNtCshHW17pKFbCA_15sqlrustgo_graph5store10node_storeNtB4_9NodeStore6remove0B8_
FNDA:2,_RNvMNtNtCshHW17pKFbCA_15sqlrustgo_graph5store10node_storeNtB2_9NodeStore12get_by_label
FNDA:71,_RNvMNtNtCshHW17pKFbCA_15sqlrustgo_graph5store10node_storeNtB2_9NodeStore3get
FNDA:24,_RNvMNtNtCshHW17pKFbCA_15sqlrustgo_graph5store10node_storeNtB2_9NodeStore3ids
FNDA:26,_RNvMNtNtCshHW17pKFbCA_15sqlrustgo_graph5store10node_storeNtB2_9NodeStore3len
FNDA:39,_RNvMNtNtCshHW17pKFbCA_15sqlrustgo_graph5store10node_storeNtB2_9NodeStore3new
FNDA:377,_RNvMNtNtCshHW17pKFbCA_15sqlrustgo_graph5store10node_storeNtB2_9NodeStore6insert
FNDA:2,_RNvMNtNtCshHW17pKFbCA_15sqlrustgo_graph5store10node_storeNtB2_9NodeStore6remove
FNDA:1824,_RNvMNtNtCshHW17pKFbCA_15sqlrustgo_graph5store10node_storeNtB2_9NodeStore8contains
FNDA:0,_RNvMNtNtCshHW17pKFbCA_15sqlrustgo_graph5store10node_storeNtB2_9NodeStore5clear
FNDA:0,_RNvMNtNtCshHW17pKFbCA_15sqlrustgo_graph5store10node_storeNtB2_9NodeStore8is_empty
FNDA:5,_RNvNtNtNtCshHW17pKFbCA_15sqlrustgo_graph5store10node_store5tests16create_test_node
FNDA:1,_RNvNtNtNtCshHW17pKFbCA_15sqlrustgo_graph5store10node_store5testss_22test_node_store_remove
FNDA:1,_RNvNtNtNtCshHW17pKFbCA_15sqlrustgo_graph5store10node_store5testss_26test_node_store_insert_get
FNDA:1,_RNvNtNtNtCshHW17pKFbCA_15sqlrustgo_graph5store10node_store5testss_28test_node_store_get_by_label
FNDA:0,_RNvMNtNtCskxg4ERNDwTM_15sqlrustgo_graph5store10node_storeNtB2_9NodeStore12get_by_label
FNDA:0,_RNvMNtNtCskxg4ERNDwTM_15sqlrustgo_graph5store10node_storeNtB2_9NodeStore3get
FNDA:0,_RNvMNtNtCskxg4ERNDwTM_15sqlrustgo_graph5store10node_storeNtB2_9NodeStore3ids
FNDA:0,_RNvMNtNtCskxg4ERNDwTM_15sqlrustgo_graph5store10node_storeNtB2_9NodeStore3len
FNDA:0,_RNvMNtNtCskxg4ERNDwTM_15sqlrustgo_graph5store10node_storeNtB2_9NodeStore3new
FNDA:0,_RNvMNtNtCskxg4ERNDwTM_15sqlrustgo_graph5store10node_storeNtB2_9NodeStore5clear
FNDA:0,_RNvMNtNtCskxg4ERNDwTM_15sqlrustgo_graph5store10node_storeNtB2_9NodeStore6insert
FNDA:0,_RNvMNtNtCskxg4ERNDwTM_15sqlrustgo_graph5store10node_storeNtB2_9NodeStore6remove
FNDA:0,_RNvMNtNtCskxg4ERNDwTM_15sqlrustgo_graph5store10node_storeNtB2_9NodeStore8contains
FNDA:0,_RNvMNtNtCskxg4ERNDwTM_15sqlrustgo_graph5store10node_storeNtB2_9NodeStore8is_empty
FNDA:0,_RNCNvMNtNtCskxg4ERNDwTM_15sqlrustgo_graph5store10node_storeNtB4_9NodeStore12get_by_label0B8_
FNDA:0,_RNCNvMNtNtCskxg4ERNDwTM_15sqlrustgo_graph5store10node_storeNtB4_9NodeStore3get0B8_
FNDA:0,_RNCNvMNtNtCskxg4ERNDwTM_15sqlrustgo_graph5store10node_storeNtB4_9NodeStore3ids0B8_
FNDA:0,_RNCNvMNtNtCskxg4ERNDwTM_15sqlrustgo_graph5store10node_storeNtB4_9NodeStore6remove0B8_
FNF:18
FNH:16
DA:16,39
DA:17,39
DA:18,39
DA:19,39
DA:20,39
DA:21,39
DA:24,377
DA:25,377
DA:26,377
DA:27,377
DA:29,377
DA:30,377
DA:31,375
DA:32,375
DA:33,377
DA:36,71
DA:37,71
DA:38,71
DA:41,2
DA:42,2
DA:43,2
DA:44,2
DA:45,2
DA:46,2
DA:49,24
DA:50,39
DA:51,24
DA:54,26
DA:55,26
DA:56,26
DA:59,0
DA:60,0
DA:61,0
DA:64,1824
DA:65,1824
DA:66,1824
DA:69,2
DA:70,2
DA:72,2
DA:73,2
DA:74,0
DA:75,2
DA:77,0
DA:79,2
DA:82,0
DA:83,0
DA:84,0
DA:85,0
DA:92,5
DA:93,5
DA:94,5
DA:95,5
DA:96,5
DA:99,1
DA:100,1
DA:101,1
DA:103,1
DA:105,1
DA:106,1
DA:107,1
DA:108,1
DA:109,1
DA:110,1
DA:111,1
DA:112,1
DA:113,1
DA:114,1
DA:116,1
DA:119,1
DA:120,1
DA:121,1
DA:122,1
DA:123,1
DA:125,1
DA:126,1
DA:128,1
DA:129,1
DA:130,1
DA:133,1
DA:134,1
DA:135,1
DA:137,1
DA:138,1
DA:139,1
DA:140,1
DA:141,1
BRF:0
BRH:0
LF:90
LH:81
end_of_record
SF:/home/openclaw/dev/yinglichina8848/sqlrustgo/crates/graph/src/traversal/bfs.rs
FN:79,_RINvNtNtCshHW17pKFbCA_15sqlrustgo_graph9traversal3bfs11bfs_collectNCNvNtB2_5testss_16test_bfs_collect0EB6_
FN:106,_RINvNtNtCshHW17pKFbCA_15sqlrustgo_graph9traversal3bfs18bfs_with_distancesNCNvNtB2_5testss_23test_bfs_with_distances0EB6_
FN:106,_RINvNtNtCshHW17pKFbCA_15sqlrustgo_graph9traversal3bfs18bfs_with_distancesNCNvNtB2_5testss_28test_bfs_path_reconstruction0EB6_
FN:144,_RNvNtNtNtCshHW17pKFbCA_15sqlrustgo_graph9traversal3bfs5testss_16test_bfs_collect
FN:207,_RNvNtNtNtCshHW17pKFbCA_15sqlrustgo_graph9traversal3bfs5testss_17test_bfs_iterator
FN:169,_RNvNtNtNtCshHW17pKFbCA_15sqlrustgo_graph9traversal3bfs5testss_23test_bfs_with_distances
FN:188,_RNvNtNtNtCshHW17pKFbCA_15sqlrustgo_graph9traversal3bfs5testss_28test_bfs_path_reconstruction
FN:18,_RNvMNtNtCshHW17pKFbCA_15sqlrustgo_graph9traversal3bfsNtB2_9BfsResult16reconstruct_path
FN:48,_RNvMs_NtNtCshHW17pKFbCA_15sqlrustgo_graph9traversal3bfsNtB4_11BfsIterator3new
FN:63,_RNvXs0_NtNtCshHW17pKFbCA_15sqlrustgo_graph9traversal3bfsNtB5_11BfsIteratorNtNtNtNtCs8nPosuWgJFh_4core4iter6traits8iterator8Iterator4next
FN:147,_RNCNvNtNtNtCshHW17pKFbCA_15sqlrustgo_graph9traversal3bfs5testss_16test_bfs_collect0B9_
FN:164,_RNCNvNtNtNtCshHW17pKFbCA_15sqlrustgo_graph9traversal3bfs5testss_16test_bfs_collects0_0B9_
FN:163,_RNCNvNtNtNtCshHW17pKFbCA_15sqlrustgo_graph9traversal3bfs5testss_16test_bfs_collects_0B9_
FN:208,_RNCNvNtNtNtCshHW17pKFbCA_15sqlrustgo_graph9traversal3bfs5testss_17test_bfs_iterator0B9_
FN:170,_RNCNvNtNtNtCshHW17pKFbCA_15sqlrustgo_graph9traversal3bfs5testss_23test_bfs_with_distances0B9_
FN:189,_RNCNvNtNtNtCshHW17pKFbCA_15sqlrustgo_graph9traversal3bfs5testss_28test_bfs_path_reconstruction0B9_
FNDA:1,_RINvNtNtCshHW17pKFbCA_15sqlrustgo_graph9traversal3bfs11bfs_collectNCNvNtB2_5testss_16test_bfs_collect0EB6_
FNDA:1,_RINvNtNtCshHW17pKFbCA_15sqlrustgo_graph9traversal3bfs18bfs_with_distancesNCNvNtB2_5testss_23test_bfs_with_distances0EB6_
FNDA:1,_RINvNtNtCshHW17pKFbCA_15sqlrustgo_graph9traversal3bfs18bfs_with_distancesNCNvNtB2_5testss_28test_bfs_path_reconstruction0EB6_
FNDA:1,_RNvNtNtNtCshHW17pKFbCA_15sqlrustgo_graph9traversal3bfs5testss_16test_bfs_collect
FNDA:1,_RNvNtNtNtCshHW17pKFbCA_15sqlrustgo_graph9traversal3bfs5testss_17test_bfs_iterator
FNDA:1,_RNvNtNtNtCshHW17pKFbCA_15sqlrustgo_graph9traversal3bfs5testss_23test_bfs_with_distances
FNDA:1,_RNvNtNtNtCshHW17pKFbCA_15sqlrustgo_graph9traversal3bfs5testss_28test_bfs_path_reconstruction
FNDA:1,_RNvMNtNtCshHW17pKFbCA_15sqlrustgo_graph9traversal3bfsNtB2_9BfsResult16reconstruct_path
FNDA:1,_RNvMs_NtNtCshHW17pKFbCA_15sqlrustgo_graph9traversal3bfsNtB4_11BfsIterator3new
FNDA:5,_RNvXs0_NtNtCshHW17pKFbCA_15sqlrustgo_graph9traversal3bfsNtB5_11BfsIteratorNtNtNtNtCs8nPosuWgJFh_4core4iter6traits8iterator8Iterator4next
FNDA:4,_RNCNvNtNtNtCshHW17pKFbCA_15sqlrustgo_graph9traversal3bfs5testss_16test_bfs_collect0B9_
FNDA:4,_RNCNvNtNtNtCshHW17pKFbCA_15sqlrustgo_graph9traversal3bfs5testss_16test_bfs_collects0_0B9_
FNDA:1,_RNCNvNtNtNtCshHW17pKFbCA_15sqlrustgo_graph9traversal3bfs5testss_16test_bfs_collects_0B9_
FNDA:4,_RNCNvNtNtNtCshHW17pKFbCA_15sqlrustgo_graph9traversal3bfs5testss_17test_bfs_iterator0B9_
FNDA:4,_RNCNvNtNtNtCshHW17pKFbCA_15sqlrustgo_graph9traversal3bfs5testss_23test_bfs_with_distances0B9_
FNDA:4,_RNCNvNtNtNtCshHW17pKFbCA_15sqlrustgo_graph9traversal3bfs5testss_28test_bfs_path_reconstruction0B9_
FNF:15
FNH:15
DA:18,1
DA:19,1
DA:20,0
DA:21,1
DA:23,1
DA:24,1
DA:26,4
DA:27,3
DA:28,3
DA:29,3
DA:30,3
DA:31,0
DA:35,1
DA:36,1
DA:37,1
DA:48,1
DA:49,1
DA:50,1
DA:52,1
DA:53,1
DA:54,1
DA:55,1
DA:56,1
DA:57,1
DA:63,5
DA:64,5
DA:66,4
DA:67,4
DA:68,3
DA:69,3
DA:70,3
DA:71,3
DA:74,4
DA:75,5
DA:79,1
DA:80,1
DA:81,1
DA:83,1
DA:84,1
DA:85,1
DA:87,1
DA:88,1
DA:90,5
DA:91,4
DA:93,4
DA:94,4
DA:95,4
DA:96,3
DA:97,3
DA:98,3
DA:102,1
DA:103,1
DA:106,2
DA:107,2
DA:108,2
DA:110,2
DA:111,2
DA:112,2
DA:113,2
DA:115,2
DA:116,2
DA:117,2
DA:119,10
DA:120,8
DA:122,8
DA:123,7
DA:124,6
DA:125,6
DA:126,6
DA:127,6
DA:128,6
DA:132,2
DA:133,2
DA:134,2
DA:135,2
DA:136,2
DA:137,2
DA:144,1
DA:147,4
DA:148,4
DA:149,1
DA:150,1
DA:151,1
DA:152,1
DA:154,4
DA:156,1
DA:157,1
DA:158,1
DA:159,1
DA:160,1
DA:162,1
DA:163,1
DA:164,4
DA:166,1
DA:169,1
DA:170,4
DA:171,4
DA:172,1
DA:173,1
DA:174,1
DA:175,1
DA:177,4
DA:179,1
DA:181,1
DA:182,1
DA:183,1
DA:184,1
DA:185,1
DA:188,1
DA:189,4
DA:190,4
DA:191,1
DA:192,1
DA:193,1
DA:194,1
DA:196,4
DA:198,1
DA:199,1
DA:201,1
DA:202,1
DA:203,1
DA:204,1
DA:207,1
DA:208,4
DA:209,4
DA:210,1
DA:211,1
DA:212,2
DA:214,4
DA:216,1
DA:217,1
DA:219,1
DA:220,1
DA:221,1
DA:222,1
DA:223,1
BRF:0
BRH:0
LF:142
LH:140
end_of_record
SF:/home/openclaw/dev/yinglichina8848/sqlrustgo/crates/graph/src/traversal/dfs.rs
FN:112,_RINvNtNtCshHW17pKFbCA_15sqlrustgo_graph9traversal3dfs11dfs_collectNCNvNtB2_5testss_16test_dfs_collect0EB6_
FN:139,_RINvNtNtCshHW17pKFbCA_15sqlrustgo_graph9traversal3dfs15dfs_with_timingNCNvNtB2_5testss_20test_dfs_with_timing0EB6_
FN:139,_RINvNtNtCshHW17pKFbCA_15sqlrustgo_graph9traversal3dfs15dfs_with_timingNCNvNtB2_5testss_28test_dfs_path_reconstruction0EB6_
FN:195,_RNCNvNtNtNtCshHW17pKFbCA_15sqlrustgo_graph9traversal3dfs5testss_16test_dfs_collect0B9_
FN:253,_RNCNvNtNtNtCshHW17pKFbCA_15sqlrustgo_graph9traversal3dfs5testss_17test_dfs_iterator0B9_
FN:213,_RNCNvNtNtNtCshHW17pKFbCA_15sqlrustgo_graph9traversal3dfs5testss_20test_dfs_with_timing0B9_
FN:234,_RNCNvNtNtNtCshHW17pKFbCA_15sqlrustgo_graph9traversal3dfs5testss_28test_dfs_path_reconstruction0B9_
FN:192,_RNvNtNtNtCshHW17pKFbCA_15sqlrustgo_graph9traversal3dfs5testss_16test_dfs_collect
FN:252,_RNvNtNtNtCshHW17pKFbCA_15sqlrustgo_graph9traversal3dfs5testss_17test_dfs_iterator
FN:212,_RNvNtNtNtCshHW17pKFbCA_15sqlrustgo_graph9traversal3dfs5testss_20test_dfs_with_timing
FN:233,_RNvNtNtNtCshHW17pKFbCA_15sqlrustgo_graph9traversal3dfs5testss_28test_dfs_path_reconstruction
FN:85,_RINvNtNtCshHW17pKFbCA_15sqlrustgo_graph9traversal3dfs21dfs_collect_recursivepEB6_
FN:92,_RINvNvNtNtCshHW17pKFbCA_15sqlrustgo_graph9traversal3dfs21dfs_collect_recursive3dfspEB8_
FN:20,_RNvMNtNtCshHW17pKFbCA_15sqlrustgo_graph9traversal3dfsNtB2_9DfsResult16reconstruct_path
FN:50,_RNvMs_NtNtCshHW17pKFbCA_15sqlrustgo_graph9traversal3dfsNtB4_11DfsIterator3new
FN:62,_RNvXs0_NtNtCshHW17pKFbCA_15sqlrustgo_graph9traversal3dfsNtB5_11DfsIteratorNtNtNtNtCs8nPosuWgJFh_4core4iter6traits8iterator8Iterator4next
FNDA:1,_RINvNtNtCshHW17pKFbCA_15sqlrustgo_graph9traversal3dfs11dfs_collectNCNvNtB2_5testss_16test_dfs_collect0EB6_
FNDA:1,_RINvNtNtCshHW17pKFbCA_15sqlrustgo_graph9traversal3dfs15dfs_with_timingNCNvNtB2_5testss_20test_dfs_with_timing0EB6_
FNDA:1,_RINvNtNtCshHW17pKFbCA_15sqlrustgo_graph9traversal3dfs15dfs_with_timingNCNvNtB2_5testss_28test_dfs_path_reconstruction0EB6_
FNDA:4,_RNCNvNtNtNtCshHW17pKFbCA_15sqlrustgo_graph9traversal3dfs5testss_16test_dfs_collect0B9_
FNDA:3,_RNCNvNtNtNtCshHW17pKFbCA_15sqlrustgo_graph9traversal3dfs5testss_17test_dfs_iterator0B9_
FNDA:3,_RNCNvNtNtNtCshHW17pKFbCA_15sqlrustgo_graph9traversal3dfs5testss_20test_dfs_with_timing0B9_
FNDA:4,_RNCNvNtNtNtCshHW17pKFbCA_15sqlrustgo_graph9traversal3dfs5testss_28test_dfs_path_reconstruction0B9_
FNDA:1,_RNvNtNtNtCshHW17pKFbCA_15sqlrustgo_graph9traversal3dfs5testss_16test_dfs_collect
FNDA:1,_RNvNtNtNtCshHW17pKFbCA_15sqlrustgo_graph9traversal3dfs5testss_17test_dfs_iterator
FNDA:1,_RNvNtNtNtCshHW17pKFbCA_15sqlrustgo_graph9traversal3dfs5testss_20test_dfs_with_timing
FNDA:1,_RNvNtNtNtCshHW17pKFbCA_15sqlrustgo_graph9traversal3dfs5testss_28test_dfs_path_reconstruction
FNDA:0,_RINvNtNtCshHW17pKFbCA_15sqlrustgo_graph9traversal3dfs21dfs_collect_recursivepEB6_
FNDA:0,_RINvNvNtNtCshHW17pKFbCA_15sqlrustgo_graph9traversal3dfs21dfs_collect_recursive3dfspEB8_
FNDA:1,_RNvMNtNtCshHW17pKFbCA_15sqlrustgo_graph9traversal3dfsNtB2_9DfsResult16reconstruct_path
FNDA:1,_RNvMs_NtNtCshHW17pKFbCA_15sqlrustgo_graph9traversal3dfsNtB4_11DfsIterator3new
FNDA:4,_RNvXs0_NtNtCshHW17pKFbCA_15sqlrustgo_graph9traversal3dfsNtB5_11DfsIteratorNtNtNtNtCs8nPosuWgJFh_4core4iter6traits8iterator8Iterator4next
FNF:15
FNH:13
DA:20,1
DA:21,1
DA:22,0
DA:23,1
DA:25,1
DA:26,1
DA:28,4
DA:29,3
DA:30,3
DA:31,3
DA:32,3
DA:33,0
DA:37,1
DA:38,1
DA:39,1
DA:50,1
DA:51,1
DA:52,1
DA:53,1
DA:54,1
DA:55,1
DA:56,1
DA:62,4
DA:63,4
DA:64,3
DA:65,0
DA:66,3
DA:67,3
DA:70,3
DA:71,3
DA:72,2
DA:73,2
DA:74,2
DA:77,3
DA:80,1
DA:81,4
DA:85,0
DA:86,0
DA:87,0
DA:89,0
DA:90,0
DA:92,0
DA:93,0
DA:94,0
DA:96,0
DA:97,0
DA:98,0
DA:99,0
DA:100,0
DA:102,0
DA:103,0
DA:104,0
DA:105,0
DA:107,0
DA:108,0
DA:109,0
DA:112,1
DA:113,1
DA:114,1
DA:116,1
DA:117,1
DA:118,1
DA:120,5
DA:121,4
DA:122,0
DA:123,4
DA:124,4
DA:125,4
DA:127,4
DA:128,4
DA:129,4
DA:130,3
DA:131,3
DA:135,1
DA:136,1
DA:139,2
DA:140,2
DA:141,2
DA:143,2
DA:144,2
DA:145,2
DA:146,2
DA:147,2
DA:148,2
DA:149,2
DA:151,16
DA:152,14
DA:153,5
DA:154,9
DA:156,14
DA:158,7
DA:159,7
DA:160,7
DA:161,7
DA:163,7
DA:164,7
DA:165,7
DA:168,7
DA:171,7
DA:172,7
DA:173,5
DA:174,5
DA:175,5
DA:179,2
DA:180,2
DA:181,2
DA:182,2
DA:183,2
DA:184,2
DA:185,2
DA:192,1
DA:195,4
DA:196,4
DA:197,1
DA:198,1
DA:199,1
DA:200,1
DA:202,4
DA:204,1
DA:205,1
DA:206,1
DA:207,1
DA:208,1
DA:209,1
DA:212,1
DA:213,3
DA:214,3
DA:215,1
DA:216,1
DA:217,1
DA:219,3
DA:221,1
DA:223,1
DA:224,1
DA:225,1
DA:226,1
DA:229,1
DA:230,1
DA:233,1
DA:234,4
DA:235,4
DA:236,1
DA:237,1
DA:238,1
DA:239,1
DA:241,4
DA:243,1
DA:244,1
DA:246,1
DA:247,1
DA:248,1
DA:249,1
DA:252,1
DA:253,3
DA:254,3
DA:255,1
DA:256,1
DA:257,1
DA:258,0
DA:260,3
DA:262,1
DA:263,1
DA:265,1
DA:266,1
DA:267,1
DA:268,1
BRF:0
BRH:0
LF:170
LH:145
end_of_record
SF:/home/openclaw/dev/yinglichina8848/sqlrustgo/crates/graph/src/traversal/multi_hop.rs
FN:35,_RNCNvNtNtNtCshHW17pKFbCA_15sqlrustgo_graph9traversal9multi_hop5testss_15test_2hop_query0B9_
FN:50,_RNCNvNtNtNtCshHW17pKFbCA_15sqlrustgo_graph9traversal9multi_hop5testss_15test_3hop_query0B9_
FN:34,_RNvNtNtNtCshHW17pKFbCA_15sqlrustgo_graph9traversal9multi_hop5testss_15test_2hop_query
FN:49,_RNvNtNtNtCshHW17pKFbCA_15sqlrustgo_graph9traversal9multi_hop5testss_15test_3hop_query
FN:4,_RINvNtNtCshHW17pKFbCA_15sqlrustgo_graph9traversal9multi_hop9multi_hopNCNvNtB2_5testss_15test_2hop_query0EB6_
FN:4,_RINvNtNtCshHW17pKFbCA_15sqlrustgo_graph9traversal9multi_hop9multi_hopNCNvNtB2_5testss_15test_3hop_query0EB6_
FNDA:2,_RNCNvNtNtNtCshHW17pKFbCA_15sqlrustgo_graph9traversal9multi_hop5testss_15test_2hop_query0B9_
FNDA:4,_RNCNvNtNtNtCshHW17pKFbCA_15sqlrustgo_graph9traversal9multi_hop5testss_15test_3hop_query0B9_
FNDA:1,_RNvNtNtNtCshHW17pKFbCA_15sqlrustgo_graph9traversal9multi_hop5testss_15test_2hop_query
FNDA:1,_RNvNtNtNtCshHW17pKFbCA_15sqlrustgo_graph9traversal9multi_hop5testss_15test_3hop_query
FNDA:1,_RINvNtNtCshHW17pKFbCA_15sqlrustgo_graph9traversal9multi_hop9multi_hopNCNvNtB2_5testss_15test_2hop_query0EB6_
FNDA:1,_RINvNtNtCshHW17pKFbCA_15sqlrustgo_graph9traversal9multi_hop9multi_hopNCNvNtB2_5testss_15test_3hop_query0EB6_
FNF:5
FNH:5
DA:4,2
DA:5,2
DA:6,2
DA:8,2
DA:9,2
DA:10,2
DA:12,2
DA:13,5
DA:14,6
DA:15,6
DA:16,6
DA:17,6
DA:18,6
DA:19,6
DA:20,6
DA:23,5
DA:26,2
DA:27,2
DA:34,1
DA:35,2
DA:36,2
DA:37,1
DA:38,1
DA:39,0
DA:40,0
DA:42,2
DA:44,1
DA:45,1
DA:46,1
DA:49,1
DA:50,4
DA:51,4
DA:52,1
DA:53,1
DA:54,1
DA:55,1
DA:57,4
DA:59,1
DA:60,1
DA:61,1
BRF:0
BRH:0
LF:42
LH:40
end_of_record