SF:/home/openclaw/dev/yinglichina8848/sqlrustgo/crates/unified-storage/src/document_table.rs
FN:19,_RNvMNtCsjFilXaKtrlA_25sqlrustgo_unified_storage14document_tableNtB2_12VectorColumn3new
FN:172,_RNvMs0_NtCsjFilXaKtrlA_25sqlrustgo_unified_storage14document_tableNtB5_13DocumentTable10has_column
FN:141,_RNvMs0_NtCsjFilXaKtrlA_25sqlrustgo_unified_storage14document_tableNtB5_13DocumentTable11description
FN:167,_RNvMs0_NtCsjFilXaKtrlA_25sqlrustgo_unified_storage14document_tableNtB5_13DocumentTable11find_column
FN:136,_RNvMs0_NtCsjFilXaKtrlA_25sqlrustgo_unified_storage14document_tableNtB5_13DocumentTable11primary_key
FN:121,_RNvMs0_NtCsjFilXaKtrlA_25sqlrustgo_unified_storage14document_tableNtB5_13DocumentTable11sql_columns
FN:146,_RNvMs0_NtCsjFilXaKtrlA_25sqlrustgo_unified_storage14document_tableNtB5_13DocumentTable12column_count
FN:89,_RNvMs0_NtCsjFilXaKtrlA_25sqlrustgo_unified_storage14document_tableNtB5_13DocumentTable14add_sql_column
FN:128,_RNvMs0_NtCsjFilXaKtrlA_25sqlrustgo_unified_storage14document_tableNtB5_13DocumentTable14vector_columns
FN:151,_RNvMs0_NtCsjFilXaKtrlA_25sqlrustgo_unified_storage14document_tableNtB5_13DocumentTable16sql_column_count
FN:77,_RNvMs0_NtCsjFilXaKtrlA_25sqlrustgo_unified_storage14document_tableNtB5_13DocumentTable16with_description
FN:83,_RNvMs0_NtCsjFilXaKtrlA_25sqlrustgo_unified_storage14document_tableNtB5_13DocumentTable16with_primary_key
FN:98,_RNvMs0_NtCsjFilXaKtrlA_25sqlrustgo_unified_storage14document_tableNtB5_13DocumentTable17add_vector_column
FN:159,_RNvMs0_NtCsjFilXaKtrlA_25sqlrustgo_unified_storage14document_tableNtB5_13DocumentTable19vector_column_count
FN:67,_RNvMs0_NtCsjFilXaKtrlA_25sqlrustgo_unified_storage14document_tableNtB5_13DocumentTable3new
FN:111,_RNvMs0_NtCsjFilXaKtrlA_25sqlrustgo_unified_storage14document_tableNtB5_13DocumentTable4name
FN:116,_RNvMs0_NtCsjFilXaKtrlA_25sqlrustgo_unified_storage14document_tableNtB5_13DocumentTable7columns
FN:39,_RNvMs_NtCsjFilXaKtrlA_25sqlrustgo_unified_storage14document_tableNtB4_14DocumentColumn4name
FN:47,_RNvMs_NtCsjFilXaKtrlA_25sqlrustgo_unified_storage14document_tableNtB4_14DocumentColumn9is_vector
FN:168,_RNCNvMs0_NtCsjFilXaKtrlA_25sqlrustgo_unified_storage14document_tableNtB7_13DocumentTable11find_column0B9_
FN:124,_RNCNvMs0_NtCsjFilXaKtrlA_25sqlrustgo_unified_storage14document_tableNtB7_13DocumentTable11sql_columns0B9_
FN:129,_RNCNvMs0_NtCsjFilXaKtrlA_25sqlrustgo_unified_storage14document_tableNtB7_13DocumentTable14vector_columns0B9_
FN:154,_RNCNvMs0_NtCsjFilXaKtrlA_25sqlrustgo_unified_storage14document_tableNtB7_13DocumentTable16sql_column_count0B9_
FN:162,_RNCNvMs0_NtCsjFilXaKtrlA_25sqlrustgo_unified_storage14document_tableNtB7_13DocumentTable19vector_column_count0B9_
FN:317,_RNvNtNtCsjFilXaKtrlA_25sqlrustgo_unified_storage14document_table5testss_15test_has_column
FN:214,_RNvNtNtCsjFilXaKtrlA_25sqlrustgo_unified_storage14document_table5testss_16test_find_column
FN:282,_RNvNtNtCsjFilXaKtrlA_25sqlrustgo_unified_storage14document_table5testss_24test_vector_column_debug
FN:226,_RNvNtNtCsjFilXaKtrlA_25sqlrustgo_unified_storage14document_table5testss_25test_document_column_name
FN:290,_RNvNtNtCsjFilXaKtrlA_25sqlrustgo_unified_storage14document_table5testss_26test_document_column_debug
FN:182,_RNvNtNtCsjFilXaKtrlA_25sqlrustgo_unified_storage14document_table5testss_27test_vector_column_creation
FN:244,_RNvNtNtCsjFilXaKtrlA_25sqlrustgo_unified_storage14document_table5testss_30test_document_table_get_column
FN:308,_RNvNtNtCsjFilXaKtrlA_25sqlrustgo_unified_storage14document_table5testss_33test_document_table_empty_columns
FN:190,_RNvNtNtCsjFilXaKtrlA_25sqlrustgo_unified_storage14document_table5testss_33test_document_table_mixed_columns
FN:326,_RNvNtNtCsjFilXaKtrlA_25sqlrustgo_unified_storage14document_table5testss_34test_vector_column_metric_variants
FN:256,_RNvNtNtCsjFilXaKtrlA_25sqlrustgo_unified_storage14document_table5testss_36test_document_table_sql_columns_iter
FN:301,_RNvNtNtCsjFilXaKtrlA_25sqlrustgo_unified_storage14document_table5testss_36test_document_table_with_description
FN:204,_RNvNtNtCsjFilXaKtrlA_25sqlrustgo_unified_storage14document_table5testss_36test_document_table_with_primary_key
FN:269,_RNvNtNtCsjFilXaKtrlA_25sqlrustgo_unified_storage14document_table5testss_39test_document_table_vector_columns_iter
FNDA:10,_RNvMNtCsjFilXaKtrlA_25sqlrustgo_unified_storage14document_tableNtB2_12VectorColumn3new
FNDA:2,_RNvMs0_NtCsjFilXaKtrlA_25sqlrustgo_unified_storage14document_tableNtB5_13DocumentTable10has_column
FNDA:2,_RNvMs0_NtCsjFilXaKtrlA_25sqlrustgo_unified_storage14document_tableNtB5_13DocumentTable11description
FNDA:4,_RNvMs0_NtCsjFilXaKtrlA_25sqlrustgo_unified_storage14document_tableNtB5_13DocumentTable11find_column
FNDA:1,_RNvMs0_NtCsjFilXaKtrlA_25sqlrustgo_unified_storage14document_tableNtB5_13DocumentTable11primary_key
FNDA:1,_RNvMs0_NtCsjFilXaKtrlA_25sqlrustgo_unified_storage14document_tableNtB5_13DocumentTable11sql_columns
FNDA:2,_RNvMs0_NtCsjFilXaKtrlA_25sqlrustgo_unified_storage14document_tableNtB5_13DocumentTable12column_count
FNDA:9,_RNvMs0_NtCsjFilXaKtrlA_25sqlrustgo_unified_storage14document_tableNtB5_13DocumentTable14add_sql_column
FNDA:1,_RNvMs0_NtCsjFilXaKtrlA_25sqlrustgo_unified_storage14document_tableNtB5_13DocumentTable14vector_columns
FNDA:2,_RNvMs0_NtCsjFilXaKtrlA_25sqlrustgo_unified_storage14document_tableNtB5_13DocumentTable16sql_column_count
FNDA:2,_RNvMs0_NtCsjFilXaKtrlA_25sqlrustgo_unified_storage14document_tableNtB5_13DocumentTable16with_description
FNDA:1,_RNvMs0_NtCsjFilXaKtrlA_25sqlrustgo_unified_storage14document_tableNtB5_13DocumentTable16with_primary_key
FNDA:4,_RNvMs0_NtCsjFilXaKtrlA_25sqlrustgo_unified_storage14document_tableNtB5_13DocumentTable17add_vector_column
FNDA:2,_RNvMs0_NtCsjFilXaKtrlA_25sqlrustgo_unified_storage14document_tableNtB5_13DocumentTable19vector_column_count
FNDA:9,_RNvMs0_NtCsjFilXaKtrlA_25sqlrustgo_unified_storage14document_tableNtB5_13DocumentTable3new
FNDA:1,_RNvMs0_NtCsjFilXaKtrlA_25sqlrustgo_unified_storage14document_tableNtB5_13DocumentTable4name
FNDA:1,_RNvMs0_NtCsjFilXaKtrlA_25sqlrustgo_unified_storage14document_tableNtB5_13DocumentTable7columns
FNDA:10,_RNvMs_NtCsjFilXaKtrlA_25sqlrustgo_unified_storage14document_tableNtB4_14DocumentColumn4name
FNDA:3,_RNvMs_NtCsjFilXaKtrlA_25sqlrustgo_unified_storage14document_tableNtB4_14DocumentColumn9is_vector
FNDA:4,_RNCNvMs0_NtCsjFilXaKtrlA_25sqlrustgo_unified_storage14document_tableNtB7_13DocumentTable11find_column0B9_
FNDA:3,_RNCNvMs0_NtCsjFilXaKtrlA_25sqlrustgo_unified_storage14document_tableNtB7_13DocumentTable11sql_columns0B9_
FNDA:3,_RNCNvMs0_NtCsjFilXaKtrlA_25sqlrustgo_unified_storage14document_tableNtB7_13DocumentTable14vector_columns0B9_
FNDA:3,_RNCNvMs0_NtCsjFilXaKtrlA_25sqlrustgo_unified_storage14document_tableNtB7_13DocumentTable16sql_column_count0B9_
FNDA:3,_RNCNvMs0_NtCsjFilXaKtrlA_25sqlrustgo_unified_storage14document_tableNtB7_13DocumentTable19vector_column_count0B9_
FNDA:1,_RNvNtNtCsjFilXaKtrlA_25sqlrustgo_unified_storage14document_table5testss_15test_has_column
FNDA:1,_RNvNtNtCsjFilXaKtrlA_25sqlrustgo_unified_storage14document_table5testss_16test_find_column
FNDA:1,_RNvNtNtCsjFilXaKtrlA_25sqlrustgo_unified_storage14document_table5testss_24test_vector_column_debug
FNDA:1,_RNvNtNtCsjFilXaKtrlA_25sqlrustgo_unified_storage14document_table5testss_25test_document_column_name
FNDA:1,_RNvNtNtCsjFilXaKtrlA_25sqlrustgo_unified_storage14document_table5testss_26test_document_column_debug
FNDA:1,_RNvNtNtCsjFilXaKtrlA_25sqlrustgo_unified_storage14document_table5testss_27test_vector_column_creation
FNDA:1,_RNvNtNtCsjFilXaKtrlA_25sqlrustgo_unified_storage14document_table5testss_30test_document_table_get_column
FNDA:1,_RNvNtNtCsjFilXaKtrlA_25sqlrustgo_unified_storage14document_table5testss_33test_document_table_empty_columns
FNDA:1,_RNvNtNtCsjFilXaKtrlA_25sqlrustgo_unified_storage14document_table5testss_33test_document_table_mixed_columns
FNDA:1,_RNvNtNtCsjFilXaKtrlA_25sqlrustgo_unified_storage14document_table5testss_34test_vector_column_metric_variants
FNDA:1,_RNvNtNtCsjFilXaKtrlA_25sqlrustgo_unified_storage14document_table5testss_36test_document_table_sql_columns_iter
FNDA:1,_RNvNtNtCsjFilXaKtrlA_25sqlrustgo_unified_storage14document_table5testss_36test_document_table_with_description
FNDA:1,_RNvNtNtCsjFilXaKtrlA_25sqlrustgo_unified_storage14document_table5testss_36test_document_table_with_primary_key
FNDA:1,_RNvNtNtCsjFilXaKtrlA_25sqlrustgo_unified_storage14document_table5testss_39test_document_table_vector_columns_iter
FNF:38
FNH:38
DA:19,10
DA:20,10
DA:21,10
DA:22,10
DA:23,10
DA:24,10
DA:25,10
DA:39,10
DA:40,10
DA:41,9
DA:42,1
DA:44,10
DA:47,3
DA:48,3
DA:49,3
DA:67,9
DA:68,9
DA:69,9
DA:70,9
DA:71,9
DA:72,9
DA:73,9
DA:74,9
DA:77,2
DA:78,2
DA:79,2
DA:80,2
DA:83,1
DA:84,1
DA:85,1
DA:86,1
DA:89,9
DA:90,9
DA:91,9
DA:92,9
DA:93,9
DA:94,9
DA:95,9
DA:98,4
DA:99,4
DA:100,4
DA:101,4
DA:102,4
DA:103,4
DA:104,4
DA:105,4
DA:106,4
DA:107,4
DA:108,4
DA:111,1
DA:112,1
DA:113,1
DA:116,1
DA:117,1
DA:118,1
DA:121,1
DA:122,1
DA:123,1
DA:124,3
DA:125,1
DA:128,1
DA:129,3
DA:130,2
DA:131,1
DA:132,3
DA:133,1
DA:136,1
DA:137,1
DA:138,1
DA:141,2
DA:142,2
DA:143,2
DA:146,2
DA:147,2
DA:148,2
DA:151,2
DA:152,2
DA:153,2
DA:154,3
DA:155,2
DA:156,2
DA:159,2
DA:160,2
DA:161,2
DA:162,3
DA:163,2
DA:164,2
DA:167,4
DA:168,4
DA:169,4
DA:172,2
DA:173,2
DA:174,2
DA:182,1
DA:183,1
DA:184,1
DA:185,1
DA:186,1
DA:187,1
DA:190,1
DA:191,1
DA:192,1
DA:193,1
DA:194,1
DA:195,1
DA:197,1
DA:198,1
DA:199,1
DA:200,1
DA:201,1
DA:204,1
DA:205,1
DA:206,1
DA:207,1
DA:209,1
DA:210,1
DA:211,1
DA:214,1
DA:215,1
DA:216,1
DA:218,1
DA:219,1
DA:221,1
DA:222,1
DA:223,1
DA:226,1
DA:227,1
DA:228,1
DA:229,1
DA:230,1
DA:231,1
DA:232,1
DA:234,1
DA:235,1
DA:236,1
DA:237,1
DA:238,1
DA:239,1
DA:240,1
DA:241,1
DA:244,1
DA:245,1
DA:246,1
DA:247,1
DA:249,1
DA:250,1
DA:251,1
DA:252,1
DA:253,1
DA:256,1
DA:257,1
DA:258,1
DA:259,1
DA:260,1
DA:262,1
DA:263,1
DA:264,1
DA:265,1
DA:266,1
DA:269,1
DA:270,1
DA:271,1
DA:272,1
DA:273,1
DA:275,1
DA:276,1
DA:277,1
DA:278,1
DA:279,1
DA:282,1
DA:283,1
DA:284,1
DA:285,1
DA:286,1
DA:287,1
DA:290,1
DA:291,1
DA:292,1
DA:293,1
DA:294,1
DA:295,1
DA:296,1
DA:297,1
DA:298,1
DA:301,1
DA:302,1
DA:304,1
DA:305,1
DA:308,1
DA:309,1
DA:311,1
DA:312,1
DA:313,1
DA:314,1
DA:317,1
DA:318,1
DA:319,1
DA:321,1
DA:322,1
DA:323,1
DA:326,1
DA:327,1
DA:328,1
DA:329,1
DA:331,1
DA:332,1
DA:333,1
DA:334,1
BRF:0
BRH:0
LF:213
LH:213
end_of_record
SF:/home/openclaw/dev/yinglichina8848/sqlrustgo/crates/unified-storage/src/graph_link.rs
FN:198,_RNvNtNtCsjFilXaKtrlA_25sqlrustgo_unified_storage10graph_link5testss_17test_graph_schema
FN:236,_RNvNtNtCsjFilXaKtrlA_25sqlrustgo_unified_storage10graph_link5testss_19test_node_ref_debug
FN:186,_RNvNtNtCsjFilXaKtrlA_25sqlrustgo_unified_storage10graph_link5testss_19test_node_ref_types
FN:244,_RNvNtNtCsjFilXaKtrlA_25sqlrustgo_unified_storage10graph_link5testss_21test_graph_link_debug
FN:168,_RNvNtNtCsjFilXaKtrlA_25sqlrustgo_unified_storage10graph_link5testss_24test_graph_link_creation
FN:178,_RNvNtNtCsjFilXaKtrlA_25sqlrustgo_unified_storage10graph_link5testss_28test_graph_link_with_node_id
FN:212,_RNvNtNtCsjFilXaKtrlA_25sqlrustgo_unified_storage10graph_link5testss_29test_graph_link_with_node_key
FN:223,_RNvNtNtCsjFilXaKtrlA_25sqlrustgo_unified_storage10graph_link5testss_39test_graph_schema_find_links_for_column
FN:146,_RNCNvMs0_NtCsjFilXaKtrlA_25sqlrustgo_unified_storage10graph_linkNtB7_11GraphSchema20find_links_for_table0B9_
FN:159,_RNCNvMs0_NtCsjFilXaKtrlA_25sqlrustgo_unified_storage10graph_linkNtB7_11GraphSchema20table_has_graph_link0B9_
FN:154,_RNCNvMs0_NtCsjFilXaKtrlA_25sqlrustgo_unified_storage10graph_linkNtB7_11GraphSchema21find_links_for_column0B9_
FN:45,_RNvMNtCsjFilXaKtrlA_25sqlrustgo_unified_storage10graph_linkNtB2_7NodeRef11is_specific
FN:36,_RNvMNtCsjFilXaKtrlA_25sqlrustgo_unified_storage10graph_linkNtB2_7NodeRef5by_id
FN:27,_RNvMNtCsjFilXaKtrlA_25sqlrustgo_unified_storage10graph_linkNtB2_7NodeRef6by_key
FN:18,_RNvMNtCsjFilXaKtrlA_25sqlrustgo_unified_storage10graph_linkNtB2_7NodeRef8by_label
FN:143,_RNvMs0_NtCsjFilXaKtrlA_25sqlrustgo_unified_storage10graph_linkNtB5_11GraphSchema20find_links_for_table
FN:158,_RNvMs0_NtCsjFilXaKtrlA_25sqlrustgo_unified_storage10graph_linkNtB5_11GraphSchema20table_has_graph_link
FN:151,_RNvMs0_NtCsjFilXaKtrlA_25sqlrustgo_unified_storage10graph_linkNtB5_11GraphSchema21find_links_for_column
FN:127,_RNvMs0_NtCsjFilXaKtrlA_25sqlrustgo_unified_storage10graph_linkNtB5_11GraphSchema3new
FN:138,_RNvMs0_NtCsjFilXaKtrlA_25sqlrustgo_unified_storage10graph_linkNtB5_11GraphSchema5links
FN:132,_RNvMs0_NtCsjFilXaKtrlA_25sqlrustgo_unified_storage10graph_linkNtB5_11GraphSchema8add_link
FN:98,_RNvMs_NtCsjFilXaKtrlA_25sqlrustgo_unified_storage10graph_linkNtB4_9GraphLink10table_name
FN:113,_RNvMs_NtCsjFilXaKtrlA_25sqlrustgo_unified_storage10graph_linkNtB4_9GraphLink11description
FN:103,_RNvMs_NtCsjFilXaKtrlA_25sqlrustgo_unified_storage10graph_linkNtB4_9GraphLink11link_column
FN:80,_RNvMs_NtCsjFilXaKtrlA_25sqlrustgo_unified_storage10graph_linkNtB4_9GraphLink12with_node_id
FN:86,_RNvMs_NtCsjFilXaKtrlA_25sqlrustgo_unified_storage10graph_linkNtB4_9GraphLink13with_node_key
FN:92,_RNvMs_NtCsjFilXaKtrlA_25sqlrustgo_unified_storage10graph_linkNtB4_9GraphLink16with_description
FN:70,_RNvMs_NtCsjFilXaKtrlA_25sqlrustgo_unified_storage10graph_linkNtB4_9GraphLink3new
FN:108,_RNvMs_NtCsjFilXaKtrlA_25sqlrustgo_unified_storage10graph_linkNtB4_9GraphLink8node_ref
FNDA:1,_RNvNtNtCsjFilXaKtrlA_25sqlrustgo_unified_storage10graph_link5testss_17test_graph_schema
FNDA:1,_RNvNtNtCsjFilXaKtrlA_25sqlrustgo_unified_storage10graph_link5testss_19test_node_ref_debug
FNDA:1,_RNvNtNtCsjFilXaKtrlA_25sqlrustgo_unified_storage10graph_link5testss_19test_node_ref_types
FNDA:1,_RNvNtNtCsjFilXaKtrlA_25sqlrustgo_unified_storage10graph_link5testss_21test_graph_link_debug
FNDA:1,_RNvNtNtCsjFilXaKtrlA_25sqlrustgo_unified_storage10graph_link5testss_24test_graph_link_creation
FNDA:1,_RNvNtNtCsjFilXaKtrlA_25sqlrustgo_unified_storage10graph_link5testss_28test_graph_link_with_node_id
FNDA:1,_RNvNtNtCsjFilXaKtrlA_25sqlrustgo_unified_storage10graph_link5testss_29test_graph_link_with_node_key
FNDA:1,_RNvNtNtCsjFilXaKtrlA_25sqlrustgo_unified_storage10graph_link5testss_39test_graph_schema_find_links_for_column
FNDA:2,_RNCNvMs0_NtCsjFilXaKtrlA_25sqlrustgo_unified_storage10graph_linkNtB7_11GraphSchema20find_links_for_table0B9_
FNDA:3,_RNCNvMs0_NtCsjFilXaKtrlA_25sqlrustgo_unified_storage10graph_linkNtB7_11GraphSchema20table_has_graph_link0B9_
FNDA:2,_RNCNvMs0_NtCsjFilXaKtrlA_25sqlrustgo_unified_storage10graph_linkNtB7_11GraphSchema21find_links_for_column0B9_
FNDA:6,_RNvMNtCsjFilXaKtrlA_25sqlrustgo_unified_storage10graph_linkNtB2_7NodeRef11is_specific
FNDA:2,_RNvMNtCsjFilXaKtrlA_25sqlrustgo_unified_storage10graph_linkNtB2_7NodeRef5by_id
FNDA:1,_RNvMNtCsjFilXaKtrlA_25sqlrustgo_unified_storage10graph_linkNtB2_7NodeRef6by_key
FNDA:8,_RNvMNtCsjFilXaKtrlA_25sqlrustgo_unified_storage10graph_linkNtB2_7NodeRef8by_label
FNDA:1,_RNvMs0_NtCsjFilXaKtrlA_25sqlrustgo_unified_storage10graph_linkNtB5_11GraphSchema20find_links_for_table
FNDA:2,_RNvMs0_NtCsjFilXaKtrlA_25sqlrustgo_unified_storage10graph_linkNtB5_11GraphSchema20table_has_graph_link
FNDA:2,_RNvMs0_NtCsjFilXaKtrlA_25sqlrustgo_unified_storage10graph_linkNtB5_11GraphSchema21find_links_for_column
FNDA:2,_RNvMs0_NtCsjFilXaKtrlA_25sqlrustgo_unified_storage10graph_linkNtB5_11GraphSchema3new
FNDA:1,_RNvMs0_NtCsjFilXaKtrlA_25sqlrustgo_unified_storage10graph_linkNtB5_11GraphSchema5links
FNDA:3,_RNvMs0_NtCsjFilXaKtrlA_25sqlrustgo_unified_storage10graph_linkNtB5_11GraphSchema8add_link
FNDA:1,_RNvMs_NtCsjFilXaKtrlA_25sqlrustgo_unified_storage10graph_linkNtB4_9GraphLink10table_name
FNDA:1,_RNvMs_NtCsjFilXaKtrlA_25sqlrustgo_unified_storage10graph_linkNtB4_9GraphLink11description
FNDA:1,_RNvMs_NtCsjFilXaKtrlA_25sqlrustgo_unified_storage10graph_linkNtB4_9GraphLink11link_column
FNDA:1,_RNvMs_NtCsjFilXaKtrlA_25sqlrustgo_unified_storage10graph_linkNtB4_9GraphLink12with_node_id
FNDA:1,_RNvMs_NtCsjFilXaKtrlA_25sqlrustgo_unified_storage10graph_linkNtB4_9GraphLink13with_node_key
FNDA:1,_RNvMs_NtCsjFilXaKtrlA_25sqlrustgo_unified_storage10graph_linkNtB4_9GraphLink16with_description
FNDA:7,_RNvMs_NtCsjFilXaKtrlA_25sqlrustgo_unified_storage10graph_linkNtB4_9GraphLink3new
FNDA:7,_RNvMs_NtCsjFilXaKtrlA_25sqlrustgo_unified_storage10graph_linkNtB4_9GraphLink8node_ref
FNF:29
FNH:29
DA:18,8
DA:19,8
DA:20,8
DA:21,8
DA:22,8
DA:23,8
DA:24,8
DA:27,1
DA:28,1
DA:29,1
DA:30,1
DA:31,1
DA:32,1
DA:33,1
DA:36,2
DA:37,2
DA:38,2
DA:39,2
DA:40,2
DA:41,2
DA:42,2
DA:45,6
DA:46,6
DA:47,6
DA:70,7
DA:71,7
DA:72,7
DA:73,7
DA:74,7
DA:75,7
DA:76,7
DA:77,7
DA:80,1
DA:81,1
DA:82,1
DA:83,1
DA:86,1
DA:87,1
DA:88,1
DA:89,1
DA:92,1
DA:93,1
DA:94,1
DA:95,1
DA:98,1
DA:99,1
DA:100,1
DA:103,1
DA:104,1
DA:105,1
DA:108,7
DA:109,7
DA:110,7
DA:113,1
DA:114,1
DA:115,1
DA:127,2
DA:128,2
DA:129,2
DA:132,3
DA:133,3
DA:134,3
DA:135,3
DA:138,1
DA:139,1
DA:140,1
DA:143,1
DA:144,1
DA:145,1
DA:146,2
DA:147,1
DA:148,1
DA:151,2
DA:152,2
DA:153,2
DA:154,2
DA:155,2
DA:158,2
DA:159,3
DA:160,2
DA:168,1
DA:169,1
DA:171,1
DA:172,1
DA:173,1
DA:174,1
DA:175,1
DA:178,1
DA:179,1
DA:181,1
DA:182,1
DA:183,1
DA:186,1
DA:187,1
DA:188,1
DA:190,1
DA:191,1
DA:193,1
DA:194,1
DA:195,1
DA:198,1
DA:199,1
DA:200,1
DA:201,1
DA:203,1
DA:204,1
DA:205,1
DA:207,1
DA:208,1
DA:209,1
DA:212,1
DA:213,1
DA:214,1
DA:215,1
DA:217,1
DA:218,1
DA:219,1
DA:220,1
DA:223,1
DA:224,1
DA:225,1
DA:227,1
DA:228,1
DA:229,1
DA:231,1
DA:232,1
DA:233,1
DA:236,1
DA:237,1
DA:238,1
DA:239,1
DA:240,1
DA:241,1
DA:244,1
DA:245,1
DA:246,1
DA:247,1
DA:248,1
DA:249,1
BRF:0
BRH:0
LF:142
LH:142
end_of_record
SF:/home/openclaw/dev/yinglichina8848/sqlrustgo/crates/unified-storage/src/unified_index.rs
FN:282,_RNCNvMs1_NtCsjFilXaKtrlA_25sqlrustgo_unified_storage13unified_indexNtB7_12UnifiedIndex10find_by_id0B9_
FN:262,_RNCNvMs1_NtCsjFilXaKtrlA_25sqlrustgo_unified_storage13unified_indexNtB7_12UnifiedIndex11sql_indexes0B9_
FN:277,_RNCNvMs1_NtCsjFilXaKtrlA_25sqlrustgo_unified_storage13unified_indexNtB7_12UnifiedIndex12find_by_name0B9_
FN:272,_RNCNvMs1_NtCsjFilXaKtrlA_25sqlrustgo_unified_storage13unified_indexNtB7_12UnifiedIndex13graph_indexes0B9_
FN:267,_RNCNvMs1_NtCsjFilXaKtrlA_25sqlrustgo_unified_storage13unified_indexNtB7_12UnifiedIndex14vector_indexes0B9_
FN:292,_RNCNvMs1_NtCsjFilXaKtrlA_25sqlrustgo_unified_storage13unified_indexNtB7_12UnifiedIndex15has_graph_index0B9_
FN:287,_RNCNvMs1_NtCsjFilXaKtrlA_25sqlrustgo_unified_storage13unified_indexNtB7_12UnifiedIndex16has_vector_index0B9_
FN:327,_RNvNtNtCsjFilXaKtrlA_25sqlrustgo_unified_storage13unified_index5testss_16test_index_types
FN:335,_RNvNtNtCsjFilXaKtrlA_25sqlrustgo_unified_storage13unified_index5testss_21test_unified_index_id
FN:344,_RNvNtNtCsjFilXaKtrlA_25sqlrustgo_unified_storage13unified_index5testss_23test_unified_index_meta
FN:301,_RNvNtNtCsjFilXaKtrlA_25sqlrustgo_unified_storage13unified_index5testss_27test_unified_index_creation
FN:385,_RNvNtNtCsjFilXaKtrlA_25sqlrustgo_unified_storage13unified_index5testss_29test_unified_index_meta_debug
FN:361,_RNvNtNtCsjFilXaKtrlA_25sqlrustgo_unified_storage13unified_index5testss_31test_unified_index_find_methods
FN:378,_RNvNtNtCsjFilXaKtrlA_25sqlrustgo_unified_storage13unified_index5testss_31test_unified_index_type_display
FN:246,_RNvMs1_NtCsjFilXaKtrlA_25sqlrustgo_unified_storage13unified_indexNtB5_12UnifiedIndex10table_name
FN:143,_RNvMs1_NtCsjFilXaKtrlA_25sqlrustgo_unified_storage13unified_indexNtB5_12UnifiedIndex19add_composite_index
FN:206,_RNvMs1_NtCsjFilXaKtrlA_25sqlrustgo_unified_storage13unified_indexNtB5_12UnifiedIndex20add_ivf_vector_index
FN:156,_RNvMs1_NtCsjFilXaKtrlA_25sqlrustgo_unified_storage13unified_indexNtB5_12UnifiedIndex21add_flat_vector_index
FN:251,_RNvMs1_NtCsjFilXaKtrlA_25sqlrustgo_unified_storage13unified_indexNtB5_12UnifiedIndex7indexes
FN:36,_RNvMNtCsjFilXaKtrlA_25sqlrustgo_unified_storage13unified_indexNtB2_16UnifiedIndexType6is_sql
FN:44,_RNvMNtCsjFilXaKtrlA_25sqlrustgo_unified_storage13unified_indexNtB2_16UnifiedIndexType8is_graph
FN:26,_RNvMNtCsjFilXaKtrlA_25sqlrustgo_unified_storage13unified_indexNtB2_16UnifiedIndexType9is_vector
FN:92,_RNvMs0_NtCsjFilXaKtrlA_25sqlrustgo_unified_storage13unified_indexNtB5_16UnifiedIndexMeta11with_config
FN:76,_RNvMs0_NtCsjFilXaKtrlA_25sqlrustgo_unified_storage13unified_indexNtB5_16UnifiedIndexMeta3new
FN:281,_RNvMs1_NtCsjFilXaKtrlA_25sqlrustgo_unified_storage13unified_indexNtB5_12UnifiedIndex10find_by_id
FN:256,_RNvMs1_NtCsjFilXaKtrlA_25sqlrustgo_unified_storage13unified_indexNtB5_12UnifiedIndex11index_count
FN:261,_RNvMs1_NtCsjFilXaKtrlA_25sqlrustgo_unified_storage13unified_indexNtB5_12UnifiedIndex11sql_indexes
FN:276,_RNvMs1_NtCsjFilXaKtrlA_25sqlrustgo_unified_storage13unified_indexNtB5_12UnifiedIndex12find_by_name
FN:271,_RNvMs1_NtCsjFilXaKtrlA_25sqlrustgo_unified_storage13unified_indexNtB5_12UnifiedIndex13graph_indexes
FN:130,_RNvMs1_NtCsjFilXaKtrlA_25sqlrustgo_unified_storage13unified_indexNtB5_12UnifiedIndex14add_hash_index
FN:266,_RNvMs1_NtCsjFilXaKtrlA_25sqlrustgo_unified_storage13unified_indexNtB5_12UnifiedIndex14vector_indexes
FN:117,_RNvMs1_NtCsjFilXaKtrlA_25sqlrustgo_unified_storage13unified_indexNtB5_12UnifiedIndex15add_btree_index
FN:233,_RNvMs1_NtCsjFilXaKtrlA_25sqlrustgo_unified_storage13unified_indexNtB5_12UnifiedIndex15add_graph_index
FN:291,_RNvMs1_NtCsjFilXaKtrlA_25sqlrustgo_unified_storage13unified_indexNtB5_12UnifiedIndex15has_graph_index
FN:286,_RNvMs1_NtCsjFilXaKtrlA_25sqlrustgo_unified_storage13unified_indexNtB5_12UnifiedIndex16has_vector_index
FN:177,_RNvMs1_NtCsjFilXaKtrlA_25sqlrustgo_unified_storage13unified_indexNtB5_12UnifiedIndex21add_hnsw_vector_index
FN:109,_RNvMs1_NtCsjFilXaKtrlA_25sqlrustgo_unified_storage13unified_indexNtB5_12UnifiedIndex3new
FN:54,_RNvMs_NtCsjFilXaKtrlA_25sqlrustgo_unified_storage13unified_indexNtB4_14UnifiedIndexId3new
FNDA:8,_RNCNvMs1_NtCsjFilXaKtrlA_25sqlrustgo_unified_storage13unified_indexNtB7_12UnifiedIndex10find_by_id0B9_
FNDA:3,_RNCNvMs1_NtCsjFilXaKtrlA_25sqlrustgo_unified_storage13unified_indexNtB7_12UnifiedIndex11sql_indexes0B9_
FNDA:3,_RNCNvMs1_NtCsjFilXaKtrlA_25sqlrustgo_unified_storage13unified_indexNtB7_12UnifiedIndex12find_by_name0B9_
FNDA:3,_RNCNvMs1_NtCsjFilXaKtrlA_25sqlrustgo_unified_storage13unified_indexNtB7_12UnifiedIndex13graph_indexes0B9_
FNDA:3,_RNCNvMs1_NtCsjFilXaKtrlA_25sqlrustgo_unified_storage13unified_indexNtB7_12UnifiedIndex14vector_indexes0B9_
FNDA:3,_RNCNvMs1_NtCsjFilXaKtrlA_25sqlrustgo_unified_storage13unified_indexNtB7_12UnifiedIndex15has_graph_index0B9_
FNDA:2,_RNCNvMs1_NtCsjFilXaKtrlA_25sqlrustgo_unified_storage13unified_indexNtB7_12UnifiedIndex16has_vector_index0B9_
FNDA:1,_RNvNtNtCsjFilXaKtrlA_25sqlrustgo_unified_storage13unified_index5testss_16test_index_types
FNDA:1,_RNvNtNtCsjFilXaKtrlA_25sqlrustgo_unified_storage13unified_index5testss_21test_unified_index_id
FNDA:1,_RNvNtNtCsjFilXaKtrlA_25sqlrustgo_unified_storage13unified_index5testss_23test_unified_index_meta
FNDA:1,_RNvNtNtCsjFilXaKtrlA_25sqlrustgo_unified_storage13unified_index5testss_27test_unified_index_creation
FNDA:1,_RNvNtNtCsjFilXaKtrlA_25sqlrustgo_unified_storage13unified_index5testss_29test_unified_index_meta_debug
FNDA:1,_RNvNtNtCsjFilXaKtrlA_25sqlrustgo_unified_storage13unified_index5testss_31test_unified_index_find_methods
FNDA:1,_RNvNtNtCsjFilXaKtrlA_25sqlrustgo_unified_storage13unified_index5testss_31test_unified_index_type_display
FNDA:0,_RNvMs1_NtCsjFilXaKtrlA_25sqlrustgo_unified_storage13unified_indexNtB5_12UnifiedIndex10table_name
FNDA:0,_RNvMs1_NtCsjFilXaKtrlA_25sqlrustgo_unified_storage13unified_indexNtB5_12UnifiedIndex19add_composite_index
FNDA:0,_RNvMs1_NtCsjFilXaKtrlA_25sqlrustgo_unified_storage13unified_indexNtB5_12UnifiedIndex20add_ivf_vector_index
FNDA:0,_RNvMs1_NtCsjFilXaKtrlA_25sqlrustgo_unified_storage13unified_indexNtB5_12UnifiedIndex21add_flat_vector_index
FNDA:0,_RNvMs1_NtCsjFilXaKtrlA_25sqlrustgo_unified_storage13unified_indexNtB5_12UnifiedIndex7indexes
FNDA:4,_RNvMNtCsjFilXaKtrlA_25sqlrustgo_unified_storage13unified_indexNtB2_16UnifiedIndexType6is_sql
FNDA:7,_RNvMNtCsjFilXaKtrlA_25sqlrustgo_unified_storage13unified_indexNtB2_16UnifiedIndexType8is_graph
FNDA:7,_RNvMNtCsjFilXaKtrlA_25sqlrustgo_unified_storage13unified_indexNtB2_16UnifiedIndexType9is_vector
FNDA:2,_RNvMs0_NtCsjFilXaKtrlA_25sqlrustgo_unified_storage13unified_indexNtB5_16UnifiedIndexMeta11with_config
FNDA:7,_RNvMs0_NtCsjFilXaKtrlA_25sqlrustgo_unified_storage13unified_indexNtB5_16UnifiedIndexMeta3new
FNDA:5,_RNvMs1_NtCsjFilXaKtrlA_25sqlrustgo_unified_storage13unified_indexNtB5_12UnifiedIndex10find_by_id
FNDA:1,_RNvMs1_NtCsjFilXaKtrlA_25sqlrustgo_unified_storage13unified_indexNtB5_12UnifiedIndex11index_count
FNDA:1,_RNvMs1_NtCsjFilXaKtrlA_25sqlrustgo_unified_storage13unified_indexNtB5_12UnifiedIndex11sql_indexes
FNDA:2,_RNvMs1_NtCsjFilXaKtrlA_25sqlrustgo_unified_storage13unified_indexNtB5_12UnifiedIndex12find_by_name
FNDA:1,_RNvMs1_NtCsjFilXaKtrlA_25sqlrustgo_unified_storage13unified_indexNtB5_12UnifiedIndex13graph_indexes
FNDA:1,_RNvMs1_NtCsjFilXaKtrlA_25sqlrustgo_unified_storage13unified_indexNtB5_12UnifiedIndex14add_hash_index
FNDA:1,_RNvMs1_NtCsjFilXaKtrlA_25sqlrustgo_unified_storage13unified_indexNtB5_12UnifiedIndex14vector_indexes
FNDA:2,_RNvMs1_NtCsjFilXaKtrlA_25sqlrustgo_unified_storage13unified_indexNtB5_12UnifiedIndex15add_btree_index
FNDA:1,_RNvMs1_NtCsjFilXaKtrlA_25sqlrustgo_unified_storage13unified_indexNtB5_12UnifiedIndex15add_graph_index
FNDA:1,_RNvMs1_NtCsjFilXaKtrlA_25sqlrustgo_unified_storage13unified_indexNtB5_12UnifiedIndex15has_graph_index
FNDA:1,_RNvMs1_NtCsjFilXaKtrlA_25sqlrustgo_unified_storage13unified_indexNtB5_12UnifiedIndex16has_vector_index
FNDA:1,_RNvMs1_NtCsjFilXaKtrlA_25sqlrustgo_unified_storage13unified_indexNtB5_12UnifiedIndex21add_hnsw_vector_index
FNDA:2,_RNvMs1_NtCsjFilXaKtrlA_25sqlrustgo_unified_storage13unified_indexNtB5_12UnifiedIndex3new
FNDA:4,_RNvMs_NtCsjFilXaKtrlA_25sqlrustgo_unified_storage13unified_indexNtB4_14UnifiedIndexId3new
FNF:38
FNH:33
DA:26,7
DA:27,4
DA:28,7
DA:33,7
DA:36,4
DA:37,2
DA:38,4
DA:41,4
DA:44,7
DA:45,7
DA:46,7
DA:54,4
DA:55,4
DA:56,4
DA:76,7
DA:77,7
DA:78,7
DA:79,7
DA:80,7
DA:81,7
DA:82,7
DA:83,7
DA:84,7
DA:85,7
DA:86,7
DA:87,7
DA:88,7
DA:89,7
DA:92,2
DA:93,2
DA:94,2
DA:95,2
DA:109,2
DA:110,2
DA:111,2
DA:112,2
DA:113,2
DA:114,2
DA:117,2
DA:118,2
DA:119,2
DA:120,2
DA:121,2
DA:122,2
DA:123,2
DA:124,2
DA:126,2
DA:127,2
DA:130,1
DA:131,1
DA:132,1
DA:133,1
DA:134,1
DA:135,1
DA:136,1
DA:137,1
DA:139,1
DA:140,1
DA:143,0
DA:144,0
DA:145,0
DA:146,0
DA:147,0
DA:148,0
DA:149,0
DA:150,0
DA:152,0
DA:153,0
DA:156,0
DA:157,0
DA:158,0
DA:159,0
DA:160,0
DA:161,0
DA:163,0
DA:164,0
DA:165,0
DA:166,0
DA:167,0
DA:168,0
DA:169,0
DA:171,0
DA:173,0
DA:174,0
DA:177,1
DA:178,1
DA:179,1
DA:180,1
DA:181,1
DA:182,1
DA:183,1
DA:184,1
DA:185,1
DA:186,1
DA:187,1
DA:188,1
DA:189,1
DA:190,1
DA:192,1
DA:193,1
DA:194,1
DA:195,1
DA:196,1
DA:197,1
DA:198,1
DA:200,1
DA:202,1
DA:203,1
DA:206,0
DA:207,0
DA:208,0
DA:209,0
DA:210,0
DA:211,0
DA:212,0
DA:213,0
DA:214,0
DA:215,0
DA:216,0
DA:217,0
DA:219,0
DA:220,0
DA:221,0
DA:222,0
DA:223,0
DA:224,0
DA:225,0
DA:227,0
DA:229,0
DA:230,0
DA:233,1
DA:234,1
DA:235,1
DA:236,1
DA:237,1
DA:238,1
DA:239,1
DA:240,1
DA:242,1
DA:243,1
DA:246,0
DA:247,0
DA:248,0
DA:251,0
DA:252,0
DA:253,0
DA:256,1
DA:257,1
DA:258,1
DA:261,1
DA:262,3
DA:263,1
DA:266,1
DA:267,3
DA:268,1
DA:271,1
DA:272,3
DA:273,1
DA:276,2
DA:277,3
DA:278,2
DA:281,5
DA:282,8
DA:283,5
DA:286,1
DA:287,2
DA:288,1
DA:291,1
DA:292,3
DA:293,1
DA:301,1
DA:302,1
DA:304,1
DA:305,1
DA:306,1
DA:308,1
DA:309,1
DA:310,1
DA:311,1
DA:313,1
DA:314,1
DA:316,1
DA:317,1
DA:320,1
DA:321,1
DA:324,1
DA:327,1
DA:328,1
DA:329,1
DA:330,1
DA:331,1
DA:332,1
DA:335,1
DA:336,1
DA:337,1
DA:339,1
DA:340,1
DA:341,1
DA:344,1
DA:345,1
DA:346,1
DA:347,1
DA:348,1
DA:349,1
DA:352,1
DA:353,1
DA:354,1
DA:356,1
DA:357,1
DA:358,1
DA:361,1
DA:362,1
DA:364,1
DA:365,1
DA:367,1
DA:368,1
DA:371,1
DA:372,1
DA:373,1
DA:374,1
DA:375,1
DA:378,1
DA:379,1
DA:380,1
DA:381,1
DA:382,1
DA:385,1
DA:386,1
DA:387,1
DA:388,1
DA:389,1
DA:390,1
DA:392,1
DA:393,1
DA:394,1
DA:395,1
BRF:0
BRH:0
LF:243
LH:189
end_of_record