SF:/home/openclaw/dev/yinglichina8848/sqlrustgo/crates/common/src/connection_pool.rs
FN:8,_RNvXNtCsfTY50QqRqul_16sqlrustgo_common15connection_poolNtB2_10PoolConfigNtNtCs8nPosuWgJFh_4core7default7Default7default
FNDA:0,_RNvXNtCsfTY50QqRqul_16sqlrustgo_common15connection_poolNtB2_10PoolConfigNtNtCs8nPosuWgJFh_4core7default7Default7default
FNF:1
FNH:0
DA:8,0
DA:9,0
DA:10,0
DA:11,0
DA:12,0
DA:13,0
BRF:0
BRH:0
LF:6
LH:0
end_of_record
SF:/home/openclaw/dev/yinglichina8848/sqlrustgo/crates/common/src/lib.rs
FN:23,_RINvMs0_CsfTY50QqRqul_16sqlrustgo_commonNtB6_8SqlError3newReEB6_
FN:15,_RNvXCsfTY50QqRqul_16sqlrustgo_commonNtB2_8SqlErrorNtNtCs8nPosuWgJFh_4core3fmt7Display3fmt
FN:38,_RNvNtCsfTY50QqRqul_16sqlrustgo_common5testss_18test_sql_error_new
FN:65,_RNvNtCsfTY50QqRqul_16sqlrustgo_common5testss_18test_sql_result_ok
FN:72,_RNvNtCsfTY50QqRqul_16sqlrustgo_common5testss_19test_sql_result_err
FN:50,_RNvNtCsfTY50QqRqul_16sqlrustgo_common5testss_20test_sql_error_debug
FN:58,_RNvNtCsfTY50QqRqul_16sqlrustgo_common5testss_21test_sql_error_source
FN:44,_RNvNtCsfTY50QqRqul_16sqlrustgo_common5testss_22test_sql_error_display
FNDA:5,_RINvMs0_CsfTY50QqRqul_16sqlrustgo_commonNtB6_8SqlError3newReEB6_
FNDA:1,_RNvXCsfTY50QqRqul_16sqlrustgo_commonNtB2_8SqlErrorNtNtCs8nPosuWgJFh_4core3fmt7Display3fmt
FNDA:1,_RNvNtCsfTY50QqRqul_16sqlrustgo_common5testss_18test_sql_error_new
FNDA:1,_RNvNtCsfTY50QqRqul_16sqlrustgo_common5testss_18test_sql_result_ok
FNDA:1,_RNvNtCsfTY50QqRqul_16sqlrustgo_common5testss_19test_sql_result_err
FNDA:1,_RNvNtCsfTY50QqRqul_16sqlrustgo_common5testss_20test_sql_error_debug
FNDA:1,_RNvNtCsfTY50QqRqul_16sqlrustgo_common5testss_21test_sql_error_source
FNDA:1,_RNvNtCsfTY50QqRqul_16sqlrustgo_common5testss_22test_sql_error_display
FNF:8
FNH:8
DA:15,1
DA:16,1
DA:17,1
DA:23,5
DA:24,5
DA:25,5
DA:26,5
DA:27,5
DA:38,1
DA:39,1
DA:40,1
DA:41,1
DA:44,1
DA:45,1
DA:46,1
DA:47,1
DA:50,1
DA:51,1
DA:52,1
DA:53,1
DA:54,1
DA:55,1
DA:58,1
DA:59,1
DA:60,1
DA:61,1
DA:62,1
DA:65,1
DA:66,1
DA:67,1
DA:68,1
DA:69,1
DA:72,1
DA:73,1
DA:74,1
DA:75,1
DA:76,1
BRF:0
BRH:0
LF:37
LH:37
end_of_record
SF:/home/openclaw/dev/yinglichina8848/sqlrustgo/crates/common/src/logging.rs
FN:27,_RNvMNtCsfTY50QqRqul_16sqlrustgo_common7loggingNtB2_8LogLevel6as_str
FN:17,_RNvMNtCsfTY50QqRqul_16sqlrustgo_common7loggingNtB2_8LogLevel8from_str
FN:178,_RNvMs_NtCsfTY50QqRqul_16sqlrustgo_common7loggingNtB4_13RollingLogger10should_log
FN:165,_RNvMs_NtCsfTY50QqRqul_16sqlrustgo_common7loggingNtB4_13RollingLogger11format_json
FN:153,_RNvMs_NtCsfTY50QqRqul_16sqlrustgo_common7loggingNtB4_13RollingLogger11format_text
FN:75,_RNvMs_NtCsfTY50QqRqul_16sqlrustgo_common7loggingNtB4_13RollingLogger16get_log_filename
FN:99,_RNvMs_NtCsfTY50QqRqul_16sqlrustgo_common7loggingNtB4_13RollingLogger16perform_rotation
FN:84,_RNvMs_NtCsfTY50QqRqul_16sqlrustgo_common7loggingNtB4_13RollingLogger16rotate_if_needed
FN:54,_RNvMs_NtCsfTY50QqRqul_16sqlrustgo_common7loggingNtB4_13RollingLogger3new
FN:135,_RNvMs_NtCsfTY50QqRqul_16sqlrustgo_common7loggingNtB4_13RollingLogger9write_log
FN:278,_RNvNtNtCsfTY50QqRqul_16sqlrustgo_common7logging5testss_15test_should_log
FN:232,_RNvNtNtCsfTY50QqRqul_16sqlrustgo_common7logging5testss_21test_log_level_as_str
FN:223,_RNvNtNtCsfTY50QqRqul_16sqlrustgo_common7logging5testss_23test_log_level_from_str
FN:240,_RNvNtNtCsfTY50QqRqul_16sqlrustgo_common7logging5testss_28test_rolling_logger_creation
FN:254,_RNvNtNtCsfTY50QqRqul_16sqlrustgo_common7logging5testss_31test_rolling_logger_json_format
FN:203,_RNvNtCsfTY50QqRqul_16sqlrustgo_common7logging12init_logging
FN:194,_RNvXs0_NtCsfTY50QqRqul_16sqlrustgo_common7loggingNtB5_13RollingLoggerNtCs9E5y3brXhfF_3log3Log3log
FN:200,_RNvXs0_NtCsfTY50QqRqul_16sqlrustgo_common7loggingNtB5_13RollingLoggerNtCs9E5y3brXhfF_3log3Log5flush
FN:190,_RNvXs0_NtCsfTY50QqRqul_16sqlrustgo_common7loggingNtB5_13RollingLoggerNtCs9E5y3brXhfF_3log3Log7enabled
FN:106,_RNCNCNvMs_NtCsfTY50QqRqul_16sqlrustgo_common7loggingNtB8_13RollingLogger16perform_rotations_00Ba_
FN:102,_RNCNvMs_NtCsfTY50QqRqul_16sqlrustgo_common7loggingNtB6_13RollingLogger16perform_rotation0B8_
FN:110,_RNCNvMs_NtCsfTY50QqRqul_16sqlrustgo_common7loggingNtB6_13RollingLogger16perform_rotations0_0B8_
FN:103,_RNCNvMs_NtCsfTY50QqRqul_16sqlrustgo_common7loggingNtB6_13RollingLogger16perform_rotations_0B8_
FNDA:4,_RNvMNtCsfTY50QqRqul_16sqlrustgo_common7loggingNtB2_8LogLevel6as_str
FNDA:5,_RNvMNtCsfTY50QqRqul_16sqlrustgo_common7loggingNtB2_8LogLevel8from_str
FNDA:4,_RNvMs_NtCsfTY50QqRqul_16sqlrustgo_common7loggingNtB4_13RollingLogger10should_log
FNDA:1,_RNvMs_NtCsfTY50QqRqul_16sqlrustgo_common7loggingNtB4_13RollingLogger11format_json
FNDA:0,_RNvMs_NtCsfTY50QqRqul_16sqlrustgo_common7loggingNtB4_13RollingLogger11format_text
FNDA:3,_RNvMs_NtCsfTY50QqRqul_16sqlrustgo_common7loggingNtB4_13RollingLogger16get_log_filename
FNDA:0,_RNvMs_NtCsfTY50QqRqul_16sqlrustgo_common7loggingNtB4_13RollingLogger16perform_rotation
FNDA:4,_RNvMs_NtCsfTY50QqRqul_16sqlrustgo_common7loggingNtB4_13RollingLogger16rotate_if_needed
FNDA:3,_RNvMs_NtCsfTY50QqRqul_16sqlrustgo_common7loggingNtB4_13RollingLogger3new
FNDA:1,_RNvMs_NtCsfTY50QqRqul_16sqlrustgo_common7loggingNtB4_13RollingLogger9write_log
FNDA:1,_RNvNtNtCsfTY50QqRqul_16sqlrustgo_common7logging5testss_15test_should_log
FNDA:1,_RNvNtNtCsfTY50QqRqul_16sqlrustgo_common7logging5testss_21test_log_level_as_str
FNDA:1,_RNvNtNtCsfTY50QqRqul_16sqlrustgo_common7logging5testss_23test_log_level_from_str
FNDA:1,_RNvNtNtCsfTY50QqRqul_16sqlrustgo_common7logging5testss_28test_rolling_logger_creation
FNDA:1,_RNvNtNtCsfTY50QqRqul_16sqlrustgo_common7logging5testss_31test_rolling_logger_json_format
FNDA:0,_RNvNtCsfTY50QqRqul_16sqlrustgo_common7logging12init_logging
FNDA:0,_RNvXs0_NtCsfTY50QqRqul_16sqlrustgo_common7loggingNtB5_13RollingLoggerNtCs9E5y3brXhfF_3log3Log3log
FNDA:0,_RNvXs0_NtCsfTY50QqRqul_16sqlrustgo_common7loggingNtB5_13RollingLoggerNtCs9E5y3brXhfF_3log3Log5flush
FNDA:0,_RNvXs0_NtCsfTY50QqRqul_16sqlrustgo_common7loggingNtB5_13RollingLoggerNtCs9E5y3brXhfF_3log3Log7enabled
FNDA:0,_RNCNCNvMs_NtCsfTY50QqRqul_16sqlrustgo_common7loggingNtB8_13RollingLogger16perform_rotations_00Ba_
FNDA:0,_RNCNvMs_NtCsfTY50QqRqul_16sqlrustgo_common7loggingNtB6_13RollingLogger16perform_rotation0B8_
FNDA:0,_RNCNvMs_NtCsfTY50QqRqul_16sqlrustgo_common7loggingNtB6_13RollingLogger16perform_rotations0_0B8_
FNDA:0,_RNCNvMs_NtCsfTY50QqRqul_16sqlrustgo_common7loggingNtB6_13RollingLogger16perform_rotations_0B8_
FNF:23
FNH:13
DA:17,5
DA:18,5
DA:19,5
DA:20,4
DA:21,3
DA:22,2
DA:23,1
DA:25,5
DA:27,4
DA:28,4
DA:29,1
DA:30,1
DA:31,1
DA:32,1
DA:34,4
DA:54,3
DA:55,3
DA:56,3
DA:57,3
DA:58,3
DA:59,3
DA:60,3
DA:61,3
DA:62,3
DA:63,3
DA:64,3
DA:65,3
DA:66,3
DA:67,3
DA:68,3
DA:69,3
DA:70,3
DA:71,3
DA:72,3
DA:73,3
DA:75,3
DA:76,3
DA:77,3
DA:80,3
DA:82,3
DA:84,4
DA:85,4
DA:86,4
DA:87,3
DA:88,3
DA:89,1
DA:91,1
DA:92,1
DA:93,0
DA:94,0
DA:95,0
DA:96,1
DA:97,4
DA:99,0
DA:100,0
DA:101,0
DA:102,0
DA:103,0
DA:104,0
DA:105,0
DA:106,0
DA:107,0
DA:108,0
DA:110,0
DA:112,0
DA:113,0
DA:114,0
DA:115,0
DA:116,0
DA:118,0
DA:120,0
DA:121,0
DA:122,0
DA:123,0
DA:124,0
DA:125,0
DA:126,0
DA:127,0
DA:128,0
DA:129,0
DA:130,0
DA:131,0
DA:132,0
DA:133,0
DA:135,1
DA:136,1
DA:138,1
DA:139,1
DA:140,1
DA:141,1
DA:142,0
DA:143,1
DA:146,1
DA:147,1
DA:148,1
DA:149,1
DA:150,0
DA:151,1
DA:153,0
DA:154,0
DA:155,0
DA:158,0
DA:159,0
DA:160,0
DA:161,0
DA:163,0
DA:165,1
DA:166,1
DA:167,1
DA:168,1
DA:169,1
DA:170,1
DA:171,1
DA:172,1
DA:173,1
DA:175,1
DA:176,1
DA:178,4
DA:179,4
DA:180,1
DA:181,1
DA:182,1
DA:183,1
DA:185,4
DA:186,4
DA:190,0
DA:191,0
DA:192,0
DA:194,0
DA:195,0
DA:196,0
DA:197,0
DA:198,0
DA:200,0
DA:203,0
DA:204,0
DA:205,0
DA:206,0
DA:207,0
DA:208,0
DA:209,0
DA:210,0
DA:211,0
DA:212,0
DA:213,0
DA:214,0
DA:223,1
DA:224,1
DA:225,1
DA:226,1
DA:227,1
DA:228,1
DA:229,1
DA:232,1
DA:233,1
DA:234,1
DA:235,1
DA:236,1
DA:237,1
DA:240,1
DA:241,1
DA:242,1
DA:243,1
DA:244,1
DA:245,1
DA:246,1
DA:249,1
DA:250,1
DA:251,1
DA:254,1
DA:255,1
DA:256,1
DA:257,1
DA:258,1
DA:259,1
DA:260,1
DA:264,1
DA:265,1
DA:266,1
DA:267,1
DA:268,1
DA:269,1
DA:271,1
DA:273,1
DA:274,1
DA:275,1
DA:278,1
DA:279,1
DA:280,1
DA:281,1
DA:282,1
DA:283,1
DA:284,1
DA:288,1
DA:289,1
DA:290,1
DA:291,1
DA:292,1
BRF:0
BRH:0
LF:202
LH:133
end_of_record
SF:/home/openclaw/dev/yinglichina8848/sqlrustgo/crates/common/src/metrics.rs
FN:166,_RNvYNtNtCsfTY50QqRqul_16sqlrustgo_common7metrics14DefaultMetricsNtB4_7Metrics18record_query_timedB6_
FN:635,_RNvNtNtCsfTY50QqRqul_16sqlrustgo_common7metrics5testss_18test_metrics_timer
FN:656,_RNvNtNtCsfTY50QqRqul_16sqlrustgo_common7metrics5testss_22test_metrics_send_sync
FN:458,_RNvNtNtCsfTY50QqRqul_16sqlrustgo_common7metrics5testss_22test_query_type_as_str
FN:430,_RNvNtNtCsfTY50QqRqul_16sqlrustgo_common7metrics5testss_23test_metric_value_gauge
FN:509,_RNvNtNtCsfTY50QqRqul_16sqlrustgo_common7metrics5testss_23test_query_type_unknown
FN:515,_RNvNtNtCsfTY50QqRqul_16sqlrustgo_common7metrics5testss_24test_default_metrics_new
FN:437,_RNvNtNtCsfTY50QqRqul_16sqlrustgo_common7metrics5testss_24test_metric_value_timing
FN:466,_RNvNtNtCsfTY50QqRqul_16sqlrustgo_common7metrics5testss_24test_query_type_from_sql
FN:423,_RNvNtNtCsfTY50QqRqul_16sqlrustgo_common7metrics5testss_25test_metric_value_counter
FN:451,_RNvNtNtCsfTY50QqRqul_16sqlrustgo_common7metrics5testss_25test_metric_value_default
FN:649,_RNvNtNtCsfTY50QqRqul_16sqlrustgo_common7metrics5testss_25test_metrics_trait_object
FN:566,_RNvNtNtCsfTY50QqRqul_16sqlrustgo_common7metrics5testss_26test_default_metrics_cache
FN:627,_RNvNtNtCsfTY50QqRqul_16sqlrustgo_common7metrics5testss_26test_default_metrics_debug
FN:616,_RNvNtNtCsfTY50QqRqul_16sqlrustgo_common7metrics5testss_26test_default_metrics_reset
FN:444,_RNvNtNtCsfTY50QqRqul_16sqlrustgo_common7metrics5testss_27test_metric_value_histogram
FN:597,_RNvNtNtCsfTY50QqRqul_16sqlrustgo_common7metrics5testss_31test_default_metrics_get_metric
FN:557,_RNvNtNtCsfTY50QqRqul_16sqlrustgo_common7metrics5testss_33test_default_metrics_record_bytes
FN:540,_RNvNtNtCsfTY50QqRqul_16sqlrustgo_common7metrics5testss_33test_default_metrics_record_error
FN:522,_RNvNtNtCsfTY50QqRqul_16sqlrustgo_common7metrics5testss_33test_default_metrics_record_query
FN:497,_RNvNtNtCsfTY50QqRqul_16sqlrustgo_common7metrics5testss_34test_query_type_from_sql_lowercase
FN:583,_RNvNtNtCsfTY50QqRqul_16sqlrustgo_common7metrics5testss_35test_default_metrics_avg_query_time
FN:608,_RNvNtNtCsfTY50QqRqul_16sqlrustgo_common7metrics5testss_37test_default_metrics_get_metric_names
FN:591,_RNvNtNtCsfTY50QqRqul_16sqlrustgo_common7metrics5testss_40test_default_metrics_avg_query_time_zero
FN:577,_RNvNtNtCsfTY50QqRqul_16sqlrustgo_common7metrics5testss_40test_default_metrics_cache_hit_rate_zero
FN:530,_RNvNtNtCsfTY50QqRqul_16sqlrustgo_common7metrics5testss_41test_default_metrics_record_query_by_type
FN:548,_RNvNtNtCsfTY50QqRqul_16sqlrustgo_common7metrics5testss_43test_default_metrics_record_error_with_type
FN:650,_RNvNvNtNtCsfTY50QqRqul_16sqlrustgo_common7metrics5testss_25test_metrics_trait_object14__check_metrics
FN:657,_RINvNvNtNtCsfTY50QqRqul_16sqlrustgo_common7metrics5testss_22test_metrics_send_sync16__check_send_syncNtB6_14DefaultMetricsEB8_
FN:64,_RNvMNtCsfTY50QqRqul_16sqlrustgo_common7metricsNtB2_11MetricValue6as_f64
FN:54,_RNvMNtCsfTY50QqRqul_16sqlrustgo_common7metricsNtB2_11MetricValue6as_u64
FN:106,_RNvMs0_NtCsfTY50QqRqul_16sqlrustgo_common7metricsNtB5_9QueryType6as_str
FN:121,_RNvMs0_NtCsfTY50QqRqul_16sqlrustgo_common7metricsNtB5_9QueryType8from_sql
FN:222,_RNvMs1_NtCsfTY50QqRqul_16sqlrustgo_common7metricsNtB5_12MetricsTimer3new
FN:231,_RNvMs1_NtCsfTY50QqRqul_16sqlrustgo_common7metricsNtB5_12MetricsTimer4stop
FN:284,_RNvMs2_NtCsfTY50QqRqul_16sqlrustgo_common7metricsNtB5_14DefaultMetrics10bytes_read
FN:294,_RNvMs2_NtCsfTY50QqRqul_16sqlrustgo_common7metricsNtB5_14DefaultMetrics10cache_hits
FN:279,_RNvMs2_NtCsfTY50QqRqul_16sqlrustgo_common7metricsNtB5_14DefaultMetrics11error_count
FN:269,_RNvMs2_NtCsfTY50QqRqul_16sqlrustgo_common7metricsNtB5_14DefaultMetrics11query_count
FN:299,_RNvMs2_NtCsfTY50QqRqul_16sqlrustgo_common7metricsNtB5_14DefaultMetrics12cache_misses
FN:289,_RNvMs2_NtCsfTY50QqRqul_16sqlrustgo_common7metricsNtB5_14DefaultMetrics13bytes_written
FN:304,_RNvMs2_NtCsfTY50QqRqul_16sqlrustgo_common7metricsNtB5_14DefaultMetrics14cache_hit_rate
FN:322,_RNvMs2_NtCsfTY50QqRqul_16sqlrustgo_common7metricsNtB5_14DefaultMetrics17avg_query_time_ms
FN:314,_RNvMs2_NtCsfTY50QqRqul_16sqlrustgo_common7metricsNtB5_14DefaultMetrics19query_count_by_type
FN:274,_RNvMs2_NtCsfTY50QqRqul_16sqlrustgo_common7metricsNtB5_14DefaultMetrics19total_query_time_ms
FN:264,_RNvMs2_NtCsfTY50QqRqul_16sqlrustgo_common7metricsNtB5_14DefaultMetrics3new
FN:374,_RNvXs3_NtCsfTY50QqRqul_16sqlrustgo_common7metricsNtB5_14DefaultMetricsNtB5_7Metrics10get_metric
FN:346,_RNvXs3_NtCsfTY50QqRqul_16sqlrustgo_common7metricsNtB5_14DefaultMetricsNtB5_7Metrics12record_error
FN:332,_RNvXs3_NtCsfTY50QqRqul_16sqlrustgo_common7metricsNtB5_14DefaultMetricsNtB5_7Metrics12record_query
FN:389,_RNvXs3_NtCsfTY50QqRqul_16sqlrustgo_common7metricsNtB5_14DefaultMetricsNtB5_7Metrics16get_metric_names
FN:366,_RNvXs3_NtCsfTY50QqRqul_16sqlrustgo_common7metricsNtB5_14DefaultMetricsNtB5_7Metrics16record_cache_hit
FN:358,_RNvXs3_NtCsfTY50QqRqul_16sqlrustgo_common7metricsNtB5_14DefaultMetricsNtB5_7Metrics17record_bytes_read
FN:370,_RNvXs3_NtCsfTY50QqRqul_16sqlrustgo_common7metricsNtB5_14DefaultMetricsNtB5_7Metrics17record_cache_miss
FN:362,_RNvXs3_NtCsfTY50QqRqul_16sqlrustgo_common7metricsNtB5_14DefaultMetricsNtB5_7Metrics20record_bytes_written
FN:350,_RNvXs3_NtCsfTY50QqRqul_16sqlrustgo_common7metricsNtB5_14DefaultMetricsNtB5_7Metrics22record_error_with_type
FN:403,_RNvXs3_NtCsfTY50QqRqul_16sqlrustgo_common7metricsNtB5_14DefaultMetricsNtB5_7Metrics5reset
FN:75,_RNvXs_NtCsfTY50QqRqul_16sqlrustgo_common7metricsNtB4_11MetricValueNtNtCs8nPosuWgJFh_4core7default7Default7default
FNDA:1,_RNvYNtNtCsfTY50QqRqul_16sqlrustgo_common7metrics14DefaultMetricsNtB4_7Metrics18record_query_timedB6_
FNDA:1,_RNvNtNtCsfTY50QqRqul_16sqlrustgo_common7metrics5testss_18test_metrics_timer
FNDA:1,_RNvNtNtCsfTY50QqRqul_16sqlrustgo_common7metrics5testss_22test_metrics_send_sync
FNDA:1,_RNvNtNtCsfTY50QqRqul_16sqlrustgo_common7metrics5testss_22test_query_type_as_str
FNDA:1,_RNvNtNtCsfTY50QqRqul_16sqlrustgo_common7metrics5testss_23test_metric_value_gauge
FNDA:1,_RNvNtNtCsfTY50QqRqul_16sqlrustgo_common7metrics5testss_23test_query_type_unknown
FNDA:1,_RNvNtNtCsfTY50QqRqul_16sqlrustgo_common7metrics5testss_24test_default_metrics_new
FNDA:1,_RNvNtNtCsfTY50QqRqul_16sqlrustgo_common7metrics5testss_24test_metric_value_timing
FNDA:1,_RNvNtNtCsfTY50QqRqul_16sqlrustgo_common7metrics5testss_24test_query_type_from_sql
FNDA:1,_RNvNtNtCsfTY50QqRqul_16sqlrustgo_common7metrics5testss_25test_metric_value_counter
FNDA:1,_RNvNtNtCsfTY50QqRqul_16sqlrustgo_common7metrics5testss_25test_metric_value_default
FNDA:1,_RNvNtNtCsfTY50QqRqul_16sqlrustgo_common7metrics5testss_25test_metrics_trait_object
FNDA:1,_RNvNtNtCsfTY50QqRqul_16sqlrustgo_common7metrics5testss_26test_default_metrics_cache
FNDA:1,_RNvNtNtCsfTY50QqRqul_16sqlrustgo_common7metrics5testss_26test_default_metrics_debug
FNDA:1,_RNvNtNtCsfTY50QqRqul_16sqlrustgo_common7metrics5testss_26test_default_metrics_reset
FNDA:1,_RNvNtNtCsfTY50QqRqul_16sqlrustgo_common7metrics5testss_27test_metric_value_histogram
FNDA:1,_RNvNtNtCsfTY50QqRqul_16sqlrustgo_common7metrics5testss_31test_default_metrics_get_metric
FNDA:1,_RNvNtNtCsfTY50QqRqul_16sqlrustgo_common7metrics5testss_33test_default_metrics_record_bytes
FNDA:1,_RNvNtNtCsfTY50QqRqul_16sqlrustgo_common7metrics5testss_33test_default_metrics_record_error
FNDA:1,_RNvNtNtCsfTY50QqRqul_16sqlrustgo_common7metrics5testss_33test_default_metrics_record_query
FNDA:1,_RNvNtNtCsfTY50QqRqul_16sqlrustgo_common7metrics5testss_34test_query_type_from_sql_lowercase
FNDA:1,_RNvNtNtCsfTY50QqRqul_16sqlrustgo_common7metrics5testss_35test_default_metrics_avg_query_time
FNDA:1,_RNvNtNtCsfTY50QqRqul_16sqlrustgo_common7metrics5testss_37test_default_metrics_get_metric_names
FNDA:1,_RNvNtNtCsfTY50QqRqul_16sqlrustgo_common7metrics5testss_40test_default_metrics_avg_query_time_zero
FNDA:1,_RNvNtNtCsfTY50QqRqul_16sqlrustgo_common7metrics5testss_40test_default_metrics_cache_hit_rate_zero
FNDA:1,_RNvNtNtCsfTY50QqRqul_16sqlrustgo_common7metrics5testss_41test_default_metrics_record_query_by_type
FNDA:1,_RNvNtNtCsfTY50QqRqul_16sqlrustgo_common7metrics5testss_43test_default_metrics_record_error_with_type
FNDA:1,_RNvNvNtNtCsfTY50QqRqul_16sqlrustgo_common7metrics5testss_25test_metrics_trait_object14__check_metrics
FNDA:1,_RINvNvNtNtCsfTY50QqRqul_16sqlrustgo_common7metrics5testss_22test_metrics_send_sync16__check_send_syncNtB6_14DefaultMetricsEB8_
FNDA:4,_RNvMNtCsfTY50QqRqul_16sqlrustgo_common7metricsNtB2_11MetricValue6as_f64
FNDA:4,_RNvMNtCsfTY50QqRqul_16sqlrustgo_common7metricsNtB2_11MetricValue6as_u64
FNDA:5,_RNvMs0_NtCsfTY50QqRqul_16sqlrustgo_common7metricsNtB5_9QueryType6as_str
FNDA:12,_RNvMs0_NtCsfTY50QqRqul_16sqlrustgo_common7metricsNtB5_9QueryType8from_sql
FNDA:1,_RNvMs1_NtCsfTY50QqRqul_16sqlrustgo_common7metricsNtB5_12MetricsTimer3new
FNDA:1,_RNvMs1_NtCsfTY50QqRqul_16sqlrustgo_common7metricsNtB5_12MetricsTimer4stop
FNDA:1,_RNvMs2_NtCsfTY50QqRqul_16sqlrustgo_common7metricsNtB5_14DefaultMetrics10bytes_read
FNDA:1,_RNvMs2_NtCsfTY50QqRqul_16sqlrustgo_common7metricsNtB5_14DefaultMetrics10cache_hits
FNDA:4,_RNvMs2_NtCsfTY50QqRqul_16sqlrustgo_common7metricsNtB5_14DefaultMetrics11error_count
FNDA:4,_RNvMs2_NtCsfTY50QqRqul_16sqlrustgo_common7metricsNtB5_14DefaultMetrics11query_count
FNDA:1,_RNvMs2_NtCsfTY50QqRqul_16sqlrustgo_common7metricsNtB5_14DefaultMetrics12cache_misses
FNDA:1,_RNvMs2_NtCsfTY50QqRqul_16sqlrustgo_common7metricsNtB5_14DefaultMetrics13bytes_written
FNDA:3,_RNvMs2_NtCsfTY50QqRqul_16sqlrustgo_common7metricsNtB5_14DefaultMetrics14cache_hit_rate
FNDA:3,_RNvMs2_NtCsfTY50QqRqul_16sqlrustgo_common7metricsNtB5_14DefaultMetrics17avg_query_time_ms
FNDA:2,_RNvMs2_NtCsfTY50QqRqul_16sqlrustgo_common7metricsNtB5_14DefaultMetrics19query_count_by_type
FNDA:2,_RNvMs2_NtCsfTY50QqRqul_16sqlrustgo_common7metricsNtB5_14DefaultMetrics19total_query_time_ms
FNDA:21,_RNvMs2_NtCsfTY50QqRqul_16sqlrustgo_common7metricsNtB5_14DefaultMetrics3new
FNDA:28,_RNvXs3_NtCsfTY50QqRqul_16sqlrustgo_common7metricsNtB5_14DefaultMetricsNtB5_7Metrics10get_metric
FNDA:5,_RNvXs3_NtCsfTY50QqRqul_16sqlrustgo_common7metricsNtB5_14DefaultMetricsNtB5_7Metrics12record_error
FNDA:11,_RNvXs3_NtCsfTY50QqRqul_16sqlrustgo_common7metricsNtB5_14DefaultMetricsNtB5_7Metrics12record_query
FNDA:2,_RNvXs3_NtCsfTY50QqRqul_16sqlrustgo_common7metricsNtB5_14DefaultMetricsNtB5_7Metrics16get_metric_names
FNDA:2,_RNvXs3_NtCsfTY50QqRqul_16sqlrustgo_common7metricsNtB5_14DefaultMetricsNtB5_7Metrics16record_cache_hit
FNDA:1,_RNvXs3_NtCsfTY50QqRqul_16sqlrustgo_common7metricsNtB5_14DefaultMetricsNtB5_7Metrics17record_bytes_read
FNDA:1,_RNvXs3_NtCsfTY50QqRqul_16sqlrustgo_common7metricsNtB5_14DefaultMetricsNtB5_7Metrics17record_cache_miss
FNDA:1,_RNvXs3_NtCsfTY50QqRqul_16sqlrustgo_common7metricsNtB5_14DefaultMetricsNtB5_7Metrics20record_bytes_written
FNDA:3,_RNvXs3_NtCsfTY50QqRqul_16sqlrustgo_common7metricsNtB5_14DefaultMetricsNtB5_7Metrics22record_error_with_type
FNDA:1,_RNvXs3_NtCsfTY50QqRqul_16sqlrustgo_common7metricsNtB5_14DefaultMetricsNtB5_7Metrics5reset
FNDA:1,_RNvXs_NtCsfTY50QqRqul_16sqlrustgo_common7metricsNtB4_11MetricValueNtNtCs8nPosuWgJFh_4core7default7Default7default
FNF:57
FNH:57
DA:54,4
DA:55,4
DA:56,1
DA:57,1
DA:58,1
DA:59,1
DA:61,4
DA:64,4
DA:65,4
DA:66,1
DA:67,1
DA:68,1
DA:69,1
DA:71,4
DA:75,1
DA:76,1
DA:77,1
DA:106,5
DA:107,5
DA:108,2
DA:109,1
DA:110,1
DA:111,1
DA:112,0
DA:113,0
DA:114,0
DA:115,0
DA:116,0
DA:118,5
DA:121,12
DA:122,12
DA:123,12
DA:124,2
DA:125,10
DA:126,2
DA:127,8
DA:128,1
DA:129,7
DA:130,1
DA:131,6
DA:132,1
DA:133,5
DA:134,1
DA:135,4
DA:136,1
DA:137,3
DA:138,2
DA:139,1
DA:141,2
DA:143,1
DA:145,12
DA:166,1
DA:167,1
DA:168,1
DA:222,1
DA:223,1
DA:224,1
DA:225,1
DA:226,1
DA:227,1
DA:228,1
DA:231,1
DA:232,1
DA:233,1
DA:234,1
DA:264,21
DA:265,21
DA:266,21
DA:269,4
DA:270,4
DA:271,4
DA:274,2
DA:275,2
DA:276,2
DA:279,4
DA:280,4
DA:281,4
DA:284,1
DA:285,1
DA:286,1
DA:289,1
DA:290,1
DA:291,1
DA:294,1
DA:295,1
DA:296,1
DA:299,1
DA:300,1
DA:301,1
DA:304,3
DA:305,3
DA:306,3
DA:307,2
DA:309,1
DA:311,3
DA:314,2
DA:315,2
DA:316,2
DA:317,2
DA:318,2
DA:319,2
DA:322,3
DA:323,3
DA:324,1
DA:326,2
DA:328,3
DA:332,11
DA:333,11
DA:334,11
DA:336,11
DA:337,11
DA:338,11
DA:339,11
DA:340,11
DA:341,11
DA:342,11
DA:343,11
DA:344,11
DA:346,5
DA:347,5
DA:348,5
DA:350,3
DA:351,3
DA:352,3
DA:353,3
DA:354,3
DA:355,3
DA:356,3
DA:358,1
DA:359,1
DA:360,1
DA:362,1
DA:363,1
DA:364,1
DA:366,2
DA:367,2
DA:368,2
DA:370,1
DA:371,1
DA:372,1
DA:374,28
DA:375,28
DA:376,28
DA:377,22
DA:378,21
DA:379,19
DA:380,14
DA:381,9
DA:382,8
DA:383,7
DA:384,6
DA:385,5
DA:387,28
DA:389,2
DA:390,2
DA:391,2
DA:392,2
DA:393,2
DA:394,2
DA:395,2
DA:396,2
DA:397,2
DA:398,2
DA:399,2
DA:401,2
DA:403,1
DA:404,1
DA:405,1
DA:406,1
DA:407,1
DA:408,1
DA:409,1
DA:410,1
DA:411,1
DA:412,1
DA:413,1
DA:414,1
DA:423,1
DA:424,1
DA:425,1
DA:426,1
DA:427,1
DA:430,1
DA:431,1
DA:432,1
DA:433,1
DA:434,1
DA:437,1
DA:438,1
DA:439,1
DA:440,1
DA:441,1
DA:444,1
DA:445,1
DA:446,1
DA:447,1
DA:448,1
DA:451,1
DA:452,1
DA:453,1
DA:454,1
DA:458,1
DA:459,1
DA:460,1
DA:461,1
DA:462,1
DA:463,1
DA:466,1
DA:467,1
DA:468,1
DA:471,1
DA:472,1
DA:475,1
DA:476,1
DA:479,1
DA:480,1
DA:483,1
DA:484,1
DA:487,1
DA:488,1
DA:489,1
DA:492,1
DA:493,1
DA:494,1
DA:497,1
DA:498,1
DA:499,1
DA:502,1
DA:503,1
DA:506,1
DA:509,1
DA:510,1
DA:511,1
DA:515,1
DA:516,1
DA:517,1
DA:518,1
DA:519,1
DA:522,1
DA:523,1
DA:524,1
DA:525,1
DA:526,1
DA:527,1
DA:530,1
DA:531,1
DA:532,1
DA:533,1
DA:534,1
DA:535,1
DA:536,1
DA:537,1
DA:540,1
DA:541,1
DA:542,1
DA:543,1
DA:544,1
DA:545,1
DA:548,1
DA:549,1
DA:550,1
DA:551,1
DA:552,1
DA:553,1
DA:554,1
DA:557,1
DA:558,1
DA:559,1
DA:560,1
DA:561,1
DA:562,1
DA:563,1
DA:566,1
DA:567,1
DA:568,1
DA:569,1
DA:570,1
DA:571,1
DA:572,1
DA:573,1
DA:574,1
DA:577,1
DA:578,1
DA:579,1
DA:580,1
DA:583,1
DA:584,1
DA:585,1
DA:586,1
DA:587,1
DA:588,1
DA:591,1
DA:592,1
DA:593,1
DA:594,1
DA:597,1
DA:598,1
DA:599,1
DA:600,1
DA:602,1
DA:603,1
DA:604,1
DA:605,1
DA:608,1
DA:609,1
DA:610,1
DA:611,1
DA:612,1
DA:613,1
DA:616,1
DA:617,1
DA:618,1
DA:619,1
DA:620,1
DA:622,1
DA:623,1
DA:624,1
DA:627,1
DA:628,1
DA:629,1
DA:630,1
DA:631,1
DA:635,1
DA:636,1
DA:637,1
DA:638,1
DA:639,1
DA:640,1
DA:641,1
DA:642,1
DA:643,1
DA:644,1
DA:645,1
DA:649,1
DA:650,1
DA:651,1
DA:652,1
DA:653,1
DA:656,1
DA:657,1
DA:658,1
DA:659,1
BRF:0
BRH:0
LF:342
LH:337
end_of_record
SF:/home/openclaw/dev/yinglichina8848/sqlrustgo/crates/common/src/metrics_aggregator.rs
FN:195,_RNvNtNtCsfTY50QqRqul_16sqlrustgo_common18metrics_aggregator5testss_31test_metrics_aggregator_summary
FN:155,_RNvNtNtCsfTY50QqRqul_16sqlrustgo_common18metrics_aggregator5testss_32test_metrics_aggregator_creation
FN:171,_RNvNtNtCsfTY50QqRqul_16sqlrustgo_common18metrics_aggregator5testss_38test_metrics_aggregator_custom_metrics
FN:161,_RNvNtNtCsfTY50QqRqul_16sqlrustgo_common18metrics_aggregator5testss_39test_metrics_aggregator_register_source
FN:213,_RNvNtNtCsfTY50QqRqul_16sqlrustgo_common18metrics_aggregator5testss_40test_metrics_aggregator_multiple_sources
FN:180,_RNvNtNtCsfTY50QqRqul_16sqlrustgo_common18metrics_aggregator5testss_41test_metrics_aggregator_prometheus_format
FN:31,_RNvMNtCsfTY50QqRqul_16sqlrustgo_common18metrics_aggregatorNtB2_17MetricsAggregator15get_all_metrics
FN:135,_RNvXs_NtCsfTY50QqRqul_16sqlrustgo_common18metrics_aggregatorNtB4_17MetricsAggregatorNtNtCs8nPosuWgJFh_4core7default7Default7default
FN:101,_RNvMNtCsfTY50QqRqul_16sqlrustgo_common18metrics_aggregatorNtB2_17MetricsAggregator11get_summary
FN:23,_RNvMNtCsfTY50QqRqul_16sqlrustgo_common18metrics_aggregatorNtB2_17MetricsAggregator15register_source
FN:27,_RNvMNtCsfTY50QqRqul_16sqlrustgo_common18metrics_aggregatorNtB2_17MetricsAggregator17add_custom_metric
FN:49,_RNvMNtCsfTY50QqRqul_16sqlrustgo_common18metrics_aggregatorNtB2_17MetricsAggregator20to_prometheus_format
FN:16,_RNvMNtCsfTY50QqRqul_16sqlrustgo_common18metrics_aggregatorNtB2_17MetricsAggregator3new
FNDA:1,_RNvNtNtCsfTY50QqRqul_16sqlrustgo_common18metrics_aggregator5testss_31test_metrics_aggregator_summary
FNDA:1,_RNvNtNtCsfTY50QqRqul_16sqlrustgo_common18metrics_aggregator5testss_32test_metrics_aggregator_creation
FNDA:1,_RNvNtNtCsfTY50QqRqul_16sqlrustgo_common18metrics_aggregator5testss_38test_metrics_aggregator_custom_metrics
FNDA:1,_RNvNtNtCsfTY50QqRqul_16sqlrustgo_common18metrics_aggregator5testss_39test_metrics_aggregator_register_source
FNDA:1,_RNvNtNtCsfTY50QqRqul_16sqlrustgo_common18metrics_aggregator5testss_40test_metrics_aggregator_multiple_sources
FNDA:1,_RNvNtNtCsfTY50QqRqul_16sqlrustgo_common18metrics_aggregator5testss_41test_metrics_aggregator_prometheus_format
FNDA:0,_RNvMNtCsfTY50QqRqul_16sqlrustgo_common18metrics_aggregatorNtB2_17MetricsAggregator15get_all_metrics
FNDA:0,_RNvXs_NtCsfTY50QqRqul_16sqlrustgo_common18metrics_aggregatorNtB4_17MetricsAggregatorNtNtCs8nPosuWgJFh_4core7default7Default7default
FNDA:3,_RNvMNtCsfTY50QqRqul_16sqlrustgo_common18metrics_aggregatorNtB2_17MetricsAggregator11get_summary
FNDA:5,_RNvMNtCsfTY50QqRqul_16sqlrustgo_common18metrics_aggregatorNtB2_17MetricsAggregator15register_source
FNDA:1,_RNvMNtCsfTY50QqRqul_16sqlrustgo_common18metrics_aggregatorNtB2_17MetricsAggregator17add_custom_metric
FNDA:3,_RNvMNtCsfTY50QqRqul_16sqlrustgo_common18metrics_aggregatorNtB2_17MetricsAggregator20to_prometheus_format
FNDA:6,_RNvMNtCsfTY50QqRqul_16sqlrustgo_common18metrics_aggregatorNtB2_17MetricsAggregator3new
FNF:13
FNH:11
DA:16,6
DA:17,6
DA:18,6
DA:19,6
DA:20,6
DA:21,6
DA:23,5
DA:24,5
DA:25,5
DA:27,1
DA:28,1
DA:29,1
DA:31,0
DA:32,0
DA:34,0
DA:35,0
DA:36,0
DA:37,0
DA:38,0
DA:39,0
DA:40,0
DA:42,0
DA:43,0
DA:46,0
DA:47,0
DA:49,3
DA:50,3
DA:52,3
DA:53,1
DA:54,1
DA:55,9
DA:56,9
DA:57,9
DA:58,6
DA:59,2
DA:60,0
DA:61,1
DA:64,9
DA:65,9
DA:66,9
DA:67,9
DA:69,9
DA:70,6
DA:71,2
DA:72,0
DA:73,0
DA:74,0
DA:75,0
DA:76,0
DA:77,0
DA:78,0
DA:79,0
DA:80,0
DA:82,1
DA:85,9
DA:86,9
DA:87,9
DA:88,9
DA:89,0
DA:91,0
DA:94,3
DA:95,1
DA:96,1
DA:98,3
DA:99,3
DA:101,3
DA:102,3
DA:103,3
DA:104,3
DA:105,3
DA:107,4
DA:108,4
DA:109,4
DA:110,4
DA:111,4
DA:112,4
DA:113,0
DA:114,4
DA:115,4
DA:116,4
DA:117,4
DA:118,4
DA:119,4
DA:120,4
DA:121,0
DA:124,3
DA:125,3
DA:126,3
DA:127,3
DA:128,3
DA:129,3
DA:130,3
DA:131,3
DA:135,0
DA:136,0
DA:137,0
DA:155,1
DA:156,1
DA:157,1
DA:158,1
DA:161,1
DA:162,1
DA:164,1
DA:165,1
DA:167,1
DA:168,1
DA:171,1
DA:172,1
DA:173,1
DA:175,1
DA:176,1
DA:177,1
DA:180,1
DA:181,1
DA:182,1
DA:183,1
DA:184,1
DA:185,1
DA:187,1
DA:188,1
DA:190,1
DA:191,1
DA:192,1
DA:195,1
DA:198,1
DA:199,1
DA:200,1
DA:201,1
DA:202,1
DA:203,1
DA:205,1
DA:206,1
DA:208,1
DA:209,1
DA:210,1
DA:213,1
DA:214,1
DA:215,1
DA:217,1
DA:218,1
DA:219,1
DA:221,1
DA:222,1
DA:223,1
BRF:0
BRH:0
LF:144
LH:114
end_of_record
SF:/home/openclaw/dev/yinglichina8848/sqlrustgo/crates/common/src/network_metrics.rs
FN:210,_RNvNtNtCsfTY50QqRqul_16sqlrustgo_common15network_metrics5testss_27test_network_metrics_errors
FN:200,_RNvNtNtCsfTY50QqRqul_16sqlrustgo_common15network_metrics5testss_28test_network_metrics_packets
FN:170,_RNvNtNtCsfTY50QqRqul_16sqlrustgo_common15network_metrics5testss_29test_network_metrics_creation
FN:176,_RNvNtNtCsfTY50QqRqul_16sqlrustgo_common15network_metrics5testss_36test_network_metrics_connection_open
FN:191,_RNvNtNtCsfTY50QqRqul_16sqlrustgo_common15network_metrics5testss_40test_network_metrics_bytes_sent_received
FN:183,_RNvNtNtCsfTY50QqRqul_16sqlrustgo_common15network_metrics5testss_41test_network_metrics_connection_lifecycle
FN:218,_RNvNtNtCsfTY50QqRqul_16sqlrustgo_common15network_metrics5testss_41test_network_metrics_multiple_connections
FN:42,_RNvMNtCsfTY50QqRqul_16sqlrustgo_common15network_metricsNtB2_14NetworkMetrics18connections_closed
FN:126,_RNvXs0_NtCsfTY50QqRqul_16sqlrustgo_common15network_metricsNtB5_14NetworkMetricsNtNtB7_7metrics7Metrics10get_metric
FN:106,_RNvXs0_NtCsfTY50QqRqul_16sqlrustgo_common15network_metricsNtB5_14NetworkMetricsNtNtB7_7metrics7Metrics12record_error
FN:104,_RNvXs0_NtCsfTY50QqRqul_16sqlrustgo_common15network_metricsNtB5_14NetworkMetricsNtNtB7_7metrics7Metrics12record_query
FN:140,_RNvXs0_NtCsfTY50QqRqul_16sqlrustgo_common15network_metricsNtB5_14NetworkMetricsNtNtB7_7metrics7Metrics16get_metric_names
FN:122,_RNvXs0_NtCsfTY50QqRqul_16sqlrustgo_common15network_metricsNtB5_14NetworkMetricsNtNtB7_7metrics7Metrics16record_cache_hit
FN:114,_RNvXs0_NtCsfTY50QqRqul_16sqlrustgo_common15network_metricsNtB5_14NetworkMetricsNtNtB7_7metrics7Metrics17record_bytes_read
FN:124,_RNvXs0_NtCsfTY50QqRqul_16sqlrustgo_common15network_metricsNtB5_14NetworkMetricsNtNtB7_7metrics7Metrics17record_cache_miss
FN:118,_RNvXs0_NtCsfTY50QqRqul_16sqlrustgo_common15network_metricsNtB5_14NetworkMetricsNtNtB7_7metrics7Metrics20record_bytes_written
FN:110,_RNvXs0_NtCsfTY50QqRqul_16sqlrustgo_common15network_metricsNtB5_14NetworkMetricsNtNtB7_7metrics7Metrics22record_error_with_type
FN:153,_RNvXs0_NtCsfTY50QqRqul_16sqlrustgo_common15network_metricsNtB5_14NetworkMetricsNtNtB7_7metrics7Metrics5reset
FN:98,_RNvXs_NtCsfTY50QqRqul_16sqlrustgo_common15network_metricsNtB4_14NetworkMetricsNtNtCs8nPosuWgJFh_4core7default7Default7default
FN:46,_RNvMNtCsfTY50QqRqul_16sqlrustgo_common15network_metricsNtB2_14NetworkMetrics10bytes_sent
FN:62,_RNvMNtCsfTY50QqRqul_16sqlrustgo_common15network_metricsNtB2_14NetworkMetrics12errors_total
FN:54,_RNvMNtCsfTY50QqRqul_16sqlrustgo_common15network_metricsNtB2_14NetworkMetrics12packets_sent
FN:92,_RNvMNtCsfTY50QqRqul_16sqlrustgo_common15network_metricsNtB2_14NetworkMetrics12record_error
FN:50,_RNvMNtCsfTY50QqRqul_16sqlrustgo_common15network_metricsNtB2_14NetworkMetrics14bytes_received
FN:58,_RNvMNtCsfTY50QqRqul_16sqlrustgo_common15network_metricsNtB2_14NetworkMetrics16packets_received
FN:38,_RNvMNtCsfTY50QqRqul_16sqlrustgo_common15network_metricsNtB2_14NetworkMetrics17connections_total
FN:76,_RNvMNtCsfTY50QqRqul_16sqlrustgo_common15network_metricsNtB2_14NetworkMetrics17record_bytes_sent
FN:34,_RNvMNtCsfTY50QqRqul_16sqlrustgo_common15network_metricsNtB2_14NetworkMetrics18connections_active
FN:84,_RNvMNtCsfTY50QqRqul_16sqlrustgo_common15network_metricsNtB2_14NetworkMetrics18record_packet_sent
FN:80,_RNvMNtCsfTY50QqRqul_16sqlrustgo_common15network_metricsNtB2_14NetworkMetrics21record_bytes_received
FN:66,_RNvMNtCsfTY50QqRqul_16sqlrustgo_common15network_metricsNtB2_14NetworkMetrics22record_connection_open
FN:88,_RNvMNtCsfTY50QqRqul_16sqlrustgo_common15network_metricsNtB2_14NetworkMetrics22record_packet_received
FN:71,_RNvMNtCsfTY50QqRqul_16sqlrustgo_common15network_metricsNtB2_14NetworkMetrics23record_connection_close
FN:21,_RNvMNtCsfTY50QqRqul_16sqlrustgo_common15network_metricsNtB2_14NetworkMetrics3new
FNDA:1,_RNvNtNtCsfTY50QqRqul_16sqlrustgo_common15network_metrics5testss_27test_network_metrics_errors
FNDA:1,_RNvNtNtCsfTY50QqRqul_16sqlrustgo_common15network_metrics5testss_28test_network_metrics_packets
FNDA:1,_RNvNtNtCsfTY50QqRqul_16sqlrustgo_common15network_metrics5testss_29test_network_metrics_creation
FNDA:1,_RNvNtNtCsfTY50QqRqul_16sqlrustgo_common15network_metrics5testss_36test_network_metrics_connection_open
FNDA:1,_RNvNtNtCsfTY50QqRqul_16sqlrustgo_common15network_metrics5testss_40test_network_metrics_bytes_sent_received
FNDA:1,_RNvNtNtCsfTY50QqRqul_16sqlrustgo_common15network_metrics5testss_41test_network_metrics_connection_lifecycle
FNDA:1,_RNvNtNtCsfTY50QqRqul_16sqlrustgo_common15network_metrics5testss_41test_network_metrics_multiple_connections
FNDA:0,_RNvMNtCsfTY50QqRqul_16sqlrustgo_common15network_metricsNtB2_14NetworkMetrics18connections_closed
FNDA:0,_RNvXs0_NtCsfTY50QqRqul_16sqlrustgo_common15network_metricsNtB5_14NetworkMetricsNtNtB7_7metrics7Metrics10get_metric
FNDA:0,_RNvXs0_NtCsfTY50QqRqul_16sqlrustgo_common15network_metricsNtB5_14NetworkMetricsNtNtB7_7metrics7Metrics12record_error
FNDA:0,_RNvXs0_NtCsfTY50QqRqul_16sqlrustgo_common15network_metricsNtB5_14NetworkMetricsNtNtB7_7metrics7Metrics12record_query
FNDA:0,_RNvXs0_NtCsfTY50QqRqul_16sqlrustgo_common15network_metricsNtB5_14NetworkMetricsNtNtB7_7metrics7Metrics16get_metric_names
FNDA:0,_RNvXs0_NtCsfTY50QqRqul_16sqlrustgo_common15network_metricsNtB5_14NetworkMetricsNtNtB7_7metrics7Metrics16record_cache_hit
FNDA:0,_RNvXs0_NtCsfTY50QqRqul_16sqlrustgo_common15network_metricsNtB5_14NetworkMetricsNtNtB7_7metrics7Metrics17record_bytes_read
FNDA:0,_RNvXs0_NtCsfTY50QqRqul_16sqlrustgo_common15network_metricsNtB5_14NetworkMetricsNtNtB7_7metrics7Metrics17record_cache_miss
FNDA:0,_RNvXs0_NtCsfTY50QqRqul_16sqlrustgo_common15network_metricsNtB5_14NetworkMetricsNtNtB7_7metrics7Metrics20record_bytes_written
FNDA:0,_RNvXs0_NtCsfTY50QqRqul_16sqlrustgo_common15network_metricsNtB5_14NetworkMetricsNtNtB7_7metrics7Metrics22record_error_with_type
FNDA:0,_RNvXs0_NtCsfTY50QqRqul_16sqlrustgo_common15network_metricsNtB5_14NetworkMetricsNtNtB7_7metrics7Metrics5reset
FNDA:0,_RNvXs_NtCsfTY50QqRqul_16sqlrustgo_common15network_metricsNtB4_14NetworkMetricsNtNtCs8nPosuWgJFh_4core7default7Default7default
FNDA:1,_RNvMNtCsfTY50QqRqul_16sqlrustgo_common15network_metricsNtB2_14NetworkMetrics10bytes_sent
FNDA:1,_RNvMNtCsfTY50QqRqul_16sqlrustgo_common15network_metricsNtB2_14NetworkMetrics12errors_total
FNDA:1,_RNvMNtCsfTY50QqRqul_16sqlrustgo_common15network_metricsNtB2_14NetworkMetrics12packets_sent
FNDA:2,_RNvMNtCsfTY50QqRqul_16sqlrustgo_common15network_metricsNtB2_14NetworkMetrics12record_error
FNDA:1,_RNvMNtCsfTY50QqRqul_16sqlrustgo_common15network_metricsNtB2_14NetworkMetrics14bytes_received
FNDA:1,_RNvMNtCsfTY50QqRqul_16sqlrustgo_common15network_metricsNtB2_14NetworkMetrics16packets_received
FNDA:1,_RNvMNtCsfTY50QqRqul_16sqlrustgo_common15network_metricsNtB2_14NetworkMetrics17connections_total
FNDA:1,_RNvMNtCsfTY50QqRqul_16sqlrustgo_common15network_metricsNtB2_14NetworkMetrics17record_bytes_sent
FNDA:4,_RNvMNtCsfTY50QqRqul_16sqlrustgo_common15network_metricsNtB2_14NetworkMetrics18connections_active
FNDA:2,_RNvMNtCsfTY50QqRqul_16sqlrustgo_common15network_metricsNtB2_14NetworkMetrics18record_packet_sent
FNDA:1,_RNvMNtCsfTY50QqRqul_16sqlrustgo_common15network_metricsNtB2_14NetworkMetrics21record_bytes_received
FNDA:5,_RNvMNtCsfTY50QqRqul_16sqlrustgo_common15network_metricsNtB2_14NetworkMetrics22record_connection_open
FNDA:1,_RNvMNtCsfTY50QqRqul_16sqlrustgo_common15network_metricsNtB2_14NetworkMetrics22record_packet_received
FNDA:1,_RNvMNtCsfTY50QqRqul_16sqlrustgo_common15network_metricsNtB2_14NetworkMetrics23record_connection_close
FNDA:7,_RNvMNtCsfTY50QqRqul_16sqlrustgo_common15network_metricsNtB2_14NetworkMetrics3new
FNF:34
FNH:22
DA:21,7
DA:22,7
DA:23,7
DA:24,7
DA:25,7
DA:26,7
DA:27,7
DA:28,7
DA:29,7
DA:30,7
DA:31,7
DA:32,7
DA:34,4
DA:35,4
DA:36,4
DA:38,1
DA:39,1
DA:40,1
DA:42,0
DA:43,0
DA:44,0
DA:46,1
DA:47,1
DA:48,1
DA:50,1
DA:51,1
DA:52,1
DA:54,1
DA:55,1
DA:56,1
DA:58,1
DA:59,1
DA:60,1
DA:62,1
DA:63,1
DA:64,1
DA:66,5
DA:67,5
DA:68,5
DA:69,5
DA:71,1
DA:72,1
DA:73,1
DA:74,1
DA:76,1
DA:77,1
DA:78,1
DA:80,1
DA:81,1
DA:82,1
DA:84,2
DA:85,2
DA:86,2
DA:88,1
DA:89,1
DA:90,1
DA:92,2
DA:93,2
DA:94,2
DA:98,0
DA:99,0
DA:100,0
DA:104,0
DA:106,0
DA:107,0
DA:108,0
DA:110,0
DA:111,0
DA:112,0
DA:114,0
DA:115,0
DA:116,0
DA:118,0
DA:119,0
DA:120,0
DA:122,0
DA:124,0
DA:126,0
DA:127,0
DA:128,0
DA:129,0
DA:130,0
DA:131,0
DA:132,0
DA:133,0
DA:134,0
DA:135,0
DA:136,0
DA:138,0
DA:140,0
DA:141,0
DA:142,0
DA:143,0
DA:144,0
DA:145,0
DA:146,0
DA:147,0
DA:148,0
DA:149,0
DA:151,0
DA:153,0
DA:154,0
DA:155,0
DA:156,0
DA:157,0
DA:158,0
DA:159,0
DA:160,0
DA:161,0
DA:162,0
DA:170,1
DA:171,1
DA:172,1
DA:173,1
DA:176,1
DA:177,1
DA:178,1
DA:179,1
DA:180,1
DA:183,1
DA:184,1
DA:185,1
DA:186,1
DA:187,1
DA:188,1
DA:191,1
DA:192,1
DA:193,1
DA:194,1
DA:195,1
DA:196,1
DA:197,1
DA:200,1
DA:201,1
DA:202,1
DA:203,1
DA:204,1
DA:205,1
DA:206,1
DA:207,1
DA:210,1
DA:211,1
DA:212,1
DA:213,1
DA:214,1
DA:215,1
DA:218,1
DA:219,1
DA:220,1
DA:221,1
DA:222,1
DA:223,1
DA:224,1
DA:225,1
BRF:0
BRH:0
LF:154
LH:100
end_of_record