SF:/home/openclaw/dev/yinglichina8848/sqlrustgo/crates/types/src/error.rs
FN:355,_RNvNtNtCsdWsmKXCsmqV_15sqlrustgo_types5error5testss_17test_error_number
FN:305,_RNvNtNtCsdWsmKXCsmqV_15sqlrustgo_types5error5testss_17test_mysql_format
FN:217,_RNvNtNtCsdWsmKXCsmqV_15sqlrustgo_types5error5testss_18test_error_from_io
FN:282,_RNvNtNtCsdWsmKXCsmqV_15sqlrustgo_types5error5testss_18test_error_numbers
FN:461,_RNvNtNtCsdWsmKXCsmqV_15sqlrustgo_types5error5testss_18test_sql_result_ok
FN:236,_RNvNtNtCsdWsmKXCsmqV_15sqlrustgo_types5error5testss_19test_error_equality
FN:167,_RNvNtNtCsdWsmKXCsmqV_15sqlrustgo_types5error5testss_19test_error_messages
FN:468,_RNvNtNtCsdWsmKXCsmqV_15sqlrustgo_types5error5testss_19test_sql_result_err
FN:447,_RNvNtNtCsdWsmKXCsmqV_15sqlrustgo_types5error5testss_19test_sqlstate_clone
FN:255,_RNvNtNtCsdWsmKXCsmqV_15sqlrustgo_types5error5testss_19test_sqlstate_codes
FN:454,_RNvNtNtCsdWsmKXCsmqV_15sqlrustgo_types5error5testss_19test_sqlstate_debug
FN:178,_RNvNtNtCsdWsmKXCsmqV_15sqlrustgo_types5error5testss_20test_all_error_types
FN:225,_RNvNtNtCsdWsmKXCsmqV_15sqlrustgo_types5error5testss_21test_sql_result_alias
FN:335,_RNvNtNtCsdWsmKXCsmqV_15sqlrustgo_types5error5testss_21test_sqlstate_default
FN:208,_RNvNtNtCsdWsmKXCsmqV_15sqlrustgo_types5error5testss_22test_error_from_string
FN:441,_RNvNtNtCsdWsmKXCsmqV_15sqlrustgo_types5error5testss_22test_sqlstate_variants
FN:372,_RNvNtNtCsdWsmKXCsmqV_15sqlrustgo_types5error5testss_23test_all_error_sqlstate
FN:341,_RNvNtNtCsdWsmKXCsmqV_15sqlrustgo_types5error5testss_23test_sqlstate_all_codes
FN:475,_RNvNtNtCsdWsmKXCsmqV_15sqlrustgo_types5error5testss_28test_mysql_format_all_errors
FN:387,_RNvNtNtCsdWsmKXCsmqV_15sqlrustgo_types5error5testss_29test_all_error_types_sqlstate
FN:415,_RNvNtNtCsdWsmKXCsmqV_15sqlrustgo_types5error5testss_33test_all_error_types_error_number
FN:31,_RNvMNtCsdWsmKXCsmqV_15sqlrustgo_types5errorNtB2_8SqlState4code
FN:114,_RNvMs_NtCsdWsmKXCsmqV_15sqlrustgo_types5errorNtB4_8SqlError12error_number
FN:132,_RNvMs_NtCsdWsmKXCsmqV_15sqlrustgo_types5errorNtB4_8SqlError15to_mysql_format
FN:97,_RNvMs_NtCsdWsmKXCsmqV_15sqlrustgo_types5errorNtB4_8SqlError8sqlstate
FN:145,_RNvXs0_NtCsdWsmKXCsmqV_15sqlrustgo_types5errorNtB5_8SqlErrorINtNtCs8nPosuWgJFh_4core7convert4FromNtNtCsj0gLuUEfogP_5alloc6string6StringE4from
FN:151,_RNvXs1_NtCsdWsmKXCsmqV_15sqlrustgo_types5errorNtB5_8SqlErrorINtNtCs8nPosuWgJFh_4core7convert4FromReE4from
FN:157,_RNvXs2_NtCsdWsmKXCsmqV_15sqlrustgo_types5errorNtB5_8SqlErrorINtNtCs8nPosuWgJFh_4core7convert4FromNtNtNtCsicaZO8UCM9y_3std2io5error5ErrorE4from
FNDA:1,_RNvNtNtCsdWsmKXCsmqV_15sqlrustgo_types5error5testss_17test_error_number
FNDA:1,_RNvNtNtCsdWsmKXCsmqV_15sqlrustgo_types5error5testss_17test_mysql_format
FNDA:1,_RNvNtNtCsdWsmKXCsmqV_15sqlrustgo_types5error5testss_18test_error_from_io
FNDA:1,_RNvNtNtCsdWsmKXCsmqV_15sqlrustgo_types5error5testss_18test_error_numbers
FNDA:1,_RNvNtNtCsdWsmKXCsmqV_15sqlrustgo_types5error5testss_18test_sql_result_ok
FNDA:1,_RNvNtNtCsdWsmKXCsmqV_15sqlrustgo_types5error5testss_19test_error_equality
FNDA:1,_RNvNtNtCsdWsmKXCsmqV_15sqlrustgo_types5error5testss_19test_error_messages
FNDA:1,_RNvNtNtCsdWsmKXCsmqV_15sqlrustgo_types5error5testss_19test_sql_result_err
FNDA:1,_RNvNtNtCsdWsmKXCsmqV_15sqlrustgo_types5error5testss_19test_sqlstate_clone
FNDA:1,_RNvNtNtCsdWsmKXCsmqV_15sqlrustgo_types5error5testss_19test_sqlstate_codes
FNDA:1,_RNvNtNtCsdWsmKXCsmqV_15sqlrustgo_types5error5testss_19test_sqlstate_debug
FNDA:1,_RNvNtNtCsdWsmKXCsmqV_15sqlrustgo_types5error5testss_20test_all_error_types
FNDA:1,_RNvNtNtCsdWsmKXCsmqV_15sqlrustgo_types5error5testss_21test_sql_result_alias
FNDA:1,_RNvNtNtCsdWsmKXCsmqV_15sqlrustgo_types5error5testss_21test_sqlstate_default
FNDA:1,_RNvNtNtCsdWsmKXCsmqV_15sqlrustgo_types5error5testss_22test_error_from_string
FNDA:1,_RNvNtNtCsdWsmKXCsmqV_15sqlrustgo_types5error5testss_22test_sqlstate_variants
FNDA:1,_RNvNtNtCsdWsmKXCsmqV_15sqlrustgo_types5error5testss_23test_all_error_sqlstate
FNDA:1,_RNvNtNtCsdWsmKXCsmqV_15sqlrustgo_types5error5testss_23test_sqlstate_all_codes
FNDA:1,_RNvNtNtCsdWsmKXCsmqV_15sqlrustgo_types5error5testss_28test_mysql_format_all_errors
FNDA:1,_RNvNtNtCsdWsmKXCsmqV_15sqlrustgo_types5error5testss_29test_all_error_types_sqlstate
FNDA:1,_RNvNtNtCsdWsmKXCsmqV_15sqlrustgo_types5error5testss_33test_all_error_types_error_number
FNDA:28,_RNvMNtCsdWsmKXCsmqV_15sqlrustgo_types5errorNtB2_8SqlState4code
FNDA:28,_RNvMs_NtCsdWsmKXCsmqV_15sqlrustgo_types5errorNtB4_8SqlError12error_number
FNDA:14,_RNvMs_NtCsdWsmKXCsmqV_15sqlrustgo_types5errorNtB4_8SqlError15to_mysql_format
FNDA:30,_RNvMs_NtCsdWsmKXCsmqV_15sqlrustgo_types5errorNtB4_8SqlError8sqlstate
FNDA:1,_RNvXs0_NtCsdWsmKXCsmqV_15sqlrustgo_types5errorNtB5_8SqlErrorINtNtCs8nPosuWgJFh_4core7convert4FromNtNtCsj0gLuUEfogP_5alloc6string6StringE4from
FNDA:1,_RNvXs1_NtCsdWsmKXCsmqV_15sqlrustgo_types5errorNtB5_8SqlErrorINtNtCs8nPosuWgJFh_4core7convert4FromReE4from
FNDA:1,_RNvXs2_NtCsdWsmKXCsmqV_15sqlrustgo_types5errorNtB5_8SqlErrorINtNtCs8nPosuWgJFh_4core7convert4FromNtNtNtCsicaZO8UCM9y_3std2io5error5ErrorE4from
FNF:28
FNH:28
DA:31,28
DA:32,28
DA:33,2
DA:34,4
DA:35,4
DA:36,5
DA:37,3
DA:38,1
DA:39,3
DA:40,1
DA:41,1
DA:42,4
DA:44,28
DA:97,30
DA:98,30
DA:99,2
DA:100,2
DA:101,2
DA:102,3
DA:103,2
DA:104,2
DA:105,5
DA:106,4
DA:107,4
DA:108,2
DA:109,2
DA:111,30
DA:114,28
DA:115,28
DA:116,3
DA:117,2
DA:118,2
DA:119,2
DA:120,2
DA:121,2
DA:122,4
DA:123,4
DA:124,3
DA:125,2
DA:126,2
DA:128,28
DA:132,14
DA:133,14
DA:134,14
DA:135,14
DA:137,14
DA:138,14
DA:145,1
DA:146,1
DA:147,1
DA:151,1
DA:152,1
DA:153,1
DA:157,1
DA:158,1
DA:159,1
DA:167,1
DA:168,1
DA:169,1
DA:171,1
DA:172,1
DA:173,1
DA:174,1
DA:175,1
DA:178,1
DA:179,1
DA:180,1
DA:181,1
DA:182,1
DA:183,1
DA:184,1
DA:185,1
DA:186,1
DA:187,1
DA:188,1
DA:189,1
DA:190,1
DA:191,1
DA:192,1
DA:193,1
DA:194,1
DA:195,1
DA:196,1
DA:197,1
DA:198,1
DA:201,11
DA:202,11
DA:203,11
DA:205,1
DA:208,1
DA:209,1
DA:210,1
DA:212,1
DA:213,1
DA:214,1
DA:217,1
DA:218,1
DA:219,1
DA:220,1
DA:221,1
DA:222,1
DA:225,1
DA:226,1
DA:227,1
DA:229,1
DA:230,1
DA:231,1
DA:232,1
DA:233,1
DA:236,1
DA:237,1
DA:238,1
DA:239,1
DA:240,1
DA:241,1
DA:242,1
DA:244,1
DA:245,1
DA:246,1
DA:247,1
DA:248,1
DA:249,1
DA:250,1
DA:252,1
DA:255,1
DA:256,1
DA:257,1
DA:258,1
DA:259,1
DA:260,1
DA:262,1
DA:263,1
DA:264,1
DA:265,1
DA:266,1
DA:267,1
DA:269,1
DA:270,1
DA:271,1
DA:272,1
DA:273,1
DA:274,1
DA:276,1
DA:277,1
DA:278,1
DA:279,1
DA:282,1
DA:283,1
DA:284,1
DA:285,1
DA:286,1
DA:288,1
DA:289,1
DA:290,1
DA:291,1
DA:292,1
DA:294,1
DA:295,1
DA:296,1
DA:297,1
DA:298,1
DA:300,1
DA:301,1
DA:302,1
DA:305,1
DA:306,1
DA:307,1
DA:308,1
DA:309,1
DA:310,1
DA:311,1
DA:312,1
DA:313,1
DA:315,1
DA:316,1
DA:317,1
DA:318,1
DA:319,1
DA:320,1
DA:321,1
DA:323,1
DA:324,1
DA:325,1
DA:326,1
DA:327,1
DA:328,1
DA:329,1
DA:330,1
DA:331,1
DA:332,1
DA:335,1
DA:336,1
DA:337,1
DA:338,1
DA:341,1
DA:342,1
DA:343,1
DA:344,1
DA:345,1
DA:346,1
DA:347,1
DA:348,1
DA:349,1
DA:350,1
DA:351,1
DA:352,1
DA:355,1
DA:356,1
DA:357,1
DA:359,1
DA:360,1
DA:361,1
DA:362,1
DA:364,1
DA:365,1
DA:366,1
DA:367,1
DA:368,1
DA:369,1
DA:372,1
DA:373,1
DA:374,1
DA:377,1
DA:378,1
DA:379,1
DA:380,1
DA:381,1
DA:384,1
DA:387,1
DA:388,1
DA:389,1
DA:392,1
DA:393,1
DA:396,1
DA:397,1
DA:400,1
DA:401,1
DA:404,1
DA:405,1
DA:408,1
DA:409,1
DA:412,1
DA:415,1
DA:416,1
DA:417,1
DA:420,1
DA:421,1
DA:424,1
DA:425,1
DA:426,1
DA:429,1
DA:430,1
DA:433,1
DA:434,1
DA:435,1
DA:438,1
DA:441,1
DA:443,1
DA:444,1
DA:447,1
DA:448,1
DA:449,1
DA:450,1
DA:451,1
DA:454,1
DA:455,1
DA:456,1
DA:457,1
DA:458,1
DA:461,1
DA:462,1
DA:463,1
DA:464,1
DA:465,1
DA:468,1
DA:469,1
DA:470,1
DA:471,1
DA:472,1
DA:475,1
DA:476,11
DA:477,1
DA:478,1
DA:479,1
DA:480,1
DA:481,1
DA:482,1
DA:483,1
DA:484,1
DA:485,1
DA:486,1
DA:487,1
DA:488,1
DA:489,1
DA:490,1
DA:491,1
DA:492,1
DA:493,1
DA:494,1
DA:495,1
DA:496,1
DA:497,11
DA:498,11
DA:499,11
DA:500,11
DA:502,1
BRF:0
BRH:0
LF:306
LH:306
end_of_record
SF:/home/openclaw/dev/yinglichina8848/sqlrustgo/crates/types/src/lib.rs
FN:14,_RNvCsdWsmKXCsmqV_15sqlrustgo_types17parse_sql_literal
FN:33,_RNvNtCsdWsmKXCsmqV_15sqlrustgo_types5testss_22test_parse_sql_literal
FNDA:6,_RNvCsdWsmKXCsmqV_15sqlrustgo_types17parse_sql_literal
FNDA:1,_RNvNtCsdWsmKXCsmqV_15sqlrustgo_types5testss_22test_parse_sql_literal
FNF:2
FNH:2
DA:14,6
DA:15,6
DA:17,6
DA:18,6
DA:19,5
DA:20,4
DA:21,3
DA:22,2
DA:23,1
DA:24,0
DA:26,6
DA:33,1
DA:34,1
DA:35,1
DA:36,1
DA:37,1
DA:38,1
DA:39,1
DA:40,1
DA:41,1
DA:43,1
BRF:0
BRH:0
LF:21
LH:20
end_of_record
SF:/home/openclaw/dev/yinglichina8848/sqlrustgo/crates/types/src/row_ref.rs
FN:469,_RNvNtNtCsdWsmKXCsmqV_15sqlrustgo_types7row_ref5testss_18test_row_ref_debug
FN:501,_RNvNtNtCsdWsmKXCsmqV_15sqlrustgo_types7row_ref5testss_21test_row_ref_as_bytes
FN:390,_RNvNtNtCsdWsmKXCsmqV_15sqlrustgo_types7row_ref5testss_22test_row_ref_empty_row
FN:433,_RNvNtNtCsdWsmKXCsmqV_15sqlrustgo_types7row_ref5testss_23test_binary_encode_blob
FN:457,_RNvNtNtCsdWsmKXCsmqV_15sqlrustgo_types7row_ref5testss_23test_binary_encode_date
FN:558,_RNvNtNtCsdWsmKXCsmqV_15sqlrustgo_types7row_ref5testss_23test_row_ref_large_blob
FN:543,_RNvNtNtCsdWsmKXCsmqV_15sqlrustgo_types7row_ref5testss_23test_row_ref_large_text
FN:397,_RNvNtNtCsdWsmKXCsmqV_15sqlrustgo_types7row_ref5testss_24test_row_ref_null_values
FN:410,_RNvNtNtCsdWsmKXCsmqV_15sqlrustgo_types7row_ref5testss_25test_row_ref_to_owned_row
FN:635,_RNvNtNtCsdWsmKXCsmqV_15sqlrustgo_types7row_ref5testss_25test_vec_column_type_impl
FN:657,_RNvNtNtCsdWsmKXCsmqV_15sqlrustgo_types7row_ref5testss_26test_row_ref_boolean_false
FN:422,_RNvNtNtCsdWsmKXCsmqV_15sqlrustgo_types7row_ref5testss_26test_row_ref_out_of_bounds
FN:445,_RNvNtNtCsdWsmKXCsmqV_15sqlrustgo_types7row_ref5testss_28test_binary_encode_timestamp
FN:361,_RNvNtNtCsdWsmKXCsmqV_15sqlrustgo_types7row_ref5testss_28test_encode_decode_roundtrip
FN:589,_RNvNtNtCsdWsmKXCsmqV_15sqlrustgo_types7row_ref5testss_29test_row_ref_all_column_types
FN:509,_RNvNtNtCsdWsmKXCsmqV_15sqlrustgo_types7row_ref5testss_29test_row_ref_multiple_columns
FN:645,_RNvNtNtCsdWsmKXCsmqV_15sqlrustgo_types7row_ref5testss_31test_row_ref_to_owned_empty_row
FN:485,_RNvNtNtCsdWsmKXCsmqV_15sqlrustgo_types7row_ref5testss_36test_row_ref_column_offset_truncated
FN:478,_RNvNtNtCsdWsmKXCsmqV_15sqlrustgo_types7row_ref5testss_36test_row_ref_num_cols_truncated_data
FN:573,_RNvNtNtCsdWsmKXCsmqV_15sqlrustgo_types7row_ref5testss_38test_row_ref_get_column_truncated_data
FN:493,_RNvNtNtCsdWsmKXCsmqV_15sqlrustgo_types7row_ref5testss_40test_row_ref_column_offset_out_of_bounds
FN:98,_RINvMNtCsdWsmKXCsmqV_15sqlrustgo_types7row_refNtB3_6RowRef10get_columnINtNtCsj0gLuUEfogP_5alloc3vec3VecNtB3_10ColumnTypeEEB5_
FN:209,_RINvMNtCsdWsmKXCsmqV_15sqlrustgo_types7row_refNtB3_6RowRef12to_owned_rowINtNtCsj0gLuUEfogP_5alloc3vec3VecNtB3_10ColumnTypeEEB5_
FN:287,_RNCNvNtCsdWsmKXCsmqV_15sqlrustgo_types7row_ref10encode_row0B5_
FN:44,_RNvMNtCsdWsmKXCsmqV_15sqlrustgo_types7row_refNtB2_6RowRef10from_bytesB4_
FN:71,_RNvMNtCsdWsmKXCsmqV_15sqlrustgo_types7row_refNtB2_6RowRef13column_offsetB4_
FN:121,_RNvMNtCsdWsmKXCsmqV_15sqlrustgo_types7row_refNtB2_6RowRef14parse_value_at
FN:50,_RNvMNtCsdWsmKXCsmqV_15sqlrustgo_types7row_refNtB2_6RowRef8as_bytesB4_
FN:58,_RNvMNtCsdWsmKXCsmqV_15sqlrustgo_types7row_refNtB2_6RowRef8num_colsB4_
FN:277,_RNvNtCsdWsmKXCsmqV_15sqlrustgo_types7row_ref10encode_row
FN:314,_RNvNtCsdWsmKXCsmqV_15sqlrustgo_types7row_ref19binary_encode_value
FN:226,_RNvXs_NtCsdWsmKXCsmqV_15sqlrustgo_types7row_refNtB4_6RowRefNtNtCs8nPosuWgJFh_4core3fmt5Debug3fmt
FN:264,_RNvXs0_NtCsdWsmKXCsmqV_15sqlrustgo_types7row_refINtNtCsj0gLuUEfogP_5alloc3vec3VecNtB5_10ColumnTypeENtB5_9RowSchema11column_type
FN:260,_RNvXs0_NtCsdWsmKXCsmqV_15sqlrustgo_types7row_refINtNtCsj0gLuUEfogP_5alloc3vec3VecNtB5_10ColumnTypeENtB5_9RowSchema11num_columns
FNDA:1,_RNvNtNtCsdWsmKXCsmqV_15sqlrustgo_types7row_ref5testss_18test_row_ref_debug
FNDA:1,_RNvNtNtCsdWsmKXCsmqV_15sqlrustgo_types7row_ref5testss_21test_row_ref_as_bytes
FNDA:1,_RNvNtNtCsdWsmKXCsmqV_15sqlrustgo_types7row_ref5testss_22test_row_ref_empty_row
FNDA:1,_RNvNtNtCsdWsmKXCsmqV_15sqlrustgo_types7row_ref5testss_23test_binary_encode_blob
FNDA:1,_RNvNtNtCsdWsmKXCsmqV_15sqlrustgo_types7row_ref5testss_23test_binary_encode_date
FNDA:1,_RNvNtNtCsdWsmKXCsmqV_15sqlrustgo_types7row_ref5testss_23test_row_ref_large_blob
FNDA:1,_RNvNtNtCsdWsmKXCsmqV_15sqlrustgo_types7row_ref5testss_23test_row_ref_large_text
FNDA:1,_RNvNtNtCsdWsmKXCsmqV_15sqlrustgo_types7row_ref5testss_24test_row_ref_null_values
FNDA:1,_RNvNtNtCsdWsmKXCsmqV_15sqlrustgo_types7row_ref5testss_25test_row_ref_to_owned_row
FNDA:1,_RNvNtNtCsdWsmKXCsmqV_15sqlrustgo_types7row_ref5testss_25test_vec_column_type_impl
FNDA:1,_RNvNtNtCsdWsmKXCsmqV_15sqlrustgo_types7row_ref5testss_26test_row_ref_boolean_false
FNDA:1,_RNvNtNtCsdWsmKXCsmqV_15sqlrustgo_types7row_ref5testss_26test_row_ref_out_of_bounds
FNDA:1,_RNvNtNtCsdWsmKXCsmqV_15sqlrustgo_types7row_ref5testss_28test_binary_encode_timestamp
FNDA:1,_RNvNtNtCsdWsmKXCsmqV_15sqlrustgo_types7row_ref5testss_28test_encode_decode_roundtrip
FNDA:1,_RNvNtNtCsdWsmKXCsmqV_15sqlrustgo_types7row_ref5testss_29test_row_ref_all_column_types
FNDA:1,_RNvNtNtCsdWsmKXCsmqV_15sqlrustgo_types7row_ref5testss_29test_row_ref_multiple_columns
FNDA:1,_RNvNtNtCsdWsmKXCsmqV_15sqlrustgo_types7row_ref5testss_31test_row_ref_to_owned_empty_row
FNDA:1,_RNvNtNtCsdWsmKXCsmqV_15sqlrustgo_types7row_ref5testss_36test_row_ref_column_offset_truncated
FNDA:1,_RNvNtNtCsdWsmKXCsmqV_15sqlrustgo_types7row_ref5testss_36test_row_ref_num_cols_truncated_data
FNDA:1,_RNvNtNtCsdWsmKXCsmqV_15sqlrustgo_types7row_ref5testss_38test_row_ref_get_column_truncated_data
FNDA:1,_RNvNtNtCsdWsmKXCsmqV_15sqlrustgo_types7row_ref5testss_40test_row_ref_column_offset_out_of_bounds
FNDA:30,_RINvMNtCsdWsmKXCsmqV_15sqlrustgo_types7row_refNtB3_6RowRef10get_columnINtNtCsj0gLuUEfogP_5alloc3vec3VecNtB3_10ColumnTypeEEB5_
FNDA:2,_RINvMNtCsdWsmKXCsmqV_15sqlrustgo_types7row_refNtB3_6RowRef12to_owned_rowINtNtCsj0gLuUEfogP_5alloc3vec3VecNtB3_10ColumnTypeEEB5_
FNDA:34,_RNCNvNtCsdWsmKXCsmqV_15sqlrustgo_types7row_ref10encode_row0B5_
FNDA:20,_RNvMNtCsdWsmKXCsmqV_15sqlrustgo_types7row_refNtB2_6RowRef10from_bytesB4_
FNDA:31,_RNvMNtCsdWsmKXCsmqV_15sqlrustgo_types7row_refNtB2_6RowRef13column_offsetB4_
FNDA:29,_RNvMNtCsdWsmKXCsmqV_15sqlrustgo_types7row_refNtB2_6RowRef14parse_value_at
FNDA:1,_RNvMNtCsdWsmKXCsmqV_15sqlrustgo_types7row_refNtB2_6RowRef8as_bytesB4_
FNDA:69,_RNvMNtCsdWsmKXCsmqV_15sqlrustgo_types7row_refNtB2_6RowRef8num_colsB4_
FNDA:18,_RNvNtCsdWsmKXCsmqV_15sqlrustgo_types7row_ref10encode_row
FNDA:34,_RNvNtCsdWsmKXCsmqV_15sqlrustgo_types7row_ref19binary_encode_value
FNDA:1,_RNvXs_NtCsdWsmKXCsmqV_15sqlrustgo_types7row_refNtB4_6RowRefNtNtCs8nPosuWgJFh_4core3fmt5Debug3fmt
FNDA:33,_RNvXs0_NtCsdWsmKXCsmqV_15sqlrustgo_types7row_refINtNtCsj0gLuUEfogP_5alloc3vec3VecNtB5_10ColumnTypeENtB5_9RowSchema11column_type
FNDA:1,_RNvXs0_NtCsdWsmKXCsmqV_15sqlrustgo_types7row_refINtNtCsj0gLuUEfogP_5alloc3vec3VecNtB5_10ColumnTypeENtB5_9RowSchema11num_columns
FNF:34
FNH:34
DA:44,20
DA:45,20
DA:46,20
DA:50,1
DA:51,1
DA:52,1
DA:58,69
DA:59,69
DA:60,1
DA:61,68
DA:62,68
DA:63,68
DA:64,68
DA:65,69
DA:71,31
DA:72,31
DA:75,31
DA:76,31
DA:77,1
DA:78,30
DA:80,30
DA:81,1
DA:82,29
DA:84,29
DA:85,29
DA:86,29
DA:87,29
DA:88,31
DA:98,30
DA:99,30
DA:101,30
DA:102,1
DA:103,29
DA:105,29
DA:106,29
DA:109,29
DA:110,29
DA:112,29
DA:113,0
DA:114,29
DA:116,29
DA:117,30
DA:121,29
DA:122,29
DA:123,2
DA:124,27
DA:126,27
DA:127,2
DA:129,6
DA:130,0
DA:132,6
DA:133,6
DA:134,6
DA:138,2
DA:139,0
DA:141,2
DA:142,2
DA:143,2
DA:148,6
DA:149,0
DA:150,6
DA:151,6
DA:152,6
DA:153,6
DA:154,6
DA:155,0
DA:157,6
DA:158,6
DA:159,6
DA:160,6
DA:164,4
DA:165,0
DA:167,4
DA:172,3
DA:173,0
DA:174,3
DA:175,3
DA:176,3
DA:177,3
DA:178,3
DA:179,0
DA:181,3
DA:185,2
DA:186,0
DA:188,2
DA:189,2
DA:190,2
DA:194,2
DA:195,0
DA:197,2
DA:198,2
DA:199,2
DA:203,29
DA:209,2
DA:210,2
DA:211,2
DA:213,2
DA:214,2
DA:215,2
DA:216,2
DA:217,0
DA:218,0
DA:221,2
DA:222,2
DA:226,1
DA:227,1
DA:228,1
DA:229,1
DA:230,1
DA:231,1
DA:260,1
DA:261,1
DA:262,1
DA:264,33
DA:265,33
DA:266,33
DA:277,18
DA:278,18
DA:279,2
DA:280,16
DA:282,16
DA:285,16
DA:287,34
DA:290,16
DA:291,16
DA:293,16
DA:296,16
DA:299,16
DA:300,34
DA:301,34
DA:302,34
DA:303,34
DA:306,34
DA:307,34
DA:308,34
DA:310,16
DA:311,18
DA:314,34
DA:315,34
DA:316,3
DA:317,4
DA:318,10
DA:319,2
DA:320,0
DA:321,8
DA:322,8
DA:323,8
DA:324,8
DA:325,8
DA:327,3
DA:328,3
DA:329,3
DA:330,3
DA:331,3
DA:333,2
DA:334,2
DA:335,0
DA:336,0
DA:337,0
DA:338,0
DA:339,0
DA:340,0
DA:341,0
DA:342,0
DA:343,0
DA:344,0
DA:346,0
DA:347,0
DA:348,0
DA:349,0
DA:350,0
DA:351,0
DA:354,34
DA:361,1
DA:362,1
DA:363,1
DA:364,1
DA:365,1
DA:366,1
DA:368,1
DA:369,1
DA:370,1
DA:371,1
DA:372,1
DA:375,1
DA:376,1
DA:378,1
DA:380,1
DA:381,1
DA:382,1
DA:383,1
DA:385,1
DA:386,1
DA:387,1
DA:390,1
DA:391,1
DA:392,1
DA:393,1
DA:394,1
DA:397,1
DA:398,1
DA:399,1
DA:401,1
DA:402,1
DA:404,1
DA:405,1
DA:406,1
DA:407,1
DA:410,1
DA:411,1
DA:412,1
DA:414,1
DA:415,1
DA:416,1
DA:418,1
DA:419,1
DA:422,1
DA:423,1
DA:424,1
DA:426,1
DA:427,1
DA:429,1
DA:430,1
DA:433,1
DA:434,1
DA:435,1
DA:436,1
DA:438,1
DA:439,1
DA:441,1
DA:442,1
DA:445,1
DA:446,1
DA:447,1
DA:448,1
DA:450,1
DA:451,1
DA:453,1
DA:454,1
DA:457,1
DA:458,1
DA:459,1
DA:460,1
DA:462,1
DA:463,1
DA:465,1
DA:466,1
DA:469,1
DA:470,1
DA:471,1
DA:472,1
DA:473,1
DA:474,1
DA:475,1
DA:478,1
DA:480,1
DA:481,1
DA:482,1
DA:485,1
DA:487,1
DA:488,1
DA:489,1
DA:490,1
DA:493,1
DA:494,1
DA:495,1
DA:496,1
DA:497,1
DA:498,1
DA:501,1
DA:502,1
DA:503,1
DA:504,1
DA:505,1
DA:506,1
DA:509,1
DA:510,1
DA:511,1
DA:512,1
DA:513,1
DA:514,1
DA:515,1
DA:517,1
DA:518,1
DA:519,1
DA:520,1
DA:521,1
DA:522,1
DA:525,1
DA:526,1
DA:528,1
DA:529,1
DA:530,1
DA:531,1
DA:532,1
DA:534,1
DA:535,1
DA:536,1
DA:537,1
DA:539,1
DA:540,1
DA:543,1
DA:544,1
DA:545,1
DA:546,1
DA:548,1
DA:549,1
DA:551,1
DA:552,1
DA:553,1
DA:555,1
DA:558,1
DA:559,1
DA:560,1
DA:561,1
DA:563,1
DA:564,1
DA:566,1
DA:567,1
DA:568,1
DA:570,1
DA:573,1
DA:575,1
DA:576,1
DA:578,1
DA:579,1
DA:582,1
DA:583,1
DA:586,1
DA:589,1
DA:590,1
DA:591,1
DA:592,1
DA:593,1
DA:594,1
DA:595,1
DA:596,1
DA:597,1
DA:598,1
DA:600,1
DA:601,1
DA:602,1
DA:603,1
DA:604,1
DA:605,1
DA:606,1
DA:607,1
DA:608,1
DA:611,1
DA:612,1
DA:614,1
DA:615,1
DA:616,1
DA:617,1
DA:618,1
DA:619,1
DA:620,1
DA:621,1
DA:623,1
DA:624,1
DA:625,1
DA:627,1
DA:628,1
DA:629,1
DA:632,1
DA:635,1
DA:636,1
DA:637,1
DA:638,1
DA:639,1
DA:640,1
DA:641,1
DA:642,1
DA:645,1
DA:646,1
DA:647,1
DA:649,1
DA:650,1
DA:651,1
DA:653,1
DA:654,1
DA:657,1
DA:658,1
DA:659,1
DA:661,1
DA:662,1
DA:664,1
DA:665,1
BRF:0
BRH:0
LF:389
LH:360
end_of_record
SF:/home/openclaw/dev/yinglichina8848/sqlrustgo/crates/types/src/value.rs
FN:165,_RNvMs3_NtCsdWsmKXCsmqV_15sqlrustgo_types5valueNtB5_5Value10as_integer
FN:280,_RNvMs3_NtCsdWsmKXCsmqV_15sqlrustgo_types5valueNtB5_5Value12as_timestamp
FN:243,_RNvMs3_NtCsdWsmKXCsmqV_15sqlrustgo_types5valueNtB5_5Value12to_index_key
FN:200,_RNvMs3_NtCsdWsmKXCsmqV_15sqlrustgo_types5valueNtB5_5Value13to_sql_string
FN:288,_RNvMs3_NtCsdWsmKXCsmqV_15sqlrustgo_types5valueNtB5_5Value19timestamp_to_string
FN:257,_RNvMs3_NtCsdWsmKXCsmqV_15sqlrustgo_types5valueNtB5_5Value20estimate_memory_size
FN:189,_RNvMs3_NtCsdWsmKXCsmqV_15sqlrustgo_types5valueNtB5_5Value7to_bool
FN:173,_RNvMs3_NtCsdWsmKXCsmqV_15sqlrustgo_types5valueNtB5_5Value8as_float
FN:275,_RNvMs3_NtCsdWsmKXCsmqV_15sqlrustgo_types5valueNtB5_5Value9timestamp
FN:224,_RNvMs3_NtCsdWsmKXCsmqV_15sqlrustgo_types5valueNtB5_5Value9type_name
FN:330,_RNvNtCsdWsmKXCsmqV_15sqlrustgo_types5value12is_leap_year
FN:334,_RNvNtCsdWsmKXCsmqV_15sqlrustgo_types5value17days_to_month_day
FN:297,_RNvNtCsdWsmKXCsmqV_15sqlrustgo_types5value28timestamp_to_datetime_string
FN:108,_RNvNvXs2_NtCsdWsmKXCsmqV_15sqlrustgo_types5valueNtB7_5ValueNtNtCs8nPosuWgJFh_4core3cmp3Ord3cmp13variant_order
FN:100,_RNvXs1_NtCsdWsmKXCsmqV_15sqlrustgo_types5valueNtB5_5ValueNtNtCs8nPosuWgJFh_4core3cmp10PartialOrd11partial_cmp
FN:106,_RNvXs2_NtCsdWsmKXCsmqV_15sqlrustgo_types5valueNtB5_5ValueNtNtCs8nPosuWgJFh_4core3cmp3Ord3cmp
FN:352,_RNvXs4_NtCsdWsmKXCsmqV_15sqlrustgo_types5valueNtB5_5ValueNtNtCs8nPosuWgJFh_4core3fmt7Display3fmt
FN:76,_RNvXs_NtCsdWsmKXCsmqV_15sqlrustgo_types5valueNtB4_5ValueNtNtCs8nPosuWgJFh_4core3cmp9PartialEq2eq
FN:51,_RINvXNtCsdWsmKXCsmqV_15sqlrustgo_types5valueNtB3_5ValueNtNtCs8nPosuWgJFh_4core4hash4Hash4hashNtNtNtCsicaZO8UCM9y_3std4hash6random13DefaultHasherEB5_
FN:215,_RNCNvMs3_NtCsdWsmKXCsmqV_15sqlrustgo_types5valueNtB7_5Value13to_sql_string0B9_
FN:269,_RNCNvMs3_NtCsdWsmKXCsmqV_15sqlrustgo_types5valueNtB7_5Value20estimate_memory_size0B9_
FN:181,_RNvMs3_NtCsdWsmKXCsmqV_15sqlrustgo_types5valueNtB5_5Value10as_decimal
FN:463,_RNvNtNtCsdWsmKXCsmqV_15sqlrustgo_types5value5testss_13test_value_eq
FN:392,_RNvNtNtCsdWsmKXCsmqV_15sqlrustgo_types5value5testss_15test_value_blob
FN:560,_RNvNtNtCsdWsmKXCsmqV_15sqlrustgo_types5value5testss_16test_value_clone
FN:567,_RNvNtNtCsdWsmKXCsmqV_15sqlrustgo_types5value5testss_16test_value_debug
FN:690,_RNvNtNtCsdWsmKXCsmqV_15sqlrustgo_types5value5testss_17test_is_leap_year
FN:735,_RNvNtNtCsdWsmKXCsmqV_15sqlrustgo_types5value5testss_18test_value_to_bool
FN:747,_RNvNtNtCsdWsmKXCsmqV_15sqlrustgo_types5value5testss_19test_value_as_float
FN:788,_RNvNtNtCsdWsmKXCsmqV_15sqlrustgo_types5value5testss_19test_value_ordering
FN:1081,_RNvNtNtCsdWsmKXCsmqV_15sqlrustgo_types5value5testss_19test_value_uuid_max
FN:610,_RNvNtNtCsdWsmKXCsmqV_15sqlrustgo_types5value5testss_20test_value_date_hash
FN:1027,_RNvNtNtCsdWsmKXCsmqV_15sqlrustgo_types5value5testss_20test_value_enum_hash
FN:512,_RNvNtNtCsdWsmKXCsmqV_15sqlrustgo_types5value5testss_20test_value_hash_blob
FN:479,_RNvNtNtCsdWsmKXCsmqV_15sqlrustgo_types5value5testss_20test_value_hash_null
FN:501,_RNvNtNtCsdWsmKXCsmqV_15sqlrustgo_types5value5testss_20test_value_hash_text
FN:363,_RNvNtNtCsdWsmKXCsmqV_15sqlrustgo_types5value5testss_20test_value_to_string
FN:372,_RNvNtNtCsdWsmKXCsmqV_15sqlrustgo_types5value5testss_20test_value_type_name
FN:906,_RNvNtNtCsdWsmKXCsmqV_15sqlrustgo_types5value5testss_20test_value_uuid_hash
FN:1075,_RNvNtNtCsdWsmKXCsmqV_15sqlrustgo_types5value5testss_20test_value_uuid_zero
FN:974,_RNvNtNtCsdWsmKXCsmqV_15sqlrustgo_types5value5testss_21test_value_array_hash
FN:398,_RNvNtNtCsdWsmKXCsmqV_15sqlrustgo_types5value5testss_21test_value_as_integer
FN:876,_RNvNtNtCsdWsmKXCsmqV_15sqlrustgo_types5value5testss_21test_value_blob_empty
FN:589,_RNvNtNtCsdWsmKXCsmqV_15sqlrustgo_types5value5testss_21test_value_date_basic
FN:1004,_RNvNtNtCsdWsmKXCsmqV_15sqlrustgo_types5value5testss_21test_value_enum_basic
FN:438,_RNvNtNtCsdWsmKXCsmqV_15sqlrustgo_types5value5testss_21test_value_partial_eq
FN:884,_RNvNtNtCsdWsmKXCsmqV_15sqlrustgo_types5value5testss_21test_value_uuid_basic
FN:755,_RNvNtNtCsdWsmKXCsmqV_15sqlrustgo_types5value5testss_22test_days_to_month_day
FN:942,_RNvNtNtCsdWsmKXCsmqV_15sqlrustgo_types5value5testss_22test_value_array_basic
FN:959,_RNvNtNtCsdWsmKXCsmqV_15sqlrustgo_types5value5testss_22test_value_array_empty
FN:813,_RNvNtNtCsdWsmKXCsmqV_15sqlrustgo_types5value5testss_22test_value_partial_ord
FN:993,_RNvNtNtCsdWsmKXCsmqV_15sqlrustgo_types5value5testss_23test_value_array_nested
FN:490,_RNvNtNtCsdWsmKXCsmqV_15sqlrustgo_types5value5testss_23test_value_hash_boolean
FN:869,_RNvNtNtCsdWsmKXCsmqV_15sqlrustgo_types5value5testss_23test_value_text_unicode
FN:672,_RNvNtNtCsdWsmKXCsmqV_15sqlrustgo_types5value5testss_24test_timestamp_to_string
FN:382,_RNvNtNtCsdWsmKXCsmqV_15sqlrustgo_types5value5testss_24test_value_boolean_false
FN:595,_RNvNtNtCsdWsmKXCsmqV_15sqlrustgo_types5value5testss_24test_value_date_equality
FN:418,_RNvNtNtCsdWsmKXCsmqV_15sqlrustgo_types5value5testss_24test_value_display_trait
FN:1016,_RNvNtNtCsdWsmKXCsmqV_15sqlrustgo_types5value5testss_24test_value_enum_equality
FN:1047,_RNvNtNtCsdWsmKXCsmqV_15sqlrustgo_types5value5testss_24test_value_enum_ordering
FN:698,_RNvNtNtCsdWsmKXCsmqV_15sqlrustgo_types5value5testss_24test_value_type_name_new
FN:897,_RNvNtNtCsdWsmKXCsmqV_15sqlrustgo_types5value5testss_24test_value_uuid_equality
FN:924,_RNvNtNtCsdWsmKXCsmqV_15sqlrustgo_types5value5testss_24test_value_uuid_ordering
FN:965,_RNvNtNtCsdWsmKXCsmqV_15sqlrustgo_types5value5testss_25test_value_array_equality
FN:410,_RNvNtNtCsdWsmKXCsmqV_15sqlrustgo_types5value5testss_25test_value_blob_to_string
FN:581,_RNvNtNtCsdWsmKXCsmqV_15sqlrustgo_types5value5testss_25test_value_float_infinity
FN:523,_RNvNtNtCsdWsmKXCsmqV_15sqlrustgo_types5value5testss_25test_value_hash_float_nan
FN:655,_RNvNtNtCsdWsmKXCsmqV_15sqlrustgo_types5value5testss_25test_value_timestamp_hash
FN:1064,_RNvNtNtCsdWsmKXCsmqV_15sqlrustgo_types5value5testss_26test_value_array_with_enum
FN:427,_RNvNtNtCsdWsmKXCsmqV_15sqlrustgo_types5value5testss_26test_value_float_precision
FN:628,_RNvNtNtCsdWsmKXCsmqV_15sqlrustgo_types5value5testss_26test_value_timestamp_basic
FN:933,_RNvNtNtCsdWsmKXCsmqV_15sqlrustgo_types5value5testss_26test_value_uuid_partial_eq
FN:856,_RNvNtNtCsdWsmKXCsmqV_15sqlrustgo_types5value5testss_27test_value_float_edge_cases
FN:387,_RNvNtNtCsdWsmKXCsmqV_15sqlrustgo_types5value5testss_27test_value_integer_negative
FN:649,_RNvNtNtCsdWsmKXCsmqV_15sqlrustgo_types5value5testss_27test_value_timestamp_helper
FN:708,_RNvNtNtCsdWsmKXCsmqV_15sqlrustgo_types5value5testss_27test_value_to_index_key_new
FN:574,_RNvNtNtCsdWsmKXCsmqV_15sqlrustgo_types5value5testss_28test_value_blob_hex_encoding
FN:555,_RNvNtNtCsdWsmKXCsmqV_15sqlrustgo_types5value5testss_28test_value_to_index_key_blob
FN:545,_RNvNtNtCsdWsmKXCsmqV_15sqlrustgo_types5value5testss_28test_value_to_index_key_null
FN:539,_RNvNtNtCsdWsmKXCsmqV_15sqlrustgo_types5value5testss_28test_value_to_index_key_text
FN:715,_RNvNtNtCsdWsmKXCsmqV_15sqlrustgo_types5value5testss_28test_value_to_sql_string_new
FN:848,_RNvNtNtCsdWsmKXCsmqV_15sqlrustgo_types5value5testss_29test_value_as_integer_or_zero
FN:604,_RNvNtNtCsdWsmKXCsmqV_15sqlrustgo_types5value5testss_29test_value_date_to_sql_string
FN:1010,_RNvNtNtCsdWsmKXCsmqV_15sqlrustgo_types5value5testss_29test_value_enum_to_sql_string
FN:830,_RNvNtNtCsdWsmKXCsmqV_15sqlrustgo_types5value5testss_29test_value_float_nan_ordering
FN:432,_RNvNtNtCsdWsmKXCsmqV_15sqlrustgo_types5value5testss_29test_value_text_special_chars
FN:634,_RNvNtNtCsdWsmKXCsmqV_15sqlrustgo_types5value5testss_29test_value_timestamp_equality
FN:550,_RNvNtNtCsdWsmKXCsmqV_15sqlrustgo_types5value5testss_29test_value_to_index_key_float
FN:890,_RNvNtNtCsdWsmKXCsmqV_15sqlrustgo_types5value5testss_29test_value_uuid_to_sql_string
FN:948,_RNvNtNtCsdWsmKXCsmqV_15sqlrustgo_types5value5testss_30test_value_array_to_sql_string
FN:405,_RNvNtNtCsdWsmKXCsmqV_15sqlrustgo_types5value5testss_30test_value_as_integer_negative
FN:723,_RNvNtNtCsdWsmKXCsmqV_15sqlrustgo_types5value5testss_31test_value_estimate_memory_size
FN:452,_RNvNtNtCsdWsmKXCsmqV_15sqlrustgo_types5value5testss_31test_value_partial_eq_not_equal
FN:534,_RNvNtNtCsdWsmKXCsmqV_15sqlrustgo_types5value5testss_31test_value_to_index_key_integer
FN:643,_RNvNtNtCsdWsmKXCsmqV_15sqlrustgo_types5value5testss_34test_value_timestamp_to_sql_string
FN:680,_RNvNtNtCsdWsmKXCsmqV_15sqlrustgo_types5value5testss_35test_timestamp_to_string_known_date
FN:781,_RNvNtNtCsdWsmKXCsmqV_15sqlrustgo_types5value5testss_35test_value_timestamp_to_string_none
FN:1040,_RNvNtNtCsdWsmKXCsmqV_15sqlrustgo_types5value5testss_36test_value_enum_estimate_memory_size
FN:919,_RNvNtNtCsdWsmKXCsmqV_15sqlrustgo_types5value5testss_36test_value_uuid_estimate_memory_size
FN:987,_RNvNtNtCsdWsmKXCsmqV_15sqlrustgo_types5value5testss_37test_value_array_estimate_memory_size
FN:1056,_RNvNtNtCsdWsmKXCsmqV_15sqlrustgo_types5value5testss_41test_value_enum_same_index_different_name
FN:774,_RNvNtNtCsdWsmKXCsmqV_15sqlrustgo_types5value5testss_43test_value_timestamp_none_for_non_timestamp
FNDA:7,_RNvMs3_NtCsdWsmKXCsmqV_15sqlrustgo_types5valueNtB5_5Value10as_integer
FNDA:4,_RNvMs3_NtCsdWsmKXCsmqV_15sqlrustgo_types5valueNtB5_5Value12as_timestamp
FNDA:8,_RNvMs3_NtCsdWsmKXCsmqV_15sqlrustgo_types5valueNtB5_5Value12to_index_key
FNDA:37,_RNvMs3_NtCsdWsmKXCsmqV_15sqlrustgo_types5valueNtB5_5Value13to_sql_string
FNDA:5,_RNvMs3_NtCsdWsmKXCsmqV_15sqlrustgo_types5valueNtB5_5Value19timestamp_to_string
FNDA:13,_RNvMs3_NtCsdWsmKXCsmqV_15sqlrustgo_types5valueNtB5_5Value20estimate_memory_size
FNDA:8,_RNvMs3_NtCsdWsmKXCsmqV_15sqlrustgo_types5valueNtB5_5Value7to_bool
FNDA:8,_RNvMs3_NtCsdWsmKXCsmqV_15sqlrustgo_types5valueNtB5_5Value8as_float
FNDA:1,_RNvMs3_NtCsdWsmKXCsmqV_15sqlrustgo_types5valueNtB5_5Value9timestamp
FNDA:21,_RNvMs3_NtCsdWsmKXCsmqV_15sqlrustgo_types5valueNtB5_5Value9type_name
FNDA:56,_RNvNtCsdWsmKXCsmqV_15sqlrustgo_types5value12is_leap_year
FNDA:11,_RNvNtCsdWsmKXCsmqV_15sqlrustgo_types5value17days_to_month_day
FNDA:2,_RNvNtCsdWsmKXCsmqV_15sqlrustgo_types5value28timestamp_to_datetime_string
FNDA:34,_RNvNvXs2_NtCsdWsmKXCsmqV_15sqlrustgo_types5valueNtB7_5ValueNtNtCs8nPosuWgJFh_4core3cmp3Ord3cmp13variant_order
FNDA:3,_RNvXs1_NtCsdWsmKXCsmqV_15sqlrustgo_types5valueNtB5_5ValueNtNtCs8nPosuWgJFh_4core3cmp10PartialOrd11partial_cmp
FNDA:17,_RNvXs2_NtCsdWsmKXCsmqV_15sqlrustgo_types5valueNtB5_5ValueNtNtCs8nPosuWgJFh_4core3cmp3Ord3cmp
FNDA:1,_RNvXs4_NtCsdWsmKXCsmqV_15sqlrustgo_types5valueNtB5_5ValueNtNtCs8nPosuWgJFh_4core3fmt7Display3fmt
FNDA:69,_RNvXs_NtCsdWsmKXCsmqV_15sqlrustgo_types5valueNtB4_5ValueNtNtCs8nPosuWgJFh_4core3cmp9PartialEq2eq
FNDA:21,_RINvXNtCsdWsmKXCsmqV_15sqlrustgo_types5valueNtB3_5ValueNtNtCs8nPosuWgJFh_4core4hash4Hash4hashNtNtNtCsicaZO8UCM9y_3std4hash6random13DefaultHasherEB5_
FNDA:8,_RNCNvMs3_NtCsdWsmKXCsmqV_15sqlrustgo_types5valueNtB7_5Value13to_sql_string0B9_
FNDA:2,_RNCNvMs3_NtCsdWsmKXCsmqV_15sqlrustgo_types5valueNtB7_5Value20estimate_memory_size0B9_
FNDA:0,_RNvMs3_NtCsdWsmKXCsmqV_15sqlrustgo_types5valueNtB5_5Value10as_decimal
FNDA:1,_RNvNtNtCsdWsmKXCsmqV_15sqlrustgo_types5value5testss_13test_value_eq
FNDA:1,_RNvNtNtCsdWsmKXCsmqV_15sqlrustgo_types5value5testss_15test_value_blob
FNDA:1,_RNvNtNtCsdWsmKXCsmqV_15sqlrustgo_types5value5testss_16test_value_clone
FNDA:1,_RNvNtNtCsdWsmKXCsmqV_15sqlrustgo_types5value5testss_16test_value_debug
FNDA:1,_RNvNtNtCsdWsmKXCsmqV_15sqlrustgo_types5value5testss_17test_is_leap_year
FNDA:1,_RNvNtNtCsdWsmKXCsmqV_15sqlrustgo_types5value5testss_18test_value_to_bool
FNDA:1,_RNvNtNtCsdWsmKXCsmqV_15sqlrustgo_types5value5testss_19test_value_as_float
FNDA:1,_RNvNtNtCsdWsmKXCsmqV_15sqlrustgo_types5value5testss_19test_value_ordering
FNDA:1,_RNvNtNtCsdWsmKXCsmqV_15sqlrustgo_types5value5testss_19test_value_uuid_max
FNDA:1,_RNvNtNtCsdWsmKXCsmqV_15sqlrustgo_types5value5testss_20test_value_date_hash
FNDA:1,_RNvNtNtCsdWsmKXCsmqV_15sqlrustgo_types5value5testss_20test_value_enum_hash
FNDA:1,_RNvNtNtCsdWsmKXCsmqV_15sqlrustgo_types5value5testss_20test_value_hash_blob
FNDA:1,_RNvNtNtCsdWsmKXCsmqV_15sqlrustgo_types5value5testss_20test_value_hash_null
FNDA:1,_RNvNtNtCsdWsmKXCsmqV_15sqlrustgo_types5value5testss_20test_value_hash_text
FNDA:1,_RNvNtNtCsdWsmKXCsmqV_15sqlrustgo_types5value5testss_20test_value_to_string
FNDA:1,_RNvNtNtCsdWsmKXCsmqV_15sqlrustgo_types5value5testss_20test_value_type_name
FNDA:1,_RNvNtNtCsdWsmKXCsmqV_15sqlrustgo_types5value5testss_20test_value_uuid_hash
FNDA:1,_RNvNtNtCsdWsmKXCsmqV_15sqlrustgo_types5value5testss_20test_value_uuid_zero
FNDA:1,_RNvNtNtCsdWsmKXCsmqV_15sqlrustgo_types5value5testss_21test_value_array_hash
FNDA:1,_RNvNtNtCsdWsmKXCsmqV_15sqlrustgo_types5value5testss_21test_value_as_integer
FNDA:1,_RNvNtNtCsdWsmKXCsmqV_15sqlrustgo_types5value5testss_21test_value_blob_empty
FNDA:1,_RNvNtNtCsdWsmKXCsmqV_15sqlrustgo_types5value5testss_21test_value_date_basic
FNDA:1,_RNvNtNtCsdWsmKXCsmqV_15sqlrustgo_types5value5testss_21test_value_enum_basic
FNDA:1,_RNvNtNtCsdWsmKXCsmqV_15sqlrustgo_types5value5testss_21test_value_partial_eq
FNDA:1,_RNvNtNtCsdWsmKXCsmqV_15sqlrustgo_types5value5testss_21test_value_uuid_basic
FNDA:1,_RNvNtNtCsdWsmKXCsmqV_15sqlrustgo_types5value5testss_22test_days_to_month_day
FNDA:1,_RNvNtNtCsdWsmKXCsmqV_15sqlrustgo_types5value5testss_22test_value_array_basic
FNDA:1,_RNvNtNtCsdWsmKXCsmqV_15sqlrustgo_types5value5testss_22test_value_array_empty
FNDA:1,_RNvNtNtCsdWsmKXCsmqV_15sqlrustgo_types5value5testss_22test_value_partial_ord
FNDA:1,_RNvNtNtCsdWsmKXCsmqV_15sqlrustgo_types5value5testss_23test_value_array_nested
FNDA:1,_RNvNtNtCsdWsmKXCsmqV_15sqlrustgo_types5value5testss_23test_value_hash_boolean
FNDA:1,_RNvNtNtCsdWsmKXCsmqV_15sqlrustgo_types5value5testss_23test_value_text_unicode
FNDA:1,_RNvNtNtCsdWsmKXCsmqV_15sqlrustgo_types5value5testss_24test_timestamp_to_string
FNDA:1,_RNvNtNtCsdWsmKXCsmqV_15sqlrustgo_types5value5testss_24test_value_boolean_false
FNDA:1,_RNvNtNtCsdWsmKXCsmqV_15sqlrustgo_types5value5testss_24test_value_date_equality
FNDA:1,_RNvNtNtCsdWsmKXCsmqV_15sqlrustgo_types5value5testss_24test_value_display_trait
FNDA:1,_RNvNtNtCsdWsmKXCsmqV_15sqlrustgo_types5value5testss_24test_value_enum_equality
FNDA:1,_RNvNtNtCsdWsmKXCsmqV_15sqlrustgo_types5value5testss_24test_value_enum_ordering
FNDA:1,_RNvNtNtCsdWsmKXCsmqV_15sqlrustgo_types5value5testss_24test_value_type_name_new
FNDA:1,_RNvNtNtCsdWsmKXCsmqV_15sqlrustgo_types5value5testss_24test_value_uuid_equality
FNDA:1,_RNvNtNtCsdWsmKXCsmqV_15sqlrustgo_types5value5testss_24test_value_uuid_ordering
FNDA:1,_RNvNtNtCsdWsmKXCsmqV_15sqlrustgo_types5value5testss_25test_value_array_equality
FNDA:1,_RNvNtNtCsdWsmKXCsmqV_15sqlrustgo_types5value5testss_25test_value_blob_to_string
FNDA:1,_RNvNtNtCsdWsmKXCsmqV_15sqlrustgo_types5value5testss_25test_value_float_infinity
FNDA:1,_RNvNtNtCsdWsmKXCsmqV_15sqlrustgo_types5value5testss_25test_value_hash_float_nan
FNDA:1,_RNvNtNtCsdWsmKXCsmqV_15sqlrustgo_types5value5testss_25test_value_timestamp_hash
FNDA:1,_RNvNtNtCsdWsmKXCsmqV_15sqlrustgo_types5value5testss_26test_value_array_with_enum
FNDA:1,_RNvNtNtCsdWsmKXCsmqV_15sqlrustgo_types5value5testss_26test_value_float_precision
FNDA:1,_RNvNtNtCsdWsmKXCsmqV_15sqlrustgo_types5value5testss_26test_value_timestamp_basic
FNDA:1,_RNvNtNtCsdWsmKXCsmqV_15sqlrustgo_types5value5testss_26test_value_uuid_partial_eq
FNDA:1,_RNvNtNtCsdWsmKXCsmqV_15sqlrustgo_types5value5testss_27test_value_float_edge_cases
FNDA:1,_RNvNtNtCsdWsmKXCsmqV_15sqlrustgo_types5value5testss_27test_value_integer_negative
FNDA:1,_RNvNtNtCsdWsmKXCsmqV_15sqlrustgo_types5value5testss_27test_value_timestamp_helper
FNDA:1,_RNvNtNtCsdWsmKXCsmqV_15sqlrustgo_types5value5testss_27test_value_to_index_key_new
FNDA:1,_RNvNtNtCsdWsmKXCsmqV_15sqlrustgo_types5value5testss_28test_value_blob_hex_encoding
FNDA:1,_RNvNtNtCsdWsmKXCsmqV_15sqlrustgo_types5value5testss_28test_value_to_index_key_blob
FNDA:1,_RNvNtNtCsdWsmKXCsmqV_15sqlrustgo_types5value5testss_28test_value_to_index_key_null
FNDA:1,_RNvNtNtCsdWsmKXCsmqV_15sqlrustgo_types5value5testss_28test_value_to_index_key_text
FNDA:1,_RNvNtNtCsdWsmKXCsmqV_15sqlrustgo_types5value5testss_28test_value_to_sql_string_new
FNDA:1,_RNvNtNtCsdWsmKXCsmqV_15sqlrustgo_types5value5testss_29test_value_as_integer_or_zero
FNDA:1,_RNvNtNtCsdWsmKXCsmqV_15sqlrustgo_types5value5testss_29test_value_date_to_sql_string
FNDA:1,_RNvNtNtCsdWsmKXCsmqV_15sqlrustgo_types5value5testss_29test_value_enum_to_sql_string
FNDA:1,_RNvNtNtCsdWsmKXCsmqV_15sqlrustgo_types5value5testss_29test_value_float_nan_ordering
FNDA:1,_RNvNtNtCsdWsmKXCsmqV_15sqlrustgo_types5value5testss_29test_value_text_special_chars
FNDA:1,_RNvNtNtCsdWsmKXCsmqV_15sqlrustgo_types5value5testss_29test_value_timestamp_equality
FNDA:1,_RNvNtNtCsdWsmKXCsmqV_15sqlrustgo_types5value5testss_29test_value_to_index_key_float
FNDA:1,_RNvNtNtCsdWsmKXCsmqV_15sqlrustgo_types5value5testss_29test_value_uuid_to_sql_string
FNDA:1,_RNvNtNtCsdWsmKXCsmqV_15sqlrustgo_types5value5testss_30test_value_array_to_sql_string
FNDA:1,_RNvNtNtCsdWsmKXCsmqV_15sqlrustgo_types5value5testss_30test_value_as_integer_negative
FNDA:1,_RNvNtNtCsdWsmKXCsmqV_15sqlrustgo_types5value5testss_31test_value_estimate_memory_size
FNDA:1,_RNvNtNtCsdWsmKXCsmqV_15sqlrustgo_types5value5testss_31test_value_partial_eq_not_equal
FNDA:1,_RNvNtNtCsdWsmKXCsmqV_15sqlrustgo_types5value5testss_31test_value_to_index_key_integer
FNDA:1,_RNvNtNtCsdWsmKXCsmqV_15sqlrustgo_types5value5testss_34test_value_timestamp_to_sql_string
FNDA:1,_RNvNtNtCsdWsmKXCsmqV_15sqlrustgo_types5value5testss_35test_timestamp_to_string_known_date
FNDA:1,_RNvNtNtCsdWsmKXCsmqV_15sqlrustgo_types5value5testss_35test_value_timestamp_to_string_none
FNDA:1,_RNvNtNtCsdWsmKXCsmqV_15sqlrustgo_types5value5testss_36test_value_enum_estimate_memory_size
FNDA:1,_RNvNtNtCsdWsmKXCsmqV_15sqlrustgo_types5value5testss_36test_value_uuid_estimate_memory_size
FNDA:1,_RNvNtNtCsdWsmKXCsmqV_15sqlrustgo_types5value5testss_37test_value_array_estimate_memory_size
FNDA:1,_RNvNtNtCsdWsmKXCsmqV_15sqlrustgo_types5value5testss_41test_value_enum_same_index_different_name
FNDA:1,_RNvNtNtCsdWsmKXCsmqV_15sqlrustgo_types5value5testss_43test_value_timestamp_none_for_non_timestamp
FNF:102
FNH:101
DA:51,21
DA:52,21
DA:53,1
DA:54,1
DA:55,6
DA:56,1
DA:57,1
DA:58,1
DA:59,1
DA:60,0
DA:61,0
DA:63,0
DA:64,1
DA:65,1
DA:66,2
DA:67,2
DA:68,2
DA:69,2
DA:70,2
DA:72,21
DA:76,69
DA:77,69
DA:78,6
DA:79,8
DA:80,14
DA:81,5
DA:82,0
DA:83,10
DA:84,5
DA:85,4
DA:86,6
DA:87,4
DA:88,2
DA:89,4
DA:90,4
DA:92,1
DA:94,69
DA:100,3
DA:101,3
DA:102,3
DA:106,17
DA:108,34
DA:109,34
DA:110,1
DA:111,1
DA:112,10
DA:113,7
DA:114,0
DA:115,2
DA:116,2
DA:117,2
DA:118,1
DA:119,4
DA:120,0
DA:121,4
DA:123,34
DA:125,17
DA:126,17
DA:128,17
DA:129,8
DA:130,9
DA:132,9
DA:133,0
DA:134,0
DA:135,3
DA:136,2
DA:138,2
DA:139,1
DA:140,1
DA:141,0
DA:142,1
DA:143,1
DA:145,0
DA:148,0
DA:149,0
DA:150,0
DA:151,0
DA:152,0
DA:153,2
DA:154,0
DA:155,2
DA:156,2
DA:158,0
DA:160,17
DA:165,7
DA:166,7
DA:167,5
DA:168,2
DA:170,7
DA:173,8
DA:174,8
DA:175,5
DA:176,3
DA:178,8
DA:181,0
DA:182,0
DA:183,0
DA:184,0
DA:186,0
DA:189,8
DA:190,8
DA:191,2
DA:192,3
DA:193,0
DA:194,1
DA:195,2
DA:197,8
DA:200,37
DA:201,37
DA:202,2
DA:203,3
DA:204,9
DA:205,4
DA:206,0
DA:207,3
DA:208,3
DA:209,1
DA:210,1
DA:211,3
DA:212,5
DA:214,5
DA:215,8
DA:216,5
DA:217,5
DA:219,3
DA:221,37
DA:224,21
DA:225,21
DA:226,2
DA:227,2
DA:228,2
DA:229,2
DA:230,0
DA:231,3
DA:232,4
DA:233,1
DA:234,1
DA:235,1
DA:236,2
DA:237,1
DA:239,21
DA:243,8
DA:244,8
DA:245,2
DA:246,2
DA:248,2
DA:249,2
DA:250,2
DA:252,4
DA:254,8
DA:257,13
DA:258,13
DA:259,1
DA:260,1
DA:261,3
DA:262,1
DA:263,0
DA:264,1
DA:265,1
DA:266,1
DA:267,1
DA:268,1
DA:269,2
DA:270,1
DA:272,13
DA:275,1
DA:276,1
DA:277,1
DA:280,4
DA:281,4
DA:282,1
DA:283,3
DA:285,4
DA:288,5
DA:289,5
DA:290,2
DA:291,3
DA:293,5
DA:297,2
DA:301,2
DA:302,2
DA:303,2
DA:305,2
DA:306,2
DA:308,52
DA:309,50
DA:310,50
DA:311,50
DA:312,50
DA:313,50
DA:314,0
DA:318,2
DA:320,2
DA:321,2
DA:322,2
DA:324,2
DA:328,2
DA:330,56
DA:331,56
DA:332,56
DA:334,11
DA:335,11
DA:336,3
DA:338,8
DA:341,11
DA:342,40
DA:343,40
DA:344,11
DA:345,29
DA:346,29
DA:348,0
DA:349,11
DA:352,1
DA:353,1
DA:354,1
DA:363,1
DA:364,1
DA:365,1
DA:366,1
DA:367,1
DA:368,1
DA:369,1
DA:372,1
DA:373,1
DA:374,1
DA:375,1
DA:376,1
DA:377,1
DA:378,1
DA:379,1
DA:382,1
DA:383,1
DA:384,1
DA:387,1
DA:388,1
DA:389,1
DA:392,1
DA:393,1
DA:394,1
DA:395,1
DA:398,1
DA:399,1
DA:400,1
DA:401,1
DA:402,1
DA:405,1
DA:406,1
DA:407,1
DA:410,1
DA:411,1
DA:412,1
DA:413,1
DA:414,1
DA:415,1
DA:418,1
DA:420,1
DA:421,1
DA:422,1
DA:423,1
DA:427,1
DA:428,1
DA:429,1
DA:432,1
DA:433,1
DA:434,1
DA:435,1
DA:438,1
DA:439,1
DA:440,1
DA:441,1
DA:442,1
DA:443,1
DA:444,1
DA:445,1
DA:447,1
DA:448,1
DA:449,1
DA:452,1
DA:453,1
DA:454,1
DA:455,1
DA:456,1
DA:457,1
DA:458,1
DA:459,1
DA:460,1
DA:463,1
DA:467,1
DA:468,1
DA:469,1
DA:471,1
DA:472,1
DA:473,1
DA:474,1
DA:475,1
DA:476,1
DA:479,1
DA:483,1
DA:484,1
DA:485,1
DA:486,1
DA:487,1
DA:490,1
DA:494,1
DA:495,1
DA:496,1
DA:497,1
DA:498,1
DA:501,1
DA:505,1
DA:506,1
DA:507,1
DA:508,1
DA:509,1
DA:512,1
DA:516,1
DA:517,1
DA:518,1
DA:519,1
DA:520,1
DA:523,1
DA:527,1
DA:528,1
DA:529,1
DA:530,1
DA:531,1
DA:534,1
DA:535,1
DA:536,1
DA:539,1
DA:540,1
DA:541,1
DA:542,1
DA:545,1
DA:546,1
DA:547,1
DA:550,1
DA:551,1
DA:552,1
DA:555,1
DA:556,1
DA:557,1
DA:560,1
DA:561,1
DA:562,1
DA:563,1
DA:564,1
DA:567,1
DA:568,1
DA:569,1
DA:570,1
DA:571,1
DA:574,1
DA:575,1
DA:576,1
DA:577,1
DA:578,1
DA:581,1
DA:582,1
DA:583,1
DA:584,1
DA:585,1
DA:586,1
DA:589,1
DA:590,1
DA:591,1
DA:592,1
DA:595,1
DA:596,1
DA:597,1
DA:598,1
DA:599,1
DA:600,1
DA:601,1
DA:604,1
DA:605,1
DA:606,1
DA:607,1
DA:610,1
DA:614,1
DA:615,1
DA:617,1
DA:618,1
DA:620,1
DA:621,1
DA:623,1
DA:624,1
DA:628,1
DA:629,1
DA:630,1
DA:631,1
DA:634,1
DA:635,1
DA:636,1
DA:637,1
DA:638,1
DA:639,1
DA:640,1
DA:643,1
DA:644,1
DA:645,1
DA:646,1
DA:649,1
DA:650,1
DA:651,1
DA:652,1
DA:655,1
DA:659,1
DA:660,1
DA:662,1
DA:663,1
DA:665,1
DA:666,1
DA:668,1
DA:669,1
DA:672,1
DA:673,1
DA:674,1
DA:675,1
DA:676,1
DA:677,1
DA:680,1
DA:682,1
DA:683,1
DA:684,1
DA:685,1
DA:686,1
DA:687,1
DA:690,1
DA:691,1
DA:692,1
DA:693,1
DA:694,1
DA:695,1
DA:698,1
DA:699,1
DA:700,1
DA:701,1
DA:702,1
DA:703,1
DA:704,1
DA:705,1
DA:708,1
DA:709,1
DA:710,1
DA:711,1
DA:712,1
DA:715,1
DA:716,1
DA:717,1
DA:718,1
DA:719,1
DA:723,1
DA:724,1
DA:725,1
DA:726,1
DA:727,1
DA:728,1
DA:729,1
DA:730,1
DA:731,1
DA:732,1
DA:735,1
DA:736,1
DA:737,1
DA:738,1
DA:739,1
DA:740,1
DA:741,1
DA:742,1
DA:743,1
DA:744,1
DA:747,1
DA:748,1
DA:749,1
DA:750,1
DA:751,1
DA:752,1
DA:755,1
DA:757,1
DA:758,1
DA:760,1
DA:761,1
DA:763,1
DA:765,1
DA:766,1
DA:769,1
DA:770,1
DA:771,1
DA:774,1
DA:775,1
DA:776,1
DA:777,1
DA:778,1
DA:781,1
DA:782,1
DA:783,1
DA:784,1
DA:785,1
DA:788,1
DA:791,1
DA:793,1
DA:795,1
DA:797,1
DA:798,1
DA:802,1
DA:803,1
DA:807,1
DA:809,1
DA:810,1
DA:813,1
DA:815,1
DA:816,1
DA:819,1
DA:820,1
DA:823,1
DA:824,1
DA:827,1
DA:830,1
DA:832,1
DA:833,1
DA:835,1
DA:838,1
DA:841,1
DA:842,1
DA:845,1
DA:848,1
DA:850,1
DA:851,1
DA:852,1
DA:853,1
DA:856,1
DA:857,1
DA:858,1
DA:859,1
DA:860,1
DA:862,1
DA:863,1
DA:864,1
DA:865,1
DA:866,1
DA:869,1
DA:870,1
DA:871,1
DA:872,1
DA:873,1
DA:876,1
DA:877,1
DA:878,1
DA:879,1
DA:880,1
DA:884,1
DA:885,1
DA:886,1
DA:887,1
DA:890,1
DA:891,1
DA:892,1
DA:893,1
DA:894,1
DA:897,1
DA:898,1
DA:899,1
DA:900,1
DA:901,1
DA:902,1
DA:903,1
DA:906,1
DA:909,1
DA:910,1
DA:911,1
DA:912,1
DA:913,1
DA:914,1
DA:915,1
DA:916,1
DA:919,1
DA:920,1
DA:921,1
DA:924,1
DA:926,1
DA:927,1
DA:928,1
DA:929,1
DA:930,1
DA:933,1
DA:934,1
DA:935,1
DA:936,1
DA:937,1
DA:938,1
DA:942,1
DA:943,1
DA:944,1
DA:945,1
DA:948,1
DA:949,1
DA:950,1
DA:951,1
DA:952,1
DA:953,1
DA:954,1
DA:955,1
DA:956,1
DA:959,1
DA:960,1
DA:961,1
DA:962,1
DA:965,1
DA:966,1
DA:967,1
DA:968,1
DA:969,1
DA:970,1
DA:971,1
DA:974,1
DA:977,1
DA:978,1
DA:979,1
DA:980,1
DA:981,1
DA:982,1
DA:983,1
DA:984,1
DA:987,1
DA:988,1
DA:989,1
DA:990,1
DA:993,1
DA:994,1
DA:995,1
DA:996,1
DA:997,1
DA:998,1
DA:999,1
DA:1000,1
DA:1004,1
DA:1005,1
DA:1006,1
DA:1007,1
DA:1010,1
DA:1011,1
DA:1012,1
DA:1013,1
DA:1016,1
DA:1017,1
DA:1018,1
DA:1019,1
DA:1020,1
DA:1021,1
DA:1022,1
DA:1023,1
DA:1024,1
DA:1027,1
DA:1030,1
DA:1031,1
DA:1032,1
DA:1033,1
DA:1034,1
DA:1035,1
DA:1036,1
DA:1037,1
DA:1040,1
DA:1041,1
DA:1043,1
DA:1044,1
DA:1047,1
DA:1049,1
DA:1050,1
DA:1051,1
DA:1052,1
DA:1053,1
DA:1056,1
DA:1058,1
DA:1059,1
DA:1060,1
DA:1061,1
DA:1064,1
DA:1065,1
DA:1066,1
DA:1067,1
DA:1068,1
DA:1069,1
DA:1070,1
DA:1071,1
DA:1072,1
DA:1075,1
DA:1076,1
DA:1077,1
DA:1078,1
DA:1081,1
DA:1082,1
DA:1083,1
DA:1084,1
DA:1085,1
BRF:0
BRH:0
LF:697
LH:669
end_of_record