SF:/home/openclaw/dev/yinglichina8848/sqlrustgo/crates/storage/src/backup.rs
FN:237,_RNCNvNtNtCs38XCG6692bz_17sqlrustgo_storage6backup7use_hex6encode0B7_
FN:326,_RNCNCNvMs0_NtCs38XCG6692bz_17sqlrustgo_storage6backupNtB9_12DataRestorer12restore_jsons_00Bb_
FN:280,_RNCNvMs0_NtCs38XCG6692bz_17sqlrustgo_storage6backupNtB7_12DataRestorer11restore_csv0B9_
FN:319,_RNCNvMs0_NtCs38XCG6692bz_17sqlrustgo_storage6backupNtB7_12DataRestorer12restore_json0B9_
FN:349,_RNCNvMs0_NtCs38XCG6692bz_17sqlrustgo_storage6backupNtB7_12DataRestorer12restore_jsons0_0B9_
FN:324,_RNCNvMs0_NtCs38XCG6692bz_17sqlrustgo_storage6backupNtB7_12DataRestorer12restore_jsons_0B9_
FN:440,_RNCNvMs0_NtCs38XCG6692bz_17sqlrustgo_storage6backupNtB7_12DataRestorer19parse_insert_values0B9_
FN:250,_RNCNvMs0_NtCs38XCG6692bz_17sqlrustgo_storage6backupNtB7_12DataRestorer19restore_from_backup0B9_
FN:64,_RNCNvMs_NtCs38XCG6692bz_17sqlrustgo_storage6backupNtB6_14BackupExporter10export_csv0B8_
FN:71,_RNCNvMs_NtCs38XCG6692bz_17sqlrustgo_storage6backupNtB6_14BackupExporter10export_csvs0_0B8_
FN:66,_RNCNvMs_NtCs38XCG6692bz_17sqlrustgo_storage6backupNtB6_14BackupExporter10export_csvs_0B8_
FN:197,_RNCNvMs_NtCs38XCG6692bz_17sqlrustgo_storage6backupNtB6_14BackupExporter10export_sql0B8_
FN:192,_RNCNvMs_NtCs38XCG6692bz_17sqlrustgo_storage6backupNtB6_14BackupExporter10export_sqls_0B8_
FN:113,_RNCNvMs_NtCs38XCG6692bz_17sqlrustgo_storage6backupNtB6_14BackupExporter11export_json0B8_
FN:117,_RNCNvMs_NtCs38XCG6692bz_17sqlrustgo_storage6backupNtB6_14BackupExporter11export_jsons0_0B8_
FN:119,_RNCNvMs_NtCs38XCG6692bz_17sqlrustgo_storage6backupNtB6_14BackupExporter11export_jsons1_0B8_
FN:122,_RNCNvMs_NtCs38XCG6692bz_17sqlrustgo_storage6backupNtB6_14BackupExporter11export_jsons2_0B8_
FN:128,_RNCNvMs_NtCs38XCG6692bz_17sqlrustgo_storage6backupNtB6_14BackupExporter11export_jsons3_0B8_
FN:139,_RNCNvMs_NtCs38XCG6692bz_17sqlrustgo_storage6backupNtB6_14BackupExporter11export_jsons4_0B8_
FN:142,_RNCNvMs_NtCs38XCG6692bz_17sqlrustgo_storage6backupNtB6_14BackupExporter11export_jsons5_0B8_
FN:146,_RNCNvMs_NtCs38XCG6692bz_17sqlrustgo_storage6backupNtB6_14BackupExporter11export_jsons6_0B8_
FN:147,_RNCNvMs_NtCs38XCG6692bz_17sqlrustgo_storage6backupNtB6_14BackupExporter11export_jsons7_0B8_
FN:115,_RNCNvMs_NtCs38XCG6692bz_17sqlrustgo_storage6backupNtB6_14BackupExporter11export_jsons_0B8_
FN:43,_RNCNvMs_NtCs38XCG6692bz_17sqlrustgo_storage6backupNtB6_14BackupExporter12export_table0B8_
FN:54,_RNCNvMs_NtCs38XCG6692bz_17sqlrustgo_storage6backupNtB6_14BackupExporter12export_tables_0B8_
FN:20,_RNvMNtCs38XCG6692bz_17sqlrustgo_storage6backupNtB2_12BackupFormat8from_str
FN:259,_RNvMs0_NtCs38XCG6692bz_17sqlrustgo_storage6backupNtB5_12DataRestorer11restore_csv
FN:387,_RNvMs0_NtCs38XCG6692bz_17sqlrustgo_storage6backupNtB5_12DataRestorer11restore_sql
FN:416,_RNvMs0_NtCs38XCG6692bz_17sqlrustgo_storage6backupNtB5_12DataRestorer12parse_insert
FN:317,_RNvMs0_NtCs38XCG6692bz_17sqlrustgo_storage6backupNtB5_12DataRestorer12restore_json
FN:369,_RNvMs0_NtCs38XCG6692bz_17sqlrustgo_storage6backupNtB5_12DataRestorer13json_to_value
FN:300,_RNvMs0_NtCs38XCG6692bz_17sqlrustgo_storage6backupNtB5_12DataRestorer15parse_csv_value
FN:448,_RNvMs0_NtCs38XCG6692bz_17sqlrustgo_storage6backupNtB5_12DataRestorer15parse_sql_value
FN:430,_RNvMs0_NtCs38XCG6692bz_17sqlrustgo_storage6backupNtB5_12DataRestorer19parse_insert_values
FN:244,_RNvMs0_NtCs38XCG6692bz_17sqlrustgo_storage6backupNtB5_12DataRestorer19restore_from_backup
FN:77,_RNvMs_NtCs38XCG6692bz_17sqlrustgo_storage6backupNtB4_14BackupExporter10csv_escape
FN:59,_RNvMs_NtCs38XCG6692bz_17sqlrustgo_storage6backupNtB4_14BackupExporter10export_csv
FN:177,_RNvMs_NtCs38XCG6692bz_17sqlrustgo_storage6backupNtB4_14BackupExporter10export_sql
FN:152,_RNvMs_NtCs38XCG6692bz_17sqlrustgo_storage6backupNtB4_14BackupExporter10json_value
FN:108,_RNvMs_NtCs38XCG6692bz_17sqlrustgo_storage6backupNtB4_14BackupExporter11export_json
FN:33,_RNvMs_NtCs38XCG6692bz_17sqlrustgo_storage6backupNtB4_14BackupExporter12export_table
FN:203,_RNvMs_NtCs38XCG6692bz_17sqlrustgo_storage6backupNtB4_14BackupExporter9sql_value
FN:236,_RNvNtNtCs38XCG6692bz_17sqlrustgo_storage6backup7use_hex6encode
FN:236,_RNvNtNtCs1u7In8Za3Xp_17sqlrustgo_storage6backup7use_hex6encode
FN:326,_RNCNCNvMs0_NtCs1u7In8Za3Xp_17sqlrustgo_storage6backupNtB9_12DataRestorer12restore_jsons_00Bb_
FN:280,_RNCNvMs0_NtCs1u7In8Za3Xp_17sqlrustgo_storage6backupNtB7_12DataRestorer11restore_csv0B9_
FN:319,_RNCNvMs0_NtCs1u7In8Za3Xp_17sqlrustgo_storage6backupNtB7_12DataRestorer12restore_json0B9_
FN:349,_RNCNvMs0_NtCs1u7In8Za3Xp_17sqlrustgo_storage6backupNtB7_12DataRestorer12restore_jsons0_0B9_
FN:324,_RNCNvMs0_NtCs1u7In8Za3Xp_17sqlrustgo_storage6backupNtB7_12DataRestorer12restore_jsons_0B9_
FN:440,_RNCNvMs0_NtCs1u7In8Za3Xp_17sqlrustgo_storage6backupNtB7_12DataRestorer19parse_insert_values0B9_
FN:250,_RNCNvMs0_NtCs1u7In8Za3Xp_17sqlrustgo_storage6backupNtB7_12DataRestorer19restore_from_backup0B9_
FN:64,_RNCNvMs_NtCs1u7In8Za3Xp_17sqlrustgo_storage6backupNtB6_14BackupExporter10export_csv0B8_
FN:71,_RNCNvMs_NtCs1u7In8Za3Xp_17sqlrustgo_storage6backupNtB6_14BackupExporter10export_csvs0_0B8_
FN:66,_RNCNvMs_NtCs1u7In8Za3Xp_17sqlrustgo_storage6backupNtB6_14BackupExporter10export_csvs_0B8_
FN:197,_RNCNvMs_NtCs1u7In8Za3Xp_17sqlrustgo_storage6backupNtB6_14BackupExporter10export_sql0B8_
FN:192,_RNCNvMs_NtCs1u7In8Za3Xp_17sqlrustgo_storage6backupNtB6_14BackupExporter10export_sqls_0B8_
FN:113,_RNCNvMs_NtCs1u7In8Za3Xp_17sqlrustgo_storage6backupNtB6_14BackupExporter11export_json0B8_
FN:117,_RNCNvMs_NtCs1u7In8Za3Xp_17sqlrustgo_storage6backupNtB6_14BackupExporter11export_jsons0_0B8_
FN:119,_RNCNvMs_NtCs1u7In8Za3Xp_17sqlrustgo_storage6backupNtB6_14BackupExporter11export_jsons1_0B8_
FN:122,_RNCNvMs_NtCs1u7In8Za3Xp_17sqlrustgo_storage6backupNtB6_14BackupExporter11export_jsons2_0B8_
FN:128,_RNCNvMs_NtCs1u7In8Za3Xp_17sqlrustgo_storage6backupNtB6_14BackupExporter11export_jsons3_0B8_
FN:139,_RNCNvMs_NtCs1u7In8Za3Xp_17sqlrustgo_storage6backupNtB6_14BackupExporter11export_jsons4_0B8_
FN:142,_RNCNvMs_NtCs1u7In8Za3Xp_17sqlrustgo_storage6backupNtB6_14BackupExporter11export_jsons5_0B8_
FN:146,_RNCNvMs_NtCs1u7In8Za3Xp_17sqlrustgo_storage6backupNtB6_14BackupExporter11export_jsons6_0B8_
FN:147,_RNCNvMs_NtCs1u7In8Za3Xp_17sqlrustgo_storage6backupNtB6_14BackupExporter11export_jsons7_0B8_
FN:115,_RNCNvMs_NtCs1u7In8Za3Xp_17sqlrustgo_storage6backupNtB6_14BackupExporter11export_jsons_0B8_
FN:43,_RNCNvMs_NtCs1u7In8Za3Xp_17sqlrustgo_storage6backupNtB6_14BackupExporter12export_table0B8_
FN:54,_RNCNvMs_NtCs1u7In8Za3Xp_17sqlrustgo_storage6backupNtB6_14BackupExporter12export_tables_0B8_
FN:20,_RNvMNtCs1u7In8Za3Xp_17sqlrustgo_storage6backupNtB2_12BackupFormat8from_str
FN:259,_RNvMs0_NtCs1u7In8Za3Xp_17sqlrustgo_storage6backupNtB5_12DataRestorer11restore_csv
FN:387,_RNvMs0_NtCs1u7In8Za3Xp_17sqlrustgo_storage6backupNtB5_12DataRestorer11restore_sql
FN:416,_RNvMs0_NtCs1u7In8Za3Xp_17sqlrustgo_storage6backupNtB5_12DataRestorer12parse_insert
FN:317,_RNvMs0_NtCs1u7In8Za3Xp_17sqlrustgo_storage6backupNtB5_12DataRestorer12restore_json
FN:369,_RNvMs0_NtCs1u7In8Za3Xp_17sqlrustgo_storage6backupNtB5_12DataRestorer13json_to_value
FN:300,_RNvMs0_NtCs1u7In8Za3Xp_17sqlrustgo_storage6backupNtB5_12DataRestorer15parse_csv_value
FN:448,_RNvMs0_NtCs1u7In8Za3Xp_17sqlrustgo_storage6backupNtB5_12DataRestorer15parse_sql_value
FN:430,_RNvMs0_NtCs1u7In8Za3Xp_17sqlrustgo_storage6backupNtB5_12DataRestorer19parse_insert_values
FN:244,_RNvMs0_NtCs1u7In8Za3Xp_17sqlrustgo_storage6backupNtB5_12DataRestorer19restore_from_backup
FN:77,_RNvMs_NtCs1u7In8Za3Xp_17sqlrustgo_storage6backupNtB4_14BackupExporter10csv_escape
FN:59,_RNvMs_NtCs1u7In8Za3Xp_17sqlrustgo_storage6backupNtB4_14BackupExporter10export_csv
FN:177,_RNvMs_NtCs1u7In8Za3Xp_17sqlrustgo_storage6backupNtB4_14BackupExporter10export_sql
FN:152,_RNvMs_NtCs1u7In8Za3Xp_17sqlrustgo_storage6backupNtB4_14BackupExporter10json_value
FN:108,_RNvMs_NtCs1u7In8Za3Xp_17sqlrustgo_storage6backupNtB4_14BackupExporter11export_json
FN:33,_RNvMs_NtCs1u7In8Za3Xp_17sqlrustgo_storage6backupNtB4_14BackupExporter12export_table
FN:203,_RNvMs_NtCs1u7In8Za3Xp_17sqlrustgo_storage6backupNtB4_14BackupExporter9sql_value
FN:237,_RNCNvNtNtCs1u7In8Za3Xp_17sqlrustgo_storage6backup7use_hex6encode0B7_
FN:20,_RNvMNtCsd1AkON0xxEy_17sqlrustgo_storage6backupNtB2_12BackupFormat8from_str
FN:259,_RNvMs0_NtCsd1AkON0xxEy_17sqlrustgo_storage6backupNtB5_12DataRestorer11restore_csv
FN:387,_RNvMs0_NtCsd1AkON0xxEy_17sqlrustgo_storage6backupNtB5_12DataRestorer11restore_sql
FN:416,_RNvMs0_NtCsd1AkON0xxEy_17sqlrustgo_storage6backupNtB5_12DataRestorer12parse_insert
FN:317,_RNvMs0_NtCsd1AkON0xxEy_17sqlrustgo_storage6backupNtB5_12DataRestorer12restore_json
FN:369,_RNvMs0_NtCsd1AkON0xxEy_17sqlrustgo_storage6backupNtB5_12DataRestorer13json_to_value
FN:300,_RNvMs0_NtCsd1AkON0xxEy_17sqlrustgo_storage6backupNtB5_12DataRestorer15parse_csv_value
FN:448,_RNvMs0_NtCsd1AkON0xxEy_17sqlrustgo_storage6backupNtB5_12DataRestorer15parse_sql_value
FN:430,_RNvMs0_NtCsd1AkON0xxEy_17sqlrustgo_storage6backupNtB5_12DataRestorer19parse_insert_values
FN:244,_RNvMs0_NtCsd1AkON0xxEy_17sqlrustgo_storage6backupNtB5_12DataRestorer19restore_from_backup
FN:77,_RNvMs_NtCsd1AkON0xxEy_17sqlrustgo_storage6backupNtB4_14BackupExporter10csv_escape
FN:59,_RNvMs_NtCsd1AkON0xxEy_17sqlrustgo_storage6backupNtB4_14BackupExporter10export_csv
FN:177,_RNvMs_NtCsd1AkON0xxEy_17sqlrustgo_storage6backupNtB4_14BackupExporter10export_sql
FN:152,_RNvMs_NtCsd1AkON0xxEy_17sqlrustgo_storage6backupNtB4_14BackupExporter10json_value
FN:108,_RNvMs_NtCsd1AkON0xxEy_17sqlrustgo_storage6backupNtB4_14BackupExporter11export_json
FN:33,_RNvMs_NtCsd1AkON0xxEy_17sqlrustgo_storage6backupNtB4_14BackupExporter12export_table
FN:203,_RNvMs_NtCsd1AkON0xxEy_17sqlrustgo_storage6backupNtB4_14BackupExporter9sql_value
FN:237,_RNCNvNtNtCsd1AkON0xxEy_17sqlrustgo_storage6backup7use_hex6encode0B7_
FN:326,_RNCNCNvMs0_NtCsd1AkON0xxEy_17sqlrustgo_storage6backupNtB9_12DataRestorer12restore_jsons_00Bb_
FN:280,_RNCNvMs0_NtCsd1AkON0xxEy_17sqlrustgo_storage6backupNtB7_12DataRestorer11restore_csv0B9_
FN:319,_RNCNvMs0_NtCsd1AkON0xxEy_17sqlrustgo_storage6backupNtB7_12DataRestorer12restore_json0B9_
FN:349,_RNCNvMs0_NtCsd1AkON0xxEy_17sqlrustgo_storage6backupNtB7_12DataRestorer12restore_jsons0_0B9_
FN:324,_RNCNvMs0_NtCsd1AkON0xxEy_17sqlrustgo_storage6backupNtB7_12DataRestorer12restore_jsons_0B9_
FN:440,_RNCNvMs0_NtCsd1AkON0xxEy_17sqlrustgo_storage6backupNtB7_12DataRestorer19parse_insert_values0B9_
FN:250,_RNCNvMs0_NtCsd1AkON0xxEy_17sqlrustgo_storage6backupNtB7_12DataRestorer19restore_from_backup0B9_
FN:64,_RNCNvMs_NtCsd1AkON0xxEy_17sqlrustgo_storage6backupNtB6_14BackupExporter10export_csv0B8_
FN:71,_RNCNvMs_NtCsd1AkON0xxEy_17sqlrustgo_storage6backupNtB6_14BackupExporter10export_csvs0_0B8_
FN:66,_RNCNvMs_NtCsd1AkON0xxEy_17sqlrustgo_storage6backupNtB6_14BackupExporter10export_csvs_0B8_
FN:197,_RNCNvMs_NtCsd1AkON0xxEy_17sqlrustgo_storage6backupNtB6_14BackupExporter10export_sql0B8_
FN:192,_RNCNvMs_NtCsd1AkON0xxEy_17sqlrustgo_storage6backupNtB6_14BackupExporter10export_sqls_0B8_
FN:113,_RNCNvMs_NtCsd1AkON0xxEy_17sqlrustgo_storage6backupNtB6_14BackupExporter11export_json0B8_
FN:117,_RNCNvMs_NtCsd1AkON0xxEy_17sqlrustgo_storage6backupNtB6_14BackupExporter11export_jsons0_0B8_
FN:119,_RNCNvMs_NtCsd1AkON0xxEy_17sqlrustgo_storage6backupNtB6_14BackupExporter11export_jsons1_0B8_
FN:122,_RNCNvMs_NtCsd1AkON0xxEy_17sqlrustgo_storage6backupNtB6_14BackupExporter11export_jsons2_0B8_
FN:128,_RNCNvMs_NtCsd1AkON0xxEy_17sqlrustgo_storage6backupNtB6_14BackupExporter11export_jsons3_0B8_
FN:139,_RNCNvMs_NtCsd1AkON0xxEy_17sqlrustgo_storage6backupNtB6_14BackupExporter11export_jsons4_0B8_
FN:142,_RNCNvMs_NtCsd1AkON0xxEy_17sqlrustgo_storage6backupNtB6_14BackupExporter11export_jsons5_0B8_
FN:146,_RNCNvMs_NtCsd1AkON0xxEy_17sqlrustgo_storage6backupNtB6_14BackupExporter11export_jsons6_0B8_
FN:147,_RNCNvMs_NtCsd1AkON0xxEy_17sqlrustgo_storage6backupNtB6_14BackupExporter11export_jsons7_0B8_
FN:115,_RNCNvMs_NtCsd1AkON0xxEy_17sqlrustgo_storage6backupNtB6_14BackupExporter11export_jsons_0B8_
FN:43,_RNCNvMs_NtCsd1AkON0xxEy_17sqlrustgo_storage6backupNtB6_14BackupExporter12export_table0B8_
FN:54,_RNCNvMs_NtCsd1AkON0xxEy_17sqlrustgo_storage6backupNtB6_14BackupExporter12export_tables_0B8_
FN:236,_RNvNtNtCsd1AkON0xxEy_17sqlrustgo_storage6backup7use_hex6encode
FN:20,_RNvMNtCs9oXD4GUMzTX_17sqlrustgo_storage6backupNtB2_12BackupFormat8from_str
FN:259,_RNvMs0_NtCs9oXD4GUMzTX_17sqlrustgo_storage6backupNtB5_12DataRestorer11restore_csv
FN:387,_RNvMs0_NtCs9oXD4GUMzTX_17sqlrustgo_storage6backupNtB5_12DataRestorer11restore_sql
FN:416,_RNvMs0_NtCs9oXD4GUMzTX_17sqlrustgo_storage6backupNtB5_12DataRestorer12parse_insert
FN:317,_RNvMs0_NtCs9oXD4GUMzTX_17sqlrustgo_storage6backupNtB5_12DataRestorer12restore_json
FN:369,_RNvMs0_NtCs9oXD4GUMzTX_17sqlrustgo_storage6backupNtB5_12DataRestorer13json_to_value
FN:300,_RNvMs0_NtCs9oXD4GUMzTX_17sqlrustgo_storage6backupNtB5_12DataRestorer15parse_csv_value
FN:448,_RNvMs0_NtCs9oXD4GUMzTX_17sqlrustgo_storage6backupNtB5_12DataRestorer15parse_sql_value
FN:430,_RNvMs0_NtCs9oXD4GUMzTX_17sqlrustgo_storage6backupNtB5_12DataRestorer19parse_insert_values
FN:244,_RNvMs0_NtCs9oXD4GUMzTX_17sqlrustgo_storage6backupNtB5_12DataRestorer19restore_from_backup
FN:77,_RNvMs_NtCs9oXD4GUMzTX_17sqlrustgo_storage6backupNtB4_14BackupExporter10csv_escape
FN:59,_RNvMs_NtCs9oXD4GUMzTX_17sqlrustgo_storage6backupNtB4_14BackupExporter10export_csv
FN:177,_RNvMs_NtCs9oXD4GUMzTX_17sqlrustgo_storage6backupNtB4_14BackupExporter10export_sql
FN:152,_RNvMs_NtCs9oXD4GUMzTX_17sqlrustgo_storage6backupNtB4_14BackupExporter10json_value
FN:108,_RNvMs_NtCs9oXD4GUMzTX_17sqlrustgo_storage6backupNtB4_14BackupExporter11export_json
FN:33,_RNvMs_NtCs9oXD4GUMzTX_17sqlrustgo_storage6backupNtB4_14BackupExporter12export_table
FN:203,_RNvMs_NtCs9oXD4GUMzTX_17sqlrustgo_storage6backupNtB4_14BackupExporter9sql_value
FN:326,_RNCNCNvMs0_NtCs9oXD4GUMzTX_17sqlrustgo_storage6backupNtB9_12DataRestorer12restore_jsons_00Bb_
FN:280,_RNCNvMs0_NtCs9oXD4GUMzTX_17sqlrustgo_storage6backupNtB7_12DataRestorer11restore_csv0B9_
FN:319,_RNCNvMs0_NtCs9oXD4GUMzTX_17sqlrustgo_storage6backupNtB7_12DataRestorer12restore_json0B9_
FN:349,_RNCNvMs0_NtCs9oXD4GUMzTX_17sqlrustgo_storage6backupNtB7_12DataRestorer12restore_jsons0_0B9_
FN:324,_RNCNvMs0_NtCs9oXD4GUMzTX_17sqlrustgo_storage6backupNtB7_12DataRestorer12restore_jsons_0B9_
FN:440,_RNCNvMs0_NtCs9oXD4GUMzTX_17sqlrustgo_storage6backupNtB7_12DataRestorer19parse_insert_values0B9_
FN:250,_RNCNvMs0_NtCs9oXD4GUMzTX_17sqlrustgo_storage6backupNtB7_12DataRestorer19restore_from_backup0B9_
FN:64,_RNCNvMs_NtCs9oXD4GUMzTX_17sqlrustgo_storage6backupNtB6_14BackupExporter10export_csv0B8_
FN:71,_RNCNvMs_NtCs9oXD4GUMzTX_17sqlrustgo_storage6backupNtB6_14BackupExporter10export_csvs0_0B8_
FN:66,_RNCNvMs_NtCs9oXD4GUMzTX_17sqlrustgo_storage6backupNtB6_14BackupExporter10export_csvs_0B8_
FN:197,_RNCNvMs_NtCs9oXD4GUMzTX_17sqlrustgo_storage6backupNtB6_14BackupExporter10export_sql0B8_
FN:192,_RNCNvMs_NtCs9oXD4GUMzTX_17sqlrustgo_storage6backupNtB6_14BackupExporter10export_sqls_0B8_
FN:113,_RNCNvMs_NtCs9oXD4GUMzTX_17sqlrustgo_storage6backupNtB6_14BackupExporter11export_json0B8_
FN:117,_RNCNvMs_NtCs9oXD4GUMzTX_17sqlrustgo_storage6backupNtB6_14BackupExporter11export_jsons0_0B8_
FN:119,_RNCNvMs_NtCs9oXD4GUMzTX_17sqlrustgo_storage6backupNtB6_14BackupExporter11export_jsons1_0B8_
FN:122,_RNCNvMs_NtCs9oXD4GUMzTX_17sqlrustgo_storage6backupNtB6_14BackupExporter11export_jsons2_0B8_
FN:128,_RNCNvMs_NtCs9oXD4GUMzTX_17sqlrustgo_storage6backupNtB6_14BackupExporter11export_jsons3_0B8_
FN:139,_RNCNvMs_NtCs9oXD4GUMzTX_17sqlrustgo_storage6backupNtB6_14BackupExporter11export_jsons4_0B8_
FN:142,_RNCNvMs_NtCs9oXD4GUMzTX_17sqlrustgo_storage6backupNtB6_14BackupExporter11export_jsons5_0B8_
FN:146,_RNCNvMs_NtCs9oXD4GUMzTX_17sqlrustgo_storage6backupNtB6_14BackupExporter11export_jsons6_0B8_
FN:147,_RNCNvMs_NtCs9oXD4GUMzTX_17sqlrustgo_storage6backupNtB6_14BackupExporter11export_jsons7_0B8_
FN:115,_RNCNvMs_NtCs9oXD4GUMzTX_17sqlrustgo_storage6backupNtB6_14BackupExporter11export_jsons_0B8_
FN:43,_RNCNvMs_NtCs9oXD4GUMzTX_17sqlrustgo_storage6backupNtB6_14BackupExporter12export_table0B8_
FN:54,_RNCNvMs_NtCs9oXD4GUMzTX_17sqlrustgo_storage6backupNtB6_14BackupExporter12export_tables_0B8_
FN:236,_RNvNtNtCs9oXD4GUMzTX_17sqlrustgo_storage6backup7use_hex6encode
FN:237,_RNCNvNtNtCs9oXD4GUMzTX_17sqlrustgo_storage6backup7use_hex6encode0B7_
FN:237,_RNCNvNtNtCsl9zPO89iGuX_17sqlrustgo_storage6backup7use_hex6encode0B7_
FN:236,_RNvNtNtCsl9zPO89iGuX_17sqlrustgo_storage6backup7use_hex6encode
FN:326,_RNCNCNvMs0_NtCsl9zPO89iGuX_17sqlrustgo_storage6backupNtB9_12DataRestorer12restore_jsons_00Bb_
FN:280,_RNCNvMs0_NtCsl9zPO89iGuX_17sqlrustgo_storage6backupNtB7_12DataRestorer11restore_csv0B9_
FN:319,_RNCNvMs0_NtCsl9zPO89iGuX_17sqlrustgo_storage6backupNtB7_12DataRestorer12restore_json0B9_
FN:349,_RNCNvMs0_NtCsl9zPO89iGuX_17sqlrustgo_storage6backupNtB7_12DataRestorer12restore_jsons0_0B9_
FN:324,_RNCNvMs0_NtCsl9zPO89iGuX_17sqlrustgo_storage6backupNtB7_12DataRestorer12restore_jsons_0B9_
FN:440,_RNCNvMs0_NtCsl9zPO89iGuX_17sqlrustgo_storage6backupNtB7_12DataRestorer19parse_insert_values0B9_
FN:250,_RNCNvMs0_NtCsl9zPO89iGuX_17sqlrustgo_storage6backupNtB7_12DataRestorer19restore_from_backup0B9_
FN:64,_RNCNvMs_NtCsl9zPO89iGuX_17sqlrustgo_storage6backupNtB6_14BackupExporter10export_csv0B8_
FN:71,_RNCNvMs_NtCsl9zPO89iGuX_17sqlrustgo_storage6backupNtB6_14BackupExporter10export_csvs0_0B8_
FN:66,_RNCNvMs_NtCsl9zPO89iGuX_17sqlrustgo_storage6backupNtB6_14BackupExporter10export_csvs_0B8_
FN:197,_RNCNvMs_NtCsl9zPO89iGuX_17sqlrustgo_storage6backupNtB6_14BackupExporter10export_sql0B8_
FN:192,_RNCNvMs_NtCsl9zPO89iGuX_17sqlrustgo_storage6backupNtB6_14BackupExporter10export_sqls_0B8_
FN:113,_RNCNvMs_NtCsl9zPO89iGuX_17sqlrustgo_storage6backupNtB6_14BackupExporter11export_json0B8_
FN:117,_RNCNvMs_NtCsl9zPO89iGuX_17sqlrustgo_storage6backupNtB6_14BackupExporter11export_jsons0_0B8_
FN:119,_RNCNvMs_NtCsl9zPO89iGuX_17sqlrustgo_storage6backupNtB6_14BackupExporter11export_jsons1_0B8_
FN:122,_RNCNvMs_NtCsl9zPO89iGuX_17sqlrustgo_storage6backupNtB6_14BackupExporter11export_jsons2_0B8_
FN:128,_RNCNvMs_NtCsl9zPO89iGuX_17sqlrustgo_storage6backupNtB6_14BackupExporter11export_jsons3_0B8_
FN:139,_RNCNvMs_NtCsl9zPO89iGuX_17sqlrustgo_storage6backupNtB6_14BackupExporter11export_jsons4_0B8_
FN:142,_RNCNvMs_NtCsl9zPO89iGuX_17sqlrustgo_storage6backupNtB6_14BackupExporter11export_jsons5_0B8_
FN:146,_RNCNvMs_NtCsl9zPO89iGuX_17sqlrustgo_storage6backupNtB6_14BackupExporter11export_jsons6_0B8_
FN:147,_RNCNvMs_NtCsl9zPO89iGuX_17sqlrustgo_storage6backupNtB6_14BackupExporter11export_jsons7_0B8_
FN:115,_RNCNvMs_NtCsl9zPO89iGuX_17sqlrustgo_storage6backupNtB6_14BackupExporter11export_jsons_0B8_
FN:43,_RNCNvMs_NtCsl9zPO89iGuX_17sqlrustgo_storage6backupNtB6_14BackupExporter12export_table0B8_
FN:54,_RNCNvMs_NtCsl9zPO89iGuX_17sqlrustgo_storage6backupNtB6_14BackupExporter12export_tables_0B8_
FN:20,_RNvMNtCsl9zPO89iGuX_17sqlrustgo_storage6backupNtB2_12BackupFormat8from_str
FN:259,_RNvMs0_NtCsl9zPO89iGuX_17sqlrustgo_storage6backupNtB5_12DataRestorer11restore_csv
FN:387,_RNvMs0_NtCsl9zPO89iGuX_17sqlrustgo_storage6backupNtB5_12DataRestorer11restore_sql
FN:416,_RNvMs0_NtCsl9zPO89iGuX_17sqlrustgo_storage6backupNtB5_12DataRestorer12parse_insert
FN:317,_RNvMs0_NtCsl9zPO89iGuX_17sqlrustgo_storage6backupNtB5_12DataRestorer12restore_json
FN:369,_RNvMs0_NtCsl9zPO89iGuX_17sqlrustgo_storage6backupNtB5_12DataRestorer13json_to_value
FN:300,_RNvMs0_NtCsl9zPO89iGuX_17sqlrustgo_storage6backupNtB5_12DataRestorer15parse_csv_value
FN:448,_RNvMs0_NtCsl9zPO89iGuX_17sqlrustgo_storage6backupNtB5_12DataRestorer15parse_sql_value
FN:430,_RNvMs0_NtCsl9zPO89iGuX_17sqlrustgo_storage6backupNtB5_12DataRestorer19parse_insert_values
FN:244,_RNvMs0_NtCsl9zPO89iGuX_17sqlrustgo_storage6backupNtB5_12DataRestorer19restore_from_backup
FN:77,_RNvMs_NtCsl9zPO89iGuX_17sqlrustgo_storage6backupNtB4_14BackupExporter10csv_escape
FN:59,_RNvMs_NtCsl9zPO89iGuX_17sqlrustgo_storage6backupNtB4_14BackupExporter10export_csv
FN:177,_RNvMs_NtCsl9zPO89iGuX_17sqlrustgo_storage6backupNtB4_14BackupExporter10export_sql
FN:152,_RNvMs_NtCsl9zPO89iGuX_17sqlrustgo_storage6backupNtB4_14BackupExporter10json_value
FN:108,_RNvMs_NtCsl9zPO89iGuX_17sqlrustgo_storage6backupNtB4_14BackupExporter11export_json
FN:33,_RNvMs_NtCsl9zPO89iGuX_17sqlrustgo_storage6backupNtB4_14BackupExporter12export_table
FN:203,_RNvMs_NtCsl9zPO89iGuX_17sqlrustgo_storage6backupNtB4_14BackupExporter9sql_value
FN:599,_RNvNtNtCsgGnK47HN26N_17sqlrustgo_storage6backup5testss_14test_sql_value
FN:586,_RNvNtNtCsgGnK47HN26N_17sqlrustgo_storage6backup5testss_15test_csv_escape
FN:485,_RNvNtNtCsgGnK47HN26N_17sqlrustgo_storage6backup5testss_15test_export_csv
FN:538,_RNvNtNtCsgGnK47HN26N_17sqlrustgo_storage6backup5testss_15test_export_sql
FN:639,_RNvNtNtCsgGnK47HN26N_17sqlrustgo_storage6backup5testss_16test_export_json
FN:715,_RNvNtNtCsgGnK47HN26N_17sqlrustgo_storage6backup5testss_16test_restore_sql
FN:692,_RNvNtNtCsgGnK47HN26N_17sqlrustgo_storage6backup5testss_19test_sql_value_blob
FN:679,_RNvNtNtCsgGnK47HN26N_17sqlrustgo_storage6backup5testss_20test_csv_escape_blob
FN:631,_RNvNtNtCsgGnK47HN26N_17sqlrustgo_storage6backup5testss_20test_parse_csv_value
FN:842,_RNvNtNtCsgGnK47HN26N_17sqlrustgo_storage6backup5testss_22test_json_value_string
FN:686,_RNvNtNtCsgGnK47HN26N_17sqlrustgo_storage6backup5testss_22test_sql_value_boolean
FN:673,_RNvNtNtCsgGnK47HN26N_17sqlrustgo_storage6backup5testss_23test_csv_escape_boolean
FN:833,_RNvNtNtCsgGnK47HN26N_17sqlrustgo_storage6backup5testss_23test_json_value_integer
FN:727,_RNvNtNtCsgGnK47HN26N_17sqlrustgo_storage6backup5testss_25test_restore_json_invalid
FN:709,_RNvNtNtCsgGnK47HN26N_17sqlrustgo_storage6backup5testss_26test_backup_format_invalid
FN:477,_RNvNtNtCsgGnK47HN26N_17sqlrustgo_storage6backup5testss_27test_backup_format_from_str
FN:767,_RNvNtNtCsgGnK47HN26N_17sqlrustgo_storage6backup5testss_27test_export_csv_with_quotes
FN:740,_RNvNtNtCsgGnK47HN26N_17sqlrustgo_storage6backup5testss_28test_export_with_empty_table
FN:699,_RNvNtNtCsgGnK47HN26N_17sqlrustgo_storage6backup5testss_28test_parse_csv_value_integer
FN:616,_RNvNtNtCsgGnK47HN26N_17sqlrustgo_storage6backup5testss_30test_data_restorer_restore_csv
FN:800,_RNvNtNtCsgGnK47HN26N_17sqlrustgo_storage6backup5testss_34test_export_sql_with_text_escaping
FN:609,_RNvNtNtCsgGnK47HN26N_17sqlrustgo_storage6backup5testss_35test_backup_format_case_insensitive
FN:236,_RNvNtNtCsgGnK47HN26N_17sqlrustgo_storage6backup7use_hex6encode
FN:326,_RNCNCNvMs0_NtCsgGnK47HN26N_17sqlrustgo_storage6backupNtB9_12DataRestorer12restore_jsons_00Bb_
FN:280,_RNCNvMs0_NtCsgGnK47HN26N_17sqlrustgo_storage6backupNtB7_12DataRestorer11restore_csv0B9_
FN:319,_RNCNvMs0_NtCsgGnK47HN26N_17sqlrustgo_storage6backupNtB7_12DataRestorer12restore_json0B9_
FN:349,_RNCNvMs0_NtCsgGnK47HN26N_17sqlrustgo_storage6backupNtB7_12DataRestorer12restore_jsons0_0B9_
FN:324,_RNCNvMs0_NtCsgGnK47HN26N_17sqlrustgo_storage6backupNtB7_12DataRestorer12restore_jsons_0B9_
FN:440,_RNCNvMs0_NtCsgGnK47HN26N_17sqlrustgo_storage6backupNtB7_12DataRestorer19parse_insert_values0B9_
FN:250,_RNCNvMs0_NtCsgGnK47HN26N_17sqlrustgo_storage6backupNtB7_12DataRestorer19restore_from_backup0B9_
FN:64,_RNCNvMs_NtCsgGnK47HN26N_17sqlrustgo_storage6backupNtB6_14BackupExporter10export_csv0B8_
FN:71,_RNCNvMs_NtCsgGnK47HN26N_17sqlrustgo_storage6backupNtB6_14BackupExporter10export_csvs0_0B8_
FN:66,_RNCNvMs_NtCsgGnK47HN26N_17sqlrustgo_storage6backupNtB6_14BackupExporter10export_csvs_0B8_
FN:197,_RNCNvMs_NtCsgGnK47HN26N_17sqlrustgo_storage6backupNtB6_14BackupExporter10export_sql0B8_
FN:192,_RNCNvMs_NtCsgGnK47HN26N_17sqlrustgo_storage6backupNtB6_14BackupExporter10export_sqls_0B8_
FN:113,_RNCNvMs_NtCsgGnK47HN26N_17sqlrustgo_storage6backupNtB6_14BackupExporter11export_json0B8_
FN:117,_RNCNvMs_NtCsgGnK47HN26N_17sqlrustgo_storage6backupNtB6_14BackupExporter11export_jsons0_0B8_
FN:119,_RNCNvMs_NtCsgGnK47HN26N_17sqlrustgo_storage6backupNtB6_14BackupExporter11export_jsons1_0B8_
FN:122,_RNCNvMs_NtCsgGnK47HN26N_17sqlrustgo_storage6backupNtB6_14BackupExporter11export_jsons2_0B8_
FN:128,_RNCNvMs_NtCsgGnK47HN26N_17sqlrustgo_storage6backupNtB6_14BackupExporter11export_jsons3_0B8_
FN:139,_RNCNvMs_NtCsgGnK47HN26N_17sqlrustgo_storage6backupNtB6_14BackupExporter11export_jsons4_0B8_
FN:142,_RNCNvMs_NtCsgGnK47HN26N_17sqlrustgo_storage6backupNtB6_14BackupExporter11export_jsons5_0B8_
FN:146,_RNCNvMs_NtCsgGnK47HN26N_17sqlrustgo_storage6backupNtB6_14BackupExporter11export_jsons6_0B8_
FN:147,_RNCNvMs_NtCsgGnK47HN26N_17sqlrustgo_storage6backupNtB6_14BackupExporter11export_jsons7_0B8_
FN:115,_RNCNvMs_NtCsgGnK47HN26N_17sqlrustgo_storage6backupNtB6_14BackupExporter11export_jsons_0B8_
FN:43,_RNCNvMs_NtCsgGnK47HN26N_17sqlrustgo_storage6backupNtB6_14BackupExporter12export_table0B8_
FN:54,_RNCNvMs_NtCsgGnK47HN26N_17sqlrustgo_storage6backupNtB6_14BackupExporter12export_tables_0B8_
FN:20,_RNvMNtCsgGnK47HN26N_17sqlrustgo_storage6backupNtB2_12BackupFormat8from_str
FN:259,_RNvMs0_NtCsgGnK47HN26N_17sqlrustgo_storage6backupNtB5_12DataRestorer11restore_csv
FN:387,_RNvMs0_NtCsgGnK47HN26N_17sqlrustgo_storage6backupNtB5_12DataRestorer11restore_sql
FN:416,_RNvMs0_NtCsgGnK47HN26N_17sqlrustgo_storage6backupNtB5_12DataRestorer12parse_insert
FN:317,_RNvMs0_NtCsgGnK47HN26N_17sqlrustgo_storage6backupNtB5_12DataRestorer12restore_json
FN:369,_RNvMs0_NtCsgGnK47HN26N_17sqlrustgo_storage6backupNtB5_12DataRestorer13json_to_value
FN:300,_RNvMs0_NtCsgGnK47HN26N_17sqlrustgo_storage6backupNtB5_12DataRestorer15parse_csv_value
FN:448,_RNvMs0_NtCsgGnK47HN26N_17sqlrustgo_storage6backupNtB5_12DataRestorer15parse_sql_value
FN:430,_RNvMs0_NtCsgGnK47HN26N_17sqlrustgo_storage6backupNtB5_12DataRestorer19parse_insert_values
FN:244,_RNvMs0_NtCsgGnK47HN26N_17sqlrustgo_storage6backupNtB5_12DataRestorer19restore_from_backup
FN:77,_RNvMs_NtCsgGnK47HN26N_17sqlrustgo_storage6backupNtB4_14BackupExporter10csv_escape
FN:59,_RNvMs_NtCsgGnK47HN26N_17sqlrustgo_storage6backupNtB4_14BackupExporter10export_csv
FN:177,_RNvMs_NtCsgGnK47HN26N_17sqlrustgo_storage6backupNtB4_14BackupExporter10export_sql
FN:152,_RNvMs_NtCsgGnK47HN26N_17sqlrustgo_storage6backupNtB4_14BackupExporter10json_value
FN:108,_RNvMs_NtCsgGnK47HN26N_17sqlrustgo_storage6backupNtB4_14BackupExporter11export_json
FN:33,_RNvMs_NtCsgGnK47HN26N_17sqlrustgo_storage6backupNtB4_14BackupExporter12export_table
FN:203,_RNvMs_NtCsgGnK47HN26N_17sqlrustgo_storage6backupNtB4_14BackupExporter9sql_value
FN:237,_RNCNvNtNtCsgGnK47HN26N_17sqlrustgo_storage6backup7use_hex6encode0B7_
FN:326,_RNCNCNvMs0_NtCs2l7roSUS7lg_17sqlrustgo_storage6backupNtB9_12DataRestorer12restore_jsons_00Bb_
FN:280,_RNCNvMs0_NtCs2l7roSUS7lg_17sqlrustgo_storage6backupNtB7_12DataRestorer11restore_csv0B9_
FN:319,_RNCNvMs0_NtCs2l7roSUS7lg_17sqlrustgo_storage6backupNtB7_12DataRestorer12restore_json0B9_
FN:349,_RNCNvMs0_NtCs2l7roSUS7lg_17sqlrustgo_storage6backupNtB7_12DataRestorer12restore_jsons0_0B9_
FN:324,_RNCNvMs0_NtCs2l7roSUS7lg_17sqlrustgo_storage6backupNtB7_12DataRestorer12restore_jsons_0B9_
FN:440,_RNCNvMs0_NtCs2l7roSUS7lg_17sqlrustgo_storage6backupNtB7_12DataRestorer19parse_insert_values0B9_
FN:250,_RNCNvMs0_NtCs2l7roSUS7lg_17sqlrustgo_storage6backupNtB7_12DataRestorer19restore_from_backup0B9_
FN:64,_RNCNvMs_NtCs2l7roSUS7lg_17sqlrustgo_storage6backupNtB6_14BackupExporter10export_csv0B8_
FN:71,_RNCNvMs_NtCs2l7roSUS7lg_17sqlrustgo_storage6backupNtB6_14BackupExporter10export_csvs0_0B8_
FN:66,_RNCNvMs_NtCs2l7roSUS7lg_17sqlrustgo_storage6backupNtB6_14BackupExporter10export_csvs_0B8_
FN:197,_RNCNvMs_NtCs2l7roSUS7lg_17sqlrustgo_storage6backupNtB6_14BackupExporter10export_sql0B8_
FN:192,_RNCNvMs_NtCs2l7roSUS7lg_17sqlrustgo_storage6backupNtB6_14BackupExporter10export_sqls_0B8_
FN:113,_RNCNvMs_NtCs2l7roSUS7lg_17sqlrustgo_storage6backupNtB6_14BackupExporter11export_json0B8_
FN:117,_RNCNvMs_NtCs2l7roSUS7lg_17sqlrustgo_storage6backupNtB6_14BackupExporter11export_jsons0_0B8_
FN:119,_RNCNvMs_NtCs2l7roSUS7lg_17sqlrustgo_storage6backupNtB6_14BackupExporter11export_jsons1_0B8_
FN:122,_RNCNvMs_NtCs2l7roSUS7lg_17sqlrustgo_storage6backupNtB6_14BackupExporter11export_jsons2_0B8_
FN:128,_RNCNvMs_NtCs2l7roSUS7lg_17sqlrustgo_storage6backupNtB6_14BackupExporter11export_jsons3_0B8_
FN:139,_RNCNvMs_NtCs2l7roSUS7lg_17sqlrustgo_storage6backupNtB6_14BackupExporter11export_jsons4_0B8_
FN:142,_RNCNvMs_NtCs2l7roSUS7lg_17sqlrustgo_storage6backupNtB6_14BackupExporter11export_jsons5_0B8_
FN:146,_RNCNvMs_NtCs2l7roSUS7lg_17sqlrustgo_storage6backupNtB6_14BackupExporter11export_jsons6_0B8_
FN:147,_RNCNvMs_NtCs2l7roSUS7lg_17sqlrustgo_storage6backupNtB6_14BackupExporter11export_jsons7_0B8_
FN:115,_RNCNvMs_NtCs2l7roSUS7lg_17sqlrustgo_storage6backupNtB6_14BackupExporter11export_jsons_0B8_
FN:43,_RNCNvMs_NtCs2l7roSUS7lg_17sqlrustgo_storage6backupNtB6_14BackupExporter12export_table0B8_
FN:54,_RNCNvMs_NtCs2l7roSUS7lg_17sqlrustgo_storage6backupNtB6_14BackupExporter12export_tables_0B8_
FN:236,_RNvNtNtCs2l7roSUS7lg_17sqlrustgo_storage6backup7use_hex6encode
FN:237,_RNCNvNtNtCs2l7roSUS7lg_17sqlrustgo_storage6backup7use_hex6encode0B7_
FN:20,_RNvMNtCs2l7roSUS7lg_17sqlrustgo_storage6backupNtB2_12BackupFormat8from_str
FN:259,_RNvMs0_NtCs2l7roSUS7lg_17sqlrustgo_storage6backupNtB5_12DataRestorer11restore_csv
FN:387,_RNvMs0_NtCs2l7roSUS7lg_17sqlrustgo_storage6backupNtB5_12DataRestorer11restore_sql
FN:416,_RNvMs0_NtCs2l7roSUS7lg_17sqlrustgo_storage6backupNtB5_12DataRestorer12parse_insert
FN:317,_RNvMs0_NtCs2l7roSUS7lg_17sqlrustgo_storage6backupNtB5_12DataRestorer12restore_json
FN:369,_RNvMs0_NtCs2l7roSUS7lg_17sqlrustgo_storage6backupNtB5_12DataRestorer13json_to_value
FN:300,_RNvMs0_NtCs2l7roSUS7lg_17sqlrustgo_storage6backupNtB5_12DataRestorer15parse_csv_value
FN:448,_RNvMs0_NtCs2l7roSUS7lg_17sqlrustgo_storage6backupNtB5_12DataRestorer15parse_sql_value
FN:430,_RNvMs0_NtCs2l7roSUS7lg_17sqlrustgo_storage6backupNtB5_12DataRestorer19parse_insert_values
FN:244,_RNvMs0_NtCs2l7roSUS7lg_17sqlrustgo_storage6backupNtB5_12DataRestorer19restore_from_backup
FN:77,_RNvMs_NtCs2l7roSUS7lg_17sqlrustgo_storage6backupNtB4_14BackupExporter10csv_escape
FN:59,_RNvMs_NtCs2l7roSUS7lg_17sqlrustgo_storage6backupNtB4_14BackupExporter10export_csv
FN:177,_RNvMs_NtCs2l7roSUS7lg_17sqlrustgo_storage6backupNtB4_14BackupExporter10export_sql
FN:152,_RNvMs_NtCs2l7roSUS7lg_17sqlrustgo_storage6backupNtB4_14BackupExporter10json_value
FN:108,_RNvMs_NtCs2l7roSUS7lg_17sqlrustgo_storage6backupNtB4_14BackupExporter11export_json
FN:33,_RNvMs_NtCs2l7roSUS7lg_17sqlrustgo_storage6backupNtB4_14BackupExporter12export_table
FN:203,_RNvMs_NtCs2l7roSUS7lg_17sqlrustgo_storage6backupNtB4_14BackupExporter9sql_value
FNDA:0,_RNCNvNtNtCs38XCG6692bz_17sqlrustgo_storage6backup7use_hex6encode0B7_
FNDA:0,_RNCNCNvMs0_NtCs38XCG6692bz_17sqlrustgo_storage6backupNtB9_12DataRestorer12restore_jsons_00Bb_
FNDA:0,_RNCNvMs0_NtCs38XCG6692bz_17sqlrustgo_storage6backupNtB7_12DataRestorer11restore_csv0B9_
FNDA:0,_RNCNvMs0_NtCs38XCG6692bz_17sqlrustgo_storage6backupNtB7_12DataRestorer12restore_json0B9_
FNDA:0,_RNCNvMs0_NtCs38XCG6692bz_17sqlrustgo_storage6backupNtB7_12DataRestorer12restore_jsons0_0B9_
FNDA:0,_RNCNvMs0_NtCs38XCG6692bz_17sqlrustgo_storage6backupNtB7_12DataRestorer12restore_jsons_0B9_
FNDA:0,_RNCNvMs0_NtCs38XCG6692bz_17sqlrustgo_storage6backupNtB7_12DataRestorer19parse_insert_values0B9_
FNDA:0,_RNCNvMs0_NtCs38XCG6692bz_17sqlrustgo_storage6backupNtB7_12DataRestorer19restore_from_backup0B9_
FNDA:0,_RNCNvMs_NtCs38XCG6692bz_17sqlrustgo_storage6backupNtB6_14BackupExporter10export_csv0B8_
FNDA:0,_RNCNvMs_NtCs38XCG6692bz_17sqlrustgo_storage6backupNtB6_14BackupExporter10export_csvs0_0B8_
FNDA:0,_RNCNvMs_NtCs38XCG6692bz_17sqlrustgo_storage6backupNtB6_14BackupExporter10export_csvs_0B8_
FNDA:0,_RNCNvMs_NtCs38XCG6692bz_17sqlrustgo_storage6backupNtB6_14BackupExporter10export_sql0B8_
FNDA:0,_RNCNvMs_NtCs38XCG6692bz_17sqlrustgo_storage6backupNtB6_14BackupExporter10export_sqls_0B8_
FNDA:0,_RNCNvMs_NtCs38XCG6692bz_17sqlrustgo_storage6backupNtB6_14BackupExporter11export_json0B8_
FNDA:0,_RNCNvMs_NtCs38XCG6692bz_17sqlrustgo_storage6backupNtB6_14BackupExporter11export_jsons0_0B8_
FNDA:0,_RNCNvMs_NtCs38XCG6692bz_17sqlrustgo_storage6backupNtB6_14BackupExporter11export_jsons1_0B8_
FNDA:0,_RNCNvMs_NtCs38XCG6692bz_17sqlrustgo_storage6backupNtB6_14BackupExporter11export_jsons2_0B8_
FNDA:0,_RNCNvMs_NtCs38XCG6692bz_17sqlrustgo_storage6backupNtB6_14BackupExporter11export_jsons3_0B8_
FNDA:0,_RNCNvMs_NtCs38XCG6692bz_17sqlrustgo_storage6backupNtB6_14BackupExporter11export_jsons4_0B8_
FNDA:0,_RNCNvMs_NtCs38XCG6692bz_17sqlrustgo_storage6backupNtB6_14BackupExporter11export_jsons5_0B8_
FNDA:0,_RNCNvMs_NtCs38XCG6692bz_17sqlrustgo_storage6backupNtB6_14BackupExporter11export_jsons6_0B8_
FNDA:0,_RNCNvMs_NtCs38XCG6692bz_17sqlrustgo_storage6backupNtB6_14BackupExporter11export_jsons7_0B8_
FNDA:0,_RNCNvMs_NtCs38XCG6692bz_17sqlrustgo_storage6backupNtB6_14BackupExporter11export_jsons_0B8_
FNDA:0,_RNCNvMs_NtCs38XCG6692bz_17sqlrustgo_storage6backupNtB6_14BackupExporter12export_table0B8_
FNDA:0,_RNCNvMs_NtCs38XCG6692bz_17sqlrustgo_storage6backupNtB6_14BackupExporter12export_tables_0B8_
FNDA:0,_RNvMNtCs38XCG6692bz_17sqlrustgo_storage6backupNtB2_12BackupFormat8from_str
FNDA:0,_RNvMs0_NtCs38XCG6692bz_17sqlrustgo_storage6backupNtB5_12DataRestorer11restore_csv
FNDA:0,_RNvMs0_NtCs38XCG6692bz_17sqlrustgo_storage6backupNtB5_12DataRestorer11restore_sql
FNDA:0,_RNvMs0_NtCs38XCG6692bz_17sqlrustgo_storage6backupNtB5_12DataRestorer12parse_insert
FNDA:0,_RNvMs0_NtCs38XCG6692bz_17sqlrustgo_storage6backupNtB5_12DataRestorer12restore_json
FNDA:0,_RNvMs0_NtCs38XCG6692bz_17sqlrustgo_storage6backupNtB5_12DataRestorer13json_to_value
FNDA:0,_RNvMs0_NtCs38XCG6692bz_17sqlrustgo_storage6backupNtB5_12DataRestorer15parse_csv_value
FNDA:0,_RNvMs0_NtCs38XCG6692bz_17sqlrustgo_storage6backupNtB5_12DataRestorer15parse_sql_value
FNDA:0,_RNvMs0_NtCs38XCG6692bz_17sqlrustgo_storage6backupNtB5_12DataRestorer19parse_insert_values
FNDA:0,_RNvMs0_NtCs38XCG6692bz_17sqlrustgo_storage6backupNtB5_12DataRestorer19restore_from_backup
FNDA:0,_RNvMs_NtCs38XCG6692bz_17sqlrustgo_storage6backupNtB4_14BackupExporter10csv_escape
FNDA:0,_RNvMs_NtCs38XCG6692bz_17sqlrustgo_storage6backupNtB4_14BackupExporter10export_csv
FNDA:0,_RNvMs_NtCs38XCG6692bz_17sqlrustgo_storage6backupNtB4_14BackupExporter10export_sql
FNDA:0,_RNvMs_NtCs38XCG6692bz_17sqlrustgo_storage6backupNtB4_14BackupExporter10json_value
FNDA:0,_RNvMs_NtCs38XCG6692bz_17sqlrustgo_storage6backupNtB4_14BackupExporter11export_json
FNDA:0,_RNvMs_NtCs38XCG6692bz_17sqlrustgo_storage6backupNtB4_14BackupExporter12export_table
FNDA:0,_RNvMs_NtCs38XCG6692bz_17sqlrustgo_storage6backupNtB4_14BackupExporter9sql_value
FNDA:0,_RNvNtNtCs38XCG6692bz_17sqlrustgo_storage6backup7use_hex6encode
FNDA:0,_RNvNtNtCs1u7In8Za3Xp_17sqlrustgo_storage6backup7use_hex6encode
FNDA:0,_RNCNCNvMs0_NtCs1u7In8Za3Xp_17sqlrustgo_storage6backupNtB9_12DataRestorer12restore_jsons_00Bb_
FNDA:0,_RNCNvMs0_NtCs1u7In8Za3Xp_17sqlrustgo_storage6backupNtB7_12DataRestorer11restore_csv0B9_
FNDA:0,_RNCNvMs0_NtCs1u7In8Za3Xp_17sqlrustgo_storage6backupNtB7_12DataRestorer12restore_json0B9_
FNDA:0,_RNCNvMs0_NtCs1u7In8Za3Xp_17sqlrustgo_storage6backupNtB7_12DataRestorer12restore_jsons0_0B9_
FNDA:0,_RNCNvMs0_NtCs1u7In8Za3Xp_17sqlrustgo_storage6backupNtB7_12DataRestorer12restore_jsons_0B9_
FNDA:0,_RNCNvMs0_NtCs1u7In8Za3Xp_17sqlrustgo_storage6backupNtB7_12DataRestorer19parse_insert_values0B9_
FNDA:0,_RNCNvMs0_NtCs1u7In8Za3Xp_17sqlrustgo_storage6backupNtB7_12DataRestorer19restore_from_backup0B9_
FNDA:0,_RNCNvMs_NtCs1u7In8Za3Xp_17sqlrustgo_storage6backupNtB6_14BackupExporter10export_csv0B8_
FNDA:0,_RNCNvMs_NtCs1u7In8Za3Xp_17sqlrustgo_storage6backupNtB6_14BackupExporter10export_csvs0_0B8_
FNDA:0,_RNCNvMs_NtCs1u7In8Za3Xp_17sqlrustgo_storage6backupNtB6_14BackupExporter10export_csvs_0B8_
FNDA:0,_RNCNvMs_NtCs1u7In8Za3Xp_17sqlrustgo_storage6backupNtB6_14BackupExporter10export_sql0B8_
FNDA:0,_RNCNvMs_NtCs1u7In8Za3Xp_17sqlrustgo_storage6backupNtB6_14BackupExporter10export_sqls_0B8_
FNDA:0,_RNCNvMs_NtCs1u7In8Za3Xp_17sqlrustgo_storage6backupNtB6_14BackupExporter11export_json0B8_
FNDA:0,_RNCNvMs_NtCs1u7In8Za3Xp_17sqlrustgo_storage6backupNtB6_14BackupExporter11export_jsons0_0B8_
FNDA:0,_RNCNvMs_NtCs1u7In8Za3Xp_17sqlrustgo_storage6backupNtB6_14BackupExporter11export_jsons1_0B8_
FNDA:0,_RNCNvMs_NtCs1u7In8Za3Xp_17sqlrustgo_storage6backupNtB6_14BackupExporter11export_jsons2_0B8_
FNDA:0,_RNCNvMs_NtCs1u7In8Za3Xp_17sqlrustgo_storage6backupNtB6_14BackupExporter11export_jsons3_0B8_
FNDA:0,_RNCNvMs_NtCs1u7In8Za3Xp_17sqlrustgo_storage6backupNtB6_14BackupExporter11export_jsons4_0B8_
FNDA:0,_RNCNvMs_NtCs1u7In8Za3Xp_17sqlrustgo_storage6backupNtB6_14BackupExporter11export_jsons5_0B8_
FNDA:0,_RNCNvMs_NtCs1u7In8Za3Xp_17sqlrustgo_storage6backupNtB6_14BackupExporter11export_jsons6_0B8_
FNDA:0,_RNCNvMs_NtCs1u7In8Za3Xp_17sqlrustgo_storage6backupNtB6_14BackupExporter11export_jsons7_0B8_
FNDA:0,_RNCNvMs_NtCs1u7In8Za3Xp_17sqlrustgo_storage6backupNtB6_14BackupExporter11export_jsons_0B8_
FNDA:0,_RNCNvMs_NtCs1u7In8Za3Xp_17sqlrustgo_storage6backupNtB6_14BackupExporter12export_table0B8_
FNDA:0,_RNCNvMs_NtCs1u7In8Za3Xp_17sqlrustgo_storage6backupNtB6_14BackupExporter12export_tables_0B8_
FNDA:0,_RNvMNtCs1u7In8Za3Xp_17sqlrustgo_storage6backupNtB2_12BackupFormat8from_str
FNDA:0,_RNvMs0_NtCs1u7In8Za3Xp_17sqlrustgo_storage6backupNtB5_12DataRestorer11restore_csv
FNDA:0,_RNvMs0_NtCs1u7In8Za3Xp_17sqlrustgo_storage6backupNtB5_12DataRestorer11restore_sql
FNDA:0,_RNvMs0_NtCs1u7In8Za3Xp_17sqlrustgo_storage6backupNtB5_12DataRestorer12parse_insert
FNDA:0,_RNvMs0_NtCs1u7In8Za3Xp_17sqlrustgo_storage6backupNtB5_12DataRestorer12restore_json
FNDA:0,_RNvMs0_NtCs1u7In8Za3Xp_17sqlrustgo_storage6backupNtB5_12DataRestorer13json_to_value
FNDA:0,_RNvMs0_NtCs1u7In8Za3Xp_17sqlrustgo_storage6backupNtB5_12DataRestorer15parse_csv_value
FNDA:0,_RNvMs0_NtCs1u7In8Za3Xp_17sqlrustgo_storage6backupNtB5_12DataRestorer15parse_sql_value
FNDA:0,_RNvMs0_NtCs1u7In8Za3Xp_17sqlrustgo_storage6backupNtB5_12DataRestorer19parse_insert_values
FNDA:0,_RNvMs0_NtCs1u7In8Za3Xp_17sqlrustgo_storage6backupNtB5_12DataRestorer19restore_from_backup
FNDA:0,_RNvMs_NtCs1u7In8Za3Xp_17sqlrustgo_storage6backupNtB4_14BackupExporter10csv_escape
FNDA:0,_RNvMs_NtCs1u7In8Za3Xp_17sqlrustgo_storage6backupNtB4_14BackupExporter10export_csv
FNDA:0,_RNvMs_NtCs1u7In8Za3Xp_17sqlrustgo_storage6backupNtB4_14BackupExporter10export_sql
FNDA:0,_RNvMs_NtCs1u7In8Za3Xp_17sqlrustgo_storage6backupNtB4_14BackupExporter10json_value
FNDA:0,_RNvMs_NtCs1u7In8Za3Xp_17sqlrustgo_storage6backupNtB4_14BackupExporter11export_json
FNDA:0,_RNvMs_NtCs1u7In8Za3Xp_17sqlrustgo_storage6backupNtB4_14BackupExporter12export_table
FNDA:0,_RNvMs_NtCs1u7In8Za3Xp_17sqlrustgo_storage6backupNtB4_14BackupExporter9sql_value
FNDA:0,_RNCNvNtNtCs1u7In8Za3Xp_17sqlrustgo_storage6backup7use_hex6encode0B7_
FNDA:0,_RNvMNtCsd1AkON0xxEy_17sqlrustgo_storage6backupNtB2_12BackupFormat8from_str
FNDA:0,_RNvMs0_NtCsd1AkON0xxEy_17sqlrustgo_storage6backupNtB5_12DataRestorer11restore_csv
FNDA:0,_RNvMs0_NtCsd1AkON0xxEy_17sqlrustgo_storage6backupNtB5_12DataRestorer11restore_sql
FNDA:0,_RNvMs0_NtCsd1AkON0xxEy_17sqlrustgo_storage6backupNtB5_12DataRestorer12parse_insert
FNDA:0,_RNvMs0_NtCsd1AkON0xxEy_17sqlrustgo_storage6backupNtB5_12DataRestorer12restore_json
FNDA:0,_RNvMs0_NtCsd1AkON0xxEy_17sqlrustgo_storage6backupNtB5_12DataRestorer13json_to_value
FNDA:0,_RNvMs0_NtCsd1AkON0xxEy_17sqlrustgo_storage6backupNtB5_12DataRestorer15parse_csv_value
FNDA:0,_RNvMs0_NtCsd1AkON0xxEy_17sqlrustgo_storage6backupNtB5_12DataRestorer15parse_sql_value
FNDA:0,_RNvMs0_NtCsd1AkON0xxEy_17sqlrustgo_storage6backupNtB5_12DataRestorer19parse_insert_values
FNDA:0,_RNvMs0_NtCsd1AkON0xxEy_17sqlrustgo_storage6backupNtB5_12DataRestorer19restore_from_backup
FNDA:0,_RNvMs_NtCsd1AkON0xxEy_17sqlrustgo_storage6backupNtB4_14BackupExporter10csv_escape
FNDA:0,_RNvMs_NtCsd1AkON0xxEy_17sqlrustgo_storage6backupNtB4_14BackupExporter10export_csv
FNDA:0,_RNvMs_NtCsd1AkON0xxEy_17sqlrustgo_storage6backupNtB4_14BackupExporter10export_sql
FNDA:0,_RNvMs_NtCsd1AkON0xxEy_17sqlrustgo_storage6backupNtB4_14BackupExporter10json_value
FNDA:0,_RNvMs_NtCsd1AkON0xxEy_17sqlrustgo_storage6backupNtB4_14BackupExporter11export_json
FNDA:0,_RNvMs_NtCsd1AkON0xxEy_17sqlrustgo_storage6backupNtB4_14BackupExporter12export_table
FNDA:0,_RNvMs_NtCsd1AkON0xxEy_17sqlrustgo_storage6backupNtB4_14BackupExporter9sql_value
FNDA:0,_RNCNvNtNtCsd1AkON0xxEy_17sqlrustgo_storage6backup7use_hex6encode0B7_
FNDA:0,_RNCNCNvMs0_NtCsd1AkON0xxEy_17sqlrustgo_storage6backupNtB9_12DataRestorer12restore_jsons_00Bb_
FNDA:0,_RNCNvMs0_NtCsd1AkON0xxEy_17sqlrustgo_storage6backupNtB7_12DataRestorer11restore_csv0B9_
FNDA:0,_RNCNvMs0_NtCsd1AkON0xxEy_17sqlrustgo_storage6backupNtB7_12DataRestorer12restore_json0B9_
FNDA:0,_RNCNvMs0_NtCsd1AkON0xxEy_17sqlrustgo_storage6backupNtB7_12DataRestorer12restore_jsons0_0B9_
FNDA:0,_RNCNvMs0_NtCsd1AkON0xxEy_17sqlrustgo_storage6backupNtB7_12DataRestorer12restore_jsons_0B9_
FNDA:0,_RNCNvMs0_NtCsd1AkON0xxEy_17sqlrustgo_storage6backupNtB7_12DataRestorer19parse_insert_values0B9_
FNDA:0,_RNCNvMs0_NtCsd1AkON0xxEy_17sqlrustgo_storage6backupNtB7_12DataRestorer19restore_from_backup0B9_
FNDA:0,_RNCNvMs_NtCsd1AkON0xxEy_17sqlrustgo_storage6backupNtB6_14BackupExporter10export_csv0B8_
FNDA:0,_RNCNvMs_NtCsd1AkON0xxEy_17sqlrustgo_storage6backupNtB6_14BackupExporter10export_csvs0_0B8_
FNDA:0,_RNCNvMs_NtCsd1AkON0xxEy_17sqlrustgo_storage6backupNtB6_14BackupExporter10export_csvs_0B8_
FNDA:0,_RNCNvMs_NtCsd1AkON0xxEy_17sqlrustgo_storage6backupNtB6_14BackupExporter10export_sql0B8_
FNDA:0,_RNCNvMs_NtCsd1AkON0xxEy_17sqlrustgo_storage6backupNtB6_14BackupExporter10export_sqls_0B8_
FNDA:0,_RNCNvMs_NtCsd1AkON0xxEy_17sqlrustgo_storage6backupNtB6_14BackupExporter11export_json0B8_
FNDA:0,_RNCNvMs_NtCsd1AkON0xxEy_17sqlrustgo_storage6backupNtB6_14BackupExporter11export_jsons0_0B8_
FNDA:0,_RNCNvMs_NtCsd1AkON0xxEy_17sqlrustgo_storage6backupNtB6_14BackupExporter11export_jsons1_0B8_
FNDA:0,_RNCNvMs_NtCsd1AkON0xxEy_17sqlrustgo_storage6backupNtB6_14BackupExporter11export_jsons2_0B8_
FNDA:0,_RNCNvMs_NtCsd1AkON0xxEy_17sqlrustgo_storage6backupNtB6_14BackupExporter11export_jsons3_0B8_
FNDA:0,_RNCNvMs_NtCsd1AkON0xxEy_17sqlrustgo_storage6backupNtB6_14BackupExporter11export_jsons4_0B8_
FNDA:0,_RNCNvMs_NtCsd1AkON0xxEy_17sqlrustgo_storage6backupNtB6_14BackupExporter11export_jsons5_0B8_
FNDA:0,_RNCNvMs_NtCsd1AkON0xxEy_17sqlrustgo_storage6backupNtB6_14BackupExporter11export_jsons6_0B8_
FNDA:0,_RNCNvMs_NtCsd1AkON0xxEy_17sqlrustgo_storage6backupNtB6_14BackupExporter11export_jsons7_0B8_
FNDA:0,_RNCNvMs_NtCsd1AkON0xxEy_17sqlrustgo_storage6backupNtB6_14BackupExporter11export_jsons_0B8_
FNDA:0,_RNCNvMs_NtCsd1AkON0xxEy_17sqlrustgo_storage6backupNtB6_14BackupExporter12export_table0B8_
FNDA:0,_RNCNvMs_NtCsd1AkON0xxEy_17sqlrustgo_storage6backupNtB6_14BackupExporter12export_tables_0B8_
FNDA:0,_RNvNtNtCsd1AkON0xxEy_17sqlrustgo_storage6backup7use_hex6encode
FNDA:0,_RNvMNtCs9oXD4GUMzTX_17sqlrustgo_storage6backupNtB2_12BackupFormat8from_str
FNDA:0,_RNvMs0_NtCs9oXD4GUMzTX_17sqlrustgo_storage6backupNtB5_12DataRestorer11restore_csv
FNDA:0,_RNvMs0_NtCs9oXD4GUMzTX_17sqlrustgo_storage6backupNtB5_12DataRestorer11restore_sql
FNDA:0,_RNvMs0_NtCs9oXD4GUMzTX_17sqlrustgo_storage6backupNtB5_12DataRestorer12parse_insert
FNDA:0,_RNvMs0_NtCs9oXD4GUMzTX_17sqlrustgo_storage6backupNtB5_12DataRestorer12restore_json
FNDA:0,_RNvMs0_NtCs9oXD4GUMzTX_17sqlrustgo_storage6backupNtB5_12DataRestorer13json_to_value
FNDA:0,_RNvMs0_NtCs9oXD4GUMzTX_17sqlrustgo_storage6backupNtB5_12DataRestorer15parse_csv_value
FNDA:0,_RNvMs0_NtCs9oXD4GUMzTX_17sqlrustgo_storage6backupNtB5_12DataRestorer15parse_sql_value
FNDA:0,_RNvMs0_NtCs9oXD4GUMzTX_17sqlrustgo_storage6backupNtB5_12DataRestorer19parse_insert_values
FNDA:0,_RNvMs0_NtCs9oXD4GUMzTX_17sqlrustgo_storage6backupNtB5_12DataRestorer19restore_from_backup
FNDA:0,_RNvMs_NtCs9oXD4GUMzTX_17sqlrustgo_storage6backupNtB4_14BackupExporter10csv_escape
FNDA:0,_RNvMs_NtCs9oXD4GUMzTX_17sqlrustgo_storage6backupNtB4_14BackupExporter10export_csv
FNDA:0,_RNvMs_NtCs9oXD4GUMzTX_17sqlrustgo_storage6backupNtB4_14BackupExporter10export_sql
FNDA:0,_RNvMs_NtCs9oXD4GUMzTX_17sqlrustgo_storage6backupNtB4_14BackupExporter10json_value
FNDA:0,_RNvMs_NtCs9oXD4GUMzTX_17sqlrustgo_storage6backupNtB4_14BackupExporter11export_json
FNDA:0,_RNvMs_NtCs9oXD4GUMzTX_17sqlrustgo_storage6backupNtB4_14BackupExporter12export_table
FNDA:0,_RNvMs_NtCs9oXD4GUMzTX_17sqlrustgo_storage6backupNtB4_14BackupExporter9sql_value
FNDA:0,_RNCNCNvMs0_NtCs9oXD4GUMzTX_17sqlrustgo_storage6backupNtB9_12DataRestorer12restore_jsons_00Bb_
FNDA:0,_RNCNvMs0_NtCs9oXD4GUMzTX_17sqlrustgo_storage6backupNtB7_12DataRestorer11restore_csv0B9_
FNDA:0,_RNCNvMs0_NtCs9oXD4GUMzTX_17sqlrustgo_storage6backupNtB7_12DataRestorer12restore_json0B9_
FNDA:0,_RNCNvMs0_NtCs9oXD4GUMzTX_17sqlrustgo_storage6backupNtB7_12DataRestorer12restore_jsons0_0B9_
FNDA:0,_RNCNvMs0_NtCs9oXD4GUMzTX_17sqlrustgo_storage6backupNtB7_12DataRestorer12restore_jsons_0B9_
FNDA:0,_RNCNvMs0_NtCs9oXD4GUMzTX_17sqlrustgo_storage6backupNtB7_12DataRestorer19parse_insert_values0B9_
FNDA:0,_RNCNvMs0_NtCs9oXD4GUMzTX_17sqlrustgo_storage6backupNtB7_12DataRestorer19restore_from_backup0B9_
FNDA:0,_RNCNvMs_NtCs9oXD4GUMzTX_17sqlrustgo_storage6backupNtB6_14BackupExporter10export_csv0B8_
FNDA:0,_RNCNvMs_NtCs9oXD4GUMzTX_17sqlrustgo_storage6backupNtB6_14BackupExporter10export_csvs0_0B8_
FNDA:0,_RNCNvMs_NtCs9oXD4GUMzTX_17sqlrustgo_storage6backupNtB6_14BackupExporter10export_csvs_0B8_
FNDA:0,_RNCNvMs_NtCs9oXD4GUMzTX_17sqlrustgo_storage6backupNtB6_14BackupExporter10export_sql0B8_
FNDA:0,_RNCNvMs_NtCs9oXD4GUMzTX_17sqlrustgo_storage6backupNtB6_14BackupExporter10export_sqls_0B8_
FNDA:0,_RNCNvMs_NtCs9oXD4GUMzTX_17sqlrustgo_storage6backupNtB6_14BackupExporter11export_json0B8_
FNDA:0,_RNCNvMs_NtCs9oXD4GUMzTX_17sqlrustgo_storage6backupNtB6_14BackupExporter11export_jsons0_0B8_
FNDA:0,_RNCNvMs_NtCs9oXD4GUMzTX_17sqlrustgo_storage6backupNtB6_14BackupExporter11export_jsons1_0B8_
FNDA:0,_RNCNvMs_NtCs9oXD4GUMzTX_17sqlrustgo_storage6backupNtB6_14BackupExporter11export_jsons2_0B8_
FNDA:0,_RNCNvMs_NtCs9oXD4GUMzTX_17sqlrustgo_storage6backupNtB6_14BackupExporter11export_jsons3_0B8_
FNDA:0,_RNCNvMs_NtCs9oXD4GUMzTX_17sqlrustgo_storage6backupNtB6_14BackupExporter11export_jsons4_0B8_
FNDA:0,_RNCNvMs_NtCs9oXD4GUMzTX_17sqlrustgo_storage6backupNtB6_14BackupExporter11export_jsons5_0B8_
FNDA:0,_RNCNvMs_NtCs9oXD4GUMzTX_17sqlrustgo_storage6backupNtB6_14BackupExporter11export_jsons6_0B8_
FNDA:0,_RNCNvMs_NtCs9oXD4GUMzTX_17sqlrustgo_storage6backupNtB6_14BackupExporter11export_jsons7_0B8_
FNDA:0,_RNCNvMs_NtCs9oXD4GUMzTX_17sqlrustgo_storage6backupNtB6_14BackupExporter11export_jsons_0B8_
FNDA:0,_RNCNvMs_NtCs9oXD4GUMzTX_17sqlrustgo_storage6backupNtB6_14BackupExporter12export_table0B8_
FNDA:0,_RNCNvMs_NtCs9oXD4GUMzTX_17sqlrustgo_storage6backupNtB6_14BackupExporter12export_tables_0B8_
FNDA:0,_RNvNtNtCs9oXD4GUMzTX_17sqlrustgo_storage6backup7use_hex6encode
FNDA:0,_RNCNvNtNtCs9oXD4GUMzTX_17sqlrustgo_storage6backup7use_hex6encode0B7_
FNDA:0,_RNCNvNtNtCsl9zPO89iGuX_17sqlrustgo_storage6backup7use_hex6encode0B7_
FNDA:0,_RNvNtNtCsl9zPO89iGuX_17sqlrustgo_storage6backup7use_hex6encode
FNDA:0,_RNCNCNvMs0_NtCsl9zPO89iGuX_17sqlrustgo_storage6backupNtB9_12DataRestorer12restore_jsons_00Bb_
FNDA:0,_RNCNvMs0_NtCsl9zPO89iGuX_17sqlrustgo_storage6backupNtB7_12DataRestorer11restore_csv0B9_
FNDA:0,_RNCNvMs0_NtCsl9zPO89iGuX_17sqlrustgo_storage6backupNtB7_12DataRestorer12restore_json0B9_
FNDA:0,_RNCNvMs0_NtCsl9zPO89iGuX_17sqlrustgo_storage6backupNtB7_12DataRestorer12restore_jsons0_0B9_
FNDA:0,_RNCNvMs0_NtCsl9zPO89iGuX_17sqlrustgo_storage6backupNtB7_12DataRestorer12restore_jsons_0B9_
FNDA:0,_RNCNvMs0_NtCsl9zPO89iGuX_17sqlrustgo_storage6backupNtB7_12DataRestorer19parse_insert_values0B9_
FNDA:0,_RNCNvMs0_NtCsl9zPO89iGuX_17sqlrustgo_storage6backupNtB7_12DataRestorer19restore_from_backup0B9_
FNDA:0,_RNCNvMs_NtCsl9zPO89iGuX_17sqlrustgo_storage6backupNtB6_14BackupExporter10export_csv0B8_
FNDA:0,_RNCNvMs_NtCsl9zPO89iGuX_17sqlrustgo_storage6backupNtB6_14BackupExporter10export_csvs0_0B8_
FNDA:0,_RNCNvMs_NtCsl9zPO89iGuX_17sqlrustgo_storage6backupNtB6_14BackupExporter10export_csvs_0B8_
FNDA:0,_RNCNvMs_NtCsl9zPO89iGuX_17sqlrustgo_storage6backupNtB6_14BackupExporter10export_sql0B8_
FNDA:0,_RNCNvMs_NtCsl9zPO89iGuX_17sqlrustgo_storage6backupNtB6_14BackupExporter10export_sqls_0B8_
FNDA:0,_RNCNvMs_NtCsl9zPO89iGuX_17sqlrustgo_storage6backupNtB6_14BackupExporter11export_json0B8_
FNDA:0,_RNCNvMs_NtCsl9zPO89iGuX_17sqlrustgo_storage6backupNtB6_14BackupExporter11export_jsons0_0B8_
FNDA:0,_RNCNvMs_NtCsl9zPO89iGuX_17sqlrustgo_storage6backupNtB6_14BackupExporter11export_jsons1_0B8_
FNDA:0,_RNCNvMs_NtCsl9zPO89iGuX_17sqlrustgo_storage6backupNtB6_14BackupExporter11export_jsons2_0B8_
FNDA:0,_RNCNvMs_NtCsl9zPO89iGuX_17sqlrustgo_storage6backupNtB6_14BackupExporter11export_jsons3_0B8_
FNDA:0,_RNCNvMs_NtCsl9zPO89iGuX_17sqlrustgo_storage6backupNtB6_14BackupExporter11export_jsons4_0B8_
FNDA:0,_RNCNvMs_NtCsl9zPO89iGuX_17sqlrustgo_storage6backupNtB6_14BackupExporter11export_jsons5_0B8_
FNDA:0,_RNCNvMs_NtCsl9zPO89iGuX_17sqlrustgo_storage6backupNtB6_14BackupExporter11export_jsons6_0B8_
FNDA:0,_RNCNvMs_NtCsl9zPO89iGuX_17sqlrustgo_storage6backupNtB6_14BackupExporter11export_jsons7_0B8_
FNDA:0,_RNCNvMs_NtCsl9zPO89iGuX_17sqlrustgo_storage6backupNtB6_14BackupExporter11export_jsons_0B8_
FNDA:0,_RNCNvMs_NtCsl9zPO89iGuX_17sqlrustgo_storage6backupNtB6_14BackupExporter12export_table0B8_
FNDA:0,_RNCNvMs_NtCsl9zPO89iGuX_17sqlrustgo_storage6backupNtB6_14BackupExporter12export_tables_0B8_
FNDA:0,_RNvMNtCsl9zPO89iGuX_17sqlrustgo_storage6backupNtB2_12BackupFormat8from_str
FNDA:0,_RNvMs0_NtCsl9zPO89iGuX_17sqlrustgo_storage6backupNtB5_12DataRestorer11restore_csv
FNDA:0,_RNvMs0_NtCsl9zPO89iGuX_17sqlrustgo_storage6backupNtB5_12DataRestorer11restore_sql
FNDA:0,_RNvMs0_NtCsl9zPO89iGuX_17sqlrustgo_storage6backupNtB5_12DataRestorer12parse_insert
FNDA:0,_RNvMs0_NtCsl9zPO89iGuX_17sqlrustgo_storage6backupNtB5_12DataRestorer12restore_json
FNDA:0,_RNvMs0_NtCsl9zPO89iGuX_17sqlrustgo_storage6backupNtB5_12DataRestorer13json_to_value
FNDA:0,_RNvMs0_NtCsl9zPO89iGuX_17sqlrustgo_storage6backupNtB5_12DataRestorer15parse_csv_value
FNDA:0,_RNvMs0_NtCsl9zPO89iGuX_17sqlrustgo_storage6backupNtB5_12DataRestorer15parse_sql_value
FNDA:0,_RNvMs0_NtCsl9zPO89iGuX_17sqlrustgo_storage6backupNtB5_12DataRestorer19parse_insert_values
FNDA:0,_RNvMs0_NtCsl9zPO89iGuX_17sqlrustgo_storage6backupNtB5_12DataRestorer19restore_from_backup
FNDA:0,_RNvMs_NtCsl9zPO89iGuX_17sqlrustgo_storage6backupNtB4_14BackupExporter10csv_escape
FNDA:0,_RNvMs_NtCsl9zPO89iGuX_17sqlrustgo_storage6backupNtB4_14BackupExporter10export_csv
FNDA:0,_RNvMs_NtCsl9zPO89iGuX_17sqlrustgo_storage6backupNtB4_14BackupExporter10export_sql
FNDA:0,_RNvMs_NtCsl9zPO89iGuX_17sqlrustgo_storage6backupNtB4_14BackupExporter10json_value
FNDA:0,_RNvMs_NtCsl9zPO89iGuX_17sqlrustgo_storage6backupNtB4_14BackupExporter11export_json
FNDA:0,_RNvMs_NtCsl9zPO89iGuX_17sqlrustgo_storage6backupNtB4_14BackupExporter12export_table
FNDA:0,_RNvMs_NtCsl9zPO89iGuX_17sqlrustgo_storage6backupNtB4_14BackupExporter9sql_value
FNDA:1,_RNvNtNtCsgGnK47HN26N_17sqlrustgo_storage6backup5testss_14test_sql_value
FNDA:1,_RNvNtNtCsgGnK47HN26N_17sqlrustgo_storage6backup5testss_15test_csv_escape
FNDA:1,_RNvNtNtCsgGnK47HN26N_17sqlrustgo_storage6backup5testss_15test_export_csv
FNDA:1,_RNvNtNtCsgGnK47HN26N_17sqlrustgo_storage6backup5testss_15test_export_sql
FNDA:1,_RNvNtNtCsgGnK47HN26N_17sqlrustgo_storage6backup5testss_16test_export_json
FNDA:1,_RNvNtNtCsgGnK47HN26N_17sqlrustgo_storage6backup5testss_16test_restore_sql
FNDA:1,_RNvNtNtCsgGnK47HN26N_17sqlrustgo_storage6backup5testss_19test_sql_value_blob
FNDA:1,_RNvNtNtCsgGnK47HN26N_17sqlrustgo_storage6backup5testss_20test_csv_escape_blob
FNDA:1,_RNvNtNtCsgGnK47HN26N_17sqlrustgo_storage6backup5testss_20test_parse_csv_value
FNDA:1,_RNvNtNtCsgGnK47HN26N_17sqlrustgo_storage6backup5testss_22test_json_value_string
FNDA:1,_RNvNtNtCsgGnK47HN26N_17sqlrustgo_storage6backup5testss_22test_sql_value_boolean
FNDA:1,_RNvNtNtCsgGnK47HN26N_17sqlrustgo_storage6backup5testss_23test_csv_escape_boolean
FNDA:1,_RNvNtNtCsgGnK47HN26N_17sqlrustgo_storage6backup5testss_23test_json_value_integer
FNDA:1,_RNvNtNtCsgGnK47HN26N_17sqlrustgo_storage6backup5testss_25test_restore_json_invalid
FNDA:1,_RNvNtNtCsgGnK47HN26N_17sqlrustgo_storage6backup5testss_26test_backup_format_invalid
FNDA:1,_RNvNtNtCsgGnK47HN26N_17sqlrustgo_storage6backup5testss_27test_backup_format_from_str
FNDA:1,_RNvNtNtCsgGnK47HN26N_17sqlrustgo_storage6backup5testss_27test_export_csv_with_quotes
FNDA:1,_RNvNtNtCsgGnK47HN26N_17sqlrustgo_storage6backup5testss_28test_export_with_empty_table
FNDA:1,_RNvNtNtCsgGnK47HN26N_17sqlrustgo_storage6backup5testss_28test_parse_csv_value_integer
FNDA:1,_RNvNtNtCsgGnK47HN26N_17sqlrustgo_storage6backup5testss_30test_data_restorer_restore_csv
FNDA:1,_RNvNtNtCsgGnK47HN26N_17sqlrustgo_storage6backup5testss_34test_export_sql_with_text_escaping
FNDA:1,_RNvNtNtCsgGnK47HN26N_17sqlrustgo_storage6backup5testss_35test_backup_format_case_insensitive
FNDA:1,_RNvNtNtCsgGnK47HN26N_17sqlrustgo_storage6backup7use_hex6encode
FNDA:0,_RNCNCNvMs0_NtCsgGnK47HN26N_17sqlrustgo_storage6backupNtB9_12DataRestorer12restore_jsons_00Bb_
FNDA:2,_RNCNvMs0_NtCsgGnK47HN26N_17sqlrustgo_storage6backupNtB7_12DataRestorer11restore_csv0B9_
FNDA:1,_RNCNvMs0_NtCsgGnK47HN26N_17sqlrustgo_storage6backupNtB7_12DataRestorer12restore_json0B9_
FNDA:0,_RNCNvMs0_NtCsgGnK47HN26N_17sqlrustgo_storage6backupNtB7_12DataRestorer12restore_jsons0_0B9_
FNDA:0,_RNCNvMs0_NtCsgGnK47HN26N_17sqlrustgo_storage6backupNtB7_12DataRestorer12restore_jsons_0B9_
FNDA:2,_RNCNvMs0_NtCsgGnK47HN26N_17sqlrustgo_storage6backupNtB7_12DataRestorer19parse_insert_values0B9_
FNDA:2,_RNCNvMs0_NtCsgGnK47HN26N_17sqlrustgo_storage6backupNtB7_12DataRestorer19restore_from_backup0B9_
FNDA:4,_RNCNvMs_NtCsgGnK47HN26N_17sqlrustgo_storage6backupNtB6_14BackupExporter10export_csv0B8_
FNDA:0,_RNCNvMs_NtCsgGnK47HN26N_17sqlrustgo_storage6backupNtB6_14BackupExporter10export_csvs0_0B8_
FNDA:0,_RNCNvMs_NtCsgGnK47HN26N_17sqlrustgo_storage6backupNtB6_14BackupExporter10export_csvs_0B8_
FNDA:0,_RNCNvMs_NtCsgGnK47HN26N_17sqlrustgo_storage6backupNtB6_14BackupExporter10export_sql0B8_
FNDA:3,_RNCNvMs_NtCsgGnK47HN26N_17sqlrustgo_storage6backupNtB6_14BackupExporter10export_sqls_0B8_
FNDA:0,_RNCNvMs_NtCsgGnK47HN26N_17sqlrustgo_storage6backupNtB6_14BackupExporter11export_json0B8_
FNDA:1,_RNCNvMs_NtCsgGnK47HN26N_17sqlrustgo_storage6backupNtB6_14BackupExporter11export_jsons0_0B8_
FNDA:0,_RNCNvMs_NtCsgGnK47HN26N_17sqlrustgo_storage6backupNtB6_14BackupExporter11export_jsons1_0B8_
FNDA:0,_RNCNvMs_NtCsgGnK47HN26N_17sqlrustgo_storage6backupNtB6_14BackupExporter11export_jsons2_0B8_
FNDA:1,_RNCNvMs_NtCsgGnK47HN26N_17sqlrustgo_storage6backupNtB6_14BackupExporter11export_jsons3_0B8_
FNDA:0,_RNCNvMs_NtCsgGnK47HN26N_17sqlrustgo_storage6backupNtB6_14BackupExporter11export_jsons4_0B8_
FNDA:0,_RNCNvMs_NtCsgGnK47HN26N_17sqlrustgo_storage6backupNtB6_14BackupExporter11export_jsons5_0B8_
FNDA:0,_RNCNvMs_NtCsgGnK47HN26N_17sqlrustgo_storage6backupNtB6_14BackupExporter11export_jsons6_0B8_
FNDA:0,_RNCNvMs_NtCsgGnK47HN26N_17sqlrustgo_storage6backupNtB6_14BackupExporter11export_jsons7_0B8_
FNDA:0,_RNCNvMs_NtCsgGnK47HN26N_17sqlrustgo_storage6backupNtB6_14BackupExporter11export_jsons_0B8_
FNDA:0,_RNCNvMs_NtCsgGnK47HN26N_17sqlrustgo_storage6backupNtB6_14BackupExporter12export_table0B8_
FNDA:0,_RNCNvMs_NtCsgGnK47HN26N_17sqlrustgo_storage6backupNtB6_14BackupExporter12export_tables_0B8_
FNDA:9,_RNvMNtCsgGnK47HN26N_17sqlrustgo_storage6backupNtB2_12BackupFormat8from_str
FNDA:1,_RNvMs0_NtCsgGnK47HN26N_17sqlrustgo_storage6backupNtB5_12DataRestorer11restore_csv
FNDA:1,_RNvMs0_NtCsgGnK47HN26N_17sqlrustgo_storage6backupNtB5_12DataRestorer11restore_sql
FNDA:1,_RNvMs0_NtCsgGnK47HN26N_17sqlrustgo_storage6backupNtB5_12DataRestorer12parse_insert
FNDA:1,_RNvMs0_NtCsgGnK47HN26N_17sqlrustgo_storage6backupNtB5_12DataRestorer12restore_json
FNDA:2,_RNvMs0_NtCsgGnK47HN26N_17sqlrustgo_storage6backupNtB5_12DataRestorer13json_to_value
FNDA:4,_RNvMs0_NtCsgGnK47HN26N_17sqlrustgo_storage6backupNtB5_12DataRestorer15parse_csv_value
FNDA:2,_RNvMs0_NtCsgGnK47HN26N_17sqlrustgo_storage6backupNtB5_12DataRestorer15parse_sql_value
FNDA:1,_RNvMs0_NtCsgGnK47HN26N_17sqlrustgo_storage6backupNtB5_12DataRestorer19parse_insert_values
FNDA:5,_RNvMs0_NtCsgGnK47HN26N_17sqlrustgo_storage6backupNtB5_12DataRestorer19restore_from_backup
FNDA:11,_RNvMs_NtCsgGnK47HN26N_17sqlrustgo_storage6backupNtB4_14BackupExporter10csv_escape
FNDA:3,_RNvMs_NtCsgGnK47HN26N_17sqlrustgo_storage6backupNtB4_14BackupExporter10export_csv
FNDA:2,_RNvMs_NtCsgGnK47HN26N_17sqlrustgo_storage6backupNtB4_14BackupExporter10export_sql
FNDA:1,_RNvMs_NtCsgGnK47HN26N_17sqlrustgo_storage6backupNtB4_14BackupExporter10json_value
FNDA:1,_RNvMs_NtCsgGnK47HN26N_17sqlrustgo_storage6backupNtB4_14BackupExporter11export_json
FNDA:6,_RNvMs_NtCsgGnK47HN26N_17sqlrustgo_storage6backupNtB4_14BackupExporter12export_table
FNDA:9,_RNvMs_NtCsgGnK47HN26N_17sqlrustgo_storage6backupNtB4_14BackupExporter9sql_value
FNDA:4,_RNCNvNtNtCsgGnK47HN26N_17sqlrustgo_storage6backup7use_hex6encode0B7_
FNDA:0,_RNCNCNvMs0_NtCs2l7roSUS7lg_17sqlrustgo_storage6backupNtB9_12DataRestorer12restore_jsons_00Bb_
FNDA:0,_RNCNvMs0_NtCs2l7roSUS7lg_17sqlrustgo_storage6backupNtB7_12DataRestorer11restore_csv0B9_
FNDA:0,_RNCNvMs0_NtCs2l7roSUS7lg_17sqlrustgo_storage6backupNtB7_12DataRestorer12restore_json0B9_
FNDA:0,_RNCNvMs0_NtCs2l7roSUS7lg_17sqlrustgo_storage6backupNtB7_12DataRestorer12restore_jsons0_0B9_
FNDA:0,_RNCNvMs0_NtCs2l7roSUS7lg_17sqlrustgo_storage6backupNtB7_12DataRestorer12restore_jsons_0B9_
FNDA:0,_RNCNvMs0_NtCs2l7roSUS7lg_17sqlrustgo_storage6backupNtB7_12DataRestorer19parse_insert_values0B9_
FNDA:0,_RNCNvMs0_NtCs2l7roSUS7lg_17sqlrustgo_storage6backupNtB7_12DataRestorer19restore_from_backup0B9_
FNDA:0,_RNCNvMs_NtCs2l7roSUS7lg_17sqlrustgo_storage6backupNtB6_14BackupExporter10export_csv0B8_
FNDA:0,_RNCNvMs_NtCs2l7roSUS7lg_17sqlrustgo_storage6backupNtB6_14BackupExporter10export_csvs0_0B8_
FNDA:0,_RNCNvMs_NtCs2l7roSUS7lg_17sqlrustgo_storage6backupNtB6_14BackupExporter10export_csvs_0B8_
FNDA:0,_RNCNvMs_NtCs2l7roSUS7lg_17sqlrustgo_storage6backupNtB6_14BackupExporter10export_sql0B8_
FNDA:0,_RNCNvMs_NtCs2l7roSUS7lg_17sqlrustgo_storage6backupNtB6_14BackupExporter10export_sqls_0B8_
FNDA:0,_RNCNvMs_NtCs2l7roSUS7lg_17sqlrustgo_storage6backupNtB6_14BackupExporter11export_json0B8_
FNDA:0,_RNCNvMs_NtCs2l7roSUS7lg_17sqlrustgo_storage6backupNtB6_14BackupExporter11export_jsons0_0B8_
FNDA:0,_RNCNvMs_NtCs2l7roSUS7lg_17sqlrustgo_storage6backupNtB6_14BackupExporter11export_jsons1_0B8_
FNDA:0,_RNCNvMs_NtCs2l7roSUS7lg_17sqlrustgo_storage6backupNtB6_14BackupExporter11export_jsons2_0B8_
FNDA:0,_RNCNvMs_NtCs2l7roSUS7lg_17sqlrustgo_storage6backupNtB6_14BackupExporter11export_jsons3_0B8_
FNDA:0,_RNCNvMs_NtCs2l7roSUS7lg_17sqlrustgo_storage6backupNtB6_14BackupExporter11export_jsons4_0B8_
FNDA:0,_RNCNvMs_NtCs2l7roSUS7lg_17sqlrustgo_storage6backupNtB6_14BackupExporter11export_jsons5_0B8_
FNDA:0,_RNCNvMs_NtCs2l7roSUS7lg_17sqlrustgo_storage6backupNtB6_14BackupExporter11export_jsons6_0B8_
FNDA:0,_RNCNvMs_NtCs2l7roSUS7lg_17sqlrustgo_storage6backupNtB6_14BackupExporter11export_jsons7_0B8_
FNDA:0,_RNCNvMs_NtCs2l7roSUS7lg_17sqlrustgo_storage6backupNtB6_14BackupExporter11export_jsons_0B8_
FNDA:0,_RNCNvMs_NtCs2l7roSUS7lg_17sqlrustgo_storage6backupNtB6_14BackupExporter12export_table0B8_
FNDA:0,_RNCNvMs_NtCs2l7roSUS7lg_17sqlrustgo_storage6backupNtB6_14BackupExporter12export_tables_0B8_
FNDA:0,_RNvNtNtCs2l7roSUS7lg_17sqlrustgo_storage6backup7use_hex6encode
FNDA:0,_RNCNvNtNtCs2l7roSUS7lg_17sqlrustgo_storage6backup7use_hex6encode0B7_
FNDA:0,_RNvMNtCs2l7roSUS7lg_17sqlrustgo_storage6backupNtB2_12BackupFormat8from_str
FNDA:0,_RNvMs0_NtCs2l7roSUS7lg_17sqlrustgo_storage6backupNtB5_12DataRestorer11restore_csv
FNDA:0,_RNvMs0_NtCs2l7roSUS7lg_17sqlrustgo_storage6backupNtB5_12DataRestorer11restore_sql
FNDA:0,_RNvMs0_NtCs2l7roSUS7lg_17sqlrustgo_storage6backupNtB5_12DataRestorer12parse_insert
FNDA:0,_RNvMs0_NtCs2l7roSUS7lg_17sqlrustgo_storage6backupNtB5_12DataRestorer12restore_json
FNDA:0,_RNvMs0_NtCs2l7roSUS7lg_17sqlrustgo_storage6backupNtB5_12DataRestorer13json_to_value
FNDA:0,_RNvMs0_NtCs2l7roSUS7lg_17sqlrustgo_storage6backupNtB5_12DataRestorer15parse_csv_value
FNDA:0,_RNvMs0_NtCs2l7roSUS7lg_17sqlrustgo_storage6backupNtB5_12DataRestorer15parse_sql_value
FNDA:0,_RNvMs0_NtCs2l7roSUS7lg_17sqlrustgo_storage6backupNtB5_12DataRestorer19parse_insert_values
FNDA:0,_RNvMs0_NtCs2l7roSUS7lg_17sqlrustgo_storage6backupNtB5_12DataRestorer19restore_from_backup
FNDA:0,_RNvMs_NtCs2l7roSUS7lg_17sqlrustgo_storage6backupNtB4_14BackupExporter10csv_escape
FNDA:0,_RNvMs_NtCs2l7roSUS7lg_17sqlrustgo_storage6backupNtB4_14BackupExporter10export_csv
FNDA:0,_RNvMs_NtCs2l7roSUS7lg_17sqlrustgo_storage6backupNtB4_14BackupExporter10export_sql
FNDA:0,_RNvMs_NtCs2l7roSUS7lg_17sqlrustgo_storage6backupNtB4_14BackupExporter10json_value
FNDA:0,_RNvMs_NtCs2l7roSUS7lg_17sqlrustgo_storage6backupNtB4_14BackupExporter11export_json
FNDA:0,_RNvMs_NtCs2l7roSUS7lg_17sqlrustgo_storage6backupNtB4_14BackupExporter12export_table
FNDA:0,_RNvMs_NtCs2l7roSUS7lg_17sqlrustgo_storage6backupNtB4_14BackupExporter9sql_value
FNF:65
FNH:49
DA:20,9
DA:21,9
DA:22,9
DA:23,7
DA:24,5
DA:25,3
DA:27,9
DA:33,6
DA:34,6
DA:35,6
DA:36,6
DA:37,6
DA:38,6
DA:39,6
DA:40,6
DA:42,6
DA:43,6
DA:44,6
DA:46,6
DA:47,3
DA:48,1
DA:49,2
DA:50,0
DA:52,6
DA:53,6
DA:54,6
DA:56,6
DA:57,6
DA:59,3
DA:60,3
DA:61,3
DA:62,3
DA:63,3
DA:64,4
DA:65,3
DA:66,3
DA:68,3
DA:69,3
DA:70,3
DA:71,3
DA:74,3
DA:75,3
DA:77,11
DA:78,11
DA:79,0
DA:80,3
DA:81,0
DA:82,0
DA:83,5
DA:84,5
DA:85,2
DA:87,3
DA:90,2
DA:91,1
DA:92,0
DA:93,0
DA:94,0
DA:95,0
DA:96,0
DA:98,0
DA:99,0
DA:100,0
DA:101,0
DA:104,0
DA:106,11
DA:108,1
DA:109,1
DA:110,1
DA:111,1
DA:112,1
DA:113,1
DA:114,1
DA:115,1
DA:117,1
DA:118,1
DA:119,1
DA:121,1
DA:122,1
DA:124,1
DA:125,1
DA:126,1
DA:127,1
DA:128,1
DA:129,1
DA:131,1
DA:132,1
DA:134,1
DA:135,1
DA:137,1
DA:138,1
DA:139,1
DA:141,0
DA:142,0
DA:146,1
DA:147,1
DA:149,1
DA:150,1
DA:152,1
DA:153,1
DA:154,0
DA:155,1
DA:156,0
DA:157,0
DA:158,0
DA:159,0
DA:160,0
DA:161,0
DA:162,0
DA:163,0
DA:164,0
DA:165,0
DA:167,0
DA:168,0
DA:169,0
DA:170,0
DA:173,0
DA:175,1
DA:177,2
DA:178,2
DA:179,2
DA:180,2
DA:181,2
DA:182,2
DA:184,2
DA:185,2
DA:186,2
DA:187,2
DA:190,2
DA:191,2
DA:192,3
DA:193,2
DA:194,2
DA:195,2
DA:197,2
DA:200,2
DA:201,2
DA:203,9
DA:204,9
DA:205,1
DA:206,2
DA:207,0
DA:208,0
DA:209,3
DA:210,2
DA:211,2
DA:212,1
DA:214,1
DA:217,1
DA:218,0
DA:219,0
DA:220,0
DA:221,0
DA:222,0
DA:224,0
DA:225,0
DA:226,0
DA:227,0
DA:230,0
DA:232,9
DA:236,1
DA:237,4
DA:238,1
DA:244,5
DA:245,5
DA:246,5
DA:247,5
DA:248,5
DA:249,5
DA:250,5
DA:252,3
DA:253,1
DA:254,1
DA:255,1
DA:257,5
DA:259,1
DA:260,1
DA:261,1
DA:262,0
DA:263,1
DA:265,1
DA:266,1
DA:268,2
DA:269,2
DA:270,2
DA:271,2
DA:272,2
DA:275,1
DA:276,1
DA:277,1
DA:278,1
DA:279,1
DA:280,2
DA:281,2
DA:285,2
DA:287,2
DA:288,2
DA:289,1
DA:290,1
DA:293,1
DA:294,1
DA:295,1
DA:297,1
DA:298,1
DA:300,4
DA:301,4
DA:302,4
DA:303,0
DA:304,4
DA:305,4
DA:306,2
DA:307,2
DA:308,2
DA:309,0
DA:310,2
DA:311,2
DA:312,0
DA:313,2
DA:314,2
DA:315,4
DA:317,1
DA:318,0
DA:319,1
DA:321,0
DA:322,0
DA:323,0
DA:324,0
DA:325,0
DA:326,0
DA:327,0
DA:328,0
DA:329,0
DA:330,0
DA:332,0
DA:333,0
DA:334,0
DA:335,0
DA:336,0
DA:337,0
DA:338,0
DA:339,0
DA:340,0
DA:342,0
DA:344,0
DA:345,0
DA:346,0
DA:347,0
DA:348,0
DA:349,0
DA:350,0
DA:354,0
DA:356,0
DA:357,0
DA:358,0
DA:359,0
DA:362,0
DA:363,0
DA:364,0
DA:366,0
DA:367,1
DA:369,2
DA:370,2
DA:371,0
DA:372,0
DA:373,1
DA:374,1
DA:375,1
DA:376,0
DA:377,0
DA:379,0
DA:382,1
DA:383,0
DA:385,2
DA:387,1
DA:388,1
DA:390,1
DA:391,1
DA:392,1
DA:393,0
DA:394,1
DA:396,1
DA:397,1
DA:399,1
DA:400,1
DA:401,1
DA:402,1
DA:403,1
DA:404,1
DA:405,1
DA:406,0
DA:408,1
DA:409,1
DA:410,0
DA:413,1
DA:414,1
DA:416,1
DA:417,1
DA:418,1
DA:419,0
DA:420,1
DA:422,1
DA:423,1
DA:424,1
DA:425,1
DA:427,1
DA:428,1
DA:430,1
DA:431,1
DA:433,1
DA:434,1
DA:436,1
DA:437,1
DA:438,1
DA:439,1
DA:440,2
DA:441,1
DA:442,1
DA:445,1
DA:446,1
DA:448,2
DA:449,2
DA:450,2
DA:451,0
DA:452,2
DA:453,2
DA:454,1
DA:455,1
DA:456,1
DA:457,1
DA:458,0
DA:459,1
DA:460,1
DA:461,0
DA:462,1
DA:463,1
DA:464,0
DA:465,1
DA:466,1
DA:467,2
DA:477,1
DA:478,1
DA:479,1
DA:480,1
DA:481,1
DA:482,1
DA:485,1
DA:486,1
DA:487,1
DA:488,1
DA:489,1
DA:490,1
DA:491,1
DA:492,1
DA:493,1
DA:494,1
DA:495,1
DA:496,1
DA:497,1
DA:498,1
DA:499,1
DA:500,1
DA:501,1
DA:502,1
DA:503,1
DA:504,1
DA:505,1
DA:506,1
DA:507,1
DA:508,1
DA:509,1
DA:510,1
DA:511,1
DA:512,1
DA:513,1
DA:514,1
DA:515,1
DA:516,1
DA:517,1
DA:518,1
DA:519,1
DA:522,1
DA:524,1
DA:525,1
DA:526,1
DA:527,1
DA:529,1
DA:530,1
DA:531,1
DA:532,1
DA:534,1
DA:535,1
DA:538,1
DA:539,1
DA:540,1
DA:541,1
DA:542,1
DA:543,1
DA:544,1
DA:545,1
DA:546,1
DA:547,1
DA:548,1
DA:549,1
DA:550,1
DA:551,1
DA:552,1
DA:553,1
DA:554,1
DA:555,1
DA:556,1
DA:557,1
DA:558,1
DA:559,1
DA:560,1
DA:561,1
DA:562,1
DA:563,1
DA:564,1
DA:565,1
DA:566,1
DA:567,1
DA:568,1
DA:569,1
DA:570,1
DA:572,1
DA:574,1
DA:575,1
DA:576,1
DA:577,1
DA:579,1
DA:580,1
DA:582,1
DA:583,1
DA:586,1
DA:587,1
DA:588,1
DA:589,1
DA:592,1
DA:593,1
DA:596,1
DA:599,1
DA:600,1
DA:601,1
DA:602,1
DA:605,1
DA:606,1
DA:609,1
DA:610,1
DA:611,1
DA:612,1
DA:613,1
DA:616,1
DA:617,1
DA:618,1
DA:620,1
DA:621,1
DA:623,1
DA:624,1
DA:625,1
DA:627,1
DA:628,1
DA:631,1
DA:632,1
DA:633,1
DA:634,1
DA:635,1
DA:636,1
DA:639,1
DA:640,1
DA:641,1
DA:642,1
DA:643,1
DA:644,1
DA:645,1
DA:646,1
DA:647,1
DA:648,1
DA:649,1
DA:650,1
DA:651,1
DA:652,1
DA:653,1
DA:654,1
DA:655,1
DA:656,1
DA:657,1
DA:658,1
DA:660,1
DA:661,1
DA:662,1
DA:663,1
DA:665,1
DA:666,1
DA:667,1
DA:669,1
DA:670,1
DA:673,1
DA:674,1
DA:675,1
DA:676,1
DA:679,1
DA:680,1
DA:681,1
DA:682,1
DA:683,1
DA:686,1
DA:687,1
DA:688,1
DA:689,1
DA:692,1
DA:693,1
DA:694,1
DA:695,1
DA:696,1
DA:699,1
DA:700,1
DA:701,1
DA:702,1
DA:703,1
DA:705,1
DA:706,1
DA:709,1
DA:710,1
DA:711,1
DA:712,1
DA:715,1
DA:716,1
DA:717,1
DA:718,1
DA:719,1
DA:721,1
DA:723,1
DA:724,1
DA:727,1
DA:728,1
DA:729,1
DA:730,1
DA:731,1
DA:733,1
DA:734,1
DA:736,1
DA:737,1
DA:740,1
DA:741,1
DA:742,1
DA:743,1
DA:744,1
DA:745,1
DA:746,1
DA:747,1
DA:748,1
DA:749,1
DA:750,1
DA:751,1
DA:752,1
DA:753,1
DA:754,1
DA:755,1
DA:756,1
DA:758,1
DA:759,1
DA:760,1
DA:761,1
DA:763,1
DA:764,1
DA:767,1
DA:768,1
DA:769,1
DA:770,1
DA:771,1
DA:772,1
DA:773,1
DA:774,1
DA:775,1
DA:776,1
DA:777,1
DA:778,1
DA:779,1
DA:780,1
DA:781,1
DA:782,1
DA:783,1
DA:784,1
DA:785,1
DA:786,1
DA:788,1
DA:789,1
DA:790,1
DA:791,1
DA:793,1
DA:794,1
DA:796,1
DA:797,1
DA:800,1
DA:801,1
DA:802,1
DA:803,1
DA:804,1
DA:805,1
DA:806,1
DA:807,1
DA:808,1
DA:809,1
DA:810,1
DA:811,1
DA:812,1
DA:813,1
DA:814,1
DA:815,1
DA:816,1
DA:817,1
DA:818,1
DA:819,1
DA:821,1
DA:822,1
DA:823,1
DA:824,1
DA:826,1
DA:827,1
DA:829,1
DA:830,1
DA:833,1
DA:835,1
DA:836,1
DA:837,1
DA:838,1
DA:839,1
DA:842,1
DA:844,1
DA:845,1
DA:846,1
DA:847,1
DA:848,1
BRF:0
BRH:0
LF:655
LH:541
end_of_record
SF:/home/openclaw/dev/yinglichina8848/sqlrustgo/crates/storage/src/backup_scheduler.rs
FN:455,_RNCNvMs1_NtCs38XCG6692bz_17sqlrustgo_storage16backup_schedulerNtB7_16WalBackupManager17apply_wal_archive0B9_
FN:471,_RNCNvMs1_NtCs38XCG6692bz_17sqlrustgo_storage16backup_schedulerNtB7_16WalBackupManager17apply_wal_archives_0B9_
FN:426,_RNCNvMs1_NtCs38XCG6692bz_17sqlrustgo_storage16backup_schedulerNtB7_16WalBackupManager17archive_wal_since0B9_
FN:436,_RNCNvMs1_NtCs38XCG6692bz_17sqlrustgo_storage16backup_schedulerNtB7_16WalBackupManager17archive_wal_sinces0_0B9_
FN:439,_RNCNvMs1_NtCs38XCG6692bz_17sqlrustgo_storage16backup_schedulerNtB7_16WalBackupManager17archive_wal_sinces1_0B9_
FN:445,_RNCNvMs1_NtCs38XCG6692bz_17sqlrustgo_storage16backup_schedulerNtB7_16WalBackupManager17archive_wal_sinces2_0B9_
FN:428,_RNCNvMs1_NtCs38XCG6692bz_17sqlrustgo_storage16backup_schedulerNtB7_16WalBackupManager17archive_wal_sinces_0B9_
FN:193,_RNCNvMs_NtCs38XCG6692bz_17sqlrustgo_storage16backup_schedulerNtB6_15BackupScheduler14read_wal_since0B8_
FN:134,_RNCNvMs_NtCs38XCG6692bz_17sqlrustgo_storage16backup_schedulerNtB6_15BackupScheduler17record_backup_run0B8_
FN:112,_RNCNvMs_NtCs38XCG6692bz_17sqlrustgo_storage16backup_schedulerNtB6_15BackupScheduler17should_run_backup0B8_
FN:307,_RNCNvNvMs0_NtCs38XCG6692bz_17sqlrustgo_storage16backup_schedulerNtB9_16BackupCompressor18compress_directory17add_dir_recursive0Bb_
FN:314,_RNCNvNvMs0_NtCs38XCG6692bz_17sqlrustgo_storage16backup_schedulerNtB9_16BackupCompressor18compress_directory17add_dir_recursives0_0Bb_
FN:321,_RNCNvNvMs0_NtCs38XCG6692bz_17sqlrustgo_storage16backup_schedulerNtB9_16BackupCompressor18compress_directory17add_dir_recursives1_0Bb_
FN:330,_RNCNvNvMs0_NtCs38XCG6692bz_17sqlrustgo_storage16backup_schedulerNtB9_16BackupCompressor18compress_directory17add_dir_recursives2_0Bb_
FN:308,_RNCNvNvMs0_NtCs38XCG6692bz_17sqlrustgo_storage16backup_schedulerNtB9_16BackupCompressor18compress_directory17add_dir_recursives_0Bb_
FN:220,_RINvMs0_NtCs38XCG6692bz_17sqlrustgo_storage16backup_schedulerNtB6_16BackupCompressor13compress_filepEB8_
FN:258,_RINvMs0_NtCs38XCG6692bz_17sqlrustgo_storage16backup_schedulerNtB6_16BackupCompressor15decompress_filepEB8_
FN:292,_RINvMs0_NtCs38XCG6692bz_17sqlrustgo_storage16backup_schedulerNtB6_16BackupCompressor18compress_directorypEB8_
FN:348,_RINvMs0_NtCs38XCG6692bz_17sqlrustgo_storage16backup_schedulerNtB6_16BackupCompressor20decompress_directorypEB8_
FN:224,_RNCINvMs0_NtCs38XCG6692bz_17sqlrustgo_storage16backup_schedulerNtB8_16BackupCompressor13compress_filepE0Ba_
FN:238,_RNCINvMs0_NtCs38XCG6692bz_17sqlrustgo_storage16backup_schedulerNtB8_16BackupCompressor13compress_filepEs0_0Ba_
FN:244,_RNCINvMs0_NtCs38XCG6692bz_17sqlrustgo_storage16backup_schedulerNtB8_16BackupCompressor13compress_filepEs1_0Ba_
FN:250,_RNCINvMs0_NtCs38XCG6692bz_17sqlrustgo_storage16backup_schedulerNtB8_16BackupCompressor13compress_filepEs2_0Ba_
FN:253,_RNCINvMs0_NtCs38XCG6692bz_17sqlrustgo_storage16backup_schedulerNtB8_16BackupCompressor13compress_filepEs3_0Ba_
FN:225,_RNCINvMs0_NtCs38XCG6692bz_17sqlrustgo_storage16backup_schedulerNtB8_16BackupCompressor13compress_filepEs_0Ba_
FN:262,_RNCINvMs0_NtCs38XCG6692bz_17sqlrustgo_storage16backup_schedulerNtB8_16BackupCompressor15decompress_filepE0Ba_
FN:275,_RNCINvMs0_NtCs38XCG6692bz_17sqlrustgo_storage16backup_schedulerNtB8_16BackupCompressor15decompress_filepEs0_0Ba_
FN:281,_RNCINvMs0_NtCs38XCG6692bz_17sqlrustgo_storage16backup_schedulerNtB8_16BackupCompressor15decompress_filepEs1_0Ba_
FN:287,_RNCINvMs0_NtCs38XCG6692bz_17sqlrustgo_storage16backup_schedulerNtB8_16BackupCompressor15decompress_filepEs2_0Ba_
FN:263,_RNCINvMs0_NtCs38XCG6692bz_17sqlrustgo_storage16backup_schedulerNtB8_16BackupCompressor15decompress_filepEs_0Ba_
FN:296,_RNCINvMs0_NtCs38XCG6692bz_17sqlrustgo_storage16backup_schedulerNtB8_16BackupCompressor18compress_directorypE0Ba_
FN:343,_RNCINvMs0_NtCs38XCG6692bz_17sqlrustgo_storage16backup_schedulerNtB8_16BackupCompressor18compress_directorypEs_0Ba_
FN:352,_RNCINvMs0_NtCs38XCG6692bz_17sqlrustgo_storage16backup_schedulerNtB8_16BackupCompressor20decompress_directorypE0Ba_
FN:361,_RNCINvMs0_NtCs38XCG6692bz_17sqlrustgo_storage16backup_schedulerNtB8_16BackupCompressor20decompress_directorypEs0_0Ba_
FN:363,_RNCINvMs0_NtCs38XCG6692bz_17sqlrustgo_storage16backup_schedulerNtB8_16BackupCompressor20decompress_directorypEs1_0Ba_
FN:364,_RNCINvMs0_NtCs38XCG6692bz_17sqlrustgo_storage16backup_schedulerNtB8_16BackupCompressor20decompress_directorypEs2_0Ba_
FN:368,_RNCINvMs0_NtCs38XCG6692bz_17sqlrustgo_storage16backup_schedulerNtB8_16BackupCompressor20decompress_directorypEs3_0Ba_
FN:372,_RNCINvMs0_NtCs38XCG6692bz_17sqlrustgo_storage16backup_schedulerNtB8_16BackupCompressor20decompress_directorypEs4_0Ba_
FN:375,_RNCINvMs0_NtCs38XCG6692bz_17sqlrustgo_storage16backup_schedulerNtB8_16BackupCompressor20decompress_directorypEs5_0Ba_
FN:380,_RNCINvMs0_NtCs38XCG6692bz_17sqlrustgo_storage16backup_schedulerNtB8_16BackupCompressor20decompress_directorypEs6_0Ba_
FN:386,_RNCINvMs0_NtCs38XCG6692bz_17sqlrustgo_storage16backup_schedulerNtB8_16BackupCompressor20decompress_directorypEs7_0Ba_
FN:356,_RNCINvMs0_NtCs38XCG6692bz_17sqlrustgo_storage16backup_schedulerNtB8_16BackupCompressor20decompress_directorypEs_0Ba_
FN:220,_RINvMs0_NtCs1u7In8Za3Xp_17sqlrustgo_storage16backup_schedulerNtB6_16BackupCompressor13compress_filepEB8_
FN:258,_RINvMs0_NtCs1u7In8Za3Xp_17sqlrustgo_storage16backup_schedulerNtB6_16BackupCompressor15decompress_filepEB8_
FN:292,_RINvMs0_NtCs1u7In8Za3Xp_17sqlrustgo_storage16backup_schedulerNtB6_16BackupCompressor18compress_directorypEB8_
FN:348,_RINvMs0_NtCs1u7In8Za3Xp_17sqlrustgo_storage16backup_schedulerNtB6_16BackupCompressor20decompress_directorypEB8_
FN:224,_RNCINvMs0_NtCs1u7In8Za3Xp_17sqlrustgo_storage16backup_schedulerNtB8_16BackupCompressor13compress_filepE0Ba_
FN:238,_RNCINvMs0_NtCs1u7In8Za3Xp_17sqlrustgo_storage16backup_schedulerNtB8_16BackupCompressor13compress_filepEs0_0Ba_
FN:244,_RNCINvMs0_NtCs1u7In8Za3Xp_17sqlrustgo_storage16backup_schedulerNtB8_16BackupCompressor13compress_filepEs1_0Ba_
FN:250,_RNCINvMs0_NtCs1u7In8Za3Xp_17sqlrustgo_storage16backup_schedulerNtB8_16BackupCompressor13compress_filepEs2_0Ba_
FN:253,_RNCINvMs0_NtCs1u7In8Za3Xp_17sqlrustgo_storage16backup_schedulerNtB8_16BackupCompressor13compress_filepEs3_0Ba_
FN:225,_RNCINvMs0_NtCs1u7In8Za3Xp_17sqlrustgo_storage16backup_schedulerNtB8_16BackupCompressor13compress_filepEs_0Ba_
FN:262,_RNCINvMs0_NtCs1u7In8Za3Xp_17sqlrustgo_storage16backup_schedulerNtB8_16BackupCompressor15decompress_filepE0Ba_
FN:275,_RNCINvMs0_NtCs1u7In8Za3Xp_17sqlrustgo_storage16backup_schedulerNtB8_16BackupCompressor15decompress_filepEs0_0Ba_
FN:281,_RNCINvMs0_NtCs1u7In8Za3Xp_17sqlrustgo_storage16backup_schedulerNtB8_16BackupCompressor15decompress_filepEs1_0Ba_
FN:287,_RNCINvMs0_NtCs1u7In8Za3Xp_17sqlrustgo_storage16backup_schedulerNtB8_16BackupCompressor15decompress_filepEs2_0Ba_
FN:263,_RNCINvMs0_NtCs1u7In8Za3Xp_17sqlrustgo_storage16backup_schedulerNtB8_16BackupCompressor15decompress_filepEs_0Ba_
FN:296,_RNCINvMs0_NtCs1u7In8Za3Xp_17sqlrustgo_storage16backup_schedulerNtB8_16BackupCompressor18compress_directorypE0Ba_
FN:343,_RNCINvMs0_NtCs1u7In8Za3Xp_17sqlrustgo_storage16backup_schedulerNtB8_16BackupCompressor18compress_directorypEs_0Ba_
FN:352,_RNCINvMs0_NtCs1u7In8Za3Xp_17sqlrustgo_storage16backup_schedulerNtB8_16BackupCompressor20decompress_directorypE0Ba_
FN:361,_RNCINvMs0_NtCs1u7In8Za3Xp_17sqlrustgo_storage16backup_schedulerNtB8_16BackupCompressor20decompress_directorypEs0_0Ba_
FN:363,_RNCINvMs0_NtCs1u7In8Za3Xp_17sqlrustgo_storage16backup_schedulerNtB8_16BackupCompressor20decompress_directorypEs1_0Ba_
FN:364,_RNCINvMs0_NtCs1u7In8Za3Xp_17sqlrustgo_storage16backup_schedulerNtB8_16BackupCompressor20decompress_directorypEs2_0Ba_
FN:368,_RNCINvMs0_NtCs1u7In8Za3Xp_17sqlrustgo_storage16backup_schedulerNtB8_16BackupCompressor20decompress_directorypEs3_0Ba_
FN:372,_RNCINvMs0_NtCs1u7In8Za3Xp_17sqlrustgo_storage16backup_schedulerNtB8_16BackupCompressor20decompress_directorypEs4_0Ba_
FN:375,_RNCINvMs0_NtCs1u7In8Za3Xp_17sqlrustgo_storage16backup_schedulerNtB8_16BackupCompressor20decompress_directorypEs5_0Ba_
FN:380,_RNCINvMs0_NtCs1u7In8Za3Xp_17sqlrustgo_storage16backup_schedulerNtB8_16BackupCompressor20decompress_directorypEs6_0Ba_
FN:386,_RNCINvMs0_NtCs1u7In8Za3Xp_17sqlrustgo_storage16backup_schedulerNtB8_16BackupCompressor20decompress_directorypEs7_0Ba_
FN:356,_RNCINvMs0_NtCs1u7In8Za3Xp_17sqlrustgo_storage16backup_schedulerNtB8_16BackupCompressor20decompress_directorypEs_0Ba_
FN:455,_RNCNvMs1_NtCs1u7In8Za3Xp_17sqlrustgo_storage16backup_schedulerNtB7_16WalBackupManager17apply_wal_archive0B9_
FN:471,_RNCNvMs1_NtCs1u7In8Za3Xp_17sqlrustgo_storage16backup_schedulerNtB7_16WalBackupManager17apply_wal_archives_0B9_
FN:426,_RNCNvMs1_NtCs1u7In8Za3Xp_17sqlrustgo_storage16backup_schedulerNtB7_16WalBackupManager17archive_wal_since0B9_
FN:436,_RNCNvMs1_NtCs1u7In8Za3Xp_17sqlrustgo_storage16backup_schedulerNtB7_16WalBackupManager17archive_wal_sinces0_0B9_
FN:439,_RNCNvMs1_NtCs1u7In8Za3Xp_17sqlrustgo_storage16backup_schedulerNtB7_16WalBackupManager17archive_wal_sinces1_0B9_
FN:445,_RNCNvMs1_NtCs1u7In8Za3Xp_17sqlrustgo_storage16backup_schedulerNtB7_16WalBackupManager17archive_wal_sinces2_0B9_
FN:428,_RNCNvMs1_NtCs1u7In8Za3Xp_17sqlrustgo_storage16backup_schedulerNtB7_16WalBackupManager17archive_wal_sinces_0B9_
FN:193,_RNCNvMs_NtCs1u7In8Za3Xp_17sqlrustgo_storage16backup_schedulerNtB6_15BackupScheduler14read_wal_since0B8_
FN:134,_RNCNvMs_NtCs1u7In8Za3Xp_17sqlrustgo_storage16backup_schedulerNtB6_15BackupScheduler17record_backup_run0B8_
FN:112,_RNCNvMs_NtCs1u7In8Za3Xp_17sqlrustgo_storage16backup_schedulerNtB6_15BackupScheduler17should_run_backup0B8_
FN:307,_RNCNvNvMs0_NtCs1u7In8Za3Xp_17sqlrustgo_storage16backup_schedulerNtB9_16BackupCompressor18compress_directory17add_dir_recursive0Bb_
FN:314,_RNCNvNvMs0_NtCs1u7In8Za3Xp_17sqlrustgo_storage16backup_schedulerNtB9_16BackupCompressor18compress_directory17add_dir_recursives0_0Bb_
FN:321,_RNCNvNvMs0_NtCs1u7In8Za3Xp_17sqlrustgo_storage16backup_schedulerNtB9_16BackupCompressor18compress_directory17add_dir_recursives1_0Bb_
FN:330,_RNCNvNvMs0_NtCs1u7In8Za3Xp_17sqlrustgo_storage16backup_schedulerNtB9_16BackupCompressor18compress_directory17add_dir_recursives2_0Bb_
FN:308,_RNCNvNvMs0_NtCs1u7In8Za3Xp_17sqlrustgo_storage16backup_schedulerNtB9_16BackupCompressor18compress_directory17add_dir_recursives_0Bb_
FN:220,_RINvMs0_NtCsd1AkON0xxEy_17sqlrustgo_storage16backup_schedulerNtB6_16BackupCompressor13compress_filepEB8_
FN:258,_RINvMs0_NtCsd1AkON0xxEy_17sqlrustgo_storage16backup_schedulerNtB6_16BackupCompressor15decompress_filepEB8_
FN:292,_RINvMs0_NtCsd1AkON0xxEy_17sqlrustgo_storage16backup_schedulerNtB6_16BackupCompressor18compress_directorypEB8_
FN:348,_RINvMs0_NtCsd1AkON0xxEy_17sqlrustgo_storage16backup_schedulerNtB6_16BackupCompressor20decompress_directorypEB8_
FN:224,_RNCINvMs0_NtCsd1AkON0xxEy_17sqlrustgo_storage16backup_schedulerNtB8_16BackupCompressor13compress_filepE0Ba_
FN:238,_RNCINvMs0_NtCsd1AkON0xxEy_17sqlrustgo_storage16backup_schedulerNtB8_16BackupCompressor13compress_filepEs0_0Ba_
FN:244,_RNCINvMs0_NtCsd1AkON0xxEy_17sqlrustgo_storage16backup_schedulerNtB8_16BackupCompressor13compress_filepEs1_0Ba_
FN:250,_RNCINvMs0_NtCsd1AkON0xxEy_17sqlrustgo_storage16backup_schedulerNtB8_16BackupCompressor13compress_filepEs2_0Ba_
FN:253,_RNCINvMs0_NtCsd1AkON0xxEy_17sqlrustgo_storage16backup_schedulerNtB8_16BackupCompressor13compress_filepEs3_0Ba_
FN:225,_RNCINvMs0_NtCsd1AkON0xxEy_17sqlrustgo_storage16backup_schedulerNtB8_16BackupCompressor13compress_filepEs_0Ba_
FN:262,_RNCINvMs0_NtCsd1AkON0xxEy_17sqlrustgo_storage16backup_schedulerNtB8_16BackupCompressor15decompress_filepE0Ba_
FN:275,_RNCINvMs0_NtCsd1AkON0xxEy_17sqlrustgo_storage16backup_schedulerNtB8_16BackupCompressor15decompress_filepEs0_0Ba_
FN:281,_RNCINvMs0_NtCsd1AkON0xxEy_17sqlrustgo_storage16backup_schedulerNtB8_16BackupCompressor15decompress_filepEs1_0Ba_
FN:287,_RNCINvMs0_NtCsd1AkON0xxEy_17sqlrustgo_storage16backup_schedulerNtB8_16BackupCompressor15decompress_filepEs2_0Ba_
FN:263,_RNCINvMs0_NtCsd1AkON0xxEy_17sqlrustgo_storage16backup_schedulerNtB8_16BackupCompressor15decompress_filepEs_0Ba_
FN:296,_RNCINvMs0_NtCsd1AkON0xxEy_17sqlrustgo_storage16backup_schedulerNtB8_16BackupCompressor18compress_directorypE0Ba_
FN:343,_RNCINvMs0_NtCsd1AkON0xxEy_17sqlrustgo_storage16backup_schedulerNtB8_16BackupCompressor18compress_directorypEs_0Ba_
FN:352,_RNCINvMs0_NtCsd1AkON0xxEy_17sqlrustgo_storage16backup_schedulerNtB8_16BackupCompressor20decompress_directorypE0Ba_
FN:361,_RNCINvMs0_NtCsd1AkON0xxEy_17sqlrustgo_storage16backup_schedulerNtB8_16BackupCompressor20decompress_directorypEs0_0Ba_
FN:363,_RNCINvMs0_NtCsd1AkON0xxEy_17sqlrustgo_storage16backup_schedulerNtB8_16BackupCompressor20decompress_directorypEs1_0Ba_
FN:364,_RNCINvMs0_NtCsd1AkON0xxEy_17sqlrustgo_storage16backup_schedulerNtB8_16BackupCompressor20decompress_directorypEs2_0Ba_
FN:368,_RNCINvMs0_NtCsd1AkON0xxEy_17sqlrustgo_storage16backup_schedulerNtB8_16BackupCompressor20decompress_directorypEs3_0Ba_
FN:372,_RNCINvMs0_NtCsd1AkON0xxEy_17sqlrustgo_storage16backup_schedulerNtB8_16BackupCompressor20decompress_directorypEs4_0Ba_
FN:375,_RNCINvMs0_NtCsd1AkON0xxEy_17sqlrustgo_storage16backup_schedulerNtB8_16BackupCompressor20decompress_directorypEs5_0Ba_
FN:380,_RNCINvMs0_NtCsd1AkON0xxEy_17sqlrustgo_storage16backup_schedulerNtB8_16BackupCompressor20decompress_directorypEs6_0Ba_
FN:386,_RNCINvMs0_NtCsd1AkON0xxEy_17sqlrustgo_storage16backup_schedulerNtB8_16BackupCompressor20decompress_directorypEs7_0Ba_
FN:356,_RNCINvMs0_NtCsd1AkON0xxEy_17sqlrustgo_storage16backup_schedulerNtB8_16BackupCompressor20decompress_directorypEs_0Ba_
FN:455,_RNCNvMs1_NtCsd1AkON0xxEy_17sqlrustgo_storage16backup_schedulerNtB7_16WalBackupManager17apply_wal_archive0B9_
FN:471,_RNCNvMs1_NtCsd1AkON0xxEy_17sqlrustgo_storage16backup_schedulerNtB7_16WalBackupManager17apply_wal_archives_0B9_
FN:426,_RNCNvMs1_NtCsd1AkON0xxEy_17sqlrustgo_storage16backup_schedulerNtB7_16WalBackupManager17archive_wal_since0B9_
FN:436,_RNCNvMs1_NtCsd1AkON0xxEy_17sqlrustgo_storage16backup_schedulerNtB7_16WalBackupManager17archive_wal_sinces0_0B9_
FN:439,_RNCNvMs1_NtCsd1AkON0xxEy_17sqlrustgo_storage16backup_schedulerNtB7_16WalBackupManager17archive_wal_sinces1_0B9_
FN:445,_RNCNvMs1_NtCsd1AkON0xxEy_17sqlrustgo_storage16backup_schedulerNtB7_16WalBackupManager17archive_wal_sinces2_0B9_
FN:428,_RNCNvMs1_NtCsd1AkON0xxEy_17sqlrustgo_storage16backup_schedulerNtB7_16WalBackupManager17archive_wal_sinces_0B9_
FN:193,_RNCNvMs_NtCsd1AkON0xxEy_17sqlrustgo_storage16backup_schedulerNtB6_15BackupScheduler14read_wal_since0B8_
FN:134,_RNCNvMs_NtCsd1AkON0xxEy_17sqlrustgo_storage16backup_schedulerNtB6_15BackupScheduler17record_backup_run0B8_
FN:112,_RNCNvMs_NtCsd1AkON0xxEy_17sqlrustgo_storage16backup_schedulerNtB6_15BackupScheduler17should_run_backup0B8_
FN:307,_RNCNvNvMs0_NtCsd1AkON0xxEy_17sqlrustgo_storage16backup_schedulerNtB9_16BackupCompressor18compress_directory17add_dir_recursive0Bb_
FN:314,_RNCNvNvMs0_NtCsd1AkON0xxEy_17sqlrustgo_storage16backup_schedulerNtB9_16BackupCompressor18compress_directory17add_dir_recursives0_0Bb_
FN:321,_RNCNvNvMs0_NtCsd1AkON0xxEy_17sqlrustgo_storage16backup_schedulerNtB9_16BackupCompressor18compress_directory17add_dir_recursives1_0Bb_
FN:330,_RNCNvNvMs0_NtCsd1AkON0xxEy_17sqlrustgo_storage16backup_schedulerNtB9_16BackupCompressor18compress_directory17add_dir_recursives2_0Bb_
FN:308,_RNCNvNvMs0_NtCsd1AkON0xxEy_17sqlrustgo_storage16backup_schedulerNtB9_16BackupCompressor18compress_directory17add_dir_recursives_0Bb_
FN:220,_RINvMs0_NtCs9oXD4GUMzTX_17sqlrustgo_storage16backup_schedulerNtB6_16BackupCompressor13compress_filepEB8_
FN:258,_RINvMs0_NtCs9oXD4GUMzTX_17sqlrustgo_storage16backup_schedulerNtB6_16BackupCompressor15decompress_filepEB8_
FN:292,_RINvMs0_NtCs9oXD4GUMzTX_17sqlrustgo_storage16backup_schedulerNtB6_16BackupCompressor18compress_directorypEB8_
FN:348,_RINvMs0_NtCs9oXD4GUMzTX_17sqlrustgo_storage16backup_schedulerNtB6_16BackupCompressor20decompress_directorypEB8_
FN:224,_RNCINvMs0_NtCs9oXD4GUMzTX_17sqlrustgo_storage16backup_schedulerNtB8_16BackupCompressor13compress_filepE0Ba_
FN:238,_RNCINvMs0_NtCs9oXD4GUMzTX_17sqlrustgo_storage16backup_schedulerNtB8_16BackupCompressor13compress_filepEs0_0Ba_
FN:244,_RNCINvMs0_NtCs9oXD4GUMzTX_17sqlrustgo_storage16backup_schedulerNtB8_16BackupCompressor13compress_filepEs1_0Ba_
FN:250,_RNCINvMs0_NtCs9oXD4GUMzTX_17sqlrustgo_storage16backup_schedulerNtB8_16BackupCompressor13compress_filepEs2_0Ba_
FN:253,_RNCINvMs0_NtCs9oXD4GUMzTX_17sqlrustgo_storage16backup_schedulerNtB8_16BackupCompressor13compress_filepEs3_0Ba_
FN:225,_RNCINvMs0_NtCs9oXD4GUMzTX_17sqlrustgo_storage16backup_schedulerNtB8_16BackupCompressor13compress_filepEs_0Ba_
FN:262,_RNCINvMs0_NtCs9oXD4GUMzTX_17sqlrustgo_storage16backup_schedulerNtB8_16BackupCompressor15decompress_filepE0Ba_
FN:275,_RNCINvMs0_NtCs9oXD4GUMzTX_17sqlrustgo_storage16backup_schedulerNtB8_16BackupCompressor15decompress_filepEs0_0Ba_
FN:281,_RNCINvMs0_NtCs9oXD4GUMzTX_17sqlrustgo_storage16backup_schedulerNtB8_16BackupCompressor15decompress_filepEs1_0Ba_
FN:287,_RNCINvMs0_NtCs9oXD4GUMzTX_17sqlrustgo_storage16backup_schedulerNtB8_16BackupCompressor15decompress_filepEs2_0Ba_
FN:263,_RNCINvMs0_NtCs9oXD4GUMzTX_17sqlrustgo_storage16backup_schedulerNtB8_16BackupCompressor15decompress_filepEs_0Ba_
FN:296,_RNCINvMs0_NtCs9oXD4GUMzTX_17sqlrustgo_storage16backup_schedulerNtB8_16BackupCompressor18compress_directorypE0Ba_
FN:343,_RNCINvMs0_NtCs9oXD4GUMzTX_17sqlrustgo_storage16backup_schedulerNtB8_16BackupCompressor18compress_directorypEs_0Ba_
FN:352,_RNCINvMs0_NtCs9oXD4GUMzTX_17sqlrustgo_storage16backup_schedulerNtB8_16BackupCompressor20decompress_directorypE0Ba_
FN:361,_RNCINvMs0_NtCs9oXD4GUMzTX_17sqlrustgo_storage16backup_schedulerNtB8_16BackupCompressor20decompress_directorypEs0_0Ba_
FN:363,_RNCINvMs0_NtCs9oXD4GUMzTX_17sqlrustgo_storage16backup_schedulerNtB8_16BackupCompressor20decompress_directorypEs1_0Ba_
FN:364,_RNCINvMs0_NtCs9oXD4GUMzTX_17sqlrustgo_storage16backup_schedulerNtB8_16BackupCompressor20decompress_directorypEs2_0Ba_
FN:368,_RNCINvMs0_NtCs9oXD4GUMzTX_17sqlrustgo_storage16backup_schedulerNtB8_16BackupCompressor20decompress_directorypEs3_0Ba_
FN:372,_RNCINvMs0_NtCs9oXD4GUMzTX_17sqlrustgo_storage16backup_schedulerNtB8_16BackupCompressor20decompress_directorypEs4_0Ba_
FN:375,_RNCINvMs0_NtCs9oXD4GUMzTX_17sqlrustgo_storage16backup_schedulerNtB8_16BackupCompressor20decompress_directorypEs5_0Ba_
FN:380,_RNCINvMs0_NtCs9oXD4GUMzTX_17sqlrustgo_storage16backup_schedulerNtB8_16BackupCompressor20decompress_directorypEs6_0Ba_
FN:386,_RNCINvMs0_NtCs9oXD4GUMzTX_17sqlrustgo_storage16backup_schedulerNtB8_16BackupCompressor20decompress_directorypEs7_0Ba_
FN:356,_RNCINvMs0_NtCs9oXD4GUMzTX_17sqlrustgo_storage16backup_schedulerNtB8_16BackupCompressor20decompress_directorypEs_0Ba_
FN:455,_RNCNvMs1_NtCs9oXD4GUMzTX_17sqlrustgo_storage16backup_schedulerNtB7_16WalBackupManager17apply_wal_archive0B9_
FN:471,_RNCNvMs1_NtCs9oXD4GUMzTX_17sqlrustgo_storage16backup_schedulerNtB7_16WalBackupManager17apply_wal_archives_0B9_
FN:426,_RNCNvMs1_NtCs9oXD4GUMzTX_17sqlrustgo_storage16backup_schedulerNtB7_16WalBackupManager17archive_wal_since0B9_
FN:436,_RNCNvMs1_NtCs9oXD4GUMzTX_17sqlrustgo_storage16backup_schedulerNtB7_16WalBackupManager17archive_wal_sinces0_0B9_
FN:439,_RNCNvMs1_NtCs9oXD4GUMzTX_17sqlrustgo_storage16backup_schedulerNtB7_16WalBackupManager17archive_wal_sinces1_0B9_
FN:445,_RNCNvMs1_NtCs9oXD4GUMzTX_17sqlrustgo_storage16backup_schedulerNtB7_16WalBackupManager17archive_wal_sinces2_0B9_
FN:428,_RNCNvMs1_NtCs9oXD4GUMzTX_17sqlrustgo_storage16backup_schedulerNtB7_16WalBackupManager17archive_wal_sinces_0B9_
FN:193,_RNCNvMs_NtCs9oXD4GUMzTX_17sqlrustgo_storage16backup_schedulerNtB6_15BackupScheduler14read_wal_since0B8_
FN:134,_RNCNvMs_NtCs9oXD4GUMzTX_17sqlrustgo_storage16backup_schedulerNtB6_15BackupScheduler17record_backup_run0B8_
FN:112,_RNCNvMs_NtCs9oXD4GUMzTX_17sqlrustgo_storage16backup_schedulerNtB6_15BackupScheduler17should_run_backup0B8_
FN:307,_RNCNvNvMs0_NtCs9oXD4GUMzTX_17sqlrustgo_storage16backup_schedulerNtB9_16BackupCompressor18compress_directory17add_dir_recursive0Bb_
FN:314,_RNCNvNvMs0_NtCs9oXD4GUMzTX_17sqlrustgo_storage16backup_schedulerNtB9_16BackupCompressor18compress_directory17add_dir_recursives0_0Bb_
FN:321,_RNCNvNvMs0_NtCs9oXD4GUMzTX_17sqlrustgo_storage16backup_schedulerNtB9_16BackupCompressor18compress_directory17add_dir_recursives1_0Bb_
FN:330,_RNCNvNvMs0_NtCs9oXD4GUMzTX_17sqlrustgo_storage16backup_schedulerNtB9_16BackupCompressor18compress_directory17add_dir_recursives2_0Bb_
FN:308,_RNCNvNvMs0_NtCs9oXD4GUMzTX_17sqlrustgo_storage16backup_schedulerNtB9_16BackupCompressor18compress_directory17add_dir_recursives_0Bb_
FN:220,_RINvMs0_NtCsl9zPO89iGuX_17sqlrustgo_storage16backup_schedulerNtB6_16BackupCompressor13compress_filepEB8_
FN:258,_RINvMs0_NtCsl9zPO89iGuX_17sqlrustgo_storage16backup_schedulerNtB6_16BackupCompressor15decompress_filepEB8_
FN:292,_RINvMs0_NtCsl9zPO89iGuX_17sqlrustgo_storage16backup_schedulerNtB6_16BackupCompressor18compress_directorypEB8_
FN:348,_RINvMs0_NtCsl9zPO89iGuX_17sqlrustgo_storage16backup_schedulerNtB6_16BackupCompressor20decompress_directorypEB8_
FN:224,_RNCINvMs0_NtCsl9zPO89iGuX_17sqlrustgo_storage16backup_schedulerNtB8_16BackupCompressor13compress_filepE0Ba_
FN:238,_RNCINvMs0_NtCsl9zPO89iGuX_17sqlrustgo_storage16backup_schedulerNtB8_16BackupCompressor13compress_filepEs0_0Ba_
FN:244,_RNCINvMs0_NtCsl9zPO89iGuX_17sqlrustgo_storage16backup_schedulerNtB8_16BackupCompressor13compress_filepEs1_0Ba_
FN:250,_RNCINvMs0_NtCsl9zPO89iGuX_17sqlrustgo_storage16backup_schedulerNtB8_16BackupCompressor13compress_filepEs2_0Ba_
FN:253,_RNCINvMs0_NtCsl9zPO89iGuX_17sqlrustgo_storage16backup_schedulerNtB8_16BackupCompressor13compress_filepEs3_0Ba_
FN:225,_RNCINvMs0_NtCsl9zPO89iGuX_17sqlrustgo_storage16backup_schedulerNtB8_16BackupCompressor13compress_filepEs_0Ba_
FN:262,_RNCINvMs0_NtCsl9zPO89iGuX_17sqlrustgo_storage16backup_schedulerNtB8_16BackupCompressor15decompress_filepE0Ba_
FN:275,_RNCINvMs0_NtCsl9zPO89iGuX_17sqlrustgo_storage16backup_schedulerNtB8_16BackupCompressor15decompress_filepEs0_0Ba_
FN:281,_RNCINvMs0_NtCsl9zPO89iGuX_17sqlrustgo_storage16backup_schedulerNtB8_16BackupCompressor15decompress_filepEs1_0Ba_
FN:287,_RNCINvMs0_NtCsl9zPO89iGuX_17sqlrustgo_storage16backup_schedulerNtB8_16BackupCompressor15decompress_filepEs2_0Ba_
FN:263,_RNCINvMs0_NtCsl9zPO89iGuX_17sqlrustgo_storage16backup_schedulerNtB8_16BackupCompressor15decompress_filepEs_0Ba_
FN:296,_RNCINvMs0_NtCsl9zPO89iGuX_17sqlrustgo_storage16backup_schedulerNtB8_16BackupCompressor18compress_directorypE0Ba_
FN:343,_RNCINvMs0_NtCsl9zPO89iGuX_17sqlrustgo_storage16backup_schedulerNtB8_16BackupCompressor18compress_directorypEs_0Ba_
FN:352,_RNCINvMs0_NtCsl9zPO89iGuX_17sqlrustgo_storage16backup_schedulerNtB8_16BackupCompressor20decompress_directorypE0Ba_
FN:361,_RNCINvMs0_NtCsl9zPO89iGuX_17sqlrustgo_storage16backup_schedulerNtB8_16BackupCompressor20decompress_directorypEs0_0Ba_
FN:363,_RNCINvMs0_NtCsl9zPO89iGuX_17sqlrustgo_storage16backup_schedulerNtB8_16BackupCompressor20decompress_directorypEs1_0Ba_
FN:364,_RNCINvMs0_NtCsl9zPO89iGuX_17sqlrustgo_storage16backup_schedulerNtB8_16BackupCompressor20decompress_directorypEs2_0Ba_
FN:368,_RNCINvMs0_NtCsl9zPO89iGuX_17sqlrustgo_storage16backup_schedulerNtB8_16BackupCompressor20decompress_directorypEs3_0Ba_
FN:372,_RNCINvMs0_NtCsl9zPO89iGuX_17sqlrustgo_storage16backup_schedulerNtB8_16BackupCompressor20decompress_directorypEs4_0Ba_
FN:375,_RNCINvMs0_NtCsl9zPO89iGuX_17sqlrustgo_storage16backup_schedulerNtB8_16BackupCompressor20decompress_directorypEs5_0Ba_
FN:380,_RNCINvMs0_NtCsl9zPO89iGuX_17sqlrustgo_storage16backup_schedulerNtB8_16BackupCompressor20decompress_directorypEs6_0Ba_
FN:386,_RNCINvMs0_NtCsl9zPO89iGuX_17sqlrustgo_storage16backup_schedulerNtB8_16BackupCompressor20decompress_directorypEs7_0Ba_
FN:356,_RNCINvMs0_NtCsl9zPO89iGuX_17sqlrustgo_storage16backup_schedulerNtB8_16BackupCompressor20decompress_directorypEs_0Ba_
FN:455,_RNCNvMs1_NtCsl9zPO89iGuX_17sqlrustgo_storage16backup_schedulerNtB7_16WalBackupManager17apply_wal_archive0B9_
FN:471,_RNCNvMs1_NtCsl9zPO89iGuX_17sqlrustgo_storage16backup_schedulerNtB7_16WalBackupManager17apply_wal_archives_0B9_
FN:426,_RNCNvMs1_NtCsl9zPO89iGuX_17sqlrustgo_storage16backup_schedulerNtB7_16WalBackupManager17archive_wal_since0B9_
FN:436,_RNCNvMs1_NtCsl9zPO89iGuX_17sqlrustgo_storage16backup_schedulerNtB7_16WalBackupManager17archive_wal_sinces0_0B9_
FN:439,_RNCNvMs1_NtCsl9zPO89iGuX_17sqlrustgo_storage16backup_schedulerNtB7_16WalBackupManager17archive_wal_sinces1_0B9_
FN:445,_RNCNvMs1_NtCsl9zPO89iGuX_17sqlrustgo_storage16backup_schedulerNtB7_16WalBackupManager17archive_wal_sinces2_0B9_
FN:428,_RNCNvMs1_NtCsl9zPO89iGuX_17sqlrustgo_storage16backup_schedulerNtB7_16WalBackupManager17archive_wal_sinces_0B9_
FN:193,_RNCNvMs_NtCsl9zPO89iGuX_17sqlrustgo_storage16backup_schedulerNtB6_15BackupScheduler14read_wal_since0B8_
FN:134,_RNCNvMs_NtCsl9zPO89iGuX_17sqlrustgo_storage16backup_schedulerNtB6_15BackupScheduler17record_backup_run0B8_
FN:112,_RNCNvMs_NtCsl9zPO89iGuX_17sqlrustgo_storage16backup_schedulerNtB6_15BackupScheduler17should_run_backup0B8_
FN:307,_RNCNvNvMs0_NtCsl9zPO89iGuX_17sqlrustgo_storage16backup_schedulerNtB9_16BackupCompressor18compress_directory17add_dir_recursive0Bb_
FN:314,_RNCNvNvMs0_NtCsl9zPO89iGuX_17sqlrustgo_storage16backup_schedulerNtB9_16BackupCompressor18compress_directory17add_dir_recursives0_0Bb_
FN:321,_RNCNvNvMs0_NtCsl9zPO89iGuX_17sqlrustgo_storage16backup_schedulerNtB9_16BackupCompressor18compress_directory17add_dir_recursives1_0Bb_
FN:330,_RNCNvNvMs0_NtCsl9zPO89iGuX_17sqlrustgo_storage16backup_schedulerNtB9_16BackupCompressor18compress_directory17add_dir_recursives2_0Bb_
FN:308,_RNCNvNvMs0_NtCsl9zPO89iGuX_17sqlrustgo_storage16backup_schedulerNtB9_16BackupCompressor18compress_directory17add_dir_recursives_0Bb_
FN:292,_RINvMs0_NtCsgGnK47HN26N_17sqlrustgo_storage16backup_schedulerNtB6_16BackupCompressor18compress_directorypEB8_
FN:348,_RINvMs0_NtCsgGnK47HN26N_17sqlrustgo_storage16backup_schedulerNtB6_16BackupCompressor20decompress_directorypEB8_
FN:296,_RNCINvMs0_NtCsgGnK47HN26N_17sqlrustgo_storage16backup_schedulerNtB8_16BackupCompressor18compress_directorypE0Ba_
FN:343,_RNCINvMs0_NtCsgGnK47HN26N_17sqlrustgo_storage16backup_schedulerNtB8_16BackupCompressor18compress_directorypEs_0Ba_
FN:352,_RNCINvMs0_NtCsgGnK47HN26N_17sqlrustgo_storage16backup_schedulerNtB8_16BackupCompressor20decompress_directorypE0Ba_
FN:361,_RNCINvMs0_NtCsgGnK47HN26N_17sqlrustgo_storage16backup_schedulerNtB8_16BackupCompressor20decompress_directorypEs0_0Ba_
FN:363,_RNCINvMs0_NtCsgGnK47HN26N_17sqlrustgo_storage16backup_schedulerNtB8_16BackupCompressor20decompress_directorypEs1_0Ba_
FN:364,_RNCINvMs0_NtCsgGnK47HN26N_17sqlrustgo_storage16backup_schedulerNtB8_16BackupCompressor20decompress_directorypEs2_0Ba_
FN:368,_RNCINvMs0_NtCsgGnK47HN26N_17sqlrustgo_storage16backup_schedulerNtB8_16BackupCompressor20decompress_directorypEs3_0Ba_
FN:372,_RNCINvMs0_NtCsgGnK47HN26N_17sqlrustgo_storage16backup_schedulerNtB8_16BackupCompressor20decompress_directorypEs4_0Ba_
FN:375,_RNCINvMs0_NtCsgGnK47HN26N_17sqlrustgo_storage16backup_schedulerNtB8_16BackupCompressor20decompress_directorypEs5_0Ba_
FN:380,_RNCINvMs0_NtCsgGnK47HN26N_17sqlrustgo_storage16backup_schedulerNtB8_16BackupCompressor20decompress_directorypEs6_0Ba_
FN:386,_RNCINvMs0_NtCsgGnK47HN26N_17sqlrustgo_storage16backup_schedulerNtB8_16BackupCompressor20decompress_directorypEs7_0Ba_
FN:356,_RNCINvMs0_NtCsgGnK47HN26N_17sqlrustgo_storage16backup_schedulerNtB8_16BackupCompressor20decompress_directorypEs_0Ba_
FN:455,_RNCNvMs1_NtCsgGnK47HN26N_17sqlrustgo_storage16backup_schedulerNtB7_16WalBackupManager17apply_wal_archive0B9_
FN:471,_RNCNvMs1_NtCsgGnK47HN26N_17sqlrustgo_storage16backup_schedulerNtB7_16WalBackupManager17apply_wal_archives_0B9_
FN:426,_RNCNvMs1_NtCsgGnK47HN26N_17sqlrustgo_storage16backup_schedulerNtB7_16WalBackupManager17archive_wal_since0B9_
FN:436,_RNCNvMs1_NtCsgGnK47HN26N_17sqlrustgo_storage16backup_schedulerNtB7_16WalBackupManager17archive_wal_sinces0_0B9_
FN:439,_RNCNvMs1_NtCsgGnK47HN26N_17sqlrustgo_storage16backup_schedulerNtB7_16WalBackupManager17archive_wal_sinces1_0B9_
FN:445,_RNCNvMs1_NtCsgGnK47HN26N_17sqlrustgo_storage16backup_schedulerNtB7_16WalBackupManager17archive_wal_sinces2_0B9_
FN:428,_RNCNvMs1_NtCsgGnK47HN26N_17sqlrustgo_storage16backup_schedulerNtB7_16WalBackupManager17archive_wal_sinces_0B9_
FN:193,_RNCNvMs_NtCsgGnK47HN26N_17sqlrustgo_storage16backup_schedulerNtB6_15BackupScheduler14read_wal_since0B8_
FN:134,_RNCNvMs_NtCsgGnK47HN26N_17sqlrustgo_storage16backup_schedulerNtB6_15BackupScheduler17record_backup_run0B8_
FN:112,_RNCNvMs_NtCsgGnK47HN26N_17sqlrustgo_storage16backup_schedulerNtB6_15BackupScheduler17should_run_backup0B8_
FN:307,_RNCNvNvMs0_NtCsgGnK47HN26N_17sqlrustgo_storage16backup_schedulerNtB9_16BackupCompressor18compress_directory17add_dir_recursive0Bb_
FN:314,_RNCNvNvMs0_NtCsgGnK47HN26N_17sqlrustgo_storage16backup_schedulerNtB9_16BackupCompressor18compress_directory17add_dir_recursives0_0Bb_
FN:321,_RNCNvNvMs0_NtCsgGnK47HN26N_17sqlrustgo_storage16backup_schedulerNtB9_16BackupCompressor18compress_directory17add_dir_recursives1_0Bb_
FN:330,_RNCNvNvMs0_NtCsgGnK47HN26N_17sqlrustgo_storage16backup_schedulerNtB9_16BackupCompressor18compress_directory17add_dir_recursives2_0Bb_
FN:308,_RNCNvNvMs0_NtCsgGnK47HN26N_17sqlrustgo_storage16backup_schedulerNtB9_16BackupCompressor18compress_directory17add_dir_recursives_0Bb_
FN:450,_RNvMs1_NtCsgGnK47HN26N_17sqlrustgo_storage16backup_schedulerNtB5_16WalBackupManager17apply_wal_archive
FN:417,_RNvMs1_NtCsgGnK47HN26N_17sqlrustgo_storage16backup_schedulerNtB5_16WalBackupManager17archive_wal_since
FN:78,_RNvMs_NtCsgGnK47HN26N_17sqlrustgo_storage16backup_schedulerNtB4_15BackupScheduler12get_schedule
FN:73,_RNvMs_NtCsgGnK47HN26N_17sqlrustgo_storage16backup_schedulerNtB4_15BackupScheduler13with_schedule
FN:184,_RNvMs_NtCsgGnK47HN26N_17sqlrustgo_storage16backup_schedulerNtB4_15BackupScheduler14read_wal_since
FN:82,_RNvMs_NtCsgGnK47HN26N_17sqlrustgo_storage16backup_schedulerNtB4_15BackupScheduler15update_schedule
FN:127,_RNvMs_NtCsgGnK47HN26N_17sqlrustgo_storage16backup_schedulerNtB4_15BackupScheduler17record_backup_run
FN:98,_RNvMs_NtCsgGnK47HN26N_17sqlrustgo_storage16backup_schedulerNtB4_15BackupScheduler17should_run_backup
FN:141,_RNvMs_NtCsgGnK47HN26N_17sqlrustgo_storage16backup_schedulerNtB4_15BackupScheduler19cleanup_old_backups
FN:137,_RNvMs_NtCsgGnK47HN26N_17sqlrustgo_storage16backup_schedulerNtB4_15BackupScheduler20get_backup_directory
FN:196,_RNvMs_NtCsgGnK47HN26N_17sqlrustgo_storage16backup_schedulerNtB4_15BackupScheduler25create_incremental_backup
FN:90,_RNvMs_NtCsgGnK47HN26N_17sqlrustgo_storage16backup_schedulerNtB4_15BackupScheduler4stop
FN:86,_RNvMs_NtCsgGnK47HN26N_17sqlrustgo_storage16backup_schedulerNtB4_15BackupScheduler5start
FN:300,_RNvNvMs0_NtCsgGnK47HN26N_17sqlrustgo_storage16backup_schedulerNtB7_16BackupCompressor18compress_directory17add_dir_recursive
FN:220,_RINvMs0_NtCsgGnK47HN26N_17sqlrustgo_storage16backup_schedulerNtB6_16BackupCompressor13compress_fileRNtNtCsicaZO8UCM9y_3std4path7PathBufEB8_
FN:258,_RINvMs0_NtCsgGnK47HN26N_17sqlrustgo_storage16backup_schedulerNtB6_16BackupCompressor15decompress_fileRNtNtCsicaZO8UCM9y_3std4path7PathBufEB8_
FN:224,_RNCINvMs0_NtCsgGnK47HN26N_17sqlrustgo_storage16backup_schedulerNtB8_16BackupCompressor13compress_fileRNtNtCsicaZO8UCM9y_3std4path7PathBufE0Ba_
FN:238,_RNCINvMs0_NtCsgGnK47HN26N_17sqlrustgo_storage16backup_schedulerNtB8_16BackupCompressor13compress_fileRNtNtCsicaZO8UCM9y_3std4path7PathBufEs0_0Ba_
FN:244,_RNCINvMs0_NtCsgGnK47HN26N_17sqlrustgo_storage16backup_schedulerNtB8_16BackupCompressor13compress_fileRNtNtCsicaZO8UCM9y_3std4path7PathBufEs1_0Ba_
FN:250,_RNCINvMs0_NtCsgGnK47HN26N_17sqlrustgo_storage16backup_schedulerNtB8_16BackupCompressor13compress_fileRNtNtCsicaZO8UCM9y_3std4path7PathBufEs2_0Ba_
FN:253,_RNCINvMs0_NtCsgGnK47HN26N_17sqlrustgo_storage16backup_schedulerNtB8_16BackupCompressor13compress_fileRNtNtCsicaZO8UCM9y_3std4path7PathBufEs3_0Ba_
FN:225,_RNCINvMs0_NtCsgGnK47HN26N_17sqlrustgo_storage16backup_schedulerNtB8_16BackupCompressor13compress_fileRNtNtCsicaZO8UCM9y_3std4path7PathBufEs_0Ba_
FN:262,_RNCINvMs0_NtCsgGnK47HN26N_17sqlrustgo_storage16backup_schedulerNtB8_16BackupCompressor15decompress_fileRNtNtCsicaZO8UCM9y_3std4path7PathBufE0Ba_
FN:275,_RNCINvMs0_NtCsgGnK47HN26N_17sqlrustgo_storage16backup_schedulerNtB8_16BackupCompressor15decompress_fileRNtNtCsicaZO8UCM9y_3std4path7PathBufEs0_0Ba_
FN:281,_RNCINvMs0_NtCsgGnK47HN26N_17sqlrustgo_storage16backup_schedulerNtB8_16BackupCompressor15decompress_fileRNtNtCsicaZO8UCM9y_3std4path7PathBufEs1_0Ba_
FN:287,_RNCINvMs0_NtCsgGnK47HN26N_17sqlrustgo_storage16backup_schedulerNtB8_16BackupCompressor15decompress_fileRNtNtCsicaZO8UCM9y_3std4path7PathBufEs2_0Ba_
FN:263,_RNCINvMs0_NtCsgGnK47HN26N_17sqlrustgo_storage16backup_schedulerNtB8_16BackupCompressor15decompress_fileRNtNtCsicaZO8UCM9y_3std4path7PathBufEs_0Ba_
FN:507,_RNvNtNtCsgGnK47HN26N_17sqlrustgo_storage16backup_scheduler5testss_25test_backup_scheduler_lsn
FN:488,_RNvNtNtCsgGnK47HN26N_17sqlrustgo_storage16backup_scheduler5testss_28test_backup_schedule_default
FN:497,_RNvNtNtCsgGnK47HN26N_17sqlrustgo_storage16backup_scheduler5testss_30test_backup_scheduler_creation
FN:544,_RNvNtNtCsgGnK47HN26N_17sqlrustgo_storage16backup_scheduler5testss_32test_wal_backup_manager_creation
FN:550,_RNvNtNtCsgGnK47HN26N_17sqlrustgo_storage16backup_scheduler5testss_35test_wal_backup_manager_set_min_lsn
FN:557,_RNvNtNtCsgGnK47HN26N_17sqlrustgo_storage16backup_scheduler5testss_39test_backup_schedule_type_serialization
FN:518,_RNvNtNtCsgGnK47HN26N_17sqlrustgo_storage16backup_scheduler5testss_42test_backup_compressor_compress_decompress
FN:568,_RNvNtNtCsgGnK47HN26N_17sqlrustgo_storage16backup_scheduler5testss_43test_incremental_backup_point_serialization
FN:413,_RNvMs1_NtCsgGnK47HN26N_17sqlrustgo_storage16backup_schedulerNtB5_16WalBackupManager11get_min_lsn
FN:409,_RNvMs1_NtCsgGnK47HN26N_17sqlrustgo_storage16backup_schedulerNtB5_16WalBackupManager11set_min_lsn
FN:402,_RNvMs1_NtCsgGnK47HN26N_17sqlrustgo_storage16backup_schedulerNtB5_16WalBackupManager3new
FN:94,_RNvMs_NtCsgGnK47HN26N_17sqlrustgo_storage16backup_schedulerNtB4_15BackupScheduler10is_running
FN:180,_RNvMs_NtCsgGnK47HN26N_17sqlrustgo_storage16backup_schedulerNtB4_15BackupScheduler15get_current_lsn
FN:176,_RNvMs_NtCsgGnK47HN26N_17sqlrustgo_storage16backup_schedulerNtB4_15BackupScheduler15set_current_lsn
FN:62,_RNvMs_NtCsgGnK47HN26N_17sqlrustgo_storage16backup_schedulerNtB4_15BackupScheduler3new
FN:35,_RNvXNtCsgGnK47HN26N_17sqlrustgo_storage16backup_schedulerNtB2_14BackupScheduleNtNtCs8nPosuWgJFh_4core7default7Default7default
FN:455,_RNCNvMs1_NtCs2l7roSUS7lg_17sqlrustgo_storage16backup_schedulerNtB7_16WalBackupManager17apply_wal_archive0B9_
FN:471,_RNCNvMs1_NtCs2l7roSUS7lg_17sqlrustgo_storage16backup_schedulerNtB7_16WalBackupManager17apply_wal_archives_0B9_
FN:426,_RNCNvMs1_NtCs2l7roSUS7lg_17sqlrustgo_storage16backup_schedulerNtB7_16WalBackupManager17archive_wal_since0B9_
FN:436,_RNCNvMs1_NtCs2l7roSUS7lg_17sqlrustgo_storage16backup_schedulerNtB7_16WalBackupManager17archive_wal_sinces0_0B9_
FN:439,_RNCNvMs1_NtCs2l7roSUS7lg_17sqlrustgo_storage16backup_schedulerNtB7_16WalBackupManager17archive_wal_sinces1_0B9_
FN:445,_RNCNvMs1_NtCs2l7roSUS7lg_17sqlrustgo_storage16backup_schedulerNtB7_16WalBackupManager17archive_wal_sinces2_0B9_
FN:428,_RNCNvMs1_NtCs2l7roSUS7lg_17sqlrustgo_storage16backup_schedulerNtB7_16WalBackupManager17archive_wal_sinces_0B9_
FN:193,_RNCNvMs_NtCs2l7roSUS7lg_17sqlrustgo_storage16backup_schedulerNtB6_15BackupScheduler14read_wal_since0B8_
FN:134,_RNCNvMs_NtCs2l7roSUS7lg_17sqlrustgo_storage16backup_schedulerNtB6_15BackupScheduler17record_backup_run0B8_
FN:112,_RNCNvMs_NtCs2l7roSUS7lg_17sqlrustgo_storage16backup_schedulerNtB6_15BackupScheduler17should_run_backup0B8_
FN:307,_RNCNvNvMs0_NtCs2l7roSUS7lg_17sqlrustgo_storage16backup_schedulerNtB9_16BackupCompressor18compress_directory17add_dir_recursive0Bb_
FN:314,_RNCNvNvMs0_NtCs2l7roSUS7lg_17sqlrustgo_storage16backup_schedulerNtB9_16BackupCompressor18compress_directory17add_dir_recursives0_0Bb_
FN:321,_RNCNvNvMs0_NtCs2l7roSUS7lg_17sqlrustgo_storage16backup_schedulerNtB9_16BackupCompressor18compress_directory17add_dir_recursives1_0Bb_
FN:330,_RNCNvNvMs0_NtCs2l7roSUS7lg_17sqlrustgo_storage16backup_schedulerNtB9_16BackupCompressor18compress_directory17add_dir_recursives2_0Bb_
FN:308,_RNCNvNvMs0_NtCs2l7roSUS7lg_17sqlrustgo_storage16backup_schedulerNtB9_16BackupCompressor18compress_directory17add_dir_recursives_0Bb_
FN:220,_RINvMs0_NtCs2l7roSUS7lg_17sqlrustgo_storage16backup_schedulerNtB6_16BackupCompressor13compress_filepEB8_
FN:258,_RINvMs0_NtCs2l7roSUS7lg_17sqlrustgo_storage16backup_schedulerNtB6_16BackupCompressor15decompress_filepEB8_
FN:292,_RINvMs0_NtCs2l7roSUS7lg_17sqlrustgo_storage16backup_schedulerNtB6_16BackupCompressor18compress_directorypEB8_
FN:348,_RINvMs0_NtCs2l7roSUS7lg_17sqlrustgo_storage16backup_schedulerNtB6_16BackupCompressor20decompress_directorypEB8_
FN:224,_RNCINvMs0_NtCs2l7roSUS7lg_17sqlrustgo_storage16backup_schedulerNtB8_16BackupCompressor13compress_filepE0Ba_
FN:238,_RNCINvMs0_NtCs2l7roSUS7lg_17sqlrustgo_storage16backup_schedulerNtB8_16BackupCompressor13compress_filepEs0_0Ba_
FN:244,_RNCINvMs0_NtCs2l7roSUS7lg_17sqlrustgo_storage16backup_schedulerNtB8_16BackupCompressor13compress_filepEs1_0Ba_
FN:250,_RNCINvMs0_NtCs2l7roSUS7lg_17sqlrustgo_storage16backup_schedulerNtB8_16BackupCompressor13compress_filepEs2_0Ba_
FN:253,_RNCINvMs0_NtCs2l7roSUS7lg_17sqlrustgo_storage16backup_schedulerNtB8_16BackupCompressor13compress_filepEs3_0Ba_
FN:225,_RNCINvMs0_NtCs2l7roSUS7lg_17sqlrustgo_storage16backup_schedulerNtB8_16BackupCompressor13compress_filepEs_0Ba_
FN:262,_RNCINvMs0_NtCs2l7roSUS7lg_17sqlrustgo_storage16backup_schedulerNtB8_16BackupCompressor15decompress_filepE0Ba_
FN:275,_RNCINvMs0_NtCs2l7roSUS7lg_17sqlrustgo_storage16backup_schedulerNtB8_16BackupCompressor15decompress_filepEs0_0Ba_
FN:281,_RNCINvMs0_NtCs2l7roSUS7lg_17sqlrustgo_storage16backup_schedulerNtB8_16BackupCompressor15decompress_filepEs1_0Ba_
FN:287,_RNCINvMs0_NtCs2l7roSUS7lg_17sqlrustgo_storage16backup_schedulerNtB8_16BackupCompressor15decompress_filepEs2_0Ba_
FN:263,_RNCINvMs0_NtCs2l7roSUS7lg_17sqlrustgo_storage16backup_schedulerNtB8_16BackupCompressor15decompress_filepEs_0Ba_
FN:296,_RNCINvMs0_NtCs2l7roSUS7lg_17sqlrustgo_storage16backup_schedulerNtB8_16BackupCompressor18compress_directorypE0Ba_
FN:343,_RNCINvMs0_NtCs2l7roSUS7lg_17sqlrustgo_storage16backup_schedulerNtB8_16BackupCompressor18compress_directorypEs_0Ba_
FN:352,_RNCINvMs0_NtCs2l7roSUS7lg_17sqlrustgo_storage16backup_schedulerNtB8_16BackupCompressor20decompress_directorypE0Ba_
FN:361,_RNCINvMs0_NtCs2l7roSUS7lg_17sqlrustgo_storage16backup_schedulerNtB8_16BackupCompressor20decompress_directorypEs0_0Ba_
FN:363,_RNCINvMs0_NtCs2l7roSUS7lg_17sqlrustgo_storage16backup_schedulerNtB8_16BackupCompressor20decompress_directorypEs1_0Ba_
FN:364,_RNCINvMs0_NtCs2l7roSUS7lg_17sqlrustgo_storage16backup_schedulerNtB8_16BackupCompressor20decompress_directorypEs2_0Ba_
FN:368,_RNCINvMs0_NtCs2l7roSUS7lg_17sqlrustgo_storage16backup_schedulerNtB8_16BackupCompressor20decompress_directorypEs3_0Ba_
FN:372,_RNCINvMs0_NtCs2l7roSUS7lg_17sqlrustgo_storage16backup_schedulerNtB8_16BackupCompressor20decompress_directorypEs4_0Ba_
FN:375,_RNCINvMs0_NtCs2l7roSUS7lg_17sqlrustgo_storage16backup_schedulerNtB8_16BackupCompressor20decompress_directorypEs5_0Ba_
FN:380,_RNCINvMs0_NtCs2l7roSUS7lg_17sqlrustgo_storage16backup_schedulerNtB8_16BackupCompressor20decompress_directorypEs6_0Ba_
FN:386,_RNCINvMs0_NtCs2l7roSUS7lg_17sqlrustgo_storage16backup_schedulerNtB8_16BackupCompressor20decompress_directorypEs7_0Ba_
FN:356,_RNCINvMs0_NtCs2l7roSUS7lg_17sqlrustgo_storage16backup_schedulerNtB8_16BackupCompressor20decompress_directorypEs_0Ba_
FNDA:0,_RNCNvMs1_NtCs38XCG6692bz_17sqlrustgo_storage16backup_schedulerNtB7_16WalBackupManager17apply_wal_archive0B9_
FNDA:0,_RNCNvMs1_NtCs38XCG6692bz_17sqlrustgo_storage16backup_schedulerNtB7_16WalBackupManager17apply_wal_archives_0B9_
FNDA:0,_RNCNvMs1_NtCs38XCG6692bz_17sqlrustgo_storage16backup_schedulerNtB7_16WalBackupManager17archive_wal_since0B9_
FNDA:0,_RNCNvMs1_NtCs38XCG6692bz_17sqlrustgo_storage16backup_schedulerNtB7_16WalBackupManager17archive_wal_sinces0_0B9_
FNDA:0,_RNCNvMs1_NtCs38XCG6692bz_17sqlrustgo_storage16backup_schedulerNtB7_16WalBackupManager17archive_wal_sinces1_0B9_
FNDA:0,_RNCNvMs1_NtCs38XCG6692bz_17sqlrustgo_storage16backup_schedulerNtB7_16WalBackupManager17archive_wal_sinces2_0B9_
FNDA:0,_RNCNvMs1_NtCs38XCG6692bz_17sqlrustgo_storage16backup_schedulerNtB7_16WalBackupManager17archive_wal_sinces_0B9_
FNDA:0,_RNCNvMs_NtCs38XCG6692bz_17sqlrustgo_storage16backup_schedulerNtB6_15BackupScheduler14read_wal_since0B8_
FNDA:0,_RNCNvMs_NtCs38XCG6692bz_17sqlrustgo_storage16backup_schedulerNtB6_15BackupScheduler17record_backup_run0B8_
FNDA:0,_RNCNvMs_NtCs38XCG6692bz_17sqlrustgo_storage16backup_schedulerNtB6_15BackupScheduler17should_run_backup0B8_
FNDA:0,_RNCNvNvMs0_NtCs38XCG6692bz_17sqlrustgo_storage16backup_schedulerNtB9_16BackupCompressor18compress_directory17add_dir_recursive0Bb_
FNDA:0,_RNCNvNvMs0_NtCs38XCG6692bz_17sqlrustgo_storage16backup_schedulerNtB9_16BackupCompressor18compress_directory17add_dir_recursives0_0Bb_
FNDA:0,_RNCNvNvMs0_NtCs38XCG6692bz_17sqlrustgo_storage16backup_schedulerNtB9_16BackupCompressor18compress_directory17add_dir_recursives1_0Bb_
FNDA:0,_RNCNvNvMs0_NtCs38XCG6692bz_17sqlrustgo_storage16backup_schedulerNtB9_16BackupCompressor18compress_directory17add_dir_recursives2_0Bb_
FNDA:0,_RNCNvNvMs0_NtCs38XCG6692bz_17sqlrustgo_storage16backup_schedulerNtB9_16BackupCompressor18compress_directory17add_dir_recursives_0Bb_
FNDA:0,_RINvMs0_NtCs38XCG6692bz_17sqlrustgo_storage16backup_schedulerNtB6_16BackupCompressor13compress_filepEB8_
FNDA:0,_RINvMs0_NtCs38XCG6692bz_17sqlrustgo_storage16backup_schedulerNtB6_16BackupCompressor15decompress_filepEB8_
FNDA:0,_RINvMs0_NtCs38XCG6692bz_17sqlrustgo_storage16backup_schedulerNtB6_16BackupCompressor18compress_directorypEB8_
FNDA:0,_RINvMs0_NtCs38XCG6692bz_17sqlrustgo_storage16backup_schedulerNtB6_16BackupCompressor20decompress_directorypEB8_
FNDA:0,_RNCINvMs0_NtCs38XCG6692bz_17sqlrustgo_storage16backup_schedulerNtB8_16BackupCompressor13compress_filepE0Ba_
FNDA:0,_RNCINvMs0_NtCs38XCG6692bz_17sqlrustgo_storage16backup_schedulerNtB8_16BackupCompressor13compress_filepEs0_0Ba_
FNDA:0,_RNCINvMs0_NtCs38XCG6692bz_17sqlrustgo_storage16backup_schedulerNtB8_16BackupCompressor13compress_filepEs1_0Ba_
FNDA:0,_RNCINvMs0_NtCs38XCG6692bz_17sqlrustgo_storage16backup_schedulerNtB8_16BackupCompressor13compress_filepEs2_0Ba_
FNDA:0,_RNCINvMs0_NtCs38XCG6692bz_17sqlrustgo_storage16backup_schedulerNtB8_16BackupCompressor13compress_filepEs3_0Ba_
FNDA:0,_RNCINvMs0_NtCs38XCG6692bz_17sqlrustgo_storage16backup_schedulerNtB8_16BackupCompressor13compress_filepEs_0Ba_
FNDA:0,_RNCINvMs0_NtCs38XCG6692bz_17sqlrustgo_storage16backup_schedulerNtB8_16BackupCompressor15decompress_filepE0Ba_
FNDA:0,_RNCINvMs0_NtCs38XCG6692bz_17sqlrustgo_storage16backup_schedulerNtB8_16BackupCompressor15decompress_filepEs0_0Ba_
FNDA:0,_RNCINvMs0_NtCs38XCG6692bz_17sqlrustgo_storage16backup_schedulerNtB8_16BackupCompressor15decompress_filepEs1_0Ba_
FNDA:0,_RNCINvMs0_NtCs38XCG6692bz_17sqlrustgo_storage16backup_schedulerNtB8_16BackupCompressor15decompress_filepEs2_0Ba_
FNDA:0,_RNCINvMs0_NtCs38XCG6692bz_17sqlrustgo_storage16backup_schedulerNtB8_16BackupCompressor15decompress_filepEs_0Ba_
FNDA:0,_RNCINvMs0_NtCs38XCG6692bz_17sqlrustgo_storage16backup_schedulerNtB8_16BackupCompressor18compress_directorypE0Ba_
FNDA:0,_RNCINvMs0_NtCs38XCG6692bz_17sqlrustgo_storage16backup_schedulerNtB8_16BackupCompressor18compress_directorypEs_0Ba_
FNDA:0,_RNCINvMs0_NtCs38XCG6692bz_17sqlrustgo_storage16backup_schedulerNtB8_16BackupCompressor20decompress_directorypE0Ba_
FNDA:0,_RNCINvMs0_NtCs38XCG6692bz_17sqlrustgo_storage16backup_schedulerNtB8_16BackupCompressor20decompress_directorypEs0_0Ba_
FNDA:0,_RNCINvMs0_NtCs38XCG6692bz_17sqlrustgo_storage16backup_schedulerNtB8_16BackupCompressor20decompress_directorypEs1_0Ba_
FNDA:0,_RNCINvMs0_NtCs38XCG6692bz_17sqlrustgo_storage16backup_schedulerNtB8_16BackupCompressor20decompress_directorypEs2_0Ba_
FNDA:0,_RNCINvMs0_NtCs38XCG6692bz_17sqlrustgo_storage16backup_schedulerNtB8_16BackupCompressor20decompress_directorypEs3_0Ba_
FNDA:0,_RNCINvMs0_NtCs38XCG6692bz_17sqlrustgo_storage16backup_schedulerNtB8_16BackupCompressor20decompress_directorypEs4_0Ba_
FNDA:0,_RNCINvMs0_NtCs38XCG6692bz_17sqlrustgo_storage16backup_schedulerNtB8_16BackupCompressor20decompress_directorypEs5_0Ba_
FNDA:0,_RNCINvMs0_NtCs38XCG6692bz_17sqlrustgo_storage16backup_schedulerNtB8_16BackupCompressor20decompress_directorypEs6_0Ba_
FNDA:0,_RNCINvMs0_NtCs38XCG6692bz_17sqlrustgo_storage16backup_schedulerNtB8_16BackupCompressor20decompress_directorypEs7_0Ba_
FNDA:0,_RNCINvMs0_NtCs38XCG6692bz_17sqlrustgo_storage16backup_schedulerNtB8_16BackupCompressor20decompress_directorypEs_0Ba_
FNDA:0,_RINvMs0_NtCs1u7In8Za3Xp_17sqlrustgo_storage16backup_schedulerNtB6_16BackupCompressor13compress_filepEB8_
FNDA:0,_RINvMs0_NtCs1u7In8Za3Xp_17sqlrustgo_storage16backup_schedulerNtB6_16BackupCompressor15decompress_filepEB8_
FNDA:0,_RINvMs0_NtCs1u7In8Za3Xp_17sqlrustgo_storage16backup_schedulerNtB6_16BackupCompressor18compress_directorypEB8_
FNDA:0,_RINvMs0_NtCs1u7In8Za3Xp_17sqlrustgo_storage16backup_schedulerNtB6_16BackupCompressor20decompress_directorypEB8_
FNDA:0,_RNCINvMs0_NtCs1u7In8Za3Xp_17sqlrustgo_storage16backup_schedulerNtB8_16BackupCompressor13compress_filepE0Ba_
FNDA:0,_RNCINvMs0_NtCs1u7In8Za3Xp_17sqlrustgo_storage16backup_schedulerNtB8_16BackupCompressor13compress_filepEs0_0Ba_
FNDA:0,_RNCINvMs0_NtCs1u7In8Za3Xp_17sqlrustgo_storage16backup_schedulerNtB8_16BackupCompressor13compress_filepEs1_0Ba_
FNDA:0,_RNCINvMs0_NtCs1u7In8Za3Xp_17sqlrustgo_storage16backup_schedulerNtB8_16BackupCompressor13compress_filepEs2_0Ba_
FNDA:0,_RNCINvMs0_NtCs1u7In8Za3Xp_17sqlrustgo_storage16backup_schedulerNtB8_16BackupCompressor13compress_filepEs3_0Ba_
FNDA:0,_RNCINvMs0_NtCs1u7In8Za3Xp_17sqlrustgo_storage16backup_schedulerNtB8_16BackupCompressor13compress_filepEs_0Ba_
FNDA:0,_RNCINvMs0_NtCs1u7In8Za3Xp_17sqlrustgo_storage16backup_schedulerNtB8_16BackupCompressor15decompress_filepE0Ba_
FNDA:0,_RNCINvMs0_NtCs1u7In8Za3Xp_17sqlrustgo_storage16backup_schedulerNtB8_16BackupCompressor15decompress_filepEs0_0Ba_
FNDA:0,_RNCINvMs0_NtCs1u7In8Za3Xp_17sqlrustgo_storage16backup_schedulerNtB8_16BackupCompressor15decompress_filepEs1_0Ba_
FNDA:0,_RNCINvMs0_NtCs1u7In8Za3Xp_17sqlrustgo_storage16backup_schedulerNtB8_16BackupCompressor15decompress_filepEs2_0Ba_
FNDA:0,_RNCINvMs0_NtCs1u7In8Za3Xp_17sqlrustgo_storage16backup_schedulerNtB8_16BackupCompressor15decompress_filepEs_0Ba_
FNDA:0,_RNCINvMs0_NtCs1u7In8Za3Xp_17sqlrustgo_storage16backup_schedulerNtB8_16BackupCompressor18compress_directorypE0Ba_
FNDA:0,_RNCINvMs0_NtCs1u7In8Za3Xp_17sqlrustgo_storage16backup_schedulerNtB8_16BackupCompressor18compress_directorypEs_0Ba_
FNDA:0,_RNCINvMs0_NtCs1u7In8Za3Xp_17sqlrustgo_storage16backup_schedulerNtB8_16BackupCompressor20decompress_directorypE0Ba_
FNDA:0,_RNCINvMs0_NtCs1u7In8Za3Xp_17sqlrustgo_storage16backup_schedulerNtB8_16BackupCompressor20decompress_directorypEs0_0Ba_
FNDA:0,_RNCINvMs0_NtCs1u7In8Za3Xp_17sqlrustgo_storage16backup_schedulerNtB8_16BackupCompressor20decompress_directorypEs1_0Ba_
FNDA:0,_RNCINvMs0_NtCs1u7In8Za3Xp_17sqlrustgo_storage16backup_schedulerNtB8_16BackupCompressor20decompress_directorypEs2_0Ba_
FNDA:0,_RNCINvMs0_NtCs1u7In8Za3Xp_17sqlrustgo_storage16backup_schedulerNtB8_16BackupCompressor20decompress_directorypEs3_0Ba_
FNDA:0,_RNCINvMs0_NtCs1u7In8Za3Xp_17sqlrustgo_storage16backup_schedulerNtB8_16BackupCompressor20decompress_directorypEs4_0Ba_
FNDA:0,_RNCINvMs0_NtCs1u7In8Za3Xp_17sqlrustgo_storage16backup_schedulerNtB8_16BackupCompressor20decompress_directorypEs5_0Ba_
FNDA:0,_RNCINvMs0_NtCs1u7In8Za3Xp_17sqlrustgo_storage16backup_schedulerNtB8_16BackupCompressor20decompress_directorypEs6_0Ba_
FNDA:0,_RNCINvMs0_NtCs1u7In8Za3Xp_17sqlrustgo_storage16backup_schedulerNtB8_16BackupCompressor20decompress_directorypEs7_0Ba_
FNDA:0,_RNCINvMs0_NtCs1u7In8Za3Xp_17sqlrustgo_storage16backup_schedulerNtB8_16BackupCompressor20decompress_directorypEs_0Ba_
FNDA:0,_RNCNvMs1_NtCs1u7In8Za3Xp_17sqlrustgo_storage16backup_schedulerNtB7_16WalBackupManager17apply_wal_archive0B9_
FNDA:0,_RNCNvMs1_NtCs1u7In8Za3Xp_17sqlrustgo_storage16backup_schedulerNtB7_16WalBackupManager17apply_wal_archives_0B9_
FNDA:0,_RNCNvMs1_NtCs1u7In8Za3Xp_17sqlrustgo_storage16backup_schedulerNtB7_16WalBackupManager17archive_wal_since0B9_
FNDA:0,_RNCNvMs1_NtCs1u7In8Za3Xp_17sqlrustgo_storage16backup_schedulerNtB7_16WalBackupManager17archive_wal_sinces0_0B9_
FNDA:0,_RNCNvMs1_NtCs1u7In8Za3Xp_17sqlrustgo_storage16backup_schedulerNtB7_16WalBackupManager17archive_wal_sinces1_0B9_
FNDA:0,_RNCNvMs1_NtCs1u7In8Za3Xp_17sqlrustgo_storage16backup_schedulerNtB7_16WalBackupManager17archive_wal_sinces2_0B9_
FNDA:0,_RNCNvMs1_NtCs1u7In8Za3Xp_17sqlrustgo_storage16backup_schedulerNtB7_16WalBackupManager17archive_wal_sinces_0B9_
FNDA:0,_RNCNvMs_NtCs1u7In8Za3Xp_17sqlrustgo_storage16backup_schedulerNtB6_15BackupScheduler14read_wal_since0B8_
FNDA:0,_RNCNvMs_NtCs1u7In8Za3Xp_17sqlrustgo_storage16backup_schedulerNtB6_15BackupScheduler17record_backup_run0B8_
FNDA:0,_RNCNvMs_NtCs1u7In8Za3Xp_17sqlrustgo_storage16backup_schedulerNtB6_15BackupScheduler17should_run_backup0B8_
FNDA:0,_RNCNvNvMs0_NtCs1u7In8Za3Xp_17sqlrustgo_storage16backup_schedulerNtB9_16BackupCompressor18compress_directory17add_dir_recursive0Bb_
FNDA:0,_RNCNvNvMs0_NtCs1u7In8Za3Xp_17sqlrustgo_storage16backup_schedulerNtB9_16BackupCompressor18compress_directory17add_dir_recursives0_0Bb_
FNDA:0,_RNCNvNvMs0_NtCs1u7In8Za3Xp_17sqlrustgo_storage16backup_schedulerNtB9_16BackupCompressor18compress_directory17add_dir_recursives1_0Bb_
FNDA:0,_RNCNvNvMs0_NtCs1u7In8Za3Xp_17sqlrustgo_storage16backup_schedulerNtB9_16BackupCompressor18compress_directory17add_dir_recursives2_0Bb_
FNDA:0,_RNCNvNvMs0_NtCs1u7In8Za3Xp_17sqlrustgo_storage16backup_schedulerNtB9_16BackupCompressor18compress_directory17add_dir_recursives_0Bb_
FNDA:0,_RINvMs0_NtCsd1AkON0xxEy_17sqlrustgo_storage16backup_schedulerNtB6_16BackupCompressor13compress_filepEB8_
FNDA:0,_RINvMs0_NtCsd1AkON0xxEy_17sqlrustgo_storage16backup_schedulerNtB6_16BackupCompressor15decompress_filepEB8_
FNDA:0,_RINvMs0_NtCsd1AkON0xxEy_17sqlrustgo_storage16backup_schedulerNtB6_16BackupCompressor18compress_directorypEB8_
FNDA:0,_RINvMs0_NtCsd1AkON0xxEy_17sqlrustgo_storage16backup_schedulerNtB6_16BackupCompressor20decompress_directorypEB8_
FNDA:0,_RNCINvMs0_NtCsd1AkON0xxEy_17sqlrustgo_storage16backup_schedulerNtB8_16BackupCompressor13compress_filepE0Ba_
FNDA:0,_RNCINvMs0_NtCsd1AkON0xxEy_17sqlrustgo_storage16backup_schedulerNtB8_16BackupCompressor13compress_filepEs0_0Ba_
FNDA:0,_RNCINvMs0_NtCsd1AkON0xxEy_17sqlrustgo_storage16backup_schedulerNtB8_16BackupCompressor13compress_filepEs1_0Ba_
FNDA:0,_RNCINvMs0_NtCsd1AkON0xxEy_17sqlrustgo_storage16backup_schedulerNtB8_16BackupCompressor13compress_filepEs2_0Ba_
FNDA:0,_RNCINvMs0_NtCsd1AkON0xxEy_17sqlrustgo_storage16backup_schedulerNtB8_16BackupCompressor13compress_filepEs3_0Ba_
FNDA:0,_RNCINvMs0_NtCsd1AkON0xxEy_17sqlrustgo_storage16backup_schedulerNtB8_16BackupCompressor13compress_filepEs_0Ba_
FNDA:0,_RNCINvMs0_NtCsd1AkON0xxEy_17sqlrustgo_storage16backup_schedulerNtB8_16BackupCompressor15decompress_filepE0Ba_
FNDA:0,_RNCINvMs0_NtCsd1AkON0xxEy_17sqlrustgo_storage16backup_schedulerNtB8_16BackupCompressor15decompress_filepEs0_0Ba_
FNDA:0,_RNCINvMs0_NtCsd1AkON0xxEy_17sqlrustgo_storage16backup_schedulerNtB8_16BackupCompressor15decompress_filepEs1_0Ba_
FNDA:0,_RNCINvMs0_NtCsd1AkON0xxEy_17sqlrustgo_storage16backup_schedulerNtB8_16BackupCompressor15decompress_filepEs2_0Ba_
FNDA:0,_RNCINvMs0_NtCsd1AkON0xxEy_17sqlrustgo_storage16backup_schedulerNtB8_16BackupCompressor15decompress_filepEs_0Ba_
FNDA:0,_RNCINvMs0_NtCsd1AkON0xxEy_17sqlrustgo_storage16backup_schedulerNtB8_16BackupCompressor18compress_directorypE0Ba_
FNDA:0,_RNCINvMs0_NtCsd1AkON0xxEy_17sqlrustgo_storage16backup_schedulerNtB8_16BackupCompressor18compress_directorypEs_0Ba_
FNDA:0,_RNCINvMs0_NtCsd1AkON0xxEy_17sqlrustgo_storage16backup_schedulerNtB8_16BackupCompressor20decompress_directorypE0Ba_
FNDA:0,_RNCINvMs0_NtCsd1AkON0xxEy_17sqlrustgo_storage16backup_schedulerNtB8_16BackupCompressor20decompress_directorypEs0_0Ba_
FNDA:0,_RNCINvMs0_NtCsd1AkON0xxEy_17sqlrustgo_storage16backup_schedulerNtB8_16BackupCompressor20decompress_directorypEs1_0Ba_
FNDA:0,_RNCINvMs0_NtCsd1AkON0xxEy_17sqlrustgo_storage16backup_schedulerNtB8_16BackupCompressor20decompress_directorypEs2_0Ba_
FNDA:0,_RNCINvMs0_NtCsd1AkON0xxEy_17sqlrustgo_storage16backup_schedulerNtB8_16BackupCompressor20decompress_directorypEs3_0Ba_
FNDA:0,_RNCINvMs0_NtCsd1AkON0xxEy_17sqlrustgo_storage16backup_schedulerNtB8_16BackupCompressor20decompress_directorypEs4_0Ba_
FNDA:0,_RNCINvMs0_NtCsd1AkON0xxEy_17sqlrustgo_storage16backup_schedulerNtB8_16BackupCompressor20decompress_directorypEs5_0Ba_
FNDA:0,_RNCINvMs0_NtCsd1AkON0xxEy_17sqlrustgo_storage16backup_schedulerNtB8_16BackupCompressor20decompress_directorypEs6_0Ba_
FNDA:0,_RNCINvMs0_NtCsd1AkON0xxEy_17sqlrustgo_storage16backup_schedulerNtB8_16BackupCompressor20decompress_directorypEs7_0Ba_
FNDA:0,_RNCINvMs0_NtCsd1AkON0xxEy_17sqlrustgo_storage16backup_schedulerNtB8_16BackupCompressor20decompress_directorypEs_0Ba_
FNDA:0,_RNCNvMs1_NtCsd1AkON0xxEy_17sqlrustgo_storage16backup_schedulerNtB7_16WalBackupManager17apply_wal_archive0B9_
FNDA:0,_RNCNvMs1_NtCsd1AkON0xxEy_17sqlrustgo_storage16backup_schedulerNtB7_16WalBackupManager17apply_wal_archives_0B9_
FNDA:0,_RNCNvMs1_NtCsd1AkON0xxEy_17sqlrustgo_storage16backup_schedulerNtB7_16WalBackupManager17archive_wal_since0B9_
FNDA:0,_RNCNvMs1_NtCsd1AkON0xxEy_17sqlrustgo_storage16backup_schedulerNtB7_16WalBackupManager17archive_wal_sinces0_0B9_
FNDA:0,_RNCNvMs1_NtCsd1AkON0xxEy_17sqlrustgo_storage16backup_schedulerNtB7_16WalBackupManager17archive_wal_sinces1_0B9_
FNDA:0,_RNCNvMs1_NtCsd1AkON0xxEy_17sqlrustgo_storage16backup_schedulerNtB7_16WalBackupManager17archive_wal_sinces2_0B9_
FNDA:0,_RNCNvMs1_NtCsd1AkON0xxEy_17sqlrustgo_storage16backup_schedulerNtB7_16WalBackupManager17archive_wal_sinces_0B9_
FNDA:0,_RNCNvMs_NtCsd1AkON0xxEy_17sqlrustgo_storage16backup_schedulerNtB6_15BackupScheduler14read_wal_since0B8_
FNDA:0,_RNCNvMs_NtCsd1AkON0xxEy_17sqlrustgo_storage16backup_schedulerNtB6_15BackupScheduler17record_backup_run0B8_
FNDA:0,_RNCNvMs_NtCsd1AkON0xxEy_17sqlrustgo_storage16backup_schedulerNtB6_15BackupScheduler17should_run_backup0B8_
FNDA:0,_RNCNvNvMs0_NtCsd1AkON0xxEy_17sqlrustgo_storage16backup_schedulerNtB9_16BackupCompressor18compress_directory17add_dir_recursive0Bb_
FNDA:0,_RNCNvNvMs0_NtCsd1AkON0xxEy_17sqlrustgo_storage16backup_schedulerNtB9_16BackupCompressor18compress_directory17add_dir_recursives0_0Bb_
FNDA:0,_RNCNvNvMs0_NtCsd1AkON0xxEy_17sqlrustgo_storage16backup_schedulerNtB9_16BackupCompressor18compress_directory17add_dir_recursives1_0Bb_
FNDA:0,_RNCNvNvMs0_NtCsd1AkON0xxEy_17sqlrustgo_storage16backup_schedulerNtB9_16BackupCompressor18compress_directory17add_dir_recursives2_0Bb_
FNDA:0,_RNCNvNvMs0_NtCsd1AkON0xxEy_17sqlrustgo_storage16backup_schedulerNtB9_16BackupCompressor18compress_directory17add_dir_recursives_0Bb_
FNDA:0,_RINvMs0_NtCs9oXD4GUMzTX_17sqlrustgo_storage16backup_schedulerNtB6_16BackupCompressor13compress_filepEB8_
FNDA:0,_RINvMs0_NtCs9oXD4GUMzTX_17sqlrustgo_storage16backup_schedulerNtB6_16BackupCompressor15decompress_filepEB8_
FNDA:0,_RINvMs0_NtCs9oXD4GUMzTX_17sqlrustgo_storage16backup_schedulerNtB6_16BackupCompressor18compress_directorypEB8_
FNDA:0,_RINvMs0_NtCs9oXD4GUMzTX_17sqlrustgo_storage16backup_schedulerNtB6_16BackupCompressor20decompress_directorypEB8_
FNDA:0,_RNCINvMs0_NtCs9oXD4GUMzTX_17sqlrustgo_storage16backup_schedulerNtB8_16BackupCompressor13compress_filepE0Ba_
FNDA:0,_RNCINvMs0_NtCs9oXD4GUMzTX_17sqlrustgo_storage16backup_schedulerNtB8_16BackupCompressor13compress_filepEs0_0Ba_
FNDA:0,_RNCINvMs0_NtCs9oXD4GUMzTX_17sqlrustgo_storage16backup_schedulerNtB8_16BackupCompressor13compress_filepEs1_0Ba_
FNDA:0,_RNCINvMs0_NtCs9oXD4GUMzTX_17sqlrustgo_storage16backup_schedulerNtB8_16BackupCompressor13compress_filepEs2_0Ba_
FNDA:0,_RNCINvMs0_NtCs9oXD4GUMzTX_17sqlrustgo_storage16backup_schedulerNtB8_16BackupCompressor13compress_filepEs3_0Ba_
FNDA:0,_RNCINvMs0_NtCs9oXD4GUMzTX_17sqlrustgo_storage16backup_schedulerNtB8_16BackupCompressor13compress_filepEs_0Ba_
FNDA:0,_RNCINvMs0_NtCs9oXD4GUMzTX_17sqlrustgo_storage16backup_schedulerNtB8_16BackupCompressor15decompress_filepE0Ba_
FNDA:0,_RNCINvMs0_NtCs9oXD4GUMzTX_17sqlrustgo_storage16backup_schedulerNtB8_16BackupCompressor15decompress_filepEs0_0Ba_
FNDA:0,_RNCINvMs0_NtCs9oXD4GUMzTX_17sqlrustgo_storage16backup_schedulerNtB8_16BackupCompressor15decompress_filepEs1_0Ba_
FNDA:0,_RNCINvMs0_NtCs9oXD4GUMzTX_17sqlrustgo_storage16backup_schedulerNtB8_16BackupCompressor15decompress_filepEs2_0Ba_
FNDA:0,_RNCINvMs0_NtCs9oXD4GUMzTX_17sqlrustgo_storage16backup_schedulerNtB8_16BackupCompressor15decompress_filepEs_0Ba_
FNDA:0,_RNCINvMs0_NtCs9oXD4GUMzTX_17sqlrustgo_storage16backup_schedulerNtB8_16BackupCompressor18compress_directorypE0Ba_
FNDA:0,_RNCINvMs0_NtCs9oXD4GUMzTX_17sqlrustgo_storage16backup_schedulerNtB8_16BackupCompressor18compress_directorypEs_0Ba_
FNDA:0,_RNCINvMs0_NtCs9oXD4GUMzTX_17sqlrustgo_storage16backup_schedulerNtB8_16BackupCompressor20decompress_directorypE0Ba_
FNDA:0,_RNCINvMs0_NtCs9oXD4GUMzTX_17sqlrustgo_storage16backup_schedulerNtB8_16BackupCompressor20decompress_directorypEs0_0Ba_
FNDA:0,_RNCINvMs0_NtCs9oXD4GUMzTX_17sqlrustgo_storage16backup_schedulerNtB8_16BackupCompressor20decompress_directorypEs1_0Ba_
FNDA:0,_RNCINvMs0_NtCs9oXD4GUMzTX_17sqlrustgo_storage16backup_schedulerNtB8_16BackupCompressor20decompress_directorypEs2_0Ba_
FNDA:0,_RNCINvMs0_NtCs9oXD4GUMzTX_17sqlrustgo_storage16backup_schedulerNtB8_16BackupCompressor20decompress_directorypEs3_0Ba_
FNDA:0,_RNCINvMs0_NtCs9oXD4GUMzTX_17sqlrustgo_storage16backup_schedulerNtB8_16BackupCompressor20decompress_directorypEs4_0Ba_
FNDA:0,_RNCINvMs0_NtCs9oXD4GUMzTX_17sqlrustgo_storage16backup_schedulerNtB8_16BackupCompressor20decompress_directorypEs5_0Ba_
FNDA:0,_RNCINvMs0_NtCs9oXD4GUMzTX_17sqlrustgo_storage16backup_schedulerNtB8_16BackupCompressor20decompress_directorypEs6_0Ba_
FNDA:0,_RNCINvMs0_NtCs9oXD4GUMzTX_17sqlrustgo_storage16backup_schedulerNtB8_16BackupCompressor20decompress_directorypEs7_0Ba_
FNDA:0,_RNCINvMs0_NtCs9oXD4GUMzTX_17sqlrustgo_storage16backup_schedulerNtB8_16BackupCompressor20decompress_directorypEs_0Ba_
FNDA:0,_RNCNvMs1_NtCs9oXD4GUMzTX_17sqlrustgo_storage16backup_schedulerNtB7_16WalBackupManager17apply_wal_archive0B9_
FNDA:0,_RNCNvMs1_NtCs9oXD4GUMzTX_17sqlrustgo_storage16backup_schedulerNtB7_16WalBackupManager17apply_wal_archives_0B9_
FNDA:0,_RNCNvMs1_NtCs9oXD4GUMzTX_17sqlrustgo_storage16backup_schedulerNtB7_16WalBackupManager17archive_wal_since0B9_
FNDA:0,_RNCNvMs1_NtCs9oXD4GUMzTX_17sqlrustgo_storage16backup_schedulerNtB7_16WalBackupManager17archive_wal_sinces0_0B9_
FNDA:0,_RNCNvMs1_NtCs9oXD4GUMzTX_17sqlrustgo_storage16backup_schedulerNtB7_16WalBackupManager17archive_wal_sinces1_0B9_
FNDA:0,_RNCNvMs1_NtCs9oXD4GUMzTX_17sqlrustgo_storage16backup_schedulerNtB7_16WalBackupManager17archive_wal_sinces2_0B9_
FNDA:0,_RNCNvMs1_NtCs9oXD4GUMzTX_17sqlrustgo_storage16backup_schedulerNtB7_16WalBackupManager17archive_wal_sinces_0B9_
FNDA:0,_RNCNvMs_NtCs9oXD4GUMzTX_17sqlrustgo_storage16backup_schedulerNtB6_15BackupScheduler14read_wal_since0B8_
FNDA:0,_RNCNvMs_NtCs9oXD4GUMzTX_17sqlrustgo_storage16backup_schedulerNtB6_15BackupScheduler17record_backup_run0B8_
FNDA:0,_RNCNvMs_NtCs9oXD4GUMzTX_17sqlrustgo_storage16backup_schedulerNtB6_15BackupScheduler17should_run_backup0B8_
FNDA:0,_RNCNvNvMs0_NtCs9oXD4GUMzTX_17sqlrustgo_storage16backup_schedulerNtB9_16BackupCompressor18compress_directory17add_dir_recursive0Bb_
FNDA:0,_RNCNvNvMs0_NtCs9oXD4GUMzTX_17sqlrustgo_storage16backup_schedulerNtB9_16BackupCompressor18compress_directory17add_dir_recursives0_0Bb_
FNDA:0,_RNCNvNvMs0_NtCs9oXD4GUMzTX_17sqlrustgo_storage16backup_schedulerNtB9_16BackupCompressor18compress_directory17add_dir_recursives1_0Bb_
FNDA:0,_RNCNvNvMs0_NtCs9oXD4GUMzTX_17sqlrustgo_storage16backup_schedulerNtB9_16BackupCompressor18compress_directory17add_dir_recursives2_0Bb_
FNDA:0,_RNCNvNvMs0_NtCs9oXD4GUMzTX_17sqlrustgo_storage16backup_schedulerNtB9_16BackupCompressor18compress_directory17add_dir_recursives_0Bb_
FNDA:0,_RINvMs0_NtCsl9zPO89iGuX_17sqlrustgo_storage16backup_schedulerNtB6_16BackupCompressor13compress_filepEB8_
FNDA:0,_RINvMs0_NtCsl9zPO89iGuX_17sqlrustgo_storage16backup_schedulerNtB6_16BackupCompressor15decompress_filepEB8_
FNDA:0,_RINvMs0_NtCsl9zPO89iGuX_17sqlrustgo_storage16backup_schedulerNtB6_16BackupCompressor18compress_directorypEB8_
FNDA:0,_RINvMs0_NtCsl9zPO89iGuX_17sqlrustgo_storage16backup_schedulerNtB6_16BackupCompressor20decompress_directorypEB8_
FNDA:0,_RNCINvMs0_NtCsl9zPO89iGuX_17sqlrustgo_storage16backup_schedulerNtB8_16BackupCompressor13compress_filepE0Ba_
FNDA:0,_RNCINvMs0_NtCsl9zPO89iGuX_17sqlrustgo_storage16backup_schedulerNtB8_16BackupCompressor13compress_filepEs0_0Ba_
FNDA:0,_RNCINvMs0_NtCsl9zPO89iGuX_17sqlrustgo_storage16backup_schedulerNtB8_16BackupCompressor13compress_filepEs1_0Ba_
FNDA:0,_RNCINvMs0_NtCsl9zPO89iGuX_17sqlrustgo_storage16backup_schedulerNtB8_16BackupCompressor13compress_filepEs2_0Ba_
FNDA:0,_RNCINvMs0_NtCsl9zPO89iGuX_17sqlrustgo_storage16backup_schedulerNtB8_16BackupCompressor13compress_filepEs3_0Ba_
FNDA:0,_RNCINvMs0_NtCsl9zPO89iGuX_17sqlrustgo_storage16backup_schedulerNtB8_16BackupCompressor13compress_filepEs_0Ba_
FNDA:0,_RNCINvMs0_NtCsl9zPO89iGuX_17sqlrustgo_storage16backup_schedulerNtB8_16BackupCompressor15decompress_filepE0Ba_
FNDA:0,_RNCINvMs0_NtCsl9zPO89iGuX_17sqlrustgo_storage16backup_schedulerNtB8_16BackupCompressor15decompress_filepEs0_0Ba_
FNDA:0,_RNCINvMs0_NtCsl9zPO89iGuX_17sqlrustgo_storage16backup_schedulerNtB8_16BackupCompressor15decompress_filepEs1_0Ba_
FNDA:0,_RNCINvMs0_NtCsl9zPO89iGuX_17sqlrustgo_storage16backup_schedulerNtB8_16BackupCompressor15decompress_filepEs2_0Ba_
FNDA:0,_RNCINvMs0_NtCsl9zPO89iGuX_17sqlrustgo_storage16backup_schedulerNtB8_16BackupCompressor15decompress_filepEs_0Ba_
FNDA:0,_RNCINvMs0_NtCsl9zPO89iGuX_17sqlrustgo_storage16backup_schedulerNtB8_16BackupCompressor18compress_directorypE0Ba_
FNDA:0,_RNCINvMs0_NtCsl9zPO89iGuX_17sqlrustgo_storage16backup_schedulerNtB8_16BackupCompressor18compress_directorypEs_0Ba_
FNDA:0,_RNCINvMs0_NtCsl9zPO89iGuX_17sqlrustgo_storage16backup_schedulerNtB8_16BackupCompressor20decompress_directorypE0Ba_
FNDA:0,_RNCINvMs0_NtCsl9zPO89iGuX_17sqlrustgo_storage16backup_schedulerNtB8_16BackupCompressor20decompress_directorypEs0_0Ba_
FNDA:0,_RNCINvMs0_NtCsl9zPO89iGuX_17sqlrustgo_storage16backup_schedulerNtB8_16BackupCompressor20decompress_directorypEs1_0Ba_
FNDA:0,_RNCINvMs0_NtCsl9zPO89iGuX_17sqlrustgo_storage16backup_schedulerNtB8_16BackupCompressor20decompress_directorypEs2_0Ba_
FNDA:0,_RNCINvMs0_NtCsl9zPO89iGuX_17sqlrustgo_storage16backup_schedulerNtB8_16BackupCompressor20decompress_directorypEs3_0Ba_
FNDA:0,_RNCINvMs0_NtCsl9zPO89iGuX_17sqlrustgo_storage16backup_schedulerNtB8_16BackupCompressor20decompress_directorypEs4_0Ba_
FNDA:0,_RNCINvMs0_NtCsl9zPO89iGuX_17sqlrustgo_storage16backup_schedulerNtB8_16BackupCompressor20decompress_directorypEs5_0Ba_
FNDA:0,_RNCINvMs0_NtCsl9zPO89iGuX_17sqlrustgo_storage16backup_schedulerNtB8_16BackupCompressor20decompress_directorypEs6_0Ba_
FNDA:0,_RNCINvMs0_NtCsl9zPO89iGuX_17sqlrustgo_storage16backup_schedulerNtB8_16BackupCompressor20decompress_directorypEs7_0Ba_
FNDA:0,_RNCINvMs0_NtCsl9zPO89iGuX_17sqlrustgo_storage16backup_schedulerNtB8_16BackupCompressor20decompress_directorypEs_0Ba_
FNDA:0,_RNCNvMs1_NtCsl9zPO89iGuX_17sqlrustgo_storage16backup_schedulerNtB7_16WalBackupManager17apply_wal_archive0B9_
FNDA:0,_RNCNvMs1_NtCsl9zPO89iGuX_17sqlrustgo_storage16backup_schedulerNtB7_16WalBackupManager17apply_wal_archives_0B9_
FNDA:0,_RNCNvMs1_NtCsl9zPO89iGuX_17sqlrustgo_storage16backup_schedulerNtB7_16WalBackupManager17archive_wal_since0B9_
FNDA:0,_RNCNvMs1_NtCsl9zPO89iGuX_17sqlrustgo_storage16backup_schedulerNtB7_16WalBackupManager17archive_wal_sinces0_0B9_
FNDA:0,_RNCNvMs1_NtCsl9zPO89iGuX_17sqlrustgo_storage16backup_schedulerNtB7_16WalBackupManager17archive_wal_sinces1_0B9_
FNDA:0,_RNCNvMs1_NtCsl9zPO89iGuX_17sqlrustgo_storage16backup_schedulerNtB7_16WalBackupManager17archive_wal_sinces2_0B9_
FNDA:0,_RNCNvMs1_NtCsl9zPO89iGuX_17sqlrustgo_storage16backup_schedulerNtB7_16WalBackupManager17archive_wal_sinces_0B9_
FNDA:0,_RNCNvMs_NtCsl9zPO89iGuX_17sqlrustgo_storage16backup_schedulerNtB6_15BackupScheduler14read_wal_since0B8_
FNDA:0,_RNCNvMs_NtCsl9zPO89iGuX_17sqlrustgo_storage16backup_schedulerNtB6_15BackupScheduler17record_backup_run0B8_
FNDA:0,_RNCNvMs_NtCsl9zPO89iGuX_17sqlrustgo_storage16backup_schedulerNtB6_15BackupScheduler17should_run_backup0B8_
FNDA:0,_RNCNvNvMs0_NtCsl9zPO89iGuX_17sqlrustgo_storage16backup_schedulerNtB9_16BackupCompressor18compress_directory17add_dir_recursive0Bb_
FNDA:0,_RNCNvNvMs0_NtCsl9zPO89iGuX_17sqlrustgo_storage16backup_schedulerNtB9_16BackupCompressor18compress_directory17add_dir_recursives0_0Bb_
FNDA:0,_RNCNvNvMs0_NtCsl9zPO89iGuX_17sqlrustgo_storage16backup_schedulerNtB9_16BackupCompressor18compress_directory17add_dir_recursives1_0Bb_
FNDA:0,_RNCNvNvMs0_NtCsl9zPO89iGuX_17sqlrustgo_storage16backup_schedulerNtB9_16BackupCompressor18compress_directory17add_dir_recursives2_0Bb_
FNDA:0,_RNCNvNvMs0_NtCsl9zPO89iGuX_17sqlrustgo_storage16backup_schedulerNtB9_16BackupCompressor18compress_directory17add_dir_recursives_0Bb_
FNDA:0,_RINvMs0_NtCsgGnK47HN26N_17sqlrustgo_storage16backup_schedulerNtB6_16BackupCompressor18compress_directorypEB8_
FNDA:0,_RINvMs0_NtCsgGnK47HN26N_17sqlrustgo_storage16backup_schedulerNtB6_16BackupCompressor20decompress_directorypEB8_
FNDA:0,_RNCINvMs0_NtCsgGnK47HN26N_17sqlrustgo_storage16backup_schedulerNtB8_16BackupCompressor18compress_directorypE0Ba_
FNDA:0,_RNCINvMs0_NtCsgGnK47HN26N_17sqlrustgo_storage16backup_schedulerNtB8_16BackupCompressor18compress_directorypEs_0Ba_
FNDA:0,_RNCINvMs0_NtCsgGnK47HN26N_17sqlrustgo_storage16backup_schedulerNtB8_16BackupCompressor20decompress_directorypE0Ba_
FNDA:0,_RNCINvMs0_NtCsgGnK47HN26N_17sqlrustgo_storage16backup_schedulerNtB8_16BackupCompressor20decompress_directorypEs0_0Ba_
FNDA:0,_RNCINvMs0_NtCsgGnK47HN26N_17sqlrustgo_storage16backup_schedulerNtB8_16BackupCompressor20decompress_directorypEs1_0Ba_
FNDA:0,_RNCINvMs0_NtCsgGnK47HN26N_17sqlrustgo_storage16backup_schedulerNtB8_16BackupCompressor20decompress_directorypEs2_0Ba_
FNDA:0,_RNCINvMs0_NtCsgGnK47HN26N_17sqlrustgo_storage16backup_schedulerNtB8_16BackupCompressor20decompress_directorypEs3_0Ba_
FNDA:0,_RNCINvMs0_NtCsgGnK47HN26N_17sqlrustgo_storage16backup_schedulerNtB8_16BackupCompressor20decompress_directorypEs4_0Ba_
FNDA:0,_RNCINvMs0_NtCsgGnK47HN26N_17sqlrustgo_storage16backup_schedulerNtB8_16BackupCompressor20decompress_directorypEs5_0Ba_
FNDA:0,_RNCINvMs0_NtCsgGnK47HN26N_17sqlrustgo_storage16backup_schedulerNtB8_16BackupCompressor20decompress_directorypEs6_0Ba_
FNDA:0,_RNCINvMs0_NtCsgGnK47HN26N_17sqlrustgo_storage16backup_schedulerNtB8_16BackupCompressor20decompress_directorypEs7_0Ba_
FNDA:0,_RNCINvMs0_NtCsgGnK47HN26N_17sqlrustgo_storage16backup_schedulerNtB8_16BackupCompressor20decompress_directorypEs_0Ba_
FNDA:0,_RNCNvMs1_NtCsgGnK47HN26N_17sqlrustgo_storage16backup_schedulerNtB7_16WalBackupManager17apply_wal_archive0B9_
FNDA:0,_RNCNvMs1_NtCsgGnK47HN26N_17sqlrustgo_storage16backup_schedulerNtB7_16WalBackupManager17apply_wal_archives_0B9_
FNDA:0,_RNCNvMs1_NtCsgGnK47HN26N_17sqlrustgo_storage16backup_schedulerNtB7_16WalBackupManager17archive_wal_since0B9_
FNDA:0,_RNCNvMs1_NtCsgGnK47HN26N_17sqlrustgo_storage16backup_schedulerNtB7_16WalBackupManager17archive_wal_sinces0_0B9_
FNDA:0,_RNCNvMs1_NtCsgGnK47HN26N_17sqlrustgo_storage16backup_schedulerNtB7_16WalBackupManager17archive_wal_sinces1_0B9_
FNDA:0,_RNCNvMs1_NtCsgGnK47HN26N_17sqlrustgo_storage16backup_schedulerNtB7_16WalBackupManager17archive_wal_sinces2_0B9_
FNDA:0,_RNCNvMs1_NtCsgGnK47HN26N_17sqlrustgo_storage16backup_schedulerNtB7_16WalBackupManager17archive_wal_sinces_0B9_
FNDA:0,_RNCNvMs_NtCsgGnK47HN26N_17sqlrustgo_storage16backup_schedulerNtB6_15BackupScheduler14read_wal_since0B8_
FNDA:0,_RNCNvMs_NtCsgGnK47HN26N_17sqlrustgo_storage16backup_schedulerNtB6_15BackupScheduler17record_backup_run0B8_
FNDA:0,_RNCNvMs_NtCsgGnK47HN26N_17sqlrustgo_storage16backup_schedulerNtB6_15BackupScheduler17should_run_backup0B8_
FNDA:0,_RNCNvNvMs0_NtCsgGnK47HN26N_17sqlrustgo_storage16backup_schedulerNtB9_16BackupCompressor18compress_directory17add_dir_recursive0Bb_
FNDA:0,_RNCNvNvMs0_NtCsgGnK47HN26N_17sqlrustgo_storage16backup_schedulerNtB9_16BackupCompressor18compress_directory17add_dir_recursives0_0Bb_
FNDA:0,_RNCNvNvMs0_NtCsgGnK47HN26N_17sqlrustgo_storage16backup_schedulerNtB9_16BackupCompressor18compress_directory17add_dir_recursives1_0Bb_
FNDA:0,_RNCNvNvMs0_NtCsgGnK47HN26N_17sqlrustgo_storage16backup_schedulerNtB9_16BackupCompressor18compress_directory17add_dir_recursives2_0Bb_
FNDA:0,_RNCNvNvMs0_NtCsgGnK47HN26N_17sqlrustgo_storage16backup_schedulerNtB9_16BackupCompressor18compress_directory17add_dir_recursives_0Bb_
FNDA:0,_RNvMs1_NtCsgGnK47HN26N_17sqlrustgo_storage16backup_schedulerNtB5_16WalBackupManager17apply_wal_archive
FNDA:0,_RNvMs1_NtCsgGnK47HN26N_17sqlrustgo_storage16backup_schedulerNtB5_16WalBackupManager17archive_wal_since
FNDA:0,_RNvMs_NtCsgGnK47HN26N_17sqlrustgo_storage16backup_schedulerNtB4_15BackupScheduler12get_schedule
FNDA:0,_RNvMs_NtCsgGnK47HN26N_17sqlrustgo_storage16backup_schedulerNtB4_15BackupScheduler13with_schedule
FNDA:0,_RNvMs_NtCsgGnK47HN26N_17sqlrustgo_storage16backup_schedulerNtB4_15BackupScheduler14read_wal_since
FNDA:0,_RNvMs_NtCsgGnK47HN26N_17sqlrustgo_storage16backup_schedulerNtB4_15BackupScheduler15update_schedule
FNDA:0,_RNvMs_NtCsgGnK47HN26N_17sqlrustgo_storage16backup_schedulerNtB4_15BackupScheduler17record_backup_run
FNDA:0,_RNvMs_NtCsgGnK47HN26N_17sqlrustgo_storage16backup_schedulerNtB4_15BackupScheduler17should_run_backup
FNDA:0,_RNvMs_NtCsgGnK47HN26N_17sqlrustgo_storage16backup_schedulerNtB4_15BackupScheduler19cleanup_old_backups
FNDA:0,_RNvMs_NtCsgGnK47HN26N_17sqlrustgo_storage16backup_schedulerNtB4_15BackupScheduler20get_backup_directory
FNDA:0,_RNvMs_NtCsgGnK47HN26N_17sqlrustgo_storage16backup_schedulerNtB4_15BackupScheduler25create_incremental_backup
FNDA:0,_RNvMs_NtCsgGnK47HN26N_17sqlrustgo_storage16backup_schedulerNtB4_15BackupScheduler4stop
FNDA:0,_RNvMs_NtCsgGnK47HN26N_17sqlrustgo_storage16backup_schedulerNtB4_15BackupScheduler5start
FNDA:0,_RNvNvMs0_NtCsgGnK47HN26N_17sqlrustgo_storage16backup_schedulerNtB7_16BackupCompressor18compress_directory17add_dir_recursive
FNDA:1,_RINvMs0_NtCsgGnK47HN26N_17sqlrustgo_storage16backup_schedulerNtB6_16BackupCompressor13compress_fileRNtNtCsicaZO8UCM9y_3std4path7PathBufEB8_
FNDA:1,_RINvMs0_NtCsgGnK47HN26N_17sqlrustgo_storage16backup_schedulerNtB6_16BackupCompressor15decompress_fileRNtNtCsicaZO8UCM9y_3std4path7PathBufEB8_
FNDA:0,_RNCINvMs0_NtCsgGnK47HN26N_17sqlrustgo_storage16backup_schedulerNtB8_16BackupCompressor13compress_fileRNtNtCsicaZO8UCM9y_3std4path7PathBufE0Ba_
FNDA:0,_RNCINvMs0_NtCsgGnK47HN26N_17sqlrustgo_storage16backup_schedulerNtB8_16BackupCompressor13compress_fileRNtNtCsicaZO8UCM9y_3std4path7PathBufEs0_0Ba_
FNDA:0,_RNCINvMs0_NtCsgGnK47HN26N_17sqlrustgo_storage16backup_schedulerNtB8_16BackupCompressor13compress_fileRNtNtCsicaZO8UCM9y_3std4path7PathBufEs1_0Ba_
FNDA:0,_RNCINvMs0_NtCsgGnK47HN26N_17sqlrustgo_storage16backup_schedulerNtB8_16BackupCompressor13compress_fileRNtNtCsicaZO8UCM9y_3std4path7PathBufEs2_0Ba_
FNDA:0,_RNCINvMs0_NtCsgGnK47HN26N_17sqlrustgo_storage16backup_schedulerNtB8_16BackupCompressor13compress_fileRNtNtCsicaZO8UCM9y_3std4path7PathBufEs3_0Ba_
FNDA:0,_RNCINvMs0_NtCsgGnK47HN26N_17sqlrustgo_storage16backup_schedulerNtB8_16BackupCompressor13compress_fileRNtNtCsicaZO8UCM9y_3std4path7PathBufEs_0Ba_
FNDA:0,_RNCINvMs0_NtCsgGnK47HN26N_17sqlrustgo_storage16backup_schedulerNtB8_16BackupCompressor15decompress_fileRNtNtCsicaZO8UCM9y_3std4path7PathBufE0Ba_
FNDA:0,_RNCINvMs0_NtCsgGnK47HN26N_17sqlrustgo_storage16backup_schedulerNtB8_16BackupCompressor15decompress_fileRNtNtCsicaZO8UCM9y_3std4path7PathBufEs0_0Ba_
FNDA:0,_RNCINvMs0_NtCsgGnK47HN26N_17sqlrustgo_storage16backup_schedulerNtB8_16BackupCompressor15decompress_fileRNtNtCsicaZO8UCM9y_3std4path7PathBufEs1_0Ba_
FNDA:0,_RNCINvMs0_NtCsgGnK47HN26N_17sqlrustgo_storage16backup_schedulerNtB8_16BackupCompressor15decompress_fileRNtNtCsicaZO8UCM9y_3std4path7PathBufEs2_0Ba_
FNDA:0,_RNCINvMs0_NtCsgGnK47HN26N_17sqlrustgo_storage16backup_schedulerNtB8_16BackupCompressor15decompress_fileRNtNtCsicaZO8UCM9y_3std4path7PathBufEs_0Ba_
FNDA:1,_RNvNtNtCsgGnK47HN26N_17sqlrustgo_storage16backup_scheduler5testss_25test_backup_scheduler_lsn
FNDA:1,_RNvNtNtCsgGnK47HN26N_17sqlrustgo_storage16backup_scheduler5testss_28test_backup_schedule_default
FNDA:1,_RNvNtNtCsgGnK47HN26N_17sqlrustgo_storage16backup_scheduler5testss_30test_backup_scheduler_creation
FNDA:1,_RNvNtNtCsgGnK47HN26N_17sqlrustgo_storage16backup_scheduler5testss_32test_wal_backup_manager_creation
FNDA:1,_RNvNtNtCsgGnK47HN26N_17sqlrustgo_storage16backup_scheduler5testss_35test_wal_backup_manager_set_min_lsn
FNDA:1,_RNvNtNtCsgGnK47HN26N_17sqlrustgo_storage16backup_scheduler5testss_39test_backup_schedule_type_serialization
FNDA:1,_RNvNtNtCsgGnK47HN26N_17sqlrustgo_storage16backup_scheduler5testss_42test_backup_compressor_compress_decompress
FNDA:1,_RNvNtNtCsgGnK47HN26N_17sqlrustgo_storage16backup_scheduler5testss_43test_incremental_backup_point_serialization
FNDA:2,_RNvMs1_NtCsgGnK47HN26N_17sqlrustgo_storage16backup_schedulerNtB5_16WalBackupManager11get_min_lsn
FNDA:1,_RNvMs1_NtCsgGnK47HN26N_17sqlrustgo_storage16backup_schedulerNtB5_16WalBackupManager11set_min_lsn
FNDA:2,_RNvMs1_NtCsgGnK47HN26N_17sqlrustgo_storage16backup_schedulerNtB5_16WalBackupManager3new
FNDA:1,_RNvMs_NtCsgGnK47HN26N_17sqlrustgo_storage16backup_schedulerNtB4_15BackupScheduler10is_running
FNDA:1,_RNvMs_NtCsgGnK47HN26N_17sqlrustgo_storage16backup_schedulerNtB4_15BackupScheduler15get_current_lsn
FNDA:1,_RNvMs_NtCsgGnK47HN26N_17sqlrustgo_storage16backup_schedulerNtB4_15BackupScheduler15set_current_lsn
FNDA:2,_RNvMs_NtCsgGnK47HN26N_17sqlrustgo_storage16backup_schedulerNtB4_15BackupScheduler3new
FNDA:3,_RNvXNtCsgGnK47HN26N_17sqlrustgo_storage16backup_schedulerNtB2_14BackupScheduleNtNtCs8nPosuWgJFh_4core7default7Default7default
FNDA:0,_RNCNvMs1_NtCs2l7roSUS7lg_17sqlrustgo_storage16backup_schedulerNtB7_16WalBackupManager17apply_wal_archive0B9_
FNDA:0,_RNCNvMs1_NtCs2l7roSUS7lg_17sqlrustgo_storage16backup_schedulerNtB7_16WalBackupManager17apply_wal_archives_0B9_
FNDA:0,_RNCNvMs1_NtCs2l7roSUS7lg_17sqlrustgo_storage16backup_schedulerNtB7_16WalBackupManager17archive_wal_since0B9_
FNDA:0,_RNCNvMs1_NtCs2l7roSUS7lg_17sqlrustgo_storage16backup_schedulerNtB7_16WalBackupManager17archive_wal_sinces0_0B9_
FNDA:0,_RNCNvMs1_NtCs2l7roSUS7lg_17sqlrustgo_storage16backup_schedulerNtB7_16WalBackupManager17archive_wal_sinces1_0B9_
FNDA:0,_RNCNvMs1_NtCs2l7roSUS7lg_17sqlrustgo_storage16backup_schedulerNtB7_16WalBackupManager17archive_wal_sinces2_0B9_
FNDA:0,_RNCNvMs1_NtCs2l7roSUS7lg_17sqlrustgo_storage16backup_schedulerNtB7_16WalBackupManager17archive_wal_sinces_0B9_
FNDA:0,_RNCNvMs_NtCs2l7roSUS7lg_17sqlrustgo_storage16backup_schedulerNtB6_15BackupScheduler14read_wal_since0B8_
FNDA:0,_RNCNvMs_NtCs2l7roSUS7lg_17sqlrustgo_storage16backup_schedulerNtB6_15BackupScheduler17record_backup_run0B8_
FNDA:0,_RNCNvMs_NtCs2l7roSUS7lg_17sqlrustgo_storage16backup_schedulerNtB6_15BackupScheduler17should_run_backup0B8_
FNDA:0,_RNCNvNvMs0_NtCs2l7roSUS7lg_17sqlrustgo_storage16backup_schedulerNtB9_16BackupCompressor18compress_directory17add_dir_recursive0Bb_
FNDA:0,_RNCNvNvMs0_NtCs2l7roSUS7lg_17sqlrustgo_storage16backup_schedulerNtB9_16BackupCompressor18compress_directory17add_dir_recursives0_0Bb_
FNDA:0,_RNCNvNvMs0_NtCs2l7roSUS7lg_17sqlrustgo_storage16backup_schedulerNtB9_16BackupCompressor18compress_directory17add_dir_recursives1_0Bb_
FNDA:0,_RNCNvNvMs0_NtCs2l7roSUS7lg_17sqlrustgo_storage16backup_schedulerNtB9_16BackupCompressor18compress_directory17add_dir_recursives2_0Bb_
FNDA:0,_RNCNvNvMs0_NtCs2l7roSUS7lg_17sqlrustgo_storage16backup_schedulerNtB9_16BackupCompressor18compress_directory17add_dir_recursives_0Bb_
FNDA:0,_RINvMs0_NtCs2l7roSUS7lg_17sqlrustgo_storage16backup_schedulerNtB6_16BackupCompressor13compress_filepEB8_
FNDA:0,_RINvMs0_NtCs2l7roSUS7lg_17sqlrustgo_storage16backup_schedulerNtB6_16BackupCompressor15decompress_filepEB8_
FNDA:0,_RINvMs0_NtCs2l7roSUS7lg_17sqlrustgo_storage16backup_schedulerNtB6_16BackupCompressor18compress_directorypEB8_
FNDA:0,_RINvMs0_NtCs2l7roSUS7lg_17sqlrustgo_storage16backup_schedulerNtB6_16BackupCompressor20decompress_directorypEB8_
FNDA:0,_RNCINvMs0_NtCs2l7roSUS7lg_17sqlrustgo_storage16backup_schedulerNtB8_16BackupCompressor13compress_filepE0Ba_
FNDA:0,_RNCINvMs0_NtCs2l7roSUS7lg_17sqlrustgo_storage16backup_schedulerNtB8_16BackupCompressor13compress_filepEs0_0Ba_
FNDA:0,_RNCINvMs0_NtCs2l7roSUS7lg_17sqlrustgo_storage16backup_schedulerNtB8_16BackupCompressor13compress_filepEs1_0Ba_
FNDA:0,_RNCINvMs0_NtCs2l7roSUS7lg_17sqlrustgo_storage16backup_schedulerNtB8_16BackupCompressor13compress_filepEs2_0Ba_
FNDA:0,_RNCINvMs0_NtCs2l7roSUS7lg_17sqlrustgo_storage16backup_schedulerNtB8_16BackupCompressor13compress_filepEs3_0Ba_
FNDA:0,_RNCINvMs0_NtCs2l7roSUS7lg_17sqlrustgo_storage16backup_schedulerNtB8_16BackupCompressor13compress_filepEs_0Ba_
FNDA:0,_RNCINvMs0_NtCs2l7roSUS7lg_17sqlrustgo_storage16backup_schedulerNtB8_16BackupCompressor15decompress_filepE0Ba_
FNDA:0,_RNCINvMs0_NtCs2l7roSUS7lg_17sqlrustgo_storage16backup_schedulerNtB8_16BackupCompressor15decompress_filepEs0_0Ba_
FNDA:0,_RNCINvMs0_NtCs2l7roSUS7lg_17sqlrustgo_storage16backup_schedulerNtB8_16BackupCompressor15decompress_filepEs1_0Ba_
FNDA:0,_RNCINvMs0_NtCs2l7roSUS7lg_17sqlrustgo_storage16backup_schedulerNtB8_16BackupCompressor15decompress_filepEs2_0Ba_
FNDA:0,_RNCINvMs0_NtCs2l7roSUS7lg_17sqlrustgo_storage16backup_schedulerNtB8_16BackupCompressor15decompress_filepEs_0Ba_
FNDA:0,_RNCINvMs0_NtCs2l7roSUS7lg_17sqlrustgo_storage16backup_schedulerNtB8_16BackupCompressor18compress_directorypE0Ba_
FNDA:0,_RNCINvMs0_NtCs2l7roSUS7lg_17sqlrustgo_storage16backup_schedulerNtB8_16BackupCompressor18compress_directorypEs_0Ba_
FNDA:0,_RNCINvMs0_NtCs2l7roSUS7lg_17sqlrustgo_storage16backup_schedulerNtB8_16BackupCompressor20decompress_directorypE0Ba_
FNDA:0,_RNCINvMs0_NtCs2l7roSUS7lg_17sqlrustgo_storage16backup_schedulerNtB8_16BackupCompressor20decompress_directorypEs0_0Ba_
FNDA:0,_RNCINvMs0_NtCs2l7roSUS7lg_17sqlrustgo_storage16backup_schedulerNtB8_16BackupCompressor20decompress_directorypEs1_0Ba_
FNDA:0,_RNCINvMs0_NtCs2l7roSUS7lg_17sqlrustgo_storage16backup_schedulerNtB8_16BackupCompressor20decompress_directorypEs2_0Ba_
FNDA:0,_RNCINvMs0_NtCs2l7roSUS7lg_17sqlrustgo_storage16backup_schedulerNtB8_16BackupCompressor20decompress_directorypEs3_0Ba_
FNDA:0,_RNCINvMs0_NtCs2l7roSUS7lg_17sqlrustgo_storage16backup_schedulerNtB8_16BackupCompressor20decompress_directorypEs4_0Ba_
FNDA:0,_RNCINvMs0_NtCs2l7roSUS7lg_17sqlrustgo_storage16backup_schedulerNtB8_16BackupCompressor20decompress_directorypEs5_0Ba_
FNDA:0,_RNCINvMs0_NtCs2l7roSUS7lg_17sqlrustgo_storage16backup_schedulerNtB8_16BackupCompressor20decompress_directorypEs6_0Ba_
FNDA:0,_RNCINvMs0_NtCs2l7roSUS7lg_17sqlrustgo_storage16backup_schedulerNtB8_16BackupCompressor20decompress_directorypEs7_0Ba_
FNDA:0,_RNCINvMs0_NtCs2l7roSUS7lg_17sqlrustgo_storage16backup_schedulerNtB8_16BackupCompressor20decompress_directorypEs_0Ba_
FNF:72
FNH:18
DA:35,3
DA:36,3
DA:37,3
DA:38,3
DA:39,3
DA:40,3
DA:41,3
DA:42,3
DA:62,2
DA:63,2
DA:64,2
DA:65,2
DA:66,2
DA:67,2
DA:68,2
DA:69,2
DA:70,2
DA:71,2
DA:73,0
DA:74,0
DA:75,0
DA:76,0
DA:78,0
DA:79,0
DA:80,0
DA:82,0
DA:83,0
DA:84,0
DA:86,0
DA:87,0
DA:88,0
DA:90,0
DA:91,0
DA:92,0
DA:94,1
DA:95,1
DA:96,1
DA:98,0
DA:99,0
DA:100,0
DA:101,0
DA:103,0
DA:104,0
DA:105,0
DA:106,0
DA:108,0
DA:109,0
DA:110,0
DA:111,0
DA:112,0
DA:113,0
DA:115,0
DA:118,0
DA:119,0
DA:120,0
DA:121,0
DA:124,0
DA:125,0
DA:127,0
DA:128,0
DA:129,0
DA:130,0
DA:131,0
DA:133,0
DA:134,0
DA:135,0
DA:137,0
DA:138,0
DA:139,0
DA:141,0
DA:142,0
DA:143,0
DA:144,0
DA:146,0
DA:147,0
DA:148,0
DA:149,0
DA:150,0
DA:152,0
DA:154,0
DA:155,0
DA:156,0
DA:158,0
DA:159,0
DA:160,0
DA:161,0
DA:162,0
DA:164,0
DA:165,0
DA:166,0
DA:167,0
DA:168,0
DA:169,0
DA:170,0
DA:173,0
DA:174,0
DA:176,1
DA:177,1
DA:178,1
DA:180,1
DA:181,1
DA:182,1
DA:184,0
DA:185,0
DA:186,0
DA:187,0
DA:188,0
DA:190,0
DA:191,0
DA:192,0
DA:193,0
DA:194,0
DA:196,0
DA:197,0
DA:199,0
DA:200,0
DA:201,0
DA:202,0
DA:204,0
DA:206,0
DA:207,0
DA:208,0
DA:209,0
DA:210,0
DA:211,0
DA:212,0
DA:213,0
DA:214,0
DA:220,1
DA:221,1
DA:222,1
DA:224,1
DA:225,1
DA:227,1
DA:228,1
DA:230,1
DA:231,1
DA:232,1
DA:234,1
DA:236,2
DA:237,2
DA:238,2
DA:239,2
DA:240,1
DA:241,1
DA:242,1
DA:243,1
DA:244,1
DA:245,1
DA:248,1
DA:249,1
DA:250,1
DA:251,1
DA:252,1
DA:253,1
DA:255,1
DA:256,1
DA:258,1
DA:259,1
DA:260,1
DA:262,1
DA:263,1
DA:265,1
DA:266,1
DA:268,1
DA:269,1
DA:271,1
DA:273,2
DA:274,2
DA:275,2
DA:276,2
DA:277,1
DA:278,1
DA:279,1
DA:280,1
DA:281,1
DA:282,1
DA:285,1
DA:286,1
DA:287,1
DA:289,1
DA:290,1
DA:292,0
DA:293,0
DA:294,0
DA:296,0
DA:297,0
DA:298,0
DA:300,0
DA:301,0
DA:302,0
DA:303,0
DA:304,0
DA:305,0
DA:307,0
DA:308,0
DA:309,0
DA:310,0
DA:312,0
DA:313,0
DA:314,0
DA:315,0
DA:316,0
DA:319,0
DA:320,0
DA:321,0
DA:322,0
DA:323,0
DA:324,0
DA:325,0
DA:328,0
DA:329,0
DA:330,0
DA:331,0
DA:332,0
DA:333,0
DA:334,0
DA:337,0
DA:338,0
DA:340,0
DA:341,0
DA:342,0
DA:343,0
DA:345,0
DA:346,0
DA:348,0
DA:349,0
DA:350,0
DA:352,0
DA:353,0
DA:354,0
DA:356,0
DA:358,0
DA:359,0
DA:360,0
DA:361,0
DA:363,0
DA:364,0
DA:365,0
DA:367,0
DA:368,0
DA:369,0
DA:371,0
DA:372,0
DA:374,0
DA:375,0
DA:376,0
DA:378,0
DA:379,0
DA:380,0
DA:381,0
DA:382,0
DA:383,0
DA:384,0
DA:385,0
DA:386,0
DA:387,0
DA:392,0
DA:393,0
DA:402,2
DA:403,2
DA:404,2
DA:405,2
DA:406,2
DA:407,2
DA:409,1
DA:410,1
DA:411,1
DA:413,2
DA:414,2
DA:415,2
DA:417,0
DA:418,0
DA:419,0
DA:420,0
DA:421,0
DA:423,0
DA:424,0
DA:425,0
DA:426,0
DA:428,0
DA:429,0
DA:430,0
DA:432,0
DA:433,0
DA:434,0
DA:435,0
DA:436,0
DA:437,0
DA:438,0
DA:439,0
DA:440,0
DA:443,0
DA:444,0
DA:445,0
DA:447,0
DA:448,0
DA:450,0
DA:451,0
DA:452,0
DA:453,0
DA:455,0
DA:456,0
DA:457,0
DA:460,0
DA:461,0
DA:462,0
DA:463,0
DA:464,0
DA:467,0
DA:468,0
DA:469,0
DA:470,0
DA:471,0
DA:473,0
DA:474,0
DA:475,0
DA:478,0
DA:479,0
DA:488,1
DA:489,1
DA:490,1
DA:491,1
DA:492,1
DA:493,1
DA:494,1
DA:497,1
DA:498,1
DA:499,1
DA:500,1
DA:501,1
DA:503,1
DA:504,1
DA:507,1
DA:508,1
DA:509,1
DA:510,1
DA:511,1
DA:513,1
DA:514,1
DA:515,1
DA:518,1
DA:519,1
DA:520,1
DA:521,1
DA:522,1
DA:524,1
DA:525,1
DA:528,1
DA:530,1
DA:531,1
DA:533,1
DA:534,1
DA:536,1
DA:538,1
DA:539,1
DA:540,1
DA:541,1
DA:544,1
DA:545,1
DA:546,1
DA:547,1
DA:550,1
DA:551,1
DA:552,1
DA:553,1
DA:554,1
DA:557,1
DA:558,1
DA:559,1
DA:560,1
DA:562,1
DA:563,1
DA:564,1
DA:565,1
DA:568,1
DA:569,1
DA:570,1
DA:571,1
DA:572,1
DA:573,1
DA:575,1
DA:576,1
DA:578,1
DA:579,1
DA:580,1
DA:581,1
BRF:0
BRH:0
LF:425
LH:161
end_of_record
SF:/home/openclaw/dev/yinglichina8848/sqlrustgo/crates/storage/src/backup_storage.rs
FN:117,_RNCNvNtCs38XCG6692bz_17sqlrustgo_storage14backup_storage7walkdir0B5_
FN:103,_RNCNvXs0_NtCs38XCG6692bz_17sqlrustgo_storage14backup_storageNtB7_18LocalBackupStorageNtB7_13BackupStorage4list0B9_
FN:81,_RNCNvXs0_NtCs38XCG6692bz_17sqlrustgo_storage14backup_storageNtB7_18LocalBackupStorageNtB7_13BackupStorage4load0B9_
FN:73,_RNCNvXs0_NtCs38XCG6692bz_17sqlrustgo_storage14backup_storageNtB7_18LocalBackupStorageNtB7_13BackupStorage4save0B9_
FN:75,_RNCNvXs0_NtCs38XCG6692bz_17sqlrustgo_storage14backup_storageNtB7_18LocalBackupStorageNtB7_13BackupStorage4saves_0B9_
FN:86,_RNCNvXs0_NtCs38XCG6692bz_17sqlrustgo_storage14backup_storageNtB7_18LocalBackupStorageNtB7_13BackupStorage6delete0B9_
FN:247,_RNCNvXs2_NtCs38XCG6692bz_17sqlrustgo_storage14backup_storageNtB7_19RemoteBackupStorageNtB7_13BackupStorage4list0B9_
FN:252,_RNCNvXs2_NtCs38XCG6692bz_17sqlrustgo_storage14backup_storageNtB7_19RemoteBackupStorageNtB7_13BackupStorage4lists_0B9_
FN:189,_RNCNvXs2_NtCs38XCG6692bz_17sqlrustgo_storage14backup_storageNtB7_19RemoteBackupStorageNtB7_13BackupStorage4load0B9_
FN:195,_RNCNvXs2_NtCs38XCG6692bz_17sqlrustgo_storage14backup_storageNtB7_19RemoteBackupStorageNtB7_13BackupStorage4loads0_0B9_
FN:194,_RNCNvXs2_NtCs38XCG6692bz_17sqlrustgo_storage14backup_storageNtB7_19RemoteBackupStorageNtB7_13BackupStorage4loads_0B9_
FN:170,_RNCNvXs2_NtCs38XCG6692bz_17sqlrustgo_storage14backup_storageNtB7_19RemoteBackupStorageNtB7_13BackupStorage4save0B9_
FN:211,_RNCNvXs2_NtCs38XCG6692bz_17sqlrustgo_storage14backup_storageNtB7_19RemoteBackupStorageNtB7_13BackupStorage6delete0B9_
FN:230,_RNCNvXs2_NtCs38XCG6692bz_17sqlrustgo_storage14backup_storageNtB7_19RemoteBackupStorageNtB7_13BackupStorage6exists0B9_
FN:117,_RNCNvNtCs1u7In8Za3Xp_17sqlrustgo_storage14backup_storage7walkdir0B5_
FN:103,_RNCNvXs0_NtCs1u7In8Za3Xp_17sqlrustgo_storage14backup_storageNtB7_18LocalBackupStorageNtB7_13BackupStorage4list0B9_
FN:81,_RNCNvXs0_NtCs1u7In8Za3Xp_17sqlrustgo_storage14backup_storageNtB7_18LocalBackupStorageNtB7_13BackupStorage4load0B9_
FN:73,_RNCNvXs0_NtCs1u7In8Za3Xp_17sqlrustgo_storage14backup_storageNtB7_18LocalBackupStorageNtB7_13BackupStorage4save0B9_
FN:75,_RNCNvXs0_NtCs1u7In8Za3Xp_17sqlrustgo_storage14backup_storageNtB7_18LocalBackupStorageNtB7_13BackupStorage4saves_0B9_
FN:86,_RNCNvXs0_NtCs1u7In8Za3Xp_17sqlrustgo_storage14backup_storageNtB7_18LocalBackupStorageNtB7_13BackupStorage6delete0B9_
FN:247,_RNCNvXs2_NtCs1u7In8Za3Xp_17sqlrustgo_storage14backup_storageNtB7_19RemoteBackupStorageNtB7_13BackupStorage4list0B9_
FN:252,_RNCNvXs2_NtCs1u7In8Za3Xp_17sqlrustgo_storage14backup_storageNtB7_19RemoteBackupStorageNtB7_13BackupStorage4lists_0B9_
FN:189,_RNCNvXs2_NtCs1u7In8Za3Xp_17sqlrustgo_storage14backup_storageNtB7_19RemoteBackupStorageNtB7_13BackupStorage4load0B9_
FN:195,_RNCNvXs2_NtCs1u7In8Za3Xp_17sqlrustgo_storage14backup_storageNtB7_19RemoteBackupStorageNtB7_13BackupStorage4loads0_0B9_
FN:194,_RNCNvXs2_NtCs1u7In8Za3Xp_17sqlrustgo_storage14backup_storageNtB7_19RemoteBackupStorageNtB7_13BackupStorage4loads_0B9_
FN:170,_RNCNvXs2_NtCs1u7In8Za3Xp_17sqlrustgo_storage14backup_storageNtB7_19RemoteBackupStorageNtB7_13BackupStorage4save0B9_
FN:211,_RNCNvXs2_NtCs1u7In8Za3Xp_17sqlrustgo_storage14backup_storageNtB7_19RemoteBackupStorageNtB7_13BackupStorage6delete0B9_
FN:230,_RNCNvXs2_NtCs1u7In8Za3Xp_17sqlrustgo_storage14backup_storageNtB7_19RemoteBackupStorageNtB7_13BackupStorage6exists0B9_
FN:117,_RNCNvNtCsd1AkON0xxEy_17sqlrustgo_storage14backup_storage7walkdir0B5_
FN:103,_RNCNvXs0_NtCsd1AkON0xxEy_17sqlrustgo_storage14backup_storageNtB7_18LocalBackupStorageNtB7_13BackupStorage4list0B9_
FN:81,_RNCNvXs0_NtCsd1AkON0xxEy_17sqlrustgo_storage14backup_storageNtB7_18LocalBackupStorageNtB7_13BackupStorage4load0B9_
FN:73,_RNCNvXs0_NtCsd1AkON0xxEy_17sqlrustgo_storage14backup_storageNtB7_18LocalBackupStorageNtB7_13BackupStorage4save0B9_
FN:75,_RNCNvXs0_NtCsd1AkON0xxEy_17sqlrustgo_storage14backup_storageNtB7_18LocalBackupStorageNtB7_13BackupStorage4saves_0B9_
FN:86,_RNCNvXs0_NtCsd1AkON0xxEy_17sqlrustgo_storage14backup_storageNtB7_18LocalBackupStorageNtB7_13BackupStorage6delete0B9_
FN:247,_RNCNvXs2_NtCsd1AkON0xxEy_17sqlrustgo_storage14backup_storageNtB7_19RemoteBackupStorageNtB7_13BackupStorage4list0B9_
FN:252,_RNCNvXs2_NtCsd1AkON0xxEy_17sqlrustgo_storage14backup_storageNtB7_19RemoteBackupStorageNtB7_13BackupStorage4lists_0B9_
FN:189,_RNCNvXs2_NtCsd1AkON0xxEy_17sqlrustgo_storage14backup_storageNtB7_19RemoteBackupStorageNtB7_13BackupStorage4load0B9_
FN:195,_RNCNvXs2_NtCsd1AkON0xxEy_17sqlrustgo_storage14backup_storageNtB7_19RemoteBackupStorageNtB7_13BackupStorage4loads0_0B9_
FN:194,_RNCNvXs2_NtCsd1AkON0xxEy_17sqlrustgo_storage14backup_storageNtB7_19RemoteBackupStorageNtB7_13BackupStorage4loads_0B9_
FN:170,_RNCNvXs2_NtCsd1AkON0xxEy_17sqlrustgo_storage14backup_storageNtB7_19RemoteBackupStorageNtB7_13BackupStorage4save0B9_
FN:211,_RNCNvXs2_NtCsd1AkON0xxEy_17sqlrustgo_storage14backup_storageNtB7_19RemoteBackupStorageNtB7_13BackupStorage6delete0B9_
FN:230,_RNCNvXs2_NtCsd1AkON0xxEy_17sqlrustgo_storage14backup_storageNtB7_19RemoteBackupStorageNtB7_13BackupStorage6exists0B9_
FN:117,_RNCNvNtCs9oXD4GUMzTX_17sqlrustgo_storage14backup_storage7walkdir0B5_
FN:103,_RNCNvXs0_NtCs9oXD4GUMzTX_17sqlrustgo_storage14backup_storageNtB7_18LocalBackupStorageNtB7_13BackupStorage4list0B9_
FN:81,_RNCNvXs0_NtCs9oXD4GUMzTX_17sqlrustgo_storage14backup_storageNtB7_18LocalBackupStorageNtB7_13BackupStorage4load0B9_
FN:73,_RNCNvXs0_NtCs9oXD4GUMzTX_17sqlrustgo_storage14backup_storageNtB7_18LocalBackupStorageNtB7_13BackupStorage4save0B9_
FN:75,_RNCNvXs0_NtCs9oXD4GUMzTX_17sqlrustgo_storage14backup_storageNtB7_18LocalBackupStorageNtB7_13BackupStorage4saves_0B9_
FN:86,_RNCNvXs0_NtCs9oXD4GUMzTX_17sqlrustgo_storage14backup_storageNtB7_18LocalBackupStorageNtB7_13BackupStorage6delete0B9_
FN:247,_RNCNvXs2_NtCs9oXD4GUMzTX_17sqlrustgo_storage14backup_storageNtB7_19RemoteBackupStorageNtB7_13BackupStorage4list0B9_
FN:252,_RNCNvXs2_NtCs9oXD4GUMzTX_17sqlrustgo_storage14backup_storageNtB7_19RemoteBackupStorageNtB7_13BackupStorage4lists_0B9_
FN:189,_RNCNvXs2_NtCs9oXD4GUMzTX_17sqlrustgo_storage14backup_storageNtB7_19RemoteBackupStorageNtB7_13BackupStorage4load0B9_
FN:195,_RNCNvXs2_NtCs9oXD4GUMzTX_17sqlrustgo_storage14backup_storageNtB7_19RemoteBackupStorageNtB7_13BackupStorage4loads0_0B9_
FN:194,_RNCNvXs2_NtCs9oXD4GUMzTX_17sqlrustgo_storage14backup_storageNtB7_19RemoteBackupStorageNtB7_13BackupStorage4loads_0B9_
FN:170,_RNCNvXs2_NtCs9oXD4GUMzTX_17sqlrustgo_storage14backup_storageNtB7_19RemoteBackupStorageNtB7_13BackupStorage4save0B9_
FN:211,_RNCNvXs2_NtCs9oXD4GUMzTX_17sqlrustgo_storage14backup_storageNtB7_19RemoteBackupStorageNtB7_13BackupStorage6delete0B9_
FN:230,_RNCNvXs2_NtCs9oXD4GUMzTX_17sqlrustgo_storage14backup_storageNtB7_19RemoteBackupStorageNtB7_13BackupStorage6exists0B9_
FN:117,_RNCNvNtCsl9zPO89iGuX_17sqlrustgo_storage14backup_storage7walkdir0B5_
FN:103,_RNCNvXs0_NtCsl9zPO89iGuX_17sqlrustgo_storage14backup_storageNtB7_18LocalBackupStorageNtB7_13BackupStorage4list0B9_
FN:81,_RNCNvXs0_NtCsl9zPO89iGuX_17sqlrustgo_storage14backup_storageNtB7_18LocalBackupStorageNtB7_13BackupStorage4load0B9_
FN:73,_RNCNvXs0_NtCsl9zPO89iGuX_17sqlrustgo_storage14backup_storageNtB7_18LocalBackupStorageNtB7_13BackupStorage4save0B9_
FN:75,_RNCNvXs0_NtCsl9zPO89iGuX_17sqlrustgo_storage14backup_storageNtB7_18LocalBackupStorageNtB7_13BackupStorage4saves_0B9_
FN:86,_RNCNvXs0_NtCsl9zPO89iGuX_17sqlrustgo_storage14backup_storageNtB7_18LocalBackupStorageNtB7_13BackupStorage6delete0B9_
FN:247,_RNCNvXs2_NtCsl9zPO89iGuX_17sqlrustgo_storage14backup_storageNtB7_19RemoteBackupStorageNtB7_13BackupStorage4list0B9_
FN:252,_RNCNvXs2_NtCsl9zPO89iGuX_17sqlrustgo_storage14backup_storageNtB7_19RemoteBackupStorageNtB7_13BackupStorage4lists_0B9_
FN:189,_RNCNvXs2_NtCsl9zPO89iGuX_17sqlrustgo_storage14backup_storageNtB7_19RemoteBackupStorageNtB7_13BackupStorage4load0B9_
FN:195,_RNCNvXs2_NtCsl9zPO89iGuX_17sqlrustgo_storage14backup_storageNtB7_19RemoteBackupStorageNtB7_13BackupStorage4loads0_0B9_
FN:194,_RNCNvXs2_NtCsl9zPO89iGuX_17sqlrustgo_storage14backup_storageNtB7_19RemoteBackupStorageNtB7_13BackupStorage4loads_0B9_
FN:170,_RNCNvXs2_NtCsl9zPO89iGuX_17sqlrustgo_storage14backup_storageNtB7_19RemoteBackupStorageNtB7_13BackupStorage4save0B9_
FN:211,_RNCNvXs2_NtCsl9zPO89iGuX_17sqlrustgo_storage14backup_storageNtB7_19RemoteBackupStorageNtB7_13BackupStorage6delete0B9_
FN:230,_RNCNvXs2_NtCsl9zPO89iGuX_17sqlrustgo_storage14backup_storageNtB7_19RemoteBackupStorageNtB7_13BackupStorage6exists0B9_
FN:117,_RNCNvNtCsgGnK47HN26N_17sqlrustgo_storage14backup_storage7walkdir0B5_
FN:103,_RNCNvXs0_NtCsgGnK47HN26N_17sqlrustgo_storage14backup_storageNtB7_18LocalBackupStorageNtB7_13BackupStorage4list0B9_
FN:81,_RNCNvXs0_NtCsgGnK47HN26N_17sqlrustgo_storage14backup_storageNtB7_18LocalBackupStorageNtB7_13BackupStorage4load0B9_
FN:73,_RNCNvXs0_NtCsgGnK47HN26N_17sqlrustgo_storage14backup_storageNtB7_18LocalBackupStorageNtB7_13BackupStorage4save0B9_
FN:75,_RNCNvXs0_NtCsgGnK47HN26N_17sqlrustgo_storage14backup_storageNtB7_18LocalBackupStorageNtB7_13BackupStorage4saves_0B9_
FN:86,_RNCNvXs0_NtCsgGnK47HN26N_17sqlrustgo_storage14backup_storageNtB7_18LocalBackupStorageNtB7_13BackupStorage6delete0B9_
FN:189,_RNCNvXs2_NtCsgGnK47HN26N_17sqlrustgo_storage14backup_storageNtB7_19RemoteBackupStorageNtB7_13BackupStorage4load0B9_
FN:195,_RNCNvXs2_NtCsgGnK47HN26N_17sqlrustgo_storage14backup_storageNtB7_19RemoteBackupStorageNtB7_13BackupStorage4loads0_0B9_
FN:194,_RNCNvXs2_NtCsgGnK47HN26N_17sqlrustgo_storage14backup_storageNtB7_19RemoteBackupStorageNtB7_13BackupStorage4loads_0B9_
FN:170,_RNCNvXs2_NtCsgGnK47HN26N_17sqlrustgo_storage14backup_storageNtB7_19RemoteBackupStorageNtB7_13BackupStorage4save0B9_
FN:247,_RNCNvXs2_NtCsgGnK47HN26N_17sqlrustgo_storage14backup_storageNtB7_19RemoteBackupStorageNtB7_13BackupStorage4list0B9_
FN:252,_RNCNvXs2_NtCsgGnK47HN26N_17sqlrustgo_storage14backup_storageNtB7_19RemoteBackupStorageNtB7_13BackupStorage4lists_0B9_
FN:211,_RNCNvXs2_NtCsgGnK47HN26N_17sqlrustgo_storage14backup_storageNtB7_19RemoteBackupStorageNtB7_13BackupStorage6delete0B9_
FN:230,_RNCNvXs2_NtCsgGnK47HN26N_17sqlrustgo_storage14backup_storageNtB7_19RemoteBackupStorageNtB7_13BackupStorage6exists0B9_
FN:135,_RNvMs1_NtCsgGnK47HN26N_17sqlrustgo_storage14backup_storageNtB5_19RemoteBackupStorage3new
FN:294,_RNvMs3_NtCsgGnK47HN26N_17sqlrustgo_storage14backup_storageNtB5_20BackupStorageManager11with_remote
FN:298,_RNvMs3_NtCsgGnK47HN26N_17sqlrustgo_storage14backup_storageNtB5_20BackupStorageManager14set_use_remote
FN:340,_RNvMs3_NtCsgGnK47HN26N_17sqlrustgo_storage14backup_storageNtB5_20BackupStorageManager4list
FN:321,_RNvMs3_NtCsgGnK47HN26N_17sqlrustgo_storage14backup_storageNtB5_20BackupStorageManager6delete
FN:331,_RNvMs3_NtCsgGnK47HN26N_17sqlrustgo_storage14backup_storageNtB5_20BackupStorageManager6exists
FN:349,_RNvMs3_NtCsgGnK47HN26N_17sqlrustgo_storage14backup_storageNtB5_20BackupStorageManager9get_local
FN:363,_RNvMs4_NtCsgGnK47HN26N_17sqlrustgo_storage14backup_storageNtB5_14BackupTransfer14sync_to_remote
FN:371,_RNvMs4_NtCsgGnK47HN26N_17sqlrustgo_storage14backup_storageNtB5_14BackupTransfer16sync_from_remote
FN:359,_RNvMs4_NtCsgGnK47HN26N_17sqlrustgo_storage14backup_storageNtB5_14BackupTransfer3new
FN:379,_RNvMs4_NtCsgGnK47HN26N_17sqlrustgo_storage14backup_storageNtB5_14BackupTransfer9full_sync
FN:235,_RNvXs2_NtCsgGnK47HN26N_17sqlrustgo_storage14backup_storageNtB5_19RemoteBackupStorageNtB5_13BackupStorage4list
FN:204,_RNvXs2_NtCsgGnK47HN26N_17sqlrustgo_storage14backup_storageNtB5_19RemoteBackupStorageNtB5_13BackupStorage6delete
FN:223,_RNvXs2_NtCsgGnK47HN26N_17sqlrustgo_storage14backup_storageNtB5_19RemoteBackupStorageNtB5_13BackupStorage6exists
FN:413,_RNvNtNtCsgGnK47HN26N_17sqlrustgo_storage14backup_storage5testss_23test_local_storage_list
FN:457,_RNvNtNtCsgGnK47HN26N_17sqlrustgo_storage14backup_storage5testss_27test_parse_s3_list_response
FN:443,_RNvNtNtCsgGnK47HN26N_17sqlrustgo_storage14backup_storage5testss_27test_remote_config_creation
FN:396,_RNvNtNtCsgGnK47HN26N_17sqlrustgo_storage14backup_storage5testss_28test_local_storage_save_load
FN:431,_RNvNtNtCsgGnK47HN26N_17sqlrustgo_storage14backup_storage5testss_38test_backup_storage_manager_local_only
FN:29,_RNvMNtCsgGnK47HN26N_17sqlrustgo_storage14backup_storageNtB2_12RemoteConfig3new
FN:142,_RNvMs1_NtCsgGnK47HN26N_17sqlrustgo_storage14backup_storageNtB5_19RemoteBackupStorage10object_url
FN:286,_RNvMs3_NtCsgGnK47HN26N_17sqlrustgo_storage14backup_storageNtB5_20BackupStorageManager3new
FN:312,_RNvMs3_NtCsgGnK47HN26N_17sqlrustgo_storage14backup_storageNtB5_20BackupStorageManager4load
FN:302,_RNvMs3_NtCsgGnK47HN26N_17sqlrustgo_storage14backup_storageNtB5_20BackupStorageManager4save
FN:59,_RNvMs_NtCsgGnK47HN26N_17sqlrustgo_storage14backup_storageNtB4_18LocalBackupStorage3new
FN:64,_RNvMs_NtCsgGnK47HN26N_17sqlrustgo_storage14backup_storageNtB4_18LocalBackupStorage9full_path
FN:264,_RNvNtCsgGnK47HN26N_17sqlrustgo_storage14backup_storage22parse_s3_list_response
FN:114,_RNvNtCsgGnK47HN26N_17sqlrustgo_storage14backup_storage7walkdir
FN:95,_RNvXs0_NtCsgGnK47HN26N_17sqlrustgo_storage14backup_storageNtB5_18LocalBackupStorageNtB5_13BackupStorage4list
FN:79,_RNvXs0_NtCsgGnK47HN26N_17sqlrustgo_storage14backup_storageNtB5_18LocalBackupStorageNtB5_13BackupStorage4load
FN:70,_RNvXs0_NtCsgGnK47HN26N_17sqlrustgo_storage14backup_storageNtB5_18LocalBackupStorageNtB5_13BackupStorage4save
FN:84,_RNvXs0_NtCsgGnK47HN26N_17sqlrustgo_storage14backup_storageNtB5_18LocalBackupStorageNtB5_13BackupStorage6delete
FN:90,_RNvXs0_NtCsgGnK47HN26N_17sqlrustgo_storage14backup_storageNtB5_18LocalBackupStorageNtB5_13BackupStorage6exists
FN:182,_RNvXs2_NtCsgGnK47HN26N_17sqlrustgo_storage14backup_storageNtB5_19RemoteBackupStorageNtB5_13BackupStorage4load
FN:153,_RNvXs2_NtCsgGnK47HN26N_17sqlrustgo_storage14backup_storageNtB5_19RemoteBackupStorageNtB5_13BackupStorage4save
FN:117,_RNCNvNtCs2l7roSUS7lg_17sqlrustgo_storage14backup_storage7walkdir0B5_
FN:103,_RNCNvXs0_NtCs2l7roSUS7lg_17sqlrustgo_storage14backup_storageNtB7_18LocalBackupStorageNtB7_13BackupStorage4list0B9_
FN:81,_RNCNvXs0_NtCs2l7roSUS7lg_17sqlrustgo_storage14backup_storageNtB7_18LocalBackupStorageNtB7_13BackupStorage4load0B9_
FN:73,_RNCNvXs0_NtCs2l7roSUS7lg_17sqlrustgo_storage14backup_storageNtB7_18LocalBackupStorageNtB7_13BackupStorage4save0B9_
FN:75,_RNCNvXs0_NtCs2l7roSUS7lg_17sqlrustgo_storage14backup_storageNtB7_18LocalBackupStorageNtB7_13BackupStorage4saves_0B9_
FN:86,_RNCNvXs0_NtCs2l7roSUS7lg_17sqlrustgo_storage14backup_storageNtB7_18LocalBackupStorageNtB7_13BackupStorage6delete0B9_
FN:247,_RNCNvXs2_NtCs2l7roSUS7lg_17sqlrustgo_storage14backup_storageNtB7_19RemoteBackupStorageNtB7_13BackupStorage4list0B9_
FN:252,_RNCNvXs2_NtCs2l7roSUS7lg_17sqlrustgo_storage14backup_storageNtB7_19RemoteBackupStorageNtB7_13BackupStorage4lists_0B9_
FN:189,_RNCNvXs2_NtCs2l7roSUS7lg_17sqlrustgo_storage14backup_storageNtB7_19RemoteBackupStorageNtB7_13BackupStorage4load0B9_
FN:195,_RNCNvXs2_NtCs2l7roSUS7lg_17sqlrustgo_storage14backup_storageNtB7_19RemoteBackupStorageNtB7_13BackupStorage4loads0_0B9_
FN:194,_RNCNvXs2_NtCs2l7roSUS7lg_17sqlrustgo_storage14backup_storageNtB7_19RemoteBackupStorageNtB7_13BackupStorage4loads_0B9_
FN:170,_RNCNvXs2_NtCs2l7roSUS7lg_17sqlrustgo_storage14backup_storageNtB7_19RemoteBackupStorageNtB7_13BackupStorage4save0B9_
FN:211,_RNCNvXs2_NtCs2l7roSUS7lg_17sqlrustgo_storage14backup_storageNtB7_19RemoteBackupStorageNtB7_13BackupStorage6delete0B9_
FN:230,_RNCNvXs2_NtCs2l7roSUS7lg_17sqlrustgo_storage14backup_storageNtB7_19RemoteBackupStorageNtB7_13BackupStorage6exists0B9_
FNDA:0,_RNCNvNtCs38XCG6692bz_17sqlrustgo_storage14backup_storage7walkdir0B5_
FNDA:0,_RNCNvXs0_NtCs38XCG6692bz_17sqlrustgo_storage14backup_storageNtB7_18LocalBackupStorageNtB7_13BackupStorage4list0B9_
FNDA:0,_RNCNvXs0_NtCs38XCG6692bz_17sqlrustgo_storage14backup_storageNtB7_18LocalBackupStorageNtB7_13BackupStorage4load0B9_
FNDA:0,_RNCNvXs0_NtCs38XCG6692bz_17sqlrustgo_storage14backup_storageNtB7_18LocalBackupStorageNtB7_13BackupStorage4save0B9_
FNDA:0,_RNCNvXs0_NtCs38XCG6692bz_17sqlrustgo_storage14backup_storageNtB7_18LocalBackupStorageNtB7_13BackupStorage4saves_0B9_
FNDA:0,_RNCNvXs0_NtCs38XCG6692bz_17sqlrustgo_storage14backup_storageNtB7_18LocalBackupStorageNtB7_13BackupStorage6delete0B9_
FNDA:0,_RNCNvXs2_NtCs38XCG6692bz_17sqlrustgo_storage14backup_storageNtB7_19RemoteBackupStorageNtB7_13BackupStorage4list0B9_
FNDA:0,_RNCNvXs2_NtCs38XCG6692bz_17sqlrustgo_storage14backup_storageNtB7_19RemoteBackupStorageNtB7_13BackupStorage4lists_0B9_
FNDA:0,_RNCNvXs2_NtCs38XCG6692bz_17sqlrustgo_storage14backup_storageNtB7_19RemoteBackupStorageNtB7_13BackupStorage4load0B9_
FNDA:0,_RNCNvXs2_NtCs38XCG6692bz_17sqlrustgo_storage14backup_storageNtB7_19RemoteBackupStorageNtB7_13BackupStorage4loads0_0B9_
FNDA:0,_RNCNvXs2_NtCs38XCG6692bz_17sqlrustgo_storage14backup_storageNtB7_19RemoteBackupStorageNtB7_13BackupStorage4loads_0B9_
FNDA:0,_RNCNvXs2_NtCs38XCG6692bz_17sqlrustgo_storage14backup_storageNtB7_19RemoteBackupStorageNtB7_13BackupStorage4save0B9_
FNDA:0,_RNCNvXs2_NtCs38XCG6692bz_17sqlrustgo_storage14backup_storageNtB7_19RemoteBackupStorageNtB7_13BackupStorage6delete0B9_
FNDA:0,_RNCNvXs2_NtCs38XCG6692bz_17sqlrustgo_storage14backup_storageNtB7_19RemoteBackupStorageNtB7_13BackupStorage6exists0B9_
FNDA:0,_RNCNvNtCs1u7In8Za3Xp_17sqlrustgo_storage14backup_storage7walkdir0B5_
FNDA:0,_RNCNvXs0_NtCs1u7In8Za3Xp_17sqlrustgo_storage14backup_storageNtB7_18LocalBackupStorageNtB7_13BackupStorage4list0B9_
FNDA:0,_RNCNvXs0_NtCs1u7In8Za3Xp_17sqlrustgo_storage14backup_storageNtB7_18LocalBackupStorageNtB7_13BackupStorage4load0B9_
FNDA:0,_RNCNvXs0_NtCs1u7In8Za3Xp_17sqlrustgo_storage14backup_storageNtB7_18LocalBackupStorageNtB7_13BackupStorage4save0B9_
FNDA:0,_RNCNvXs0_NtCs1u7In8Za3Xp_17sqlrustgo_storage14backup_storageNtB7_18LocalBackupStorageNtB7_13BackupStorage4saves_0B9_
FNDA:0,_RNCNvXs0_NtCs1u7In8Za3Xp_17sqlrustgo_storage14backup_storageNtB7_18LocalBackupStorageNtB7_13BackupStorage6delete0B9_
FNDA:0,_RNCNvXs2_NtCs1u7In8Za3Xp_17sqlrustgo_storage14backup_storageNtB7_19RemoteBackupStorageNtB7_13BackupStorage4list0B9_
FNDA:0,_RNCNvXs2_NtCs1u7In8Za3Xp_17sqlrustgo_storage14backup_storageNtB7_19RemoteBackupStorageNtB7_13BackupStorage4lists_0B9_
FNDA:0,_RNCNvXs2_NtCs1u7In8Za3Xp_17sqlrustgo_storage14backup_storageNtB7_19RemoteBackupStorageNtB7_13BackupStorage4load0B9_
FNDA:0,_RNCNvXs2_NtCs1u7In8Za3Xp_17sqlrustgo_storage14backup_storageNtB7_19RemoteBackupStorageNtB7_13BackupStorage4loads0_0B9_
FNDA:0,_RNCNvXs2_NtCs1u7In8Za3Xp_17sqlrustgo_storage14backup_storageNtB7_19RemoteBackupStorageNtB7_13BackupStorage4loads_0B9_
FNDA:0,_RNCNvXs2_NtCs1u7In8Za3Xp_17sqlrustgo_storage14backup_storageNtB7_19RemoteBackupStorageNtB7_13BackupStorage4save0B9_
FNDA:0,_RNCNvXs2_NtCs1u7In8Za3Xp_17sqlrustgo_storage14backup_storageNtB7_19RemoteBackupStorageNtB7_13BackupStorage6delete0B9_
FNDA:0,_RNCNvXs2_NtCs1u7In8Za3Xp_17sqlrustgo_storage14backup_storageNtB7_19RemoteBackupStorageNtB7_13BackupStorage6exists0B9_
FNDA:0,_RNCNvNtCsd1AkON0xxEy_17sqlrustgo_storage14backup_storage7walkdir0B5_
FNDA:0,_RNCNvXs0_NtCsd1AkON0xxEy_17sqlrustgo_storage14backup_storageNtB7_18LocalBackupStorageNtB7_13BackupStorage4list0B9_
FNDA:0,_RNCNvXs0_NtCsd1AkON0xxEy_17sqlrustgo_storage14backup_storageNtB7_18LocalBackupStorageNtB7_13BackupStorage4load0B9_
FNDA:0,_RNCNvXs0_NtCsd1AkON0xxEy_17sqlrustgo_storage14backup_storageNtB7_18LocalBackupStorageNtB7_13BackupStorage4save0B9_
FNDA:0,_RNCNvXs0_NtCsd1AkON0xxEy_17sqlrustgo_storage14backup_storageNtB7_18LocalBackupStorageNtB7_13BackupStorage4saves_0B9_
FNDA:0,_RNCNvXs0_NtCsd1AkON0xxEy_17sqlrustgo_storage14backup_storageNtB7_18LocalBackupStorageNtB7_13BackupStorage6delete0B9_
FNDA:0,_RNCNvXs2_NtCsd1AkON0xxEy_17sqlrustgo_storage14backup_storageNtB7_19RemoteBackupStorageNtB7_13BackupStorage4list0B9_
FNDA:0,_RNCNvXs2_NtCsd1AkON0xxEy_17sqlrustgo_storage14backup_storageNtB7_19RemoteBackupStorageNtB7_13BackupStorage4lists_0B9_
FNDA:0,_RNCNvXs2_NtCsd1AkON0xxEy_17sqlrustgo_storage14backup_storageNtB7_19RemoteBackupStorageNtB7_13BackupStorage4load0B9_
FNDA:0,_RNCNvXs2_NtCsd1AkON0xxEy_17sqlrustgo_storage14backup_storageNtB7_19RemoteBackupStorageNtB7_13BackupStorage4loads0_0B9_
FNDA:0,_RNCNvXs2_NtCsd1AkON0xxEy_17sqlrustgo_storage14backup_storageNtB7_19RemoteBackupStorageNtB7_13BackupStorage4loads_0B9_
FNDA:0,_RNCNvXs2_NtCsd1AkON0xxEy_17sqlrustgo_storage14backup_storageNtB7_19RemoteBackupStorageNtB7_13BackupStorage4save0B9_
FNDA:0,_RNCNvXs2_NtCsd1AkON0xxEy_17sqlrustgo_storage14backup_storageNtB7_19RemoteBackupStorageNtB7_13BackupStorage6delete0B9_
FNDA:0,_RNCNvXs2_NtCsd1AkON0xxEy_17sqlrustgo_storage14backup_storageNtB7_19RemoteBackupStorageNtB7_13BackupStorage6exists0B9_
FNDA:0,_RNCNvNtCs9oXD4GUMzTX_17sqlrustgo_storage14backup_storage7walkdir0B5_
FNDA:0,_RNCNvXs0_NtCs9oXD4GUMzTX_17sqlrustgo_storage14backup_storageNtB7_18LocalBackupStorageNtB7_13BackupStorage4list0B9_
FNDA:0,_RNCNvXs0_NtCs9oXD4GUMzTX_17sqlrustgo_storage14backup_storageNtB7_18LocalBackupStorageNtB7_13BackupStorage4load0B9_
FNDA:0,_RNCNvXs0_NtCs9oXD4GUMzTX_17sqlrustgo_storage14backup_storageNtB7_18LocalBackupStorageNtB7_13BackupStorage4save0B9_
FNDA:0,_RNCNvXs0_NtCs9oXD4GUMzTX_17sqlrustgo_storage14backup_storageNtB7_18LocalBackupStorageNtB7_13BackupStorage4saves_0B9_
FNDA:0,_RNCNvXs0_NtCs9oXD4GUMzTX_17sqlrustgo_storage14backup_storageNtB7_18LocalBackupStorageNtB7_13BackupStorage6delete0B9_
FNDA:0,_RNCNvXs2_NtCs9oXD4GUMzTX_17sqlrustgo_storage14backup_storageNtB7_19RemoteBackupStorageNtB7_13BackupStorage4list0B9_
FNDA:0,_RNCNvXs2_NtCs9oXD4GUMzTX_17sqlrustgo_storage14backup_storageNtB7_19RemoteBackupStorageNtB7_13BackupStorage4lists_0B9_
FNDA:0,_RNCNvXs2_NtCs9oXD4GUMzTX_17sqlrustgo_storage14backup_storageNtB7_19RemoteBackupStorageNtB7_13BackupStorage4load0B9_
FNDA:0,_RNCNvXs2_NtCs9oXD4GUMzTX_17sqlrustgo_storage14backup_storageNtB7_19RemoteBackupStorageNtB7_13BackupStorage4loads0_0B9_
FNDA:0,_RNCNvXs2_NtCs9oXD4GUMzTX_17sqlrustgo_storage14backup_storageNtB7_19RemoteBackupStorageNtB7_13BackupStorage4loads_0B9_
FNDA:0,_RNCNvXs2_NtCs9oXD4GUMzTX_17sqlrustgo_storage14backup_storageNtB7_19RemoteBackupStorageNtB7_13BackupStorage4save0B9_
FNDA:0,_RNCNvXs2_NtCs9oXD4GUMzTX_17sqlrustgo_storage14backup_storageNtB7_19RemoteBackupStorageNtB7_13BackupStorage6delete0B9_
FNDA:0,_RNCNvXs2_NtCs9oXD4GUMzTX_17sqlrustgo_storage14backup_storageNtB7_19RemoteBackupStorageNtB7_13BackupStorage6exists0B9_
FNDA:0,_RNCNvNtCsl9zPO89iGuX_17sqlrustgo_storage14backup_storage7walkdir0B5_
FNDA:0,_RNCNvXs0_NtCsl9zPO89iGuX_17sqlrustgo_storage14backup_storageNtB7_18LocalBackupStorageNtB7_13BackupStorage4list0B9_
FNDA:0,_RNCNvXs0_NtCsl9zPO89iGuX_17sqlrustgo_storage14backup_storageNtB7_18LocalBackupStorageNtB7_13BackupStorage4load0B9_
FNDA:0,_RNCNvXs0_NtCsl9zPO89iGuX_17sqlrustgo_storage14backup_storageNtB7_18LocalBackupStorageNtB7_13BackupStorage4save0B9_
FNDA:0,_RNCNvXs0_NtCsl9zPO89iGuX_17sqlrustgo_storage14backup_storageNtB7_18LocalBackupStorageNtB7_13BackupStorage4saves_0B9_
FNDA:0,_RNCNvXs0_NtCsl9zPO89iGuX_17sqlrustgo_storage14backup_storageNtB7_18LocalBackupStorageNtB7_13BackupStorage6delete0B9_
FNDA:0,_RNCNvXs2_NtCsl9zPO89iGuX_17sqlrustgo_storage14backup_storageNtB7_19RemoteBackupStorageNtB7_13BackupStorage4list0B9_
FNDA:0,_RNCNvXs2_NtCsl9zPO89iGuX_17sqlrustgo_storage14backup_storageNtB7_19RemoteBackupStorageNtB7_13BackupStorage4lists_0B9_
FNDA:0,_RNCNvXs2_NtCsl9zPO89iGuX_17sqlrustgo_storage14backup_storageNtB7_19RemoteBackupStorageNtB7_13BackupStorage4load0B9_
FNDA:0,_RNCNvXs2_NtCsl9zPO89iGuX_17sqlrustgo_storage14backup_storageNtB7_19RemoteBackupStorageNtB7_13BackupStorage4loads0_0B9_
FNDA:0,_RNCNvXs2_NtCsl9zPO89iGuX_17sqlrustgo_storage14backup_storageNtB7_19RemoteBackupStorageNtB7_13BackupStorage4loads_0B9_
FNDA:0,_RNCNvXs2_NtCsl9zPO89iGuX_17sqlrustgo_storage14backup_storageNtB7_19RemoteBackupStorageNtB7_13BackupStorage4save0B9_
FNDA:0,_RNCNvXs2_NtCsl9zPO89iGuX_17sqlrustgo_storage14backup_storageNtB7_19RemoteBackupStorageNtB7_13BackupStorage6delete0B9_
FNDA:0,_RNCNvXs2_NtCsl9zPO89iGuX_17sqlrustgo_storage14backup_storageNtB7_19RemoteBackupStorageNtB7_13BackupStorage6exists0B9_
FNDA:4,_RNCNvNtCsgGnK47HN26N_17sqlrustgo_storage14backup_storage7walkdir0B5_
FNDA:0,_RNCNvXs0_NtCsgGnK47HN26N_17sqlrustgo_storage14backup_storageNtB7_18LocalBackupStorageNtB7_13BackupStorage4list0B9_
FNDA:0,_RNCNvXs0_NtCsgGnK47HN26N_17sqlrustgo_storage14backup_storageNtB7_18LocalBackupStorageNtB7_13BackupStorage4load0B9_
FNDA:0,_RNCNvXs0_NtCsgGnK47HN26N_17sqlrustgo_storage14backup_storageNtB7_18LocalBackupStorageNtB7_13BackupStorage4save0B9_
FNDA:0,_RNCNvXs0_NtCsgGnK47HN26N_17sqlrustgo_storage14backup_storageNtB7_18LocalBackupStorageNtB7_13BackupStorage4saves_0B9_
FNDA:0,_RNCNvXs0_NtCsgGnK47HN26N_17sqlrustgo_storage14backup_storageNtB7_18LocalBackupStorageNtB7_13BackupStorage6delete0B9_
FNDA:0,_RNCNvXs2_NtCsgGnK47HN26N_17sqlrustgo_storage14backup_storageNtB7_19RemoteBackupStorageNtB7_13BackupStorage4load0B9_
FNDA:0,_RNCNvXs2_NtCsgGnK47HN26N_17sqlrustgo_storage14backup_storageNtB7_19RemoteBackupStorageNtB7_13BackupStorage4loads0_0B9_
FNDA:0,_RNCNvXs2_NtCsgGnK47HN26N_17sqlrustgo_storage14backup_storageNtB7_19RemoteBackupStorageNtB7_13BackupStorage4loads_0B9_
FNDA:0,_RNCNvXs2_NtCsgGnK47HN26N_17sqlrustgo_storage14backup_storageNtB7_19RemoteBackupStorageNtB7_13BackupStorage4save0B9_
FNDA:0,_RNCNvXs2_NtCsgGnK47HN26N_17sqlrustgo_storage14backup_storageNtB7_19RemoteBackupStorageNtB7_13BackupStorage4list0B9_
FNDA:0,_RNCNvXs2_NtCsgGnK47HN26N_17sqlrustgo_storage14backup_storageNtB7_19RemoteBackupStorageNtB7_13BackupStorage4lists_0B9_
FNDA:0,_RNCNvXs2_NtCsgGnK47HN26N_17sqlrustgo_storage14backup_storageNtB7_19RemoteBackupStorageNtB7_13BackupStorage6delete0B9_
FNDA:0,_RNCNvXs2_NtCsgGnK47HN26N_17sqlrustgo_storage14backup_storageNtB7_19RemoteBackupStorageNtB7_13BackupStorage6exists0B9_
FNDA:0,_RNvMs1_NtCsgGnK47HN26N_17sqlrustgo_storage14backup_storageNtB5_19RemoteBackupStorage3new
FNDA:0,_RNvMs3_NtCsgGnK47HN26N_17sqlrustgo_storage14backup_storageNtB5_20BackupStorageManager11with_remote
FNDA:0,_RNvMs3_NtCsgGnK47HN26N_17sqlrustgo_storage14backup_storageNtB5_20BackupStorageManager14set_use_remote
FNDA:0,_RNvMs3_NtCsgGnK47HN26N_17sqlrustgo_storage14backup_storageNtB5_20BackupStorageManager4list
FNDA:0,_RNvMs3_NtCsgGnK47HN26N_17sqlrustgo_storage14backup_storageNtB5_20BackupStorageManager6delete
FNDA:0,_RNvMs3_NtCsgGnK47HN26N_17sqlrustgo_storage14backup_storageNtB5_20BackupStorageManager6exists
FNDA:0,_RNvMs3_NtCsgGnK47HN26N_17sqlrustgo_storage14backup_storageNtB5_20BackupStorageManager9get_local
FNDA:0,_RNvMs4_NtCsgGnK47HN26N_17sqlrustgo_storage14backup_storageNtB5_14BackupTransfer14sync_to_remote
FNDA:0,_RNvMs4_NtCsgGnK47HN26N_17sqlrustgo_storage14backup_storageNtB5_14BackupTransfer16sync_from_remote
FNDA:0,_RNvMs4_NtCsgGnK47HN26N_17sqlrustgo_storage14backup_storageNtB5_14BackupTransfer3new
FNDA:0,_RNvMs4_NtCsgGnK47HN26N_17sqlrustgo_storage14backup_storageNtB5_14BackupTransfer9full_sync
FNDA:0,_RNvXs2_NtCsgGnK47HN26N_17sqlrustgo_storage14backup_storageNtB5_19RemoteBackupStorageNtB5_13BackupStorage4list
FNDA:0,_RNvXs2_NtCsgGnK47HN26N_17sqlrustgo_storage14backup_storageNtB5_19RemoteBackupStorageNtB5_13BackupStorage6delete
FNDA:0,_RNvXs2_NtCsgGnK47HN26N_17sqlrustgo_storage14backup_storageNtB5_19RemoteBackupStorageNtB5_13BackupStorage6exists
FNDA:1,_RNvNtNtCsgGnK47HN26N_17sqlrustgo_storage14backup_storage5testss_23test_local_storage_list
FNDA:1,_RNvNtNtCsgGnK47HN26N_17sqlrustgo_storage14backup_storage5testss_27test_parse_s3_list_response
FNDA:1,_RNvNtNtCsgGnK47HN26N_17sqlrustgo_storage14backup_storage5testss_27test_remote_config_creation
FNDA:1,_RNvNtNtCsgGnK47HN26N_17sqlrustgo_storage14backup_storage5testss_28test_local_storage_save_load
FNDA:1,_RNvNtNtCsgGnK47HN26N_17sqlrustgo_storage14backup_storage5testss_38test_backup_storage_manager_local_only
FNDA:1,_RNvMNtCsgGnK47HN26N_17sqlrustgo_storage14backup_storageNtB2_12RemoteConfig3new
FNDA:0,_RNvMs1_NtCsgGnK47HN26N_17sqlrustgo_storage14backup_storageNtB5_19RemoteBackupStorage10object_url
FNDA:1,_RNvMs3_NtCsgGnK47HN26N_17sqlrustgo_storage14backup_storageNtB5_20BackupStorageManager3new
FNDA:1,_RNvMs3_NtCsgGnK47HN26N_17sqlrustgo_storage14backup_storageNtB5_20BackupStorageManager4load
FNDA:1,_RNvMs3_NtCsgGnK47HN26N_17sqlrustgo_storage14backup_storageNtB5_20BackupStorageManager4save
FNDA:3,_RNvMs_NtCsgGnK47HN26N_17sqlrustgo_storage14backup_storageNtB4_18LocalBackupStorage3new
FNDA:9,_RNvMs_NtCsgGnK47HN26N_17sqlrustgo_storage14backup_storageNtB4_18LocalBackupStorage9full_path
FNDA:1,_RNvNtCsgGnK47HN26N_17sqlrustgo_storage14backup_storage22parse_s3_list_response
FNDA:3,_RNvNtCsgGnK47HN26N_17sqlrustgo_storage14backup_storage7walkdir
FNDA:1,_RNvXs0_NtCsgGnK47HN26N_17sqlrustgo_storage14backup_storageNtB5_18LocalBackupStorageNtB5_13BackupStorage4list
FNDA:2,_RNvXs0_NtCsgGnK47HN26N_17sqlrustgo_storage14backup_storageNtB5_18LocalBackupStorageNtB5_13BackupStorage4load
FNDA:4,_RNvXs0_NtCsgGnK47HN26N_17sqlrustgo_storage14backup_storageNtB5_18LocalBackupStorageNtB5_13BackupStorage4save
FNDA:1,_RNvXs0_NtCsgGnK47HN26N_17sqlrustgo_storage14backup_storageNtB5_18LocalBackupStorageNtB5_13BackupStorage6delete
FNDA:2,_RNvXs0_NtCsgGnK47HN26N_17sqlrustgo_storage14backup_storageNtB5_18LocalBackupStorageNtB5_13BackupStorage6exists
FNDA:0,_RNvXs2_NtCsgGnK47HN26N_17sqlrustgo_storage14backup_storageNtB5_19RemoteBackupStorageNtB5_13BackupStorage4load
FNDA:0,_RNvXs2_NtCsgGnK47HN26N_17sqlrustgo_storage14backup_storageNtB5_19RemoteBackupStorageNtB5_13BackupStorage4save
FNDA:0,_RNCNvNtCs2l7roSUS7lg_17sqlrustgo_storage14backup_storage7walkdir0B5_
FNDA:0,_RNCNvXs0_NtCs2l7roSUS7lg_17sqlrustgo_storage14backup_storageNtB7_18LocalBackupStorageNtB7_13BackupStorage4list0B9_
FNDA:0,_RNCNvXs0_NtCs2l7roSUS7lg_17sqlrustgo_storage14backup_storageNtB7_18LocalBackupStorageNtB7_13BackupStorage4load0B9_
FNDA:0,_RNCNvXs0_NtCs2l7roSUS7lg_17sqlrustgo_storage14backup_storageNtB7_18LocalBackupStorageNtB7_13BackupStorage4save0B9_
FNDA:0,_RNCNvXs0_NtCs2l7roSUS7lg_17sqlrustgo_storage14backup_storageNtB7_18LocalBackupStorageNtB7_13BackupStorage4saves_0B9_
FNDA:0,_RNCNvXs0_NtCs2l7roSUS7lg_17sqlrustgo_storage14backup_storageNtB7_18LocalBackupStorageNtB7_13BackupStorage6delete0B9_
FNDA:0,_RNCNvXs2_NtCs2l7roSUS7lg_17sqlrustgo_storage14backup_storageNtB7_19RemoteBackupStorageNtB7_13BackupStorage4list0B9_
FNDA:0,_RNCNvXs2_NtCs2l7roSUS7lg_17sqlrustgo_storage14backup_storageNtB7_19RemoteBackupStorageNtB7_13BackupStorage4lists_0B9_
FNDA:0,_RNCNvXs2_NtCs2l7roSUS7lg_17sqlrustgo_storage14backup_storageNtB7_19RemoteBackupStorageNtB7_13BackupStorage4load0B9_
FNDA:0,_RNCNvXs2_NtCs2l7roSUS7lg_17sqlrustgo_storage14backup_storageNtB7_19RemoteBackupStorageNtB7_13BackupStorage4loads0_0B9_
FNDA:0,_RNCNvXs2_NtCs2l7roSUS7lg_17sqlrustgo_storage14backup_storageNtB7_19RemoteBackupStorageNtB7_13BackupStorage4loads_0B9_
FNDA:0,_RNCNvXs2_NtCs2l7roSUS7lg_17sqlrustgo_storage14backup_storageNtB7_19RemoteBackupStorageNtB7_13BackupStorage4save0B9_
FNDA:0,_RNCNvXs2_NtCs2l7roSUS7lg_17sqlrustgo_storage14backup_storageNtB7_19RemoteBackupStorageNtB7_13BackupStorage6delete0B9_
FNDA:0,_RNCNvXs2_NtCs2l7roSUS7lg_17sqlrustgo_storage14backup_storageNtB7_19RemoteBackupStorageNtB7_13BackupStorage6exists0B9_
FNF:49
FNH:19
DA:29,1
DA:30,1
DA:31,1
DA:32,1
DA:33,1
DA:34,1
DA:35,1
DA:36,1
DA:37,1
DA:38,1
DA:39,1
DA:40,1
DA:41,1
DA:42,1
DA:43,1
DA:59,3
DA:60,3
DA:61,3
DA:62,3
DA:64,9
DA:65,9
DA:66,9
DA:70,4
DA:71,4
DA:72,4
DA:73,4
DA:74,0
DA:75,4
DA:76,4
DA:77,4
DA:79,2
DA:80,2
DA:81,2
DA:82,2
DA:84,1
DA:85,1
DA:86,1
DA:87,1
DA:88,1
DA:90,2
DA:91,2
DA:92,2
DA:93,2
DA:95,1
DA:96,1
DA:97,1
DA:99,1
DA:100,2
DA:101,2
DA:102,2
DA:103,2
DA:104,2
DA:105,2
DA:106,2
DA:108,0
DA:110,1
DA:111,1
DA:114,3
DA:115,3
DA:116,3
DA:117,4
DA:118,4
DA:119,4
DA:120,2
DA:121,2
DA:122,2
DA:123,2
DA:125,0
DA:126,3
DA:127,3
DA:135,0
DA:136,0
DA:137,0
DA:138,0
DA:139,0
DA:140,0
DA:142,0
DA:143,0
DA:145,0
DA:149,0
DA:153,0
DA:154,0
DA:156,0
DA:157,0
DA:158,0
DA:159,0
DA:160,0
DA:161,0
DA:163,0
DA:168,0
DA:169,0
DA:170,0
DA:172,0
DA:173,0
DA:175,0
DA:176,0
DA:177,0
DA:178,0
DA:180,0
DA:182,0
DA:183,0
DA:185,0
DA:186,0
DA:187,0
DA:188,0
DA:189,0
DA:191,0
DA:192,0
DA:193,0
DA:194,0
DA:195,0
DA:197,0
DA:198,0
DA:199,0
DA:200,0
DA:202,0
DA:204,0
DA:205,0
DA:207,0
DA:208,0
DA:209,0
DA:210,0
DA:211,0
DA:213,0
DA:214,0
DA:216,0
DA:217,0
DA:218,0
DA:219,0
DA:221,0
DA:223,0
DA:224,0
DA:226,0
DA:227,0
DA:228,0
DA:229,0
DA:230,0
DA:232,0
DA:233,0
DA:235,0
DA:236,0
DA:238,0
DA:243,0
DA:244,0
DA:245,0
DA:246,0
DA:247,0
DA:249,0
DA:250,0
DA:251,0
DA:252,0
DA:253,0
DA:254,0
DA:256,0
DA:257,0
DA:258,0
DA:259,0
DA:261,0
DA:264,1
DA:265,1
DA:266,7
DA:267,7
DA:268,2
DA:269,2
DA:270,2
DA:271,2
DA:272,2
DA:273,0
DA:274,5
DA:276,1
DA:277,1
DA:286,1
DA:287,1
DA:288,1
DA:289,1
DA:290,1
DA:291,1
DA:292,1
DA:294,0
DA:295,0
DA:296,0
DA:298,0
DA:299,0
DA:300,0
DA:302,1
DA:303,1
DA:304,1
DA:305,0
DA:306,0
DA:307,0
DA:308,1
DA:309,1
DA:310,1
DA:312,1
DA:313,1
DA:314,0
DA:315,0
DA:316,0
DA:317,1
DA:318,1
DA:319,1
DA:321,0
DA:322,0
DA:323,0
DA:324,0
DA:325,0
DA:326,0
DA:327,0
DA:328,0
DA:329,0
DA:331,0
DA:332,0
DA:333,0
DA:334,0
DA:335,0
DA:336,0
DA:337,0
DA:338,0
DA:340,0
DA:341,0
DA:342,0
DA:343,0
DA:344,0
DA:345,0
DA:346,0
DA:347,0
DA:349,0
DA:350,0
DA:351,0
DA:359,0
DA:360,0
DA:361,0
DA:363,0
DA:364,0
DA:365,0
DA:366,0
DA:367,0
DA:368,0
DA:369,0
DA:371,0
DA:372,0
DA:373,0
DA:374,0
DA:375,0
DA:376,0
DA:377,0
DA:379,0
DA:380,0
DA:381,0
DA:382,0
DA:383,0
DA:384,0
DA:385,0
DA:387,0
DA:388,0
DA:396,1
DA:397,1
DA:398,1
DA:400,1
DA:401,1
DA:403,1
DA:404,1
DA:406,1
DA:407,1
DA:409,1
DA:410,1
DA:413,1
DA:414,1
DA:415,1
DA:417,1
DA:418,1
DA:419,1
DA:420,1
DA:421,1
DA:422,1
DA:424,1
DA:425,1
DA:427,1
DA:428,1
DA:431,1
DA:432,1
DA:433,1
DA:435,1
DA:436,1
DA:437,1
DA:439,1
DA:440,1
DA:443,1
DA:444,1
DA:445,1
DA:446,1
DA:447,1
DA:448,1
DA:449,1
DA:452,1
DA:453,1
DA:454,1
DA:457,1
DA:458,1
DA:459,1
DA:460,1
DA:461,1
DA:462,1
DA:463,1
DA:464,1
DA:466,1
DA:467,1
DA:468,1
DA:469,1
DA:470,1
BRF:0
BRH:0
LF:324
LH:153
end_of_record
SF:/home/openclaw/dev/yinglichina8848/sqlrustgo/crates/storage/src/binary_format.rs
FN:130,_RNCNvNtNtCs38XCG6692bz_17sqlrustgo_storage13binary_format7helpers11read_string0B7_
FN:221,_RNvXs0_NtCs38XCG6692bz_17sqlrustgo_storage13binary_formatNtNtCs3IabHiFbGA9_15sqlrustgo_types5value5ValueNtB5_12BinaryFormat10from_bytes
FN:148,_RNvXs0_NtCs38XCG6692bz_17sqlrustgo_storage13binary_formatNtNtCs3IabHiFbGA9_15sqlrustgo_types5value5ValueNtB5_12BinaryFormat8to_bytes
FN:134,_RNvNtNtCs38XCG6692bz_17sqlrustgo_storage13binary_format7helpers10write_bool
FN:123,_RNvNtNtCs38XCG6692bz_17sqlrustgo_storage13binary_format7helpers11read_string
FN:115,_RNvNtNtCs38XCG6692bz_17sqlrustgo_storage13binary_format7helpers12write_string
FN:105,_RNvNtNtCs38XCG6692bz_17sqlrustgo_storage13binary_format7helpers8read_f64
FN:90,_RNvNtNtCs38XCG6692bz_17sqlrustgo_storage13binary_format7helpers8read_i32
FN:75,_RNvNtNtCs38XCG6692bz_17sqlrustgo_storage13binary_format7helpers8read_i64
FN:60,_RNvNtNtCs38XCG6692bz_17sqlrustgo_storage13binary_format7helpers8read_u64
FN:139,_RNvNtNtCs38XCG6692bz_17sqlrustgo_storage13binary_format7helpers9read_bool
FN:100,_RNvNtNtCs38XCG6692bz_17sqlrustgo_storage13binary_format7helpers9write_f64
FN:85,_RNvNtNtCs38XCG6692bz_17sqlrustgo_storage13binary_format7helpers9write_i32
FN:70,_RNvNtNtCs38XCG6692bz_17sqlrustgo_storage13binary_format7helpers9write_i64
FN:55,_RNvNtNtCs38XCG6692bz_17sqlrustgo_storage13binary_format7helpers9write_u64
FN:221,_RNvXs0_NtCs1u7In8Za3Xp_17sqlrustgo_storage13binary_formatNtNtCs3IabHiFbGA9_15sqlrustgo_types5value5ValueNtB5_12BinaryFormat10from_bytes
FN:148,_RNvXs0_NtCs1u7In8Za3Xp_17sqlrustgo_storage13binary_formatNtNtCs3IabHiFbGA9_15sqlrustgo_types5value5ValueNtB5_12BinaryFormat8to_bytes
FN:134,_RNvNtNtCs1u7In8Za3Xp_17sqlrustgo_storage13binary_format7helpers10write_bool
FN:123,_RNvNtNtCs1u7In8Za3Xp_17sqlrustgo_storage13binary_format7helpers11read_string
FN:115,_RNvNtNtCs1u7In8Za3Xp_17sqlrustgo_storage13binary_format7helpers12write_string
FN:105,_RNvNtNtCs1u7In8Za3Xp_17sqlrustgo_storage13binary_format7helpers8read_f64
FN:90,_RNvNtNtCs1u7In8Za3Xp_17sqlrustgo_storage13binary_format7helpers8read_i32
FN:75,_RNvNtNtCs1u7In8Za3Xp_17sqlrustgo_storage13binary_format7helpers8read_i64
FN:60,_RNvNtNtCs1u7In8Za3Xp_17sqlrustgo_storage13binary_format7helpers8read_u64
FN:139,_RNvNtNtCs1u7In8Za3Xp_17sqlrustgo_storage13binary_format7helpers9read_bool
FN:100,_RNvNtNtCs1u7In8Za3Xp_17sqlrustgo_storage13binary_format7helpers9write_f64
FN:85,_RNvNtNtCs1u7In8Za3Xp_17sqlrustgo_storage13binary_format7helpers9write_i32
FN:70,_RNvNtNtCs1u7In8Za3Xp_17sqlrustgo_storage13binary_format7helpers9write_i64
FN:55,_RNvNtNtCs1u7In8Za3Xp_17sqlrustgo_storage13binary_format7helpers9write_u64
FN:130,_RNCNvNtNtCs1u7In8Za3Xp_17sqlrustgo_storage13binary_format7helpers11read_string0B7_
FN:130,_RNCNvNtNtCsd1AkON0xxEy_17sqlrustgo_storage13binary_format7helpers11read_string0B7_
FN:221,_RNvXs0_NtCsd1AkON0xxEy_17sqlrustgo_storage13binary_formatNtNtCs3IabHiFbGA9_15sqlrustgo_types5value5ValueNtB5_12BinaryFormat10from_bytes
FN:148,_RNvXs0_NtCsd1AkON0xxEy_17sqlrustgo_storage13binary_formatNtNtCs3IabHiFbGA9_15sqlrustgo_types5value5ValueNtB5_12BinaryFormat8to_bytes
FN:134,_RNvNtNtCsd1AkON0xxEy_17sqlrustgo_storage13binary_format7helpers10write_bool
FN:123,_RNvNtNtCsd1AkON0xxEy_17sqlrustgo_storage13binary_format7helpers11read_string
FN:115,_RNvNtNtCsd1AkON0xxEy_17sqlrustgo_storage13binary_format7helpers12write_string
FN:105,_RNvNtNtCsd1AkON0xxEy_17sqlrustgo_storage13binary_format7helpers8read_f64
FN:90,_RNvNtNtCsd1AkON0xxEy_17sqlrustgo_storage13binary_format7helpers8read_i32
FN:75,_RNvNtNtCsd1AkON0xxEy_17sqlrustgo_storage13binary_format7helpers8read_i64
FN:60,_RNvNtNtCsd1AkON0xxEy_17sqlrustgo_storage13binary_format7helpers8read_u64
FN:139,_RNvNtNtCsd1AkON0xxEy_17sqlrustgo_storage13binary_format7helpers9read_bool
FN:100,_RNvNtNtCsd1AkON0xxEy_17sqlrustgo_storage13binary_format7helpers9write_f64
FN:85,_RNvNtNtCsd1AkON0xxEy_17sqlrustgo_storage13binary_format7helpers9write_i32
FN:70,_RNvNtNtCsd1AkON0xxEy_17sqlrustgo_storage13binary_format7helpers9write_i64
FN:55,_RNvNtNtCsd1AkON0xxEy_17sqlrustgo_storage13binary_format7helpers9write_u64
FN:221,_RNvXs0_NtCs9oXD4GUMzTX_17sqlrustgo_storage13binary_formatNtNtCs3IabHiFbGA9_15sqlrustgo_types5value5ValueNtB5_12BinaryFormat10from_bytes
FN:148,_RNvXs0_NtCs9oXD4GUMzTX_17sqlrustgo_storage13binary_formatNtNtCs3IabHiFbGA9_15sqlrustgo_types5value5ValueNtB5_12BinaryFormat8to_bytes
FN:134,_RNvNtNtCs9oXD4GUMzTX_17sqlrustgo_storage13binary_format7helpers10write_bool
FN:123,_RNvNtNtCs9oXD4GUMzTX_17sqlrustgo_storage13binary_format7helpers11read_string
FN:115,_RNvNtNtCs9oXD4GUMzTX_17sqlrustgo_storage13binary_format7helpers12write_string
FN:105,_RNvNtNtCs9oXD4GUMzTX_17sqlrustgo_storage13binary_format7helpers8read_f64
FN:90,_RNvNtNtCs9oXD4GUMzTX_17sqlrustgo_storage13binary_format7helpers8read_i32
FN:75,_RNvNtNtCs9oXD4GUMzTX_17sqlrustgo_storage13binary_format7helpers8read_i64
FN:60,_RNvNtNtCs9oXD4GUMzTX_17sqlrustgo_storage13binary_format7helpers8read_u64
FN:139,_RNvNtNtCs9oXD4GUMzTX_17sqlrustgo_storage13binary_format7helpers9read_bool
FN:100,_RNvNtNtCs9oXD4GUMzTX_17sqlrustgo_storage13binary_format7helpers9write_f64
FN:85,_RNvNtNtCs9oXD4GUMzTX_17sqlrustgo_storage13binary_format7helpers9write_i32
FN:70,_RNvNtNtCs9oXD4GUMzTX_17sqlrustgo_storage13binary_format7helpers9write_i64
FN:55,_RNvNtNtCs9oXD4GUMzTX_17sqlrustgo_storage13binary_format7helpers9write_u64
FN:130,_RNCNvNtNtCs9oXD4GUMzTX_17sqlrustgo_storage13binary_format7helpers11read_string0B7_
FN:221,_RNvXs0_NtCsl9zPO89iGuX_17sqlrustgo_storage13binary_formatNtNtCsl9KCBifXFMJ_15sqlrustgo_types5value5ValueNtB5_12BinaryFormat10from_bytes
FN:148,_RNvXs0_NtCsl9zPO89iGuX_17sqlrustgo_storage13binary_formatNtNtCsl9KCBifXFMJ_15sqlrustgo_types5value5ValueNtB5_12BinaryFormat8to_bytes
FN:130,_RNCNvNtNtCsl9zPO89iGuX_17sqlrustgo_storage13binary_format7helpers11read_string0B7_
FN:134,_RNvNtNtCsl9zPO89iGuX_17sqlrustgo_storage13binary_format7helpers10write_bool
FN:123,_RNvNtNtCsl9zPO89iGuX_17sqlrustgo_storage13binary_format7helpers11read_string
FN:115,_RNvNtNtCsl9zPO89iGuX_17sqlrustgo_storage13binary_format7helpers12write_string
FN:105,_RNvNtNtCsl9zPO89iGuX_17sqlrustgo_storage13binary_format7helpers8read_f64
FN:90,_RNvNtNtCsl9zPO89iGuX_17sqlrustgo_storage13binary_format7helpers8read_i32
FN:75,_RNvNtNtCsl9zPO89iGuX_17sqlrustgo_storage13binary_format7helpers8read_i64
FN:60,_RNvNtNtCsl9zPO89iGuX_17sqlrustgo_storage13binary_format7helpers8read_u64
FN:139,_RNvNtNtCsl9zPO89iGuX_17sqlrustgo_storage13binary_format7helpers9read_bool
FN:100,_RNvNtNtCsl9zPO89iGuX_17sqlrustgo_storage13binary_format7helpers9write_f64
FN:85,_RNvNtNtCsl9zPO89iGuX_17sqlrustgo_storage13binary_format7helpers9write_i32
FN:70,_RNvNtNtCsl9zPO89iGuX_17sqlrustgo_storage13binary_format7helpers9write_i64
FN:55,_RNvNtNtCsl9zPO89iGuX_17sqlrustgo_storage13binary_format7helpers9write_u64
FN:421,_RNvNtNtCsgGnK47HN26N_17sqlrustgo_storage13binary_format5testss_24test_value_to_bytes_blob
FN:324,_RNvNtNtCsgGnK47HN26N_17sqlrustgo_storage13binary_format5testss_24test_value_to_bytes_null
FN:308,_RNvNtNtCsgGnK47HN26N_17sqlrustgo_storage13binary_format5testss_24test_value_to_bytes_text
FN:449,_RNvNtNtCsgGnK47HN26N_17sqlrustgo_storage13binary_format5testss_25test_helpers_write_string
FN:364,_RNvNtNtCsgGnK47HN26N_17sqlrustgo_storage13binary_format5testss_25test_value_roundtrip_null
FN:348,_RNvNtNtCsgGnK47HN26N_17sqlrustgo_storage13binary_format5testss_25test_value_roundtrip_text
FN:300,_RNvNtNtCsgGnK47HN26N_17sqlrustgo_storage13binary_format5testss_25test_value_to_bytes_float
FN:435,_RNvNtNtCsgGnK47HN26N_17sqlrustgo_storage13binary_format5testss_26test_value_from_bytes_blob
FN:340,_RNvNtNtCsgGnK47HN26N_17sqlrustgo_storage13binary_format5testss_26test_value_roundtrip_float
FN:372,_RNvNtNtCsgGnK47HN26N_17sqlrustgo_storage13binary_format5testss_27test_helpers_write_read_u64
FN:429,_RNvNtNtCsgGnK47HN26N_17sqlrustgo_storage13binary_format5testss_27test_value_from_bytes_empty
FN:316,_RNvNtNtCsgGnK47HN26N_17sqlrustgo_storage13binary_format5testss_27test_value_to_bytes_boolean
FN:292,_RNvNtNtCsgGnK47HN26N_17sqlrustgo_storage13binary_format5testss_27test_value_to_bytes_integer
FN:356,_RNvNtNtCsgGnK47HN26N_17sqlrustgo_storage13binary_format5testss_28test_value_roundtrip_boolean
FN:332,_RNvNtNtCsgGnK47HN26N_17sqlrustgo_storage13binary_format5testss_28test_value_roundtrip_integer
FN:455,_RNvNtNtCsgGnK47HN26N_17sqlrustgo_storage13binary_format5testss_30test_helpers_read_string_empty
FN:461,_RNvNtNtCsgGnK47HN26N_17sqlrustgo_storage13binary_format5testss_30test_helpers_read_string_short
FN:380,_RNvNtNtCsgGnK47HN26N_17sqlrustgo_storage13binary_format5testss_30test_helpers_write_read_string
FN:388,_RNvNtNtCsgGnK47HN26N_17sqlrustgo_storage13binary_format5testss_32test_binary_format_error_display
FN:443,_RNvNtNtCsgGnK47HN26N_17sqlrustgo_storage13binary_format5testss_34test_value_from_bytes_unknown_type
FN:415,_RNvNtNtCsgGnK47HN26N_17sqlrustgo_storage13binary_format5testss_39test_helpers_read_f64_insufficient_data
FN:409,_RNvNtNtCsgGnK47HN26N_17sqlrustgo_storage13binary_format5testss_39test_helpers_read_i64_insufficient_data
FN:403,_RNvNtNtCsgGnK47HN26N_17sqlrustgo_storage13binary_format5testss_39test_helpers_read_u64_insufficient_data
FN:38,_RNvXNtCsgGnK47HN26N_17sqlrustgo_storage13binary_formatNtB2_17BinaryFormatErrorNtNtCs8nPosuWgJFh_4core3fmt7Display3fmt
FN:221,_RNvXs0_NtCsgGnK47HN26N_17sqlrustgo_storage13binary_formatNtNtCs3IabHiFbGA9_15sqlrustgo_types5value5ValueNtB5_12BinaryFormat10from_bytes
FN:148,_RNvXs0_NtCsgGnK47HN26N_17sqlrustgo_storage13binary_formatNtNtCs3IabHiFbGA9_15sqlrustgo_types5value5ValueNtB5_12BinaryFormat8to_bytes
FN:134,_RNvNtNtCsgGnK47HN26N_17sqlrustgo_storage13binary_format7helpers10write_bool
FN:123,_RNvNtNtCsgGnK47HN26N_17sqlrustgo_storage13binary_format7helpers11read_string
FN:115,_RNvNtNtCsgGnK47HN26N_17sqlrustgo_storage13binary_format7helpers12write_string
FN:105,_RNvNtNtCsgGnK47HN26N_17sqlrustgo_storage13binary_format7helpers8read_f64
FN:90,_RNvNtNtCsgGnK47HN26N_17sqlrustgo_storage13binary_format7helpers8read_i32
FN:75,_RNvNtNtCsgGnK47HN26N_17sqlrustgo_storage13binary_format7helpers8read_i64
FN:60,_RNvNtNtCsgGnK47HN26N_17sqlrustgo_storage13binary_format7helpers8read_u64
FN:139,_RNvNtNtCsgGnK47HN26N_17sqlrustgo_storage13binary_format7helpers9read_bool
FN:100,_RNvNtNtCsgGnK47HN26N_17sqlrustgo_storage13binary_format7helpers9write_f64
FN:85,_RNvNtNtCsgGnK47HN26N_17sqlrustgo_storage13binary_format7helpers9write_i32
FN:70,_RNvNtNtCsgGnK47HN26N_17sqlrustgo_storage13binary_format7helpers9write_i64
FN:55,_RNvNtNtCsgGnK47HN26N_17sqlrustgo_storage13binary_format7helpers9write_u64
FN:130,_RNCNvNtNtCsgGnK47HN26N_17sqlrustgo_storage13binary_format7helpers11read_string0B7_
FN:130,_RNCNvNtNtCs2l7roSUS7lg_17sqlrustgo_storage13binary_format7helpers11read_string0B7_
FN:221,_RNvXs0_NtCs2l7roSUS7lg_17sqlrustgo_storage13binary_formatNtNtCs3IabHiFbGA9_15sqlrustgo_types5value5ValueNtB5_12BinaryFormat10from_bytes
FN:148,_RNvXs0_NtCs2l7roSUS7lg_17sqlrustgo_storage13binary_formatNtNtCs3IabHiFbGA9_15sqlrustgo_types5value5ValueNtB5_12BinaryFormat8to_bytes
FN:134,_RNvNtNtCs2l7roSUS7lg_17sqlrustgo_storage13binary_format7helpers10write_bool
FN:123,_RNvNtNtCs2l7roSUS7lg_17sqlrustgo_storage13binary_format7helpers11read_string
FN:115,_RNvNtNtCs2l7roSUS7lg_17sqlrustgo_storage13binary_format7helpers12write_string
FN:105,_RNvNtNtCs2l7roSUS7lg_17sqlrustgo_storage13binary_format7helpers8read_f64
FN:90,_RNvNtNtCs2l7roSUS7lg_17sqlrustgo_storage13binary_format7helpers8read_i32
FN:75,_RNvNtNtCs2l7roSUS7lg_17sqlrustgo_storage13binary_format7helpers8read_i64
FN:60,_RNvNtNtCs2l7roSUS7lg_17sqlrustgo_storage13binary_format7helpers8read_u64
FN:139,_RNvNtNtCs2l7roSUS7lg_17sqlrustgo_storage13binary_format7helpers9read_bool
FN:100,_RNvNtNtCs2l7roSUS7lg_17sqlrustgo_storage13binary_format7helpers9write_f64
FN:85,_RNvNtNtCs2l7roSUS7lg_17sqlrustgo_storage13binary_format7helpers9write_i32
FN:70,_RNvNtNtCs2l7roSUS7lg_17sqlrustgo_storage13binary_format7helpers9write_i64
FN:55,_RNvNtNtCs2l7roSUS7lg_17sqlrustgo_storage13binary_format7helpers9write_u64
FNDA:0,_RNCNvNtNtCs38XCG6692bz_17sqlrustgo_storage13binary_format7helpers11read_string0B7_
FNDA:0,_RNvXs0_NtCs38XCG6692bz_17sqlrustgo_storage13binary_formatNtNtCs3IabHiFbGA9_15sqlrustgo_types5value5ValueNtB5_12BinaryFormat10from_bytes
FNDA:0,_RNvXs0_NtCs38XCG6692bz_17sqlrustgo_storage13binary_formatNtNtCs3IabHiFbGA9_15sqlrustgo_types5value5ValueNtB5_12BinaryFormat8to_bytes
FNDA:0,_RNvNtNtCs38XCG6692bz_17sqlrustgo_storage13binary_format7helpers10write_bool
FNDA:0,_RNvNtNtCs38XCG6692bz_17sqlrustgo_storage13binary_format7helpers11read_string
FNDA:0,_RNvNtNtCs38XCG6692bz_17sqlrustgo_storage13binary_format7helpers12write_string
FNDA:0,_RNvNtNtCs38XCG6692bz_17sqlrustgo_storage13binary_format7helpers8read_f64
FNDA:0,_RNvNtNtCs38XCG6692bz_17sqlrustgo_storage13binary_format7helpers8read_i32
FNDA:0,_RNvNtNtCs38XCG6692bz_17sqlrustgo_storage13binary_format7helpers8read_i64
FNDA:0,_RNvNtNtCs38XCG6692bz_17sqlrustgo_storage13binary_format7helpers8read_u64
FNDA:0,_RNvNtNtCs38XCG6692bz_17sqlrustgo_storage13binary_format7helpers9read_bool
FNDA:0,_RNvNtNtCs38XCG6692bz_17sqlrustgo_storage13binary_format7helpers9write_f64
FNDA:0,_RNvNtNtCs38XCG6692bz_17sqlrustgo_storage13binary_format7helpers9write_i32
FNDA:0,_RNvNtNtCs38XCG6692bz_17sqlrustgo_storage13binary_format7helpers9write_i64
FNDA:0,_RNvNtNtCs38XCG6692bz_17sqlrustgo_storage13binary_format7helpers9write_u64
FNDA:0,_RNvXs0_NtCs1u7In8Za3Xp_17sqlrustgo_storage13binary_formatNtNtCs3IabHiFbGA9_15sqlrustgo_types5value5ValueNtB5_12BinaryFormat10from_bytes
FNDA:0,_RNvXs0_NtCs1u7In8Za3Xp_17sqlrustgo_storage13binary_formatNtNtCs3IabHiFbGA9_15sqlrustgo_types5value5ValueNtB5_12BinaryFormat8to_bytes
FNDA:0,_RNvNtNtCs1u7In8Za3Xp_17sqlrustgo_storage13binary_format7helpers10write_bool
FNDA:0,_RNvNtNtCs1u7In8Za3Xp_17sqlrustgo_storage13binary_format7helpers11read_string
FNDA:0,_RNvNtNtCs1u7In8Za3Xp_17sqlrustgo_storage13binary_format7helpers12write_string
FNDA:0,_RNvNtNtCs1u7In8Za3Xp_17sqlrustgo_storage13binary_format7helpers8read_f64
FNDA:0,_RNvNtNtCs1u7In8Za3Xp_17sqlrustgo_storage13binary_format7helpers8read_i32
FNDA:0,_RNvNtNtCs1u7In8Za3Xp_17sqlrustgo_storage13binary_format7helpers8read_i64
FNDA:0,_RNvNtNtCs1u7In8Za3Xp_17sqlrustgo_storage13binary_format7helpers8read_u64
FNDA:0,_RNvNtNtCs1u7In8Za3Xp_17sqlrustgo_storage13binary_format7helpers9read_bool
FNDA:0,_RNvNtNtCs1u7In8Za3Xp_17sqlrustgo_storage13binary_format7helpers9write_f64
FNDA:0,_RNvNtNtCs1u7In8Za3Xp_17sqlrustgo_storage13binary_format7helpers9write_i32
FNDA:0,_RNvNtNtCs1u7In8Za3Xp_17sqlrustgo_storage13binary_format7helpers9write_i64
FNDA:0,_RNvNtNtCs1u7In8Za3Xp_17sqlrustgo_storage13binary_format7helpers9write_u64
FNDA:0,_RNCNvNtNtCs1u7In8Za3Xp_17sqlrustgo_storage13binary_format7helpers11read_string0B7_
FNDA:0,_RNCNvNtNtCsd1AkON0xxEy_17sqlrustgo_storage13binary_format7helpers11read_string0B7_
FNDA:0,_RNvXs0_NtCsd1AkON0xxEy_17sqlrustgo_storage13binary_formatNtNtCs3IabHiFbGA9_15sqlrustgo_types5value5ValueNtB5_12BinaryFormat10from_bytes
FNDA:0,_RNvXs0_NtCsd1AkON0xxEy_17sqlrustgo_storage13binary_formatNtNtCs3IabHiFbGA9_15sqlrustgo_types5value5ValueNtB5_12BinaryFormat8to_bytes
FNDA:0,_RNvNtNtCsd1AkON0xxEy_17sqlrustgo_storage13binary_format7helpers10write_bool
FNDA:0,_RNvNtNtCsd1AkON0xxEy_17sqlrustgo_storage13binary_format7helpers11read_string
FNDA:0,_RNvNtNtCsd1AkON0xxEy_17sqlrustgo_storage13binary_format7helpers12write_string
FNDA:0,_RNvNtNtCsd1AkON0xxEy_17sqlrustgo_storage13binary_format7helpers8read_f64
FNDA:0,_RNvNtNtCsd1AkON0xxEy_17sqlrustgo_storage13binary_format7helpers8read_i32
FNDA:0,_RNvNtNtCsd1AkON0xxEy_17sqlrustgo_storage13binary_format7helpers8read_i64
FNDA:0,_RNvNtNtCsd1AkON0xxEy_17sqlrustgo_storage13binary_format7helpers8read_u64
FNDA:0,_RNvNtNtCsd1AkON0xxEy_17sqlrustgo_storage13binary_format7helpers9read_bool
FNDA:0,_RNvNtNtCsd1AkON0xxEy_17sqlrustgo_storage13binary_format7helpers9write_f64
FNDA:0,_RNvNtNtCsd1AkON0xxEy_17sqlrustgo_storage13binary_format7helpers9write_i32
FNDA:0,_RNvNtNtCsd1AkON0xxEy_17sqlrustgo_storage13binary_format7helpers9write_i64
FNDA:0,_RNvNtNtCsd1AkON0xxEy_17sqlrustgo_storage13binary_format7helpers9write_u64
FNDA:0,_RNvXs0_NtCs9oXD4GUMzTX_17sqlrustgo_storage13binary_formatNtNtCs3IabHiFbGA9_15sqlrustgo_types5value5ValueNtB5_12BinaryFormat10from_bytes
FNDA:0,_RNvXs0_NtCs9oXD4GUMzTX_17sqlrustgo_storage13binary_formatNtNtCs3IabHiFbGA9_15sqlrustgo_types5value5ValueNtB5_12BinaryFormat8to_bytes
FNDA:0,_RNvNtNtCs9oXD4GUMzTX_17sqlrustgo_storage13binary_format7helpers10write_bool
FNDA:0,_RNvNtNtCs9oXD4GUMzTX_17sqlrustgo_storage13binary_format7helpers11read_string
FNDA:0,_RNvNtNtCs9oXD4GUMzTX_17sqlrustgo_storage13binary_format7helpers12write_string
FNDA:0,_RNvNtNtCs9oXD4GUMzTX_17sqlrustgo_storage13binary_format7helpers8read_f64
FNDA:0,_RNvNtNtCs9oXD4GUMzTX_17sqlrustgo_storage13binary_format7helpers8read_i32
FNDA:0,_RNvNtNtCs9oXD4GUMzTX_17sqlrustgo_storage13binary_format7helpers8read_i64
FNDA:0,_RNvNtNtCs9oXD4GUMzTX_17sqlrustgo_storage13binary_format7helpers8read_u64
FNDA:0,_RNvNtNtCs9oXD4GUMzTX_17sqlrustgo_storage13binary_format7helpers9read_bool
FNDA:0,_RNvNtNtCs9oXD4GUMzTX_17sqlrustgo_storage13binary_format7helpers9write_f64
FNDA:0,_RNvNtNtCs9oXD4GUMzTX_17sqlrustgo_storage13binary_format7helpers9write_i32
FNDA:0,_RNvNtNtCs9oXD4GUMzTX_17sqlrustgo_storage13binary_format7helpers9write_i64
FNDA:0,_RNvNtNtCs9oXD4GUMzTX_17sqlrustgo_storage13binary_format7helpers9write_u64
FNDA:0,_RNCNvNtNtCs9oXD4GUMzTX_17sqlrustgo_storage13binary_format7helpers11read_string0B7_
FNDA:0,_RNvXs0_NtCsl9zPO89iGuX_17sqlrustgo_storage13binary_formatNtNtCsl9KCBifXFMJ_15sqlrustgo_types5value5ValueNtB5_12BinaryFormat10from_bytes
FNDA:0,_RNvXs0_NtCsl9zPO89iGuX_17sqlrustgo_storage13binary_formatNtNtCsl9KCBifXFMJ_15sqlrustgo_types5value5ValueNtB5_12BinaryFormat8to_bytes
FNDA:0,_RNCNvNtNtCsl9zPO89iGuX_17sqlrustgo_storage13binary_format7helpers11read_string0B7_
FNDA:0,_RNvNtNtCsl9zPO89iGuX_17sqlrustgo_storage13binary_format7helpers10write_bool
FNDA:0,_RNvNtNtCsl9zPO89iGuX_17sqlrustgo_storage13binary_format7helpers11read_string
FNDA:0,_RNvNtNtCsl9zPO89iGuX_17sqlrustgo_storage13binary_format7helpers12write_string
FNDA:0,_RNvNtNtCsl9zPO89iGuX_17sqlrustgo_storage13binary_format7helpers8read_f64
FNDA:0,_RNvNtNtCsl9zPO89iGuX_17sqlrustgo_storage13binary_format7helpers8read_i32
FNDA:0,_RNvNtNtCsl9zPO89iGuX_17sqlrustgo_storage13binary_format7helpers8read_i64
FNDA:0,_RNvNtNtCsl9zPO89iGuX_17sqlrustgo_storage13binary_format7helpers8read_u64
FNDA:0,_RNvNtNtCsl9zPO89iGuX_17sqlrustgo_storage13binary_format7helpers9read_bool
FNDA:0,_RNvNtNtCsl9zPO89iGuX_17sqlrustgo_storage13binary_format7helpers9write_f64
FNDA:0,_RNvNtNtCsl9zPO89iGuX_17sqlrustgo_storage13binary_format7helpers9write_i32
FNDA:0,_RNvNtNtCsl9zPO89iGuX_17sqlrustgo_storage13binary_format7helpers9write_i64
FNDA:0,_RNvNtNtCsl9zPO89iGuX_17sqlrustgo_storage13binary_format7helpers9write_u64
FNDA:1,_RNvNtNtCsgGnK47HN26N_17sqlrustgo_storage13binary_format5testss_24test_value_to_bytes_blob
FNDA:1,_RNvNtNtCsgGnK47HN26N_17sqlrustgo_storage13binary_format5testss_24test_value_to_bytes_null
FNDA:1,_RNvNtNtCsgGnK47HN26N_17sqlrustgo_storage13binary_format5testss_24test_value_to_bytes_text
FNDA:1,_RNvNtNtCsgGnK47HN26N_17sqlrustgo_storage13binary_format5testss_25test_helpers_write_string
FNDA:1,_RNvNtNtCsgGnK47HN26N_17sqlrustgo_storage13binary_format5testss_25test_value_roundtrip_null
FNDA:1,_RNvNtNtCsgGnK47HN26N_17sqlrustgo_storage13binary_format5testss_25test_value_roundtrip_text
FNDA:1,_RNvNtNtCsgGnK47HN26N_17sqlrustgo_storage13binary_format5testss_25test_value_to_bytes_float
FNDA:1,_RNvNtNtCsgGnK47HN26N_17sqlrustgo_storage13binary_format5testss_26test_value_from_bytes_blob
FNDA:1,_RNvNtNtCsgGnK47HN26N_17sqlrustgo_storage13binary_format5testss_26test_value_roundtrip_float
FNDA:1,_RNvNtNtCsgGnK47HN26N_17sqlrustgo_storage13binary_format5testss_27test_helpers_write_read_u64
FNDA:1,_RNvNtNtCsgGnK47HN26N_17sqlrustgo_storage13binary_format5testss_27test_value_from_bytes_empty
FNDA:1,_RNvNtNtCsgGnK47HN26N_17sqlrustgo_storage13binary_format5testss_27test_value_to_bytes_boolean
FNDA:1,_RNvNtNtCsgGnK47HN26N_17sqlrustgo_storage13binary_format5testss_27test_value_to_bytes_integer
FNDA:1,_RNvNtNtCsgGnK47HN26N_17sqlrustgo_storage13binary_format5testss_28test_value_roundtrip_boolean
FNDA:1,_RNvNtNtCsgGnK47HN26N_17sqlrustgo_storage13binary_format5testss_28test_value_roundtrip_integer
FNDA:1,_RNvNtNtCsgGnK47HN26N_17sqlrustgo_storage13binary_format5testss_30test_helpers_read_string_empty
FNDA:1,_RNvNtNtCsgGnK47HN26N_17sqlrustgo_storage13binary_format5testss_30test_helpers_read_string_short
FNDA:1,_RNvNtNtCsgGnK47HN26N_17sqlrustgo_storage13binary_format5testss_30test_helpers_write_read_string
FNDA:1,_RNvNtNtCsgGnK47HN26N_17sqlrustgo_storage13binary_format5testss_32test_binary_format_error_display
FNDA:1,_RNvNtNtCsgGnK47HN26N_17sqlrustgo_storage13binary_format5testss_34test_value_from_bytes_unknown_type
FNDA:1,_RNvNtNtCsgGnK47HN26N_17sqlrustgo_storage13binary_format5testss_39test_helpers_read_f64_insufficient_data
FNDA:1,_RNvNtNtCsgGnK47HN26N_17sqlrustgo_storage13binary_format5testss_39test_helpers_read_i64_insufficient_data
FNDA:1,_RNvNtNtCsgGnK47HN26N_17sqlrustgo_storage13binary_format5testss_39test_helpers_read_u64_insufficient_data
FNDA:4,_RNvXNtCsgGnK47HN26N_17sqlrustgo_storage13binary_formatNtB2_17BinaryFormatErrorNtNtCs8nPosuWgJFh_4core3fmt7Display3fmt
FNDA:8,_RNvXs0_NtCsgGnK47HN26N_17sqlrustgo_storage13binary_formatNtNtCs3IabHiFbGA9_15sqlrustgo_types5value5ValueNtB5_12BinaryFormat10from_bytes
FNDA:12,_RNvXs0_NtCsgGnK47HN26N_17sqlrustgo_storage13binary_formatNtNtCs3IabHiFbGA9_15sqlrustgo_types5value5ValueNtB5_12BinaryFormat8to_bytes
FNDA:2,_RNvNtNtCsgGnK47HN26N_17sqlrustgo_storage13binary_format7helpers10write_bool
FNDA:4,_RNvNtNtCsgGnK47HN26N_17sqlrustgo_storage13binary_format7helpers11read_string
FNDA:5,_RNvNtNtCsgGnK47HN26N_17sqlrustgo_storage13binary_format7helpers12write_string
FNDA:2,_RNvNtNtCsgGnK47HN26N_17sqlrustgo_storage13binary_format7helpers8read_f64
FNDA:0,_RNvNtNtCsgGnK47HN26N_17sqlrustgo_storage13binary_format7helpers8read_i32
FNDA:2,_RNvNtNtCsgGnK47HN26N_17sqlrustgo_storage13binary_format7helpers8read_i64
FNDA:7,_RNvNtNtCsgGnK47HN26N_17sqlrustgo_storage13binary_format7helpers8read_u64
FNDA:1,_RNvNtNtCsgGnK47HN26N_17sqlrustgo_storage13binary_format7helpers9read_bool
FNDA:2,_RNvNtNtCsgGnK47HN26N_17sqlrustgo_storage13binary_format7helpers9write_f64
FNDA:0,_RNvNtNtCsgGnK47HN26N_17sqlrustgo_storage13binary_format7helpers9write_i32
FNDA:2,_RNvNtNtCsgGnK47HN26N_17sqlrustgo_storage13binary_format7helpers9write_i64
FNDA:8,_RNvNtNtCsgGnK47HN26N_17sqlrustgo_storage13binary_format7helpers9write_u64
FNDA:0,_RNCNvNtNtCsgGnK47HN26N_17sqlrustgo_storage13binary_format7helpers11read_string0B7_
FNDA:0,_RNCNvNtNtCs2l7roSUS7lg_17sqlrustgo_storage13binary_format7helpers11read_string0B7_
FNDA:0,_RNvXs0_NtCs2l7roSUS7lg_17sqlrustgo_storage13binary_formatNtNtCs3IabHiFbGA9_15sqlrustgo_types5value5ValueNtB5_12BinaryFormat10from_bytes
FNDA:0,_RNvXs0_NtCs2l7roSUS7lg_17sqlrustgo_storage13binary_formatNtNtCs3IabHiFbGA9_15sqlrustgo_types5value5ValueNtB5_12BinaryFormat8to_bytes
FNDA:0,_RNvNtNtCs2l7roSUS7lg_17sqlrustgo_storage13binary_format7helpers10write_bool
FNDA:0,_RNvNtNtCs2l7roSUS7lg_17sqlrustgo_storage13binary_format7helpers11read_string
FNDA:0,_RNvNtNtCs2l7roSUS7lg_17sqlrustgo_storage13binary_format7helpers12write_string
FNDA:0,_RNvNtNtCs2l7roSUS7lg_17sqlrustgo_storage13binary_format7helpers8read_f64
FNDA:0,_RNvNtNtCs2l7roSUS7lg_17sqlrustgo_storage13binary_format7helpers8read_i32
FNDA:0,_RNvNtNtCs2l7roSUS7lg_17sqlrustgo_storage13binary_format7helpers8read_i64
FNDA:0,_RNvNtNtCs2l7roSUS7lg_17sqlrustgo_storage13binary_format7helpers8read_u64
FNDA:0,_RNvNtNtCs2l7roSUS7lg_17sqlrustgo_storage13binary_format7helpers9read_bool
FNDA:0,_RNvNtNtCs2l7roSUS7lg_17sqlrustgo_storage13binary_format7helpers9write_f64
FNDA:0,_RNvNtNtCs2l7roSUS7lg_17sqlrustgo_storage13binary_format7helpers9write_i32
FNDA:0,_RNvNtNtCs2l7roSUS7lg_17sqlrustgo_storage13binary_format7helpers9write_i64
FNDA:0,_RNvNtNtCs2l7roSUS7lg_17sqlrustgo_storage13binary_format7helpers9write_u64
FNF:39
FNH:36
DA:38,4
DA:39,4
DA:40,1
DA:41,1
DA:42,1
DA:43,1
DA:45,4
DA:55,8
DA:56,8
DA:57,8
DA:60,7
DA:61,7
DA:62,3
DA:63,4
DA:64,4
DA:65,4
DA:66,4
DA:67,7
DA:70,2
DA:71,2
DA:72,2
DA:75,2
DA:76,2
DA:77,1
DA:78,1
DA:79,1
DA:80,1
DA:81,1
DA:82,2
DA:85,0
DA:86,0
DA:87,0
DA:90,0
DA:91,0
DA:92,0
DA:93,0
DA:94,0
DA:95,0
DA:96,0
DA:97,0
DA:100,2
DA:101,2
DA:102,2
DA:105,2
DA:106,2
DA:107,1
DA:108,1
DA:109,1
DA:110,1
DA:111,1
DA:112,2
DA:115,5
DA:116,5
DA:117,5
DA:118,5
DA:119,5
DA:120,5
DA:123,4
DA:124,4
DA:125,2
DA:126,0
DA:127,2
DA:128,2
DA:129,2
DA:130,2
DA:131,4
DA:134,2
DA:135,2
DA:136,2
DA:139,1
DA:140,1
DA:141,0
DA:142,1
DA:143,1
DA:144,1
DA:148,12
DA:149,12
DA:151,2
DA:152,2
DA:154,2
DA:155,2
DA:156,2
DA:157,2
DA:159,2
DA:160,2
DA:161,2
DA:162,2
DA:164,0
DA:165,0
DA:166,0
DA:167,0
DA:169,2
DA:170,2
DA:171,2
DA:172,2
DA:174,2
DA:175,2
DA:176,2
DA:177,2
DA:179,2
DA:180,2
DA:182,2
DA:183,2
DA:184,2
DA:185,2
DA:187,0
DA:188,0
DA:189,0
DA:190,0
DA:192,0
DA:193,0
DA:194,0
DA:195,0
DA:197,0
DA:198,0
DA:199,0
DA:200,0
DA:202,0
DA:203,0
DA:204,0
DA:205,0
DA:206,0
DA:207,0
DA:208,0
DA:209,0
DA:210,0
DA:212,0
DA:213,0
DA:214,0
DA:215,0
DA:216,0
DA:219,12
DA:221,8
DA:222,8
DA:223,1
DA:224,7
DA:225,7
DA:226,1
DA:227,1
DA:228,1
DA:229,1
DA:230,1
DA:233,1
DA:234,1
DA:235,0
DA:236,1
DA:237,1
DA:238,1
DA:240,0
DA:241,0
DA:244,0
DA:245,0
DA:246,0
DA:247,0
DA:248,0
DA:249,0
DA:250,0
DA:251,0
DA:255,0
DA:256,0
DA:257,0
DA:258,0
DA:259,0
DA:260,0
DA:261,0
DA:262,0
DA:263,0
DA:264,0
DA:265,0
DA:266,0
DA:267,0
DA:268,0
DA:269,0
DA:271,0
DA:275,0
DA:276,0
DA:277,0
DA:279,1
DA:280,1
DA:281,1
DA:282,1
DA:284,8
DA:292,1
DA:293,1
DA:294,1
DA:295,1
DA:296,1
DA:297,1
DA:300,1
DA:301,1
DA:302,1
DA:303,1
DA:304,1
DA:305,1
DA:308,1
DA:309,1
DA:310,1
DA:311,1
DA:312,1
DA:313,1
DA:316,1
DA:317,1
DA:318,1
DA:319,1
DA:320,1
DA:321,1
DA:324,1
DA:325,1
DA:326,1
DA:327,1
DA:328,1
DA:329,1
DA:332,1
DA:333,1
DA:334,1
DA:335,1
DA:336,1
DA:337,1
DA:340,1
DA:341,1
DA:342,1
DA:343,1
DA:344,1
DA:345,1
DA:348,1
DA:349,1
DA:350,1
DA:351,1
DA:352,1
DA:353,1
DA:356,1
DA:357,1
DA:358,1
DA:359,1
DA:360,1
DA:361,1
DA:364,1
DA:365,1
DA:366,1
DA:367,1
DA:368,1
DA:369,1
DA:372,1
DA:373,1
DA:374,1
DA:375,1
DA:376,1
DA:377,1
DA:380,1
DA:381,1
DA:382,1
DA:383,1
DA:384,1
DA:385,1
DA:388,1
DA:389,1
DA:390,1
DA:392,1
DA:393,1
DA:395,1
DA:396,1
DA:398,1
DA:399,1
DA:400,1
DA:403,1
DA:404,1
DA:405,1
DA:406,1
DA:409,1
DA:410,1
DA:411,1
DA:412,1
DA:415,1
DA:416,1
DA:417,1
DA:418,1
DA:421,1
DA:422,1
DA:423,1
DA:424,1
DA:425,1
DA:426,1
DA:429,1
DA:430,1
DA:431,1
DA:432,1
DA:435,1
DA:436,1
DA:437,1
DA:438,1
DA:439,1
DA:440,1
DA:443,1
DA:444,1
DA:445,1
DA:446,1
DA:449,1
DA:450,1
DA:451,1
DA:452,1
DA:455,1
DA:456,1
DA:457,1
DA:458,1
DA:461,1
DA:462,1
DA:463,1
DA:464,1
DA:465,1
BRF:0
BRH:0
LF:310
LH:236
end_of_record
SF:/home/openclaw/dev/yinglichina8848/sqlrustgo/crates/storage/src/binary_storage.rs
FN:122,_RNCNvMNtCs38XCG6692bz_17sqlrustgo_storage14binary_storageNtB4_18BinaryTableStorage4load0B6_
FN:122,_RNCNvMNtCs1u7In8Za3Xp_17sqlrustgo_storage14binary_storageNtB4_18BinaryTableStorage4load0B6_
FN:122,_RNCNvMNtCsd1AkON0xxEy_17sqlrustgo_storage14binary_storageNtB4_18BinaryTableStorage4load0B6_
FN:122,_RNCNvMNtCs9oXD4GUMzTX_17sqlrustgo_storage14binary_storageNtB4_18BinaryTableStorage4load0B6_
FN:122,_RNCNvMNtCsl9zPO89iGuX_17sqlrustgo_storage14binary_storageNtB4_18BinaryTableStorage4load0B6_
FN:122,_RNCNvMNtCsgGnK47HN26N_17sqlrustgo_storage14binary_storageNtB4_18BinaryTableStorage4load0B6_
FN:21,_RNvMNtCsgGnK47HN26N_17sqlrustgo_storage14binary_storageNtB2_18BinaryTableStorage10table_path
FN:16,_RNvMNtCsgGnK47HN26N_17sqlrustgo_storage14binary_storageNtB2_18BinaryTableStorage3new
FN:81,_RNvMNtCsgGnK47HN26N_17sqlrustgo_storage14binary_storageNtB2_18BinaryTableStorage4load
FN:26,_RNvMNtCsgGnK47HN26N_17sqlrustgo_storage14binary_storageNtB2_18BinaryTableStorage4save
FN:182,_RNvMNtCsgGnK47HN26N_17sqlrustgo_storage14binary_storageNtB2_18BinaryTableStorage6exists
FN:192,_RNvNtNtCsgGnK47HN26N_17sqlrustgo_storage14binary_storage5testss_21test_binary_save_load
FN:122,_RNCNvMNtCs2l7roSUS7lg_17sqlrustgo_storage14binary_storageNtB4_18BinaryTableStorage4load0B6_
FNDA:0,_RNCNvMNtCs38XCG6692bz_17sqlrustgo_storage14binary_storageNtB4_18BinaryTableStorage4load0B6_
FNDA:0,_RNCNvMNtCs1u7In8Za3Xp_17sqlrustgo_storage14binary_storageNtB4_18BinaryTableStorage4load0B6_
FNDA:0,_RNCNvMNtCsd1AkON0xxEy_17sqlrustgo_storage14binary_storageNtB4_18BinaryTableStorage4load0B6_
FNDA:0,_RNCNvMNtCs9oXD4GUMzTX_17sqlrustgo_storage14binary_storageNtB4_18BinaryTableStorage4load0B6_
FNDA:0,_RNCNvMNtCsl9zPO89iGuX_17sqlrustgo_storage14binary_storageNtB4_18BinaryTableStorage4load0B6_
FNDA:1,_RNCNvMNtCsgGnK47HN26N_17sqlrustgo_storage14binary_storageNtB4_18BinaryTableStorage4load0B6_
FNDA:3,_RNvMNtCsgGnK47HN26N_17sqlrustgo_storage14binary_storageNtB2_18BinaryTableStorage10table_path
FNDA:1,_RNvMNtCsgGnK47HN26N_17sqlrustgo_storage14binary_storageNtB2_18BinaryTableStorage3new
FNDA:1,_RNvMNtCsgGnK47HN26N_17sqlrustgo_storage14binary_storageNtB2_18BinaryTableStorage4load
FNDA:1,_RNvMNtCsgGnK47HN26N_17sqlrustgo_storage14binary_storageNtB2_18BinaryTableStorage4save
FNDA:1,_RNvMNtCsgGnK47HN26N_17sqlrustgo_storage14binary_storageNtB2_18BinaryTableStorage6exists
FNDA:1,_RNvNtNtCsgGnK47HN26N_17sqlrustgo_storage14binary_storage5testss_21test_binary_save_load
FNDA:0,_RNCNvMNtCs2l7roSUS7lg_17sqlrustgo_storage14binary_storageNtB4_18BinaryTableStorage4load0B6_
FNF:7
FNH:7
DA:16,1
DA:17,1
DA:18,1
DA:19,1
DA:21,3
DA:22,3
DA:23,3
DA:26,1
DA:27,1
DA:28,1
DA:29,1
DA:32,1
DA:33,1
DA:36,1
DA:37,1
DA:38,1
DA:39,1
DA:40,0
DA:41,0
DA:43,1
DA:47,1
DA:50,1
DA:51,1
DA:52,1
DA:53,1
DA:54,1
DA:55,1
DA:57,0
DA:58,0
DA:59,0
DA:61,0
DA:62,0
DA:63,0
DA:64,0
DA:65,0
DA:68,0
DA:71,0
DA:77,1
DA:78,1
DA:81,1
DA:82,1
DA:83,1
DA:87,1
DA:90,1
DA:91,1
DA:92,1
DA:93,0
DA:94,0
DA:95,0
DA:96,0
DA:97,1
DA:99,1
DA:100,1
DA:103,1
DA:104,1
DA:105,1
DA:107,1
DA:108,1
DA:109,1
DA:110,1
DA:111,1
DA:115,1
DA:116,1
DA:117,1
DA:120,1
DA:121,1
DA:122,1
DA:123,1
DA:124,1
DA:125,0
DA:126,0
DA:131,1
DA:133,1
DA:134,1
DA:135,1
DA:137,1
DA:138,1
DA:139,1
DA:140,1
DA:141,1
DA:144,1
DA:145,1
DA:146,1
DA:147,1
DA:149,1
DA:150,1
DA:151,1
DA:152,0
DA:154,1
DA:155,1
DA:156,1
DA:159,0
DA:160,0
DA:161,0
DA:164,0
DA:165,0
DA:166,0
DA:167,0
DA:168,0
DA:169,0
DA:170,0
DA:171,0
DA:173,0
DA:176,1
DA:179,1
DA:180,1
DA:182,1
DA:183,1
DA:184,1
DA:192,1
DA:193,1
DA:194,1
DA:196,1
DA:197,1
DA:198,1
DA:199,1
DA:200,1
DA:201,1
DA:202,1
DA:203,1
DA:204,1
DA:205,1
DA:206,1
DA:208,1
DA:209,1
DA:210,1
DA:211,1
DA:212,1
DA:213,1
DA:214,1
DA:215,1
DA:217,1
DA:218,1
DA:220,1
DA:221,1
DA:223,1
DA:224,1
DA:226,0
DA:229,1
DA:230,1
BRF:0
BRH:0
LF:140
LH:108
end_of_record
SF:/home/openclaw/dev/yinglichina8848/sqlrustgo/crates/storage/src/bplus_tree/hash_index.rs
FN:46,_RNvMNtNtCs38XCG6692bz_17sqlrustgo_storage10bplus_tree10hash_indexINtB2_9HashIndexxmE3getB6_
FN:20,_RNvMNtNtCs38XCG6692bz_17sqlrustgo_storage10bplus_tree10hash_indexINtB2_9HashIndexxmE3newB6_
FN:36,_RNvMNtNtCs38XCG6692bz_17sqlrustgo_storage10bplus_tree10hash_indexINtB2_9HashIndexxmE6insertB6_
FN:95,_RINvMNtNtCs38XCG6692bz_17sqlrustgo_storage10bplus_tree10hash_indexINtB3_9HashIndexppE12batch_insertpEB7_
FN:108,_RINvMNtNtCs38XCG6692bz_17sqlrustgo_storage10bplus_tree10hash_indexINtB3_9HashIndexppE6filterpEB7_
FN:134,_RINvNtNtCs38XCG6692bz_17sqlrustgo_storage10bplus_tree10hash_index21new_shared_hash_indexppEB6_
FN:139,_RINvNtNtCs38XCG6692bz_17sqlrustgo_storage10bplus_tree10hash_index31shared_hash_index_with_capacityppEB6_
FN:115,_RNCINvMNtNtCs38XCG6692bz_17sqlrustgo_storage10bplus_tree10hash_indexINtB5_9HashIndexppE6filterpE0B9_
FN:116,_RNCINvMNtNtCs38XCG6692bz_17sqlrustgo_storage10bplus_tree10hash_indexINtB5_9HashIndexppE6filterpEs_0B9_
FN:90,_RNCNvMNtNtCs38XCG6692bz_17sqlrustgo_storage10bplus_tree10hash_indexINtB4_9HashIndexppE7entries0B8_
FN:28,_RNvMNtNtCs38XCG6692bz_17sqlrustgo_storage10bplus_tree10hash_indexINtB2_9HashIndexppE13with_capacityB6_
FN:66,_RNvMNtNtCs38XCG6692bz_17sqlrustgo_storage10bplus_tree10hash_indexINtB2_9HashIndexppE3lenB6_
FN:76,_RNvMNtNtCs38XCG6692bz_17sqlrustgo_storage10bplus_tree10hash_indexINtB2_9HashIndexppE4keysB6_
FN:56,_RNvMNtNtCs38XCG6692bz_17sqlrustgo_storage10bplus_tree10hash_indexINtB2_9HashIndexppE6removeB6_
FN:81,_RNvMNtNtCs38XCG6692bz_17sqlrustgo_storage10bplus_tree10hash_indexINtB2_9HashIndexppE6valuesB6_
FN:86,_RNvMNtNtCs38XCG6692bz_17sqlrustgo_storage10bplus_tree10hash_indexINtB2_9HashIndexppE7entriesB6_
FN:51,_RNvMNtNtCs38XCG6692bz_17sqlrustgo_storage10bplus_tree10hash_indexINtB2_9HashIndexppE8containsB6_
FN:71,_RNvMNtNtCs38XCG6692bz_17sqlrustgo_storage10bplus_tree10hash_indexINtB2_9HashIndexppE8is_emptyB6_
FN:122,_RNvXININtNtCs38XCG6692bz_17sqlrustgo_storage10bplus_tree10hash_indexs_0ppEINtB5_9HashIndexppENtNtCs8nPosuWgJFh_4core7default7Default7defaultB9_
FN:95,_RINvMNtNtCs1u7In8Za3Xp_17sqlrustgo_storage10bplus_tree10hash_indexINtB3_9HashIndexppE12batch_insertpEB7_
FN:108,_RINvMNtNtCs1u7In8Za3Xp_17sqlrustgo_storage10bplus_tree10hash_indexINtB3_9HashIndexppE6filterpEB7_
FN:134,_RINvNtNtCs1u7In8Za3Xp_17sqlrustgo_storage10bplus_tree10hash_index21new_shared_hash_indexppEB6_
FN:139,_RINvNtNtCs1u7In8Za3Xp_17sqlrustgo_storage10bplus_tree10hash_index31shared_hash_index_with_capacityppEB6_
FN:115,_RNCINvMNtNtCs1u7In8Za3Xp_17sqlrustgo_storage10bplus_tree10hash_indexINtB5_9HashIndexppE6filterpE0B9_
FN:116,_RNCINvMNtNtCs1u7In8Za3Xp_17sqlrustgo_storage10bplus_tree10hash_indexINtB5_9HashIndexppE6filterpEs_0B9_
FN:90,_RNCNvMNtNtCs1u7In8Za3Xp_17sqlrustgo_storage10bplus_tree10hash_indexINtB4_9HashIndexppE7entries0B8_
FN:28,_RNvMNtNtCs1u7In8Za3Xp_17sqlrustgo_storage10bplus_tree10hash_indexINtB2_9HashIndexppE13with_capacityB6_
FN:66,_RNvMNtNtCs1u7In8Za3Xp_17sqlrustgo_storage10bplus_tree10hash_indexINtB2_9HashIndexppE3lenB6_
FN:76,_RNvMNtNtCs1u7In8Za3Xp_17sqlrustgo_storage10bplus_tree10hash_indexINtB2_9HashIndexppE4keysB6_
FN:56,_RNvMNtNtCs1u7In8Za3Xp_17sqlrustgo_storage10bplus_tree10hash_indexINtB2_9HashIndexppE6removeB6_
FN:81,_RNvMNtNtCs1u7In8Za3Xp_17sqlrustgo_storage10bplus_tree10hash_indexINtB2_9HashIndexppE6valuesB6_
FN:86,_RNvMNtNtCs1u7In8Za3Xp_17sqlrustgo_storage10bplus_tree10hash_indexINtB2_9HashIndexppE7entriesB6_
FN:51,_RNvMNtNtCs1u7In8Za3Xp_17sqlrustgo_storage10bplus_tree10hash_indexINtB2_9HashIndexppE8containsB6_
FN:71,_RNvMNtNtCs1u7In8Za3Xp_17sqlrustgo_storage10bplus_tree10hash_indexINtB2_9HashIndexppE8is_emptyB6_
FN:122,_RNvXININtNtCs1u7In8Za3Xp_17sqlrustgo_storage10bplus_tree10hash_indexs_0ppEINtB5_9HashIndexppENtNtCs8nPosuWgJFh_4core7default7Default7defaultB9_
FN:46,_RNvMNtNtCs1u7In8Za3Xp_17sqlrustgo_storage10bplus_tree10hash_indexINtB2_9HashIndexxmE3getB6_
FN:20,_RNvMNtNtCs1u7In8Za3Xp_17sqlrustgo_storage10bplus_tree10hash_indexINtB2_9HashIndexxmE3newB6_
FN:36,_RNvMNtNtCs1u7In8Za3Xp_17sqlrustgo_storage10bplus_tree10hash_indexINtB2_9HashIndexxmE6insertB6_
FN:95,_RINvMNtNtCsd1AkON0xxEy_17sqlrustgo_storage10bplus_tree10hash_indexINtB3_9HashIndexppE12batch_insertpEB7_
FN:108,_RINvMNtNtCsd1AkON0xxEy_17sqlrustgo_storage10bplus_tree10hash_indexINtB3_9HashIndexppE6filterpEB7_
FN:134,_RINvNtNtCsd1AkON0xxEy_17sqlrustgo_storage10bplus_tree10hash_index21new_shared_hash_indexppEB6_
FN:139,_RINvNtNtCsd1AkON0xxEy_17sqlrustgo_storage10bplus_tree10hash_index31shared_hash_index_with_capacityppEB6_
FN:115,_RNCINvMNtNtCsd1AkON0xxEy_17sqlrustgo_storage10bplus_tree10hash_indexINtB5_9HashIndexppE6filterpE0B9_
FN:116,_RNCINvMNtNtCsd1AkON0xxEy_17sqlrustgo_storage10bplus_tree10hash_indexINtB5_9HashIndexppE6filterpEs_0B9_
FN:90,_RNCNvMNtNtCsd1AkON0xxEy_17sqlrustgo_storage10bplus_tree10hash_indexINtB4_9HashIndexppE7entries0B8_
FN:28,_RNvMNtNtCsd1AkON0xxEy_17sqlrustgo_storage10bplus_tree10hash_indexINtB2_9HashIndexppE13with_capacityB6_
FN:66,_RNvMNtNtCsd1AkON0xxEy_17sqlrustgo_storage10bplus_tree10hash_indexINtB2_9HashIndexppE3lenB6_
FN:76,_RNvMNtNtCsd1AkON0xxEy_17sqlrustgo_storage10bplus_tree10hash_indexINtB2_9HashIndexppE4keysB6_
FN:56,_RNvMNtNtCsd1AkON0xxEy_17sqlrustgo_storage10bplus_tree10hash_indexINtB2_9HashIndexppE6removeB6_
FN:81,_RNvMNtNtCsd1AkON0xxEy_17sqlrustgo_storage10bplus_tree10hash_indexINtB2_9HashIndexppE6valuesB6_
FN:86,_RNvMNtNtCsd1AkON0xxEy_17sqlrustgo_storage10bplus_tree10hash_indexINtB2_9HashIndexppE7entriesB6_
FN:51,_RNvMNtNtCsd1AkON0xxEy_17sqlrustgo_storage10bplus_tree10hash_indexINtB2_9HashIndexppE8containsB6_
FN:71,_RNvMNtNtCsd1AkON0xxEy_17sqlrustgo_storage10bplus_tree10hash_indexINtB2_9HashIndexppE8is_emptyB6_
FN:122,_RNvXININtNtCsd1AkON0xxEy_17sqlrustgo_storage10bplus_tree10hash_indexs_0ppEINtB5_9HashIndexppENtNtCs8nPosuWgJFh_4core7default7Default7defaultB9_
FN:46,_RNvMNtNtCsd1AkON0xxEy_17sqlrustgo_storage10bplus_tree10hash_indexINtB2_9HashIndexxmE3getB6_
FN:20,_RNvMNtNtCsd1AkON0xxEy_17sqlrustgo_storage10bplus_tree10hash_indexINtB2_9HashIndexxmE3newB6_
FN:36,_RNvMNtNtCsd1AkON0xxEy_17sqlrustgo_storage10bplus_tree10hash_indexINtB2_9HashIndexxmE6insertB6_
FN:95,_RINvMNtNtCs9oXD4GUMzTX_17sqlrustgo_storage10bplus_tree10hash_indexINtB3_9HashIndexppE12batch_insertpEB7_
FN:108,_RINvMNtNtCs9oXD4GUMzTX_17sqlrustgo_storage10bplus_tree10hash_indexINtB3_9HashIndexppE6filterpEB7_
FN:134,_RINvNtNtCs9oXD4GUMzTX_17sqlrustgo_storage10bplus_tree10hash_index21new_shared_hash_indexppEB6_
FN:139,_RINvNtNtCs9oXD4GUMzTX_17sqlrustgo_storage10bplus_tree10hash_index31shared_hash_index_with_capacityppEB6_
FN:115,_RNCINvMNtNtCs9oXD4GUMzTX_17sqlrustgo_storage10bplus_tree10hash_indexINtB5_9HashIndexppE6filterpE0B9_
FN:116,_RNCINvMNtNtCs9oXD4GUMzTX_17sqlrustgo_storage10bplus_tree10hash_indexINtB5_9HashIndexppE6filterpEs_0B9_
FN:90,_RNCNvMNtNtCs9oXD4GUMzTX_17sqlrustgo_storage10bplus_tree10hash_indexINtB4_9HashIndexppE7entries0B8_
FN:28,_RNvMNtNtCs9oXD4GUMzTX_17sqlrustgo_storage10bplus_tree10hash_indexINtB2_9HashIndexppE13with_capacityB6_
FN:66,_RNvMNtNtCs9oXD4GUMzTX_17sqlrustgo_storage10bplus_tree10hash_indexINtB2_9HashIndexppE3lenB6_
FN:76,_RNvMNtNtCs9oXD4GUMzTX_17sqlrustgo_storage10bplus_tree10hash_indexINtB2_9HashIndexppE4keysB6_
FN:56,_RNvMNtNtCs9oXD4GUMzTX_17sqlrustgo_storage10bplus_tree10hash_indexINtB2_9HashIndexppE6removeB6_
FN:81,_RNvMNtNtCs9oXD4GUMzTX_17sqlrustgo_storage10bplus_tree10hash_indexINtB2_9HashIndexppE6valuesB6_
FN:86,_RNvMNtNtCs9oXD4GUMzTX_17sqlrustgo_storage10bplus_tree10hash_indexINtB2_9HashIndexppE7entriesB6_
FN:51,_RNvMNtNtCs9oXD4GUMzTX_17sqlrustgo_storage10bplus_tree10hash_indexINtB2_9HashIndexppE8containsB6_
FN:71,_RNvMNtNtCs9oXD4GUMzTX_17sqlrustgo_storage10bplus_tree10hash_indexINtB2_9HashIndexppE8is_emptyB6_
FN:122,_RNvXININtNtCs9oXD4GUMzTX_17sqlrustgo_storage10bplus_tree10hash_indexs_0ppEINtB5_9HashIndexppENtNtCs8nPosuWgJFh_4core7default7Default7defaultB9_
FN:46,_RNvMNtNtCs9oXD4GUMzTX_17sqlrustgo_storage10bplus_tree10hash_indexINtB2_9HashIndexxmE3getB6_
FN:20,_RNvMNtNtCs9oXD4GUMzTX_17sqlrustgo_storage10bplus_tree10hash_indexINtB2_9HashIndexxmE3newB6_
FN:36,_RNvMNtNtCs9oXD4GUMzTX_17sqlrustgo_storage10bplus_tree10hash_indexINtB2_9HashIndexxmE6insertB6_
FN:95,_RINvMNtNtCsl9zPO89iGuX_17sqlrustgo_storage10bplus_tree10hash_indexINtB3_9HashIndexppE12batch_insertpEB7_
FN:108,_RINvMNtNtCsl9zPO89iGuX_17sqlrustgo_storage10bplus_tree10hash_indexINtB3_9HashIndexppE6filterpEB7_
FN:134,_RINvNtNtCsl9zPO89iGuX_17sqlrustgo_storage10bplus_tree10hash_index21new_shared_hash_indexppEB6_
FN:139,_RINvNtNtCsl9zPO89iGuX_17sqlrustgo_storage10bplus_tree10hash_index31shared_hash_index_with_capacityppEB6_
FN:115,_RNCINvMNtNtCsl9zPO89iGuX_17sqlrustgo_storage10bplus_tree10hash_indexINtB5_9HashIndexppE6filterpE0B9_
FN:116,_RNCINvMNtNtCsl9zPO89iGuX_17sqlrustgo_storage10bplus_tree10hash_indexINtB5_9HashIndexppE6filterpEs_0B9_
FN:90,_RNCNvMNtNtCsl9zPO89iGuX_17sqlrustgo_storage10bplus_tree10hash_indexINtB4_9HashIndexppE7entries0B8_
FN:28,_RNvMNtNtCsl9zPO89iGuX_17sqlrustgo_storage10bplus_tree10hash_indexINtB2_9HashIndexppE13with_capacityB6_
FN:66,_RNvMNtNtCsl9zPO89iGuX_17sqlrustgo_storage10bplus_tree10hash_indexINtB2_9HashIndexppE3lenB6_
FN:76,_RNvMNtNtCsl9zPO89iGuX_17sqlrustgo_storage10bplus_tree10hash_indexINtB2_9HashIndexppE4keysB6_
FN:56,_RNvMNtNtCsl9zPO89iGuX_17sqlrustgo_storage10bplus_tree10hash_indexINtB2_9HashIndexppE6removeB6_
FN:81,_RNvMNtNtCsl9zPO89iGuX_17sqlrustgo_storage10bplus_tree10hash_indexINtB2_9HashIndexppE6valuesB6_
FN:86,_RNvMNtNtCsl9zPO89iGuX_17sqlrustgo_storage10bplus_tree10hash_indexINtB2_9HashIndexppE7entriesB6_
FN:51,_RNvMNtNtCsl9zPO89iGuX_17sqlrustgo_storage10bplus_tree10hash_indexINtB2_9HashIndexppE8containsB6_
FN:71,_RNvMNtNtCsl9zPO89iGuX_17sqlrustgo_storage10bplus_tree10hash_indexINtB2_9HashIndexppE8is_emptyB6_
FN:122,_RNvXININtNtCsl9zPO89iGuX_17sqlrustgo_storage10bplus_tree10hash_indexs_0ppEINtB5_9HashIndexppENtNtCs8nPosuWgJFh_4core7default7Default7defaultB9_
FN:46,_RNvMNtNtCsl9zPO89iGuX_17sqlrustgo_storage10bplus_tree10hash_indexINtB2_9HashIndexxmE3getB6_
FN:20,_RNvMNtNtCsl9zPO89iGuX_17sqlrustgo_storage10bplus_tree10hash_indexINtB2_9HashIndexxmE3newB6_
FN:36,_RNvMNtNtCsl9zPO89iGuX_17sqlrustgo_storage10bplus_tree10hash_indexINtB2_9HashIndexxmE6insertB6_
FN:95,_RINvMNtNtCsgGnK47HN26N_17sqlrustgo_storage10bplus_tree10hash_indexINtB3_9HashIndexlNtNtCsj0gLuUEfogP_5alloc6string6StringE12batch_insertINtNtB1n_3vec3VecTlB1j_EEEB7_
FN:108,_RINvMNtNtCsgGnK47HN26N_17sqlrustgo_storage10bplus_tree10hash_indexINtB3_9HashIndexlNtNtCsj0gLuUEfogP_5alloc6string6StringE6filterNCNvNtB3_5testss_22test_hash_index_filter0EB7_
FN:134,_RINvNtNtCsgGnK47HN26N_17sqlrustgo_storage10bplus_tree10hash_index21new_shared_hash_indexlNtNtCsj0gLuUEfogP_5alloc6string6StringEB6_
FN:115,_RNCINvMNtNtCsgGnK47HN26N_17sqlrustgo_storage10bplus_tree10hash_indexINtB5_9HashIndexlNtNtCsj0gLuUEfogP_5alloc6string6StringE6filterNCNvNtB5_5testss_22test_hash_index_filter0E0B9_
FN:116,_RNCINvMNtNtCsgGnK47HN26N_17sqlrustgo_storage10bplus_tree10hash_indexINtB5_9HashIndexlNtNtCsj0gLuUEfogP_5alloc6string6StringE6filterNCNvNtB5_5testss_22test_hash_index_filter0Es_0B9_
FN:90,_RNCNvMNtNtCsgGnK47HN26N_17sqlrustgo_storage10bplus_tree10hash_indexINtB4_9HashIndexlNtNtCsj0gLuUEfogP_5alloc6string6StringE7entries0B8_
FN:46,_RNvMNtNtCsgGnK47HN26N_17sqlrustgo_storage10bplus_tree10hash_indexINtB2_9HashIndexNtNtCsj0gLuUEfogP_5alloc6string6StringlE3getB6_
FN:20,_RNvMNtNtCsgGnK47HN26N_17sqlrustgo_storage10bplus_tree10hash_indexINtB2_9HashIndexNtNtCsj0gLuUEfogP_5alloc6string6StringlE3newB6_
FN:36,_RNvMNtNtCsgGnK47HN26N_17sqlrustgo_storage10bplus_tree10hash_indexINtB2_9HashIndexNtNtCsj0gLuUEfogP_5alloc6string6StringlE6insertB6_
FN:46,_RNvMNtNtCsgGnK47HN26N_17sqlrustgo_storage10bplus_tree10hash_indexINtB2_9HashIndexlNtNtCsj0gLuUEfogP_5alloc6string6StringE3getB6_
FN:66,_RNvMNtNtCsgGnK47HN26N_17sqlrustgo_storage10bplus_tree10hash_indexINtB2_9HashIndexlNtNtCsj0gLuUEfogP_5alloc6string6StringE3lenB6_
FN:20,_RNvMNtNtCsgGnK47HN26N_17sqlrustgo_storage10bplus_tree10hash_indexINtB2_9HashIndexlNtNtCsj0gLuUEfogP_5alloc6string6StringE3newB6_
FN:36,_RNvMNtNtCsgGnK47HN26N_17sqlrustgo_storage10bplus_tree10hash_indexINtB2_9HashIndexlNtNtCsj0gLuUEfogP_5alloc6string6StringE6insertB6_
FN:56,_RNvMNtNtCsgGnK47HN26N_17sqlrustgo_storage10bplus_tree10hash_indexINtB2_9HashIndexlNtNtCsj0gLuUEfogP_5alloc6string6StringE6removeB6_
FN:86,_RNvMNtNtCsgGnK47HN26N_17sqlrustgo_storage10bplus_tree10hash_indexINtB2_9HashIndexlNtNtCsj0gLuUEfogP_5alloc6string6StringE7entriesB6_
FN:51,_RNvMNtNtCsgGnK47HN26N_17sqlrustgo_storage10bplus_tree10hash_indexINtB2_9HashIndexlNtNtCsj0gLuUEfogP_5alloc6string6StringE8containsB6_
FN:71,_RNvMNtNtCsgGnK47HN26N_17sqlrustgo_storage10bplus_tree10hash_indexINtB2_9HashIndexlNtNtCsj0gLuUEfogP_5alloc6string6StringE8is_emptyB6_
FN:46,_RNvMNtNtCsgGnK47HN26N_17sqlrustgo_storage10bplus_tree10hash_indexINtB2_9HashIndexxmE3getB6_
FN:20,_RNvMNtNtCsgGnK47HN26N_17sqlrustgo_storage10bplus_tree10hash_indexINtB2_9HashIndexxmE3newB6_
FN:36,_RNvMNtNtCsgGnK47HN26N_17sqlrustgo_storage10bplus_tree10hash_indexINtB2_9HashIndexxmE6insertB6_
FN:139,_RINvNtNtCsgGnK47HN26N_17sqlrustgo_storage10bplus_tree10hash_index31shared_hash_index_with_capacityppEB6_
FN:28,_RNvMNtNtCsgGnK47HN26N_17sqlrustgo_storage10bplus_tree10hash_indexINtB2_9HashIndexppE13with_capacityB6_
FN:76,_RNvMNtNtCsgGnK47HN26N_17sqlrustgo_storage10bplus_tree10hash_indexINtB2_9HashIndexppE4keysB6_
FN:81,_RNvMNtNtCsgGnK47HN26N_17sqlrustgo_storage10bplus_tree10hash_indexINtB2_9HashIndexppE6valuesB6_
FN:122,_RNvXININtNtCsgGnK47HN26N_17sqlrustgo_storage10bplus_tree10hash_indexs_0ppEINtB5_9HashIndexppENtNtCs8nPosuWgJFh_4core7default7Default7defaultB9_
FN:215,_RNCNvNtNtNtCsgGnK47HN26N_17sqlrustgo_storage10bplus_tree10hash_index5testss_22test_hash_index_filter0B9_
FN:150,_RNvNtNtNtCsgGnK47HN26N_17sqlrustgo_storage10bplus_tree10hash_index5testss_21test_hash_index_basic
FN:206,_RNvNtNtNtCsgGnK47HN26N_17sqlrustgo_storage10bplus_tree10hash_index5testss_22test_hash_index_filter
FN:177,_RNvNtNtNtCsgGnK47HN26N_17sqlrustgo_storage10bplus_tree10hash_index5testss_22test_hash_index_remove
FN:165,_RNvNtNtNtCsgGnK47HN26N_17sqlrustgo_storage10bplus_tree10hash_index5testss_22test_hash_index_update
FN:231,_RNvNtNtNtCsgGnK47HN26N_17sqlrustgo_storage10bplus_tree10hash_index5testss_22test_shared_hash_index
FN:241,_RNvNtNtNtCsgGnK47HN26N_17sqlrustgo_storage10bplus_tree10hash_index5testss_23test_hash_index_entries
FN:253,_RNvNtNtNtCsgGnK47HN26N_17sqlrustgo_storage10bplus_tree10hash_index5testss_24test_hash_index_is_empty
FN:220,_RNvNtNtNtCsgGnK47HN26N_17sqlrustgo_storage10bplus_tree10hash_index5testss_27test_hash_index_string_keys
FN:190,_RNvNtNtNtCsgGnK47HN26N_17sqlrustgo_storage10bplus_tree10hash_index5testss_28test_hash_index_batch_insert
FN:262,_RNvNtNtNtCsgGnK47HN26N_17sqlrustgo_storage10bplus_tree10hash_index5testss_34test_hash_index_remove_nonexistent
FN:95,_RINvMNtNtCs2l7roSUS7lg_17sqlrustgo_storage10bplus_tree10hash_indexINtB3_9HashIndexppE12batch_insertpEB7_
FN:108,_RINvMNtNtCs2l7roSUS7lg_17sqlrustgo_storage10bplus_tree10hash_indexINtB3_9HashIndexppE6filterpEB7_
FN:134,_RINvNtNtCs2l7roSUS7lg_17sqlrustgo_storage10bplus_tree10hash_index21new_shared_hash_indexppEB6_
FN:139,_RINvNtNtCs2l7roSUS7lg_17sqlrustgo_storage10bplus_tree10hash_index31shared_hash_index_with_capacityppEB6_
FN:115,_RNCINvMNtNtCs2l7roSUS7lg_17sqlrustgo_storage10bplus_tree10hash_indexINtB5_9HashIndexppE6filterpE0B9_
FN:116,_RNCINvMNtNtCs2l7roSUS7lg_17sqlrustgo_storage10bplus_tree10hash_indexINtB5_9HashIndexppE6filterpEs_0B9_
FN:90,_RNCNvMNtNtCs2l7roSUS7lg_17sqlrustgo_storage10bplus_tree10hash_indexINtB4_9HashIndexppE7entries0B8_
FN:28,_RNvMNtNtCs2l7roSUS7lg_17sqlrustgo_storage10bplus_tree10hash_indexINtB2_9HashIndexppE13with_capacityB6_
FN:66,_RNvMNtNtCs2l7roSUS7lg_17sqlrustgo_storage10bplus_tree10hash_indexINtB2_9HashIndexppE3lenB6_
FN:76,_RNvMNtNtCs2l7roSUS7lg_17sqlrustgo_storage10bplus_tree10hash_indexINtB2_9HashIndexppE4keysB6_
FN:56,_RNvMNtNtCs2l7roSUS7lg_17sqlrustgo_storage10bplus_tree10hash_indexINtB2_9HashIndexppE6removeB6_
FN:81,_RNvMNtNtCs2l7roSUS7lg_17sqlrustgo_storage10bplus_tree10hash_indexINtB2_9HashIndexppE6valuesB6_
FN:86,_RNvMNtNtCs2l7roSUS7lg_17sqlrustgo_storage10bplus_tree10hash_indexINtB2_9HashIndexppE7entriesB6_
FN:51,_RNvMNtNtCs2l7roSUS7lg_17sqlrustgo_storage10bplus_tree10hash_indexINtB2_9HashIndexppE8containsB6_
FN:71,_RNvMNtNtCs2l7roSUS7lg_17sqlrustgo_storage10bplus_tree10hash_indexINtB2_9HashIndexppE8is_emptyB6_
FN:122,_RNvXININtNtCs2l7roSUS7lg_17sqlrustgo_storage10bplus_tree10hash_indexs_0ppEINtB5_9HashIndexppENtNtCs8nPosuWgJFh_4core7default7Default7defaultB9_
FN:46,_RNvMNtNtCs2l7roSUS7lg_17sqlrustgo_storage10bplus_tree10hash_indexINtB2_9HashIndexxmE3getB6_
FN:20,_RNvMNtNtCs2l7roSUS7lg_17sqlrustgo_storage10bplus_tree10hash_indexINtB2_9HashIndexxmE3newB6_
FN:36,_RNvMNtNtCs2l7roSUS7lg_17sqlrustgo_storage10bplus_tree10hash_indexINtB2_9HashIndexxmE6insertB6_
FNDA:0,_RNvMNtNtCs38XCG6692bz_17sqlrustgo_storage10bplus_tree10hash_indexINtB2_9HashIndexxmE3getB6_
FNDA:0,_RNvMNtNtCs38XCG6692bz_17sqlrustgo_storage10bplus_tree10hash_indexINtB2_9HashIndexxmE3newB6_
FNDA:0,_RNvMNtNtCs38XCG6692bz_17sqlrustgo_storage10bplus_tree10hash_indexINtB2_9HashIndexxmE6insertB6_
FNDA:0,_RINvMNtNtCs38XCG6692bz_17sqlrustgo_storage10bplus_tree10hash_indexINtB3_9HashIndexppE12batch_insertpEB7_
FNDA:0,_RINvMNtNtCs38XCG6692bz_17sqlrustgo_storage10bplus_tree10hash_indexINtB3_9HashIndexppE6filterpEB7_
FNDA:0,_RINvNtNtCs38XCG6692bz_17sqlrustgo_storage10bplus_tree10hash_index21new_shared_hash_indexppEB6_
FNDA:0,_RINvNtNtCs38XCG6692bz_17sqlrustgo_storage10bplus_tree10hash_index31shared_hash_index_with_capacityppEB6_
FNDA:0,_RNCINvMNtNtCs38XCG6692bz_17sqlrustgo_storage10bplus_tree10hash_indexINtB5_9HashIndexppE6filterpE0B9_
FNDA:0,_RNCINvMNtNtCs38XCG6692bz_17sqlrustgo_storage10bplus_tree10hash_indexINtB5_9HashIndexppE6filterpEs_0B9_
FNDA:0,_RNCNvMNtNtCs38XCG6692bz_17sqlrustgo_storage10bplus_tree10hash_indexINtB4_9HashIndexppE7entries0B8_
FNDA:0,_RNvMNtNtCs38XCG6692bz_17sqlrustgo_storage10bplus_tree10hash_indexINtB2_9HashIndexppE13with_capacityB6_
FNDA:0,_RNvMNtNtCs38XCG6692bz_17sqlrustgo_storage10bplus_tree10hash_indexINtB2_9HashIndexppE3lenB6_
FNDA:0,_RNvMNtNtCs38XCG6692bz_17sqlrustgo_storage10bplus_tree10hash_indexINtB2_9HashIndexppE4keysB6_
FNDA:0,_RNvMNtNtCs38XCG6692bz_17sqlrustgo_storage10bplus_tree10hash_indexINtB2_9HashIndexppE6removeB6_
FNDA:0,_RNvMNtNtCs38XCG6692bz_17sqlrustgo_storage10bplus_tree10hash_indexINtB2_9HashIndexppE6valuesB6_
FNDA:0,_RNvMNtNtCs38XCG6692bz_17sqlrustgo_storage10bplus_tree10hash_indexINtB2_9HashIndexppE7entriesB6_
FNDA:0,_RNvMNtNtCs38XCG6692bz_17sqlrustgo_storage10bplus_tree10hash_indexINtB2_9HashIndexppE8containsB6_
FNDA:0,_RNvMNtNtCs38XCG6692bz_17sqlrustgo_storage10bplus_tree10hash_indexINtB2_9HashIndexppE8is_emptyB6_
FNDA:0,_RNvXININtNtCs38XCG6692bz_17sqlrustgo_storage10bplus_tree10hash_indexs_0ppEINtB5_9HashIndexppENtNtCs8nPosuWgJFh_4core7default7Default7defaultB9_
FNDA:0,_RINvMNtNtCs1u7In8Za3Xp_17sqlrustgo_storage10bplus_tree10hash_indexINtB3_9HashIndexppE12batch_insertpEB7_
FNDA:0,_RINvMNtNtCs1u7In8Za3Xp_17sqlrustgo_storage10bplus_tree10hash_indexINtB3_9HashIndexppE6filterpEB7_
FNDA:0,_RINvNtNtCs1u7In8Za3Xp_17sqlrustgo_storage10bplus_tree10hash_index21new_shared_hash_indexppEB6_
FNDA:0,_RINvNtNtCs1u7In8Za3Xp_17sqlrustgo_storage10bplus_tree10hash_index31shared_hash_index_with_capacityppEB6_
FNDA:0,_RNCINvMNtNtCs1u7In8Za3Xp_17sqlrustgo_storage10bplus_tree10hash_indexINtB5_9HashIndexppE6filterpE0B9_
FNDA:0,_RNCINvMNtNtCs1u7In8Za3Xp_17sqlrustgo_storage10bplus_tree10hash_indexINtB5_9HashIndexppE6filterpEs_0B9_
FNDA:0,_RNCNvMNtNtCs1u7In8Za3Xp_17sqlrustgo_storage10bplus_tree10hash_indexINtB4_9HashIndexppE7entries0B8_
FNDA:0,_RNvMNtNtCs1u7In8Za3Xp_17sqlrustgo_storage10bplus_tree10hash_indexINtB2_9HashIndexppE13with_capacityB6_
FNDA:0,_RNvMNtNtCs1u7In8Za3Xp_17sqlrustgo_storage10bplus_tree10hash_indexINtB2_9HashIndexppE3lenB6_
FNDA:0,_RNvMNtNtCs1u7In8Za3Xp_17sqlrustgo_storage10bplus_tree10hash_indexINtB2_9HashIndexppE4keysB6_
FNDA:0,_RNvMNtNtCs1u7In8Za3Xp_17sqlrustgo_storage10bplus_tree10hash_indexINtB2_9HashIndexppE6removeB6_
FNDA:0,_RNvMNtNtCs1u7In8Za3Xp_17sqlrustgo_storage10bplus_tree10hash_indexINtB2_9HashIndexppE6valuesB6_
FNDA:0,_RNvMNtNtCs1u7In8Za3Xp_17sqlrustgo_storage10bplus_tree10hash_indexINtB2_9HashIndexppE7entriesB6_
FNDA:0,_RNvMNtNtCs1u7In8Za3Xp_17sqlrustgo_storage10bplus_tree10hash_indexINtB2_9HashIndexppE8containsB6_
FNDA:0,_RNvMNtNtCs1u7In8Za3Xp_17sqlrustgo_storage10bplus_tree10hash_indexINtB2_9HashIndexppE8is_emptyB6_
FNDA:0,_RNvXININtNtCs1u7In8Za3Xp_17sqlrustgo_storage10bplus_tree10hash_indexs_0ppEINtB5_9HashIndexppENtNtCs8nPosuWgJFh_4core7default7Default7defaultB9_
FNDA:0,_RNvMNtNtCs1u7In8Za3Xp_17sqlrustgo_storage10bplus_tree10hash_indexINtB2_9HashIndexxmE3getB6_
FNDA:0,_RNvMNtNtCs1u7In8Za3Xp_17sqlrustgo_storage10bplus_tree10hash_indexINtB2_9HashIndexxmE3newB6_
FNDA:0,_RNvMNtNtCs1u7In8Za3Xp_17sqlrustgo_storage10bplus_tree10hash_indexINtB2_9HashIndexxmE6insertB6_
FNDA:0,_RINvMNtNtCsd1AkON0xxEy_17sqlrustgo_storage10bplus_tree10hash_indexINtB3_9HashIndexppE12batch_insertpEB7_
FNDA:0,_RINvMNtNtCsd1AkON0xxEy_17sqlrustgo_storage10bplus_tree10hash_indexINtB3_9HashIndexppE6filterpEB7_
FNDA:0,_RINvNtNtCsd1AkON0xxEy_17sqlrustgo_storage10bplus_tree10hash_index21new_shared_hash_indexppEB6_
FNDA:0,_RINvNtNtCsd1AkON0xxEy_17sqlrustgo_storage10bplus_tree10hash_index31shared_hash_index_with_capacityppEB6_
FNDA:0,_RNCINvMNtNtCsd1AkON0xxEy_17sqlrustgo_storage10bplus_tree10hash_indexINtB5_9HashIndexppE6filterpE0B9_
FNDA:0,_RNCINvMNtNtCsd1AkON0xxEy_17sqlrustgo_storage10bplus_tree10hash_indexINtB5_9HashIndexppE6filterpEs_0B9_
FNDA:0,_RNCNvMNtNtCsd1AkON0xxEy_17sqlrustgo_storage10bplus_tree10hash_indexINtB4_9HashIndexppE7entries0B8_
FNDA:0,_RNvMNtNtCsd1AkON0xxEy_17sqlrustgo_storage10bplus_tree10hash_indexINtB2_9HashIndexppE13with_capacityB6_
FNDA:0,_RNvMNtNtCsd1AkON0xxEy_17sqlrustgo_storage10bplus_tree10hash_indexINtB2_9HashIndexppE3lenB6_
FNDA:0,_RNvMNtNtCsd1AkON0xxEy_17sqlrustgo_storage10bplus_tree10hash_indexINtB2_9HashIndexppE4keysB6_
FNDA:0,_RNvMNtNtCsd1AkON0xxEy_17sqlrustgo_storage10bplus_tree10hash_indexINtB2_9HashIndexppE6removeB6_
FNDA:0,_RNvMNtNtCsd1AkON0xxEy_17sqlrustgo_storage10bplus_tree10hash_indexINtB2_9HashIndexppE6valuesB6_
FNDA:0,_RNvMNtNtCsd1AkON0xxEy_17sqlrustgo_storage10bplus_tree10hash_indexINtB2_9HashIndexppE7entriesB6_
FNDA:0,_RNvMNtNtCsd1AkON0xxEy_17sqlrustgo_storage10bplus_tree10hash_indexINtB2_9HashIndexppE8containsB6_
FNDA:0,_RNvMNtNtCsd1AkON0xxEy_17sqlrustgo_storage10bplus_tree10hash_indexINtB2_9HashIndexppE8is_emptyB6_
FNDA:0,_RNvXININtNtCsd1AkON0xxEy_17sqlrustgo_storage10bplus_tree10hash_indexs_0ppEINtB5_9HashIndexppENtNtCs8nPosuWgJFh_4core7default7Default7defaultB9_
FNDA:0,_RNvMNtNtCsd1AkON0xxEy_17sqlrustgo_storage10bplus_tree10hash_indexINtB2_9HashIndexxmE3getB6_
FNDA:0,_RNvMNtNtCsd1AkON0xxEy_17sqlrustgo_storage10bplus_tree10hash_indexINtB2_9HashIndexxmE3newB6_
FNDA:0,_RNvMNtNtCsd1AkON0xxEy_17sqlrustgo_storage10bplus_tree10hash_indexINtB2_9HashIndexxmE6insertB6_
FNDA:0,_RINvMNtNtCs9oXD4GUMzTX_17sqlrustgo_storage10bplus_tree10hash_indexINtB3_9HashIndexppE12batch_insertpEB7_
FNDA:0,_RINvMNtNtCs9oXD4GUMzTX_17sqlrustgo_storage10bplus_tree10hash_indexINtB3_9HashIndexppE6filterpEB7_
FNDA:0,_RINvNtNtCs9oXD4GUMzTX_17sqlrustgo_storage10bplus_tree10hash_index21new_shared_hash_indexppEB6_
FNDA:0,_RINvNtNtCs9oXD4GUMzTX_17sqlrustgo_storage10bplus_tree10hash_index31shared_hash_index_with_capacityppEB6_
FNDA:0,_RNCINvMNtNtCs9oXD4GUMzTX_17sqlrustgo_storage10bplus_tree10hash_indexINtB5_9HashIndexppE6filterpE0B9_
FNDA:0,_RNCINvMNtNtCs9oXD4GUMzTX_17sqlrustgo_storage10bplus_tree10hash_indexINtB5_9HashIndexppE6filterpEs_0B9_
FNDA:0,_RNCNvMNtNtCs9oXD4GUMzTX_17sqlrustgo_storage10bplus_tree10hash_indexINtB4_9HashIndexppE7entries0B8_
FNDA:0,_RNvMNtNtCs9oXD4GUMzTX_17sqlrustgo_storage10bplus_tree10hash_indexINtB2_9HashIndexppE13with_capacityB6_
FNDA:0,_RNvMNtNtCs9oXD4GUMzTX_17sqlrustgo_storage10bplus_tree10hash_indexINtB2_9HashIndexppE3lenB6_
FNDA:0,_RNvMNtNtCs9oXD4GUMzTX_17sqlrustgo_storage10bplus_tree10hash_indexINtB2_9HashIndexppE4keysB6_
FNDA:0,_RNvMNtNtCs9oXD4GUMzTX_17sqlrustgo_storage10bplus_tree10hash_indexINtB2_9HashIndexppE6removeB6_
FNDA:0,_RNvMNtNtCs9oXD4GUMzTX_17sqlrustgo_storage10bplus_tree10hash_indexINtB2_9HashIndexppE6valuesB6_
FNDA:0,_RNvMNtNtCs9oXD4GUMzTX_17sqlrustgo_storage10bplus_tree10hash_indexINtB2_9HashIndexppE7entriesB6_
FNDA:0,_RNvMNtNtCs9oXD4GUMzTX_17sqlrustgo_storage10bplus_tree10hash_indexINtB2_9HashIndexppE8containsB6_
FNDA:0,_RNvMNtNtCs9oXD4GUMzTX_17sqlrustgo_storage10bplus_tree10hash_indexINtB2_9HashIndexppE8is_emptyB6_
FNDA:0,_RNvXININtNtCs9oXD4GUMzTX_17sqlrustgo_storage10bplus_tree10hash_indexs_0ppEINtB5_9HashIndexppENtNtCs8nPosuWgJFh_4core7default7Default7defaultB9_
FNDA:0,_RNvMNtNtCs9oXD4GUMzTX_17sqlrustgo_storage10bplus_tree10hash_indexINtB2_9HashIndexxmE3getB6_
FNDA:0,_RNvMNtNtCs9oXD4GUMzTX_17sqlrustgo_storage10bplus_tree10hash_indexINtB2_9HashIndexxmE3newB6_
FNDA:0,_RNvMNtNtCs9oXD4GUMzTX_17sqlrustgo_storage10bplus_tree10hash_indexINtB2_9HashIndexxmE6insertB6_
FNDA:0,_RINvMNtNtCsl9zPO89iGuX_17sqlrustgo_storage10bplus_tree10hash_indexINtB3_9HashIndexppE12batch_insertpEB7_
FNDA:0,_RINvMNtNtCsl9zPO89iGuX_17sqlrustgo_storage10bplus_tree10hash_indexINtB3_9HashIndexppE6filterpEB7_
FNDA:0,_RINvNtNtCsl9zPO89iGuX_17sqlrustgo_storage10bplus_tree10hash_index21new_shared_hash_indexppEB6_
FNDA:0,_RINvNtNtCsl9zPO89iGuX_17sqlrustgo_storage10bplus_tree10hash_index31shared_hash_index_with_capacityppEB6_
FNDA:0,_RNCINvMNtNtCsl9zPO89iGuX_17sqlrustgo_storage10bplus_tree10hash_indexINtB5_9HashIndexppE6filterpE0B9_
FNDA:0,_RNCINvMNtNtCsl9zPO89iGuX_17sqlrustgo_storage10bplus_tree10hash_indexINtB5_9HashIndexppE6filterpEs_0B9_
FNDA:0,_RNCNvMNtNtCsl9zPO89iGuX_17sqlrustgo_storage10bplus_tree10hash_indexINtB4_9HashIndexppE7entries0B8_
FNDA:0,_RNvMNtNtCsl9zPO89iGuX_17sqlrustgo_storage10bplus_tree10hash_indexINtB2_9HashIndexppE13with_capacityB6_
FNDA:0,_RNvMNtNtCsl9zPO89iGuX_17sqlrustgo_storage10bplus_tree10hash_indexINtB2_9HashIndexppE3lenB6_
FNDA:0,_RNvMNtNtCsl9zPO89iGuX_17sqlrustgo_storage10bplus_tree10hash_indexINtB2_9HashIndexppE4keysB6_
FNDA:0,_RNvMNtNtCsl9zPO89iGuX_17sqlrustgo_storage10bplus_tree10hash_indexINtB2_9HashIndexppE6removeB6_
FNDA:0,_RNvMNtNtCsl9zPO89iGuX_17sqlrustgo_storage10bplus_tree10hash_indexINtB2_9HashIndexppE6valuesB6_
FNDA:0,_RNvMNtNtCsl9zPO89iGuX_17sqlrustgo_storage10bplus_tree10hash_indexINtB2_9HashIndexppE7entriesB6_
FNDA:0,_RNvMNtNtCsl9zPO89iGuX_17sqlrustgo_storage10bplus_tree10hash_indexINtB2_9HashIndexppE8containsB6_
FNDA:0,_RNvMNtNtCsl9zPO89iGuX_17sqlrustgo_storage10bplus_tree10hash_indexINtB2_9HashIndexppE8is_emptyB6_
FNDA:0,_RNvXININtNtCsl9zPO89iGuX_17sqlrustgo_storage10bplus_tree10hash_indexs_0ppEINtB5_9HashIndexppENtNtCs8nPosuWgJFh_4core7default7Default7defaultB9_
FNDA:0,_RNvMNtNtCsl9zPO89iGuX_17sqlrustgo_storage10bplus_tree10hash_indexINtB2_9HashIndexxmE3getB6_
FNDA:0,_RNvMNtNtCsl9zPO89iGuX_17sqlrustgo_storage10bplus_tree10hash_indexINtB2_9HashIndexxmE3newB6_
FNDA:0,_RNvMNtNtCsl9zPO89iGuX_17sqlrustgo_storage10bplus_tree10hash_indexINtB2_9HashIndexxmE6insertB6_
FNDA:1,_RINvMNtNtCsgGnK47HN26N_17sqlrustgo_storage10bplus_tree10hash_indexINtB3_9HashIndexlNtNtCsj0gLuUEfogP_5alloc6string6StringE12batch_insertINtNtB1n_3vec3VecTlB1j_EEEB7_
FNDA:1,_RINvMNtNtCsgGnK47HN26N_17sqlrustgo_storage10bplus_tree10hash_indexINtB3_9HashIndexlNtNtCsj0gLuUEfogP_5alloc6string6StringE6filterNCNvNtB3_5testss_22test_hash_index_filter0EB7_
FNDA:1,_RINvNtNtCsgGnK47HN26N_17sqlrustgo_storage10bplus_tree10hash_index21new_shared_hash_indexlNtNtCsj0gLuUEfogP_5alloc6string6StringEB6_
FNDA:4,_RNCINvMNtNtCsgGnK47HN26N_17sqlrustgo_storage10bplus_tree10hash_indexINtB5_9HashIndexlNtNtCsj0gLuUEfogP_5alloc6string6StringE6filterNCNvNtB5_5testss_22test_hash_index_filter0E0B9_
FNDA:2,_RNCINvMNtNtCsgGnK47HN26N_17sqlrustgo_storage10bplus_tree10hash_indexINtB5_9HashIndexlNtNtCsj0gLuUEfogP_5alloc6string6StringE6filterNCNvNtB5_5testss_22test_hash_index_filter0Es_0B9_
FNDA:2,_RNCNvMNtNtCsgGnK47HN26N_17sqlrustgo_storage10bplus_tree10hash_indexINtB4_9HashIndexlNtNtCsj0gLuUEfogP_5alloc6string6StringE7entries0B8_
FNDA:2,_RNvMNtNtCsgGnK47HN26N_17sqlrustgo_storage10bplus_tree10hash_indexINtB2_9HashIndexNtNtCsj0gLuUEfogP_5alloc6string6StringlE3getB6_
FNDA:1,_RNvMNtNtCsgGnK47HN26N_17sqlrustgo_storage10bplus_tree10hash_indexINtB2_9HashIndexNtNtCsj0gLuUEfogP_5alloc6string6StringlE3newB6_
FNDA:2,_RNvMNtNtCsgGnK47HN26N_17sqlrustgo_storage10bplus_tree10hash_indexINtB2_9HashIndexNtNtCsj0gLuUEfogP_5alloc6string6StringlE6insertB6_
FNDA:4,_RNvMNtNtCsgGnK47HN26N_17sqlrustgo_storage10bplus_tree10hash_indexINtB2_9HashIndexlNtNtCsj0gLuUEfogP_5alloc6string6StringE3getB6_
FNDA:8,_RNvMNtNtCsgGnK47HN26N_17sqlrustgo_storage10bplus_tree10hash_indexINtB2_9HashIndexlNtNtCsj0gLuUEfogP_5alloc6string6StringE3lenB6_
FNDA:9,_RNvMNtNtCsgGnK47HN26N_17sqlrustgo_storage10bplus_tree10hash_indexINtB2_9HashIndexlNtNtCsj0gLuUEfogP_5alloc6string6StringE3newB6_
FNDA:15,_RNvMNtNtCsgGnK47HN26N_17sqlrustgo_storage10bplus_tree10hash_indexINtB2_9HashIndexlNtNtCsj0gLuUEfogP_5alloc6string6StringE6insertB6_
FNDA:2,_RNvMNtNtCsgGnK47HN26N_17sqlrustgo_storage10bplus_tree10hash_indexINtB2_9HashIndexlNtNtCsj0gLuUEfogP_5alloc6string6StringE6removeB6_
FNDA:1,_RNvMNtNtCsgGnK47HN26N_17sqlrustgo_storage10bplus_tree10hash_indexINtB2_9HashIndexlNtNtCsj0gLuUEfogP_5alloc6string6StringE7entriesB6_
FNDA:4,_RNvMNtNtCsgGnK47HN26N_17sqlrustgo_storage10bplus_tree10hash_indexINtB2_9HashIndexlNtNtCsj0gLuUEfogP_5alloc6string6StringE8containsB6_
FNDA:2,_RNvMNtNtCsgGnK47HN26N_17sqlrustgo_storage10bplus_tree10hash_indexINtB2_9HashIndexlNtNtCsj0gLuUEfogP_5alloc6string6StringE8is_emptyB6_
FNDA:0,_RNvMNtNtCsgGnK47HN26N_17sqlrustgo_storage10bplus_tree10hash_indexINtB2_9HashIndexxmE3getB6_
FNDA:0,_RNvMNtNtCsgGnK47HN26N_17sqlrustgo_storage10bplus_tree10hash_indexINtB2_9HashIndexxmE3newB6_
FNDA:0,_RNvMNtNtCsgGnK47HN26N_17sqlrustgo_storage10bplus_tree10hash_indexINtB2_9HashIndexxmE6insertB6_
FNDA:0,_RINvNtNtCsgGnK47HN26N_17sqlrustgo_storage10bplus_tree10hash_index31shared_hash_index_with_capacityppEB6_
FNDA:0,_RNvMNtNtCsgGnK47HN26N_17sqlrustgo_storage10bplus_tree10hash_indexINtB2_9HashIndexppE13with_capacityB6_
FNDA:0,_RNvMNtNtCsgGnK47HN26N_17sqlrustgo_storage10bplus_tree10hash_indexINtB2_9HashIndexppE4keysB6_
FNDA:0,_RNvMNtNtCsgGnK47HN26N_17sqlrustgo_storage10bplus_tree10hash_indexINtB2_9HashIndexppE6valuesB6_
FNDA:0,_RNvXININtNtCsgGnK47HN26N_17sqlrustgo_storage10bplus_tree10hash_indexs_0ppEINtB5_9HashIndexppENtNtCs8nPosuWgJFh_4core7default7Default7defaultB9_
FNDA:4,_RNCNvNtNtNtCsgGnK47HN26N_17sqlrustgo_storage10bplus_tree10hash_index5testss_22test_hash_index_filter0B9_
FNDA:1,_RNvNtNtNtCsgGnK47HN26N_17sqlrustgo_storage10bplus_tree10hash_index5testss_21test_hash_index_basic
FNDA:1,_RNvNtNtNtCsgGnK47HN26N_17sqlrustgo_storage10bplus_tree10hash_index5testss_22test_hash_index_filter
FNDA:1,_RNvNtNtNtCsgGnK47HN26N_17sqlrustgo_storage10bplus_tree10hash_index5testss_22test_hash_index_remove
FNDA:1,_RNvNtNtNtCsgGnK47HN26N_17sqlrustgo_storage10bplus_tree10hash_index5testss_22test_hash_index_update
FNDA:1,_RNvNtNtNtCsgGnK47HN26N_17sqlrustgo_storage10bplus_tree10hash_index5testss_22test_shared_hash_index
FNDA:1,_RNvNtNtNtCsgGnK47HN26N_17sqlrustgo_storage10bplus_tree10hash_index5testss_23test_hash_index_entries
FNDA:1,_RNvNtNtNtCsgGnK47HN26N_17sqlrustgo_storage10bplus_tree10hash_index5testss_24test_hash_index_is_empty
FNDA:1,_RNvNtNtNtCsgGnK47HN26N_17sqlrustgo_storage10bplus_tree10hash_index5testss_27test_hash_index_string_keys
FNDA:1,_RNvNtNtNtCsgGnK47HN26N_17sqlrustgo_storage10bplus_tree10hash_index5testss_28test_hash_index_batch_insert
FNDA:1,_RNvNtNtNtCsgGnK47HN26N_17sqlrustgo_storage10bplus_tree10hash_index5testss_34test_hash_index_remove_nonexistent
FNDA:0,_RINvMNtNtCs2l7roSUS7lg_17sqlrustgo_storage10bplus_tree10hash_indexINtB3_9HashIndexppE12batch_insertpEB7_
FNDA:0,_RINvMNtNtCs2l7roSUS7lg_17sqlrustgo_storage10bplus_tree10hash_indexINtB3_9HashIndexppE6filterpEB7_
FNDA:0,_RINvNtNtCs2l7roSUS7lg_17sqlrustgo_storage10bplus_tree10hash_index21new_shared_hash_indexppEB6_
FNDA:0,_RINvNtNtCs2l7roSUS7lg_17sqlrustgo_storage10bplus_tree10hash_index31shared_hash_index_with_capacityppEB6_
FNDA:0,_RNCINvMNtNtCs2l7roSUS7lg_17sqlrustgo_storage10bplus_tree10hash_indexINtB5_9HashIndexppE6filterpE0B9_
FNDA:0,_RNCINvMNtNtCs2l7roSUS7lg_17sqlrustgo_storage10bplus_tree10hash_indexINtB5_9HashIndexppE6filterpEs_0B9_
FNDA:0,_RNCNvMNtNtCs2l7roSUS7lg_17sqlrustgo_storage10bplus_tree10hash_indexINtB4_9HashIndexppE7entries0B8_
FNDA:0,_RNvMNtNtCs2l7roSUS7lg_17sqlrustgo_storage10bplus_tree10hash_indexINtB2_9HashIndexppE13with_capacityB6_
FNDA:0,_RNvMNtNtCs2l7roSUS7lg_17sqlrustgo_storage10bplus_tree10hash_indexINtB2_9HashIndexppE3lenB6_
FNDA:0,_RNvMNtNtCs2l7roSUS7lg_17sqlrustgo_storage10bplus_tree10hash_indexINtB2_9HashIndexppE4keysB6_
FNDA:0,_RNvMNtNtCs2l7roSUS7lg_17sqlrustgo_storage10bplus_tree10hash_indexINtB2_9HashIndexppE6removeB6_
FNDA:0,_RNvMNtNtCs2l7roSUS7lg_17sqlrustgo_storage10bplus_tree10hash_indexINtB2_9HashIndexppE6valuesB6_
FNDA:0,_RNvMNtNtCs2l7roSUS7lg_17sqlrustgo_storage10bplus_tree10hash_indexINtB2_9HashIndexppE7entriesB6_
FNDA:0,_RNvMNtNtCs2l7roSUS7lg_17sqlrustgo_storage10bplus_tree10hash_indexINtB2_9HashIndexppE8containsB6_
FNDA:0,_RNvMNtNtCs2l7roSUS7lg_17sqlrustgo_storage10bplus_tree10hash_indexINtB2_9HashIndexppE8is_emptyB6_
FNDA:0,_RNvXININtNtCs2l7roSUS7lg_17sqlrustgo_storage10bplus_tree10hash_indexs_0ppEINtB5_9HashIndexppENtNtCs8nPosuWgJFh_4core7default7Default7defaultB9_
FNDA:0,_RNvMNtNtCs2l7roSUS7lg_17sqlrustgo_storage10bplus_tree10hash_indexINtB2_9HashIndexxmE3getB6_
FNDA:0,_RNvMNtNtCs2l7roSUS7lg_17sqlrustgo_storage10bplus_tree10hash_indexINtB2_9HashIndexxmE3newB6_
FNDA:0,_RNvMNtNtCs2l7roSUS7lg_17sqlrustgo_storage10bplus_tree10hash_indexINtB2_9HashIndexxmE6insertB6_
FNF:30
FNH:25
DA:20,10
DA:21,10
DA:22,10
DA:23,10
DA:24,10
DA:25,10
DA:28,0
DA:29,0
DA:30,0
DA:31,0
DA:32,0
DA:33,0
DA:36,17
DA:37,17
DA:38,17
DA:39,17
DA:40,16
DA:41,16
DA:42,17
DA:43,17
DA:46,6
DA:47,6
DA:48,6
DA:51,4
DA:52,4
DA:53,4
DA:56,2
DA:57,2
DA:58,2
DA:59,2
DA:60,1
DA:61,1
DA:62,2
DA:63,2
DA:66,8
DA:67,8
DA:68,8
DA:71,2
DA:72,2
DA:73,2
DA:76,0
DA:77,0
DA:78,0
DA:81,0
DA:82,0
DA:83,0
DA:86,1
DA:87,1
DA:88,1
DA:89,1
DA:90,2
DA:91,1
DA:92,1
DA:95,1
DA:96,1
DA:97,1
DA:98,4
DA:99,4
DA:100,4
DA:101,4
DA:103,1
DA:104,1
DA:105,1
DA:108,1
DA:109,1
DA:110,1
DA:112,1
DA:113,1
DA:114,1
DA:115,4
DA:116,2
DA:117,1
DA:118,1
DA:122,0
DA:123,0
DA:124,0
DA:125,0
DA:126,0
DA:127,0
DA:134,1
DA:135,1
DA:136,1
DA:139,0
DA:140,0
DA:141,0
DA:142,0
DA:143,0
DA:150,1
DA:151,1
DA:153,1
DA:154,1
DA:155,1
DA:157,1
DA:158,1
DA:159,1
DA:160,1
DA:161,1
DA:162,1
DA:165,1
DA:166,1
DA:168,1
DA:169,1
DA:171,1
DA:172,1
DA:173,1
DA:174,1
DA:177,1
DA:178,1
DA:180,1
DA:181,1
DA:183,1
DA:184,1
DA:185,1
DA:186,1
DA:187,1
DA:190,1
DA:191,1
DA:193,1
DA:194,1
DA:195,1
DA:196,1
DA:197,1
DA:200,1
DA:201,1
DA:202,1
DA:203,1
DA:206,1
DA:207,1
DA:209,1
DA:210,1
DA:211,1
DA:212,1
DA:215,4
DA:216,1
DA:217,1
DA:220,1
DA:221,1
DA:223,1
DA:224,1
DA:226,1
DA:227,1
DA:228,1
DA:231,1
DA:232,1
DA:234,1
DA:236,1
DA:237,1
DA:238,1
DA:241,1
DA:242,1
DA:244,1
DA:245,1
DA:247,1
DA:248,1
DA:249,1
DA:250,1
DA:253,1
DA:254,1
DA:255,1
DA:257,1
DA:258,1
DA:259,1
DA:262,1
DA:263,1
DA:265,1
DA:266,1
DA:267,1
DA:268,1
DA:269,1
BRF:0
BRH:0
LF:173
LH:150
end_of_record
SF:/home/openclaw/dev/yinglichina8848/sqlrustgo/crates/storage/src/bplus_tree/index.rs
FN:54,_RNCNvMNtNtCs38XCG6692bz_17sqlrustgo_storage10bplus_tree5indexNtB4_12CompositeKey8from_row0B8_
FN:1063,_RNCNvMsb_NtNtCs38XCG6692bz_17sqlrustgo_storage10bplus_tree5indexNtB7_13FullTextIndex14filter_deleted0Bb_
FN:1123,_RNCNvMsb_NtNtCs38XCG6692bz_17sqlrustgo_storage10bplus_tree5indexNtB7_13FullTextIndex14term_frequency0Bb_
FN:1099,_RNCNvMsb_NtNtCs38XCG6692bz_17sqlrustgo_storage10bplus_tree5indexNtB7_13FullTextIndex6search0Bb_
FN:1022,_RNCNvMsb_NtNtCs38XCG6692bz_17sqlrustgo_storage10bplus_tree5indexNtB7_13FullTextIndex8tokenize0Bb_
FN:1024,_RNCNvMsb_NtNtCs38XCG6692bz_17sqlrustgo_storage10bplus_tree5indexNtB7_13FullTextIndex8tokenizes0_0Bb_
FN:1023,_RNCNvMsb_NtNtCs38XCG6692bz_17sqlrustgo_storage10bplus_tree5indexNtB7_13FullTextIndex8tokenizes_0Bb_
FN:39,_RNvMNtNtCs38XCG6692bz_17sqlrustgo_storage10bplus_tree5indexNtB2_12CompositeKey10from_slice
FN:35,_RNvMNtNtCs38XCG6692bz_17sqlrustgo_storage10bplus_tree5indexNtB2_12CompositeKey3new
FN:50,_RNvMNtNtCs38XCG6692bz_17sqlrustgo_storage10bplus_tree5indexNtB2_12CompositeKey8from_row
FN:45,_RNvMNtNtCs38XCG6692bz_17sqlrustgo_storage10bplus_tree5indexNtB2_12CompositeKey8is_empty
FN:243,_RNvMs1_NtNtCs38XCG6692bz_17sqlrustgo_storage10bplus_tree5indexNtB5_9BTreeNode10remove_key
FN:149,_RNvMs1_NtNtCs38XCG6692bz_17sqlrustgo_storage10bplus_tree5indexNtB5_9BTreeNode12new_internal
FN:177,_RNvMs1_NtNtCs38XCG6692bz_17sqlrustgo_storage10bplus_tree5indexNtB5_9BTreeNode14find_key_index
FN:183,_RNvMs1_NtNtCs38XCG6692bz_17sqlrustgo_storage10bplus_tree5indexNtB5_9BTreeNode15find_all_values
FN:168,_RNvMs1_NtNtCs38XCG6692bz_17sqlrustgo_storage10bplus_tree5indexNtB5_9BTreeNode16find_child_index
FN:203,_RNvMs1_NtNtCs38XCG6692bz_17sqlrustgo_storage10bplus_tree5indexNtB5_9BTreeNode16insert_key_value
FN:160,_RNvMs1_NtNtCs38XCG6692bz_17sqlrustgo_storage10bplus_tree5indexNtB5_9BTreeNode7is_full
FN:138,_RNvMs1_NtNtCs38XCG6692bz_17sqlrustgo_storage10bplus_tree5indexNtB5_9BTreeNode8new_leaf
FN:164,_RNvMs1_NtNtCs38XCG6692bz_17sqlrustgo_storage10bplus_tree5indexNtB5_9BTreeNode9can_split
FN:213,_RNvMs1_NtNtCs38XCG6692bz_17sqlrustgo_storage10bplus_tree5indexNtB5_9BTreeNode9insert_at
FN:290,_RNvMs2_NtNtCs38XCG6692bz_17sqlrustgo_storage10bplus_tree5indexNtB5_10IndexStats11selectivity
FN:285,_RNvMs2_NtNtCs38XCG6692bz_17sqlrustgo_storage10bplus_tree5indexNtB5_10IndexStats3new
FN:326,_RNvMs3_NtNtCs38XCG6692bz_17sqlrustgo_storage10bplus_tree5indexNtB5_10BTreeIndex10mark_dirty
FN:403,_RNvMs3_NtNtCs38XCG6692bz_17sqlrustgo_storage10bplus_tree5indexNtB5_10BTreeIndex10search_all
FN:369,_RNvMs3_NtNtCs38XCG6692bz_17sqlrustgo_storage10bplus_tree5indexNtB5_10BTreeIndex10set_unique
FN:484,_RNvMs3_NtNtCs38XCG6692bz_17sqlrustgo_storage10bplus_tree5indexNtB5_10BTreeIndex11range_query
FN:411,_RNvMs3_NtNtCs38XCG6692bz_17sqlrustgo_storage10bplus_tree5indexNtB5_10BTreeIndex11search_node
FN:591,_RNvMs3_NtNtCs38XCG6692bz_17sqlrustgo_storage10bplus_tree5indexNtB5_10BTreeIndex11usage_stats
FN:374,_RNvMs3_NtNtCs38XCG6692bz_17sqlrustgo_storage10bplus_tree5indexNtB5_10BTreeIndex13allocate_node
FN:541,_RNvMs3_NtNtCs38XCG6692bz_17sqlrustgo_storage10bplus_tree5indexNtB5_10BTreeIndex13collect_stats
FN:314,_RNvMs3_NtNtCs38XCG6692bz_17sqlrustgo_storage10bplus_tree5indexNtB5_10BTreeIndex13from_metadata
FN:354,_RNvMs3_NtNtCs38XCG6692bz_17sqlrustgo_storage10bplus_tree5indexNtB5_10BTreeIndex13insert_unique
FN:434,_RNvMs3_NtNtCs38XCG6692bz_17sqlrustgo_storage10bplus_tree5indexNtB5_10BTreeIndex15search_node_all
FN:466,_RNvMs3_NtNtCs38XCG6692bz_17sqlrustgo_storage10bplus_tree5indexNtB5_10BTreeIndex16delete_from_node
FN:380,_RNvMs3_NtNtCs38XCG6692bz_17sqlrustgo_storage10bplus_tree5indexNtB5_10BTreeIndex16insert_into_node
FN:494,_RNvMs3_NtNtCs38XCG6692bz_17sqlrustgo_storage10bplus_tree5indexNtB5_10BTreeIndex16range_query_leaf
FN:531,_RNvMs3_NtNtCs38XCG6692bz_17sqlrustgo_storage10bplus_tree5indexNtB5_10BTreeIndex17collect_keys_leaf
FN:579,_RNvMs3_NtNtCs38XCG6692bz_17sqlrustgo_storage10bplus_tree5indexNtB5_10BTreeIndex20estimate_cardinality
FN:509,_RNvMs3_NtNtCs38XCG6692bz_17sqlrustgo_storage10bplus_tree5indexNtB5_10BTreeIndex3len
FN:306,_RNvMs3_NtNtCs38XCG6692bz_17sqlrustgo_storage10bplus_tree5indexNtB5_10BTreeIndex3new
FN:521,_RNvMs3_NtNtCs38XCG6692bz_17sqlrustgo_storage10bplus_tree5indexNtB5_10BTreeIndex4keys
FN:453,_RNvMs3_NtNtCs38XCG6692bz_17sqlrustgo_storage10bplus_tree5indexNtB5_10BTreeIndex6delete
FN:517,_RNvMs3_NtNtCs38XCG6692bz_17sqlrustgo_storage10bplus_tree5indexNtB5_10BTreeIndex6height
FN:330,_RNvMs3_NtNtCs38XCG6692bz_17sqlrustgo_storage10bplus_tree5indexNtB5_10BTreeIndex6insert
FN:394,_RNvMs3_NtNtCs38XCG6692bz_17sqlrustgo_storage10bplus_tree5indexNtB5_10BTreeIndex6search
FN:322,_RNvMs3_NtNtCs38XCG6692bz_17sqlrustgo_storage10bplus_tree5indexNtB5_10BTreeIndex8is_dirty
FN:513,_RNvMs3_NtNtCs38XCG6692bz_17sqlrustgo_storage10bplus_tree5indexNtB5_10BTreeIndex8is_empty
FN:364,_RNvMs3_NtNtCs38XCG6692bz_17sqlrustgo_storage10bplus_tree5indexNtB5_10BTreeIndex9is_unique
FN:634,_RNvMs5_NtNtCs38XCG6692bz_17sqlrustgo_storage10bplus_tree5indexNtB5_19CompositeBTreeIndex10mark_dirty
FN:756,_RNvMs5_NtNtCs38XCG6692bz_17sqlrustgo_storage10bplus_tree5indexNtB5_19CompositeBTreeIndex11num_columns
FN:720,_RNvMs5_NtNtCs38XCG6692bz_17sqlrustgo_storage10bplus_tree5indexNtB5_19CompositeBTreeIndex11range_query
FN:705,_RNvMs5_NtNtCs38XCG6692bz_17sqlrustgo_storage10bplus_tree5indexNtB5_19CompositeBTreeIndex11search_node
FN:676,_RNvMs5_NtNtCs38XCG6692bz_17sqlrustgo_storage10bplus_tree5indexNtB5_19CompositeBTreeIndex13allocate_node
FN:621,_RNvMs5_NtNtCs38XCG6692bz_17sqlrustgo_storage10bplus_tree5indexNtB5_19CompositeBTreeIndex13from_metadata
FN:682,_RNvMs5_NtNtCs38XCG6692bz_17sqlrustgo_storage10bplus_tree5indexNtB5_19CompositeBTreeIndex16insert_into_node
FN:733,_RNvMs5_NtNtCs38XCG6692bz_17sqlrustgo_storage10bplus_tree5indexNtB5_19CompositeBTreeIndex16range_query_leaf
FN:665,_RNvMs5_NtNtCs38XCG6692bz_17sqlrustgo_storage10bplus_tree5indexNtB5_19CompositeBTreeIndex20encode_composite_key
FN:748,_RNvMs5_NtNtCs38XCG6692bz_17sqlrustgo_storage10bplus_tree5indexNtB5_19CompositeBTreeIndex3len
FN:612,_RNvMs5_NtNtCs38XCG6692bz_17sqlrustgo_storage10bplus_tree5indexNtB5_19CompositeBTreeIndex3new
FN:639,_RNvMs5_NtNtCs38XCG6692bz_17sqlrustgo_storage10bplus_tree5indexNtB5_19CompositeBTreeIndex6insert
FN:696,_RNvMs5_NtNtCs38XCG6692bz_17sqlrustgo_storage10bplus_tree5indexNtB5_19CompositeBTreeIndex6search
FN:630,_RNvMs5_NtNtCs38XCG6692bz_17sqlrustgo_storage10bplus_tree5indexNtB5_19CompositeBTreeIndex8is_dirty
FN:752,_RNvMs5_NtNtCs38XCG6692bz_17sqlrustgo_storage10bplus_tree5indexNtB5_19CompositeBTreeIndex8is_empty
FN:941,_RNvMs8_NtNtCs38XCG6692bz_17sqlrustgo_storage10bplus_tree5indexNtB5_16FullTextMetadata3new
FN:972,_RNvMs9_NtNtCs38XCG6692bz_17sqlrustgo_storage10bplus_tree5indexNtB5_11PostingList10add_doc_id
FN:965,_RNvMs9_NtNtCs38XCG6692bz_17sqlrustgo_storage10bplus_tree5indexNtB5_11PostingList13with_capacity
FN:959,_RNvMs9_NtNtCs38XCG6692bz_17sqlrustgo_storage10bplus_tree5indexNtB5_11PostingList3new
FN:981,_RNvMs9_NtNtCs38XCG6692bz_17sqlrustgo_storage10bplus_tree5indexNtB5_11PostingList8contains
FN:1054,_RNvMsb_NtNtCs38XCG6692bz_17sqlrustgo_storage10bplus_tree5indexNtB5_13FullTextIndex10is_deleted
FN:1133,_RNvMsb_NtNtCs38XCG6692bz_17sqlrustgo_storage10bplus_tree5indexNtB5_13FullTextIndex13num_documents
FN:1059,_RNvMsb_NtNtCs38XCG6692bz_17sqlrustgo_storage10bplus_tree5indexNtB5_13FullTextIndex14filter_deleted
FN:1120,_RNvMsb_NtNtCs38XCG6692bz_17sqlrustgo_storage10bplus_tree5indexNtB5_13FullTextIndex14term_frequency
FN:1005,_RNvMsb_NtNtCs38XCG6692bz_17sqlrustgo_storage10bplus_tree5indexNtB5_13FullTextIndex3new
FN:1128,_RNvMsb_NtNtCs38XCG6692bz_17sqlrustgo_storage10bplus_tree5indexNtB5_13FullTextIndex5terms
FN:1048,_RNvMsb_NtNtCs38XCG6692bz_17sqlrustgo_storage10bplus_tree5indexNtB5_13FullTextIndex6delete
FN:1029,_RNvMsb_NtNtCs38XCG6692bz_17sqlrustgo_storage10bplus_tree5indexNtB5_13FullTextIndex6insert
FN:1089,_RNvMsb_NtNtCs38XCG6692bz_17sqlrustgo_storage10bplus_tree5indexNtB5_13FullTextIndex6search
FN:1015,_RNvMsb_NtNtCs38XCG6692bz_17sqlrustgo_storage10bplus_tree5indexNtB5_13FullTextIndex8is_dirty
FN:1143,_RNvMsb_NtNtCs38XCG6692bz_17sqlrustgo_storage10bplus_tree5indexNtB5_13FullTextIndex8is_empty
FN:1020,_RNvMsb_NtNtCs38XCG6692bz_17sqlrustgo_storage10bplus_tree5indexNtB5_13FullTextIndex8tokenize
FN:1068,_RNvMsb_NtNtCs38XCG6692bz_17sqlrustgo_storage10bplus_tree5indexNtB5_13FullTextIndex9intersect
FN:1138,_RNvMsb_NtNtCs38XCG6692bz_17sqlrustgo_storage10bplus_tree5indexNtB5_13FullTextIndex9num_terms
FN:63,_RNvNtNtCs38XCG6692bz_17sqlrustgo_storage10bplus_tree5index14compare_values
FN:767,_RNvNtNtCs38XCG6692bz_17sqlrustgo_storage10bplus_tree5index14serialize_node
FN:819,_RNvNtNtCs38XCG6692bz_17sqlrustgo_storage10bplus_tree5index16deserialize_node
FN:67,_RNvNvNtNtCs38XCG6692bz_17sqlrustgo_storage10bplus_tree5index14compare_values10type_order
FN:112,_RNvXs0_NtNtCs38XCG6692bz_17sqlrustgo_storage10bplus_tree5indexNtB5_12CompositeKeyNtNtCs8nPosuWgJFh_4core3cmp3Ord3cmp
FN:597,_RNvXs4_NtNtCs38XCG6692bz_17sqlrustgo_storage10bplus_tree5indexNtB5_10BTreeIndexNtNtCs8nPosuWgJFh_4core7default7Default7default
FN:762,_RNvXs6_NtNtCs38XCG6692bz_17sqlrustgo_storage10bplus_tree5indexNtB5_19CompositeBTreeIndexNtNtCs8nPosuWgJFh_4core7default7Default7default
FN:930,_RNvXs7_NtNtCs38XCG6692bz_17sqlrustgo_storage10bplus_tree5indexNtB5_16FullTextMetadataNtNtCs8nPosuWgJFh_4core7default7Default7default
FN:106,_RNvXs_NtNtCs38XCG6692bz_17sqlrustgo_storage10bplus_tree5indexNtB4_12CompositeKeyNtNtCs8nPosuWgJFh_4core3cmp10PartialOrd11partial_cmp
FN:987,_RNvXsa_NtNtCs38XCG6692bz_17sqlrustgo_storage10bplus_tree5indexNtB5_11PostingListNtNtCs8nPosuWgJFh_4core7default7Default7default
FN:39,_RNvMNtNtCs1u7In8Za3Xp_17sqlrustgo_storage10bplus_tree5indexNtB2_12CompositeKey10from_slice
FN:35,_RNvMNtNtCs1u7In8Za3Xp_17sqlrustgo_storage10bplus_tree5indexNtB2_12CompositeKey3new
FN:50,_RNvMNtNtCs1u7In8Za3Xp_17sqlrustgo_storage10bplus_tree5indexNtB2_12CompositeKey8from_row
FN:45,_RNvMNtNtCs1u7In8Za3Xp_17sqlrustgo_storage10bplus_tree5indexNtB2_12CompositeKey8is_empty
FN:243,_RNvMs1_NtNtCs1u7In8Za3Xp_17sqlrustgo_storage10bplus_tree5indexNtB5_9BTreeNode10remove_key
FN:149,_RNvMs1_NtNtCs1u7In8Za3Xp_17sqlrustgo_storage10bplus_tree5indexNtB5_9BTreeNode12new_internal
FN:177,_RNvMs1_NtNtCs1u7In8Za3Xp_17sqlrustgo_storage10bplus_tree5indexNtB5_9BTreeNode14find_key_index
FN:183,_RNvMs1_NtNtCs1u7In8Za3Xp_17sqlrustgo_storage10bplus_tree5indexNtB5_9BTreeNode15find_all_values
FN:168,_RNvMs1_NtNtCs1u7In8Za3Xp_17sqlrustgo_storage10bplus_tree5indexNtB5_9BTreeNode16find_child_index
FN:203,_RNvMs1_NtNtCs1u7In8Za3Xp_17sqlrustgo_storage10bplus_tree5indexNtB5_9BTreeNode16insert_key_value
FN:160,_RNvMs1_NtNtCs1u7In8Za3Xp_17sqlrustgo_storage10bplus_tree5indexNtB5_9BTreeNode7is_full
FN:138,_RNvMs1_NtNtCs1u7In8Za3Xp_17sqlrustgo_storage10bplus_tree5indexNtB5_9BTreeNode8new_leaf
FN:164,_RNvMs1_NtNtCs1u7In8Za3Xp_17sqlrustgo_storage10bplus_tree5indexNtB5_9BTreeNode9can_split
FN:213,_RNvMs1_NtNtCs1u7In8Za3Xp_17sqlrustgo_storage10bplus_tree5indexNtB5_9BTreeNode9insert_at
FN:290,_RNvMs2_NtNtCs1u7In8Za3Xp_17sqlrustgo_storage10bplus_tree5indexNtB5_10IndexStats11selectivity
FN:285,_RNvMs2_NtNtCs1u7In8Za3Xp_17sqlrustgo_storage10bplus_tree5indexNtB5_10IndexStats3new
FN:326,_RNvMs3_NtNtCs1u7In8Za3Xp_17sqlrustgo_storage10bplus_tree5indexNtB5_10BTreeIndex10mark_dirty
FN:403,_RNvMs3_NtNtCs1u7In8Za3Xp_17sqlrustgo_storage10bplus_tree5indexNtB5_10BTreeIndex10search_all
FN:369,_RNvMs3_NtNtCs1u7In8Za3Xp_17sqlrustgo_storage10bplus_tree5indexNtB5_10BTreeIndex10set_unique
FN:484,_RNvMs3_NtNtCs1u7In8Za3Xp_17sqlrustgo_storage10bplus_tree5indexNtB5_10BTreeIndex11range_query
FN:411,_RNvMs3_NtNtCs1u7In8Za3Xp_17sqlrustgo_storage10bplus_tree5indexNtB5_10BTreeIndex11search_node
FN:591,_RNvMs3_NtNtCs1u7In8Za3Xp_17sqlrustgo_storage10bplus_tree5indexNtB5_10BTreeIndex11usage_stats
FN:374,_RNvMs3_NtNtCs1u7In8Za3Xp_17sqlrustgo_storage10bplus_tree5indexNtB5_10BTreeIndex13allocate_node
FN:541,_RNvMs3_NtNtCs1u7In8Za3Xp_17sqlrustgo_storage10bplus_tree5indexNtB5_10BTreeIndex13collect_stats
FN:314,_RNvMs3_NtNtCs1u7In8Za3Xp_17sqlrustgo_storage10bplus_tree5indexNtB5_10BTreeIndex13from_metadata
FN:354,_RNvMs3_NtNtCs1u7In8Za3Xp_17sqlrustgo_storage10bplus_tree5indexNtB5_10BTreeIndex13insert_unique
FN:434,_RNvMs3_NtNtCs1u7In8Za3Xp_17sqlrustgo_storage10bplus_tree5indexNtB5_10BTreeIndex15search_node_all
FN:466,_RNvMs3_NtNtCs1u7In8Za3Xp_17sqlrustgo_storage10bplus_tree5indexNtB5_10BTreeIndex16delete_from_node
FN:380,_RNvMs3_NtNtCs1u7In8Za3Xp_17sqlrustgo_storage10bplus_tree5indexNtB5_10BTreeIndex16insert_into_node
FN:494,_RNvMs3_NtNtCs1u7In8Za3Xp_17sqlrustgo_storage10bplus_tree5indexNtB5_10BTreeIndex16range_query_leaf
FN:531,_RNvMs3_NtNtCs1u7In8Za3Xp_17sqlrustgo_storage10bplus_tree5indexNtB5_10BTreeIndex17collect_keys_leaf
FN:579,_RNvMs3_NtNtCs1u7In8Za3Xp_17sqlrustgo_storage10bplus_tree5indexNtB5_10BTreeIndex20estimate_cardinality
FN:509,_RNvMs3_NtNtCs1u7In8Za3Xp_17sqlrustgo_storage10bplus_tree5indexNtB5_10BTreeIndex3len
FN:306,_RNvMs3_NtNtCs1u7In8Za3Xp_17sqlrustgo_storage10bplus_tree5indexNtB5_10BTreeIndex3new
FN:521,_RNvMs3_NtNtCs1u7In8Za3Xp_17sqlrustgo_storage10bplus_tree5indexNtB5_10BTreeIndex4keys
FN:453,_RNvMs3_NtNtCs1u7In8Za3Xp_17sqlrustgo_storage10bplus_tree5indexNtB5_10BTreeIndex6delete
FN:517,_RNvMs3_NtNtCs1u7In8Za3Xp_17sqlrustgo_storage10bplus_tree5indexNtB5_10BTreeIndex6height
FN:330,_RNvMs3_NtNtCs1u7In8Za3Xp_17sqlrustgo_storage10bplus_tree5indexNtB5_10BTreeIndex6insert
FN:394,_RNvMs3_NtNtCs1u7In8Za3Xp_17sqlrustgo_storage10bplus_tree5indexNtB5_10BTreeIndex6search
FN:322,_RNvMs3_NtNtCs1u7In8Za3Xp_17sqlrustgo_storage10bplus_tree5indexNtB5_10BTreeIndex8is_dirty
FN:513,_RNvMs3_NtNtCs1u7In8Za3Xp_17sqlrustgo_storage10bplus_tree5indexNtB5_10BTreeIndex8is_empty
FN:364,_RNvMs3_NtNtCs1u7In8Za3Xp_17sqlrustgo_storage10bplus_tree5indexNtB5_10BTreeIndex9is_unique
FN:634,_RNvMs5_NtNtCs1u7In8Za3Xp_17sqlrustgo_storage10bplus_tree5indexNtB5_19CompositeBTreeIndex10mark_dirty
FN:756,_RNvMs5_NtNtCs1u7In8Za3Xp_17sqlrustgo_storage10bplus_tree5indexNtB5_19CompositeBTreeIndex11num_columns
FN:720,_RNvMs5_NtNtCs1u7In8Za3Xp_17sqlrustgo_storage10bplus_tree5indexNtB5_19CompositeBTreeIndex11range_query
FN:705,_RNvMs5_NtNtCs1u7In8Za3Xp_17sqlrustgo_storage10bplus_tree5indexNtB5_19CompositeBTreeIndex11search_node
FN:676,_RNvMs5_NtNtCs1u7In8Za3Xp_17sqlrustgo_storage10bplus_tree5indexNtB5_19CompositeBTreeIndex13allocate_node
FN:621,_RNvMs5_NtNtCs1u7In8Za3Xp_17sqlrustgo_storage10bplus_tree5indexNtB5_19CompositeBTreeIndex13from_metadata
FN:682,_RNvMs5_NtNtCs1u7In8Za3Xp_17sqlrustgo_storage10bplus_tree5indexNtB5_19CompositeBTreeIndex16insert_into_node
FN:733,_RNvMs5_NtNtCs1u7In8Za3Xp_17sqlrustgo_storage10bplus_tree5indexNtB5_19CompositeBTreeIndex16range_query_leaf
FN:665,_RNvMs5_NtNtCs1u7In8Za3Xp_17sqlrustgo_storage10bplus_tree5indexNtB5_19CompositeBTreeIndex20encode_composite_key
FN:748,_RNvMs5_NtNtCs1u7In8Za3Xp_17sqlrustgo_storage10bplus_tree5indexNtB5_19CompositeBTreeIndex3len
FN:612,_RNvMs5_NtNtCs1u7In8Za3Xp_17sqlrustgo_storage10bplus_tree5indexNtB5_19CompositeBTreeIndex3new
FN:639,_RNvMs5_NtNtCs1u7In8Za3Xp_17sqlrustgo_storage10bplus_tree5indexNtB5_19CompositeBTreeIndex6insert
FN:696,_RNvMs5_NtNtCs1u7In8Za3Xp_17sqlrustgo_storage10bplus_tree5indexNtB5_19CompositeBTreeIndex6search
FN:630,_RNvMs5_NtNtCs1u7In8Za3Xp_17sqlrustgo_storage10bplus_tree5indexNtB5_19CompositeBTreeIndex8is_dirty
FN:752,_RNvMs5_NtNtCs1u7In8Za3Xp_17sqlrustgo_storage10bplus_tree5indexNtB5_19CompositeBTreeIndex8is_empty
FN:941,_RNvMs8_NtNtCs1u7In8Za3Xp_17sqlrustgo_storage10bplus_tree5indexNtB5_16FullTextMetadata3new
FN:972,_RNvMs9_NtNtCs1u7In8Za3Xp_17sqlrustgo_storage10bplus_tree5indexNtB5_11PostingList10add_doc_id
FN:965,_RNvMs9_NtNtCs1u7In8Za3Xp_17sqlrustgo_storage10bplus_tree5indexNtB5_11PostingList13with_capacity
FN:959,_RNvMs9_NtNtCs1u7In8Za3Xp_17sqlrustgo_storage10bplus_tree5indexNtB5_11PostingList3new
FN:981,_RNvMs9_NtNtCs1u7In8Za3Xp_17sqlrustgo_storage10bplus_tree5indexNtB5_11PostingList8contains
FN:1054,_RNvMsb_NtNtCs1u7In8Za3Xp_17sqlrustgo_storage10bplus_tree5indexNtB5_13FullTextIndex10is_deleted
FN:1133,_RNvMsb_NtNtCs1u7In8Za3Xp_17sqlrustgo_storage10bplus_tree5indexNtB5_13FullTextIndex13num_documents
FN:1059,_RNvMsb_NtNtCs1u7In8Za3Xp_17sqlrustgo_storage10bplus_tree5indexNtB5_13FullTextIndex14filter_deleted
FN:1120,_RNvMsb_NtNtCs1u7In8Za3Xp_17sqlrustgo_storage10bplus_tree5indexNtB5_13FullTextIndex14term_frequency
FN:1005,_RNvMsb_NtNtCs1u7In8Za3Xp_17sqlrustgo_storage10bplus_tree5indexNtB5_13FullTextIndex3new
FN:1128,_RNvMsb_NtNtCs1u7In8Za3Xp_17sqlrustgo_storage10bplus_tree5indexNtB5_13FullTextIndex5terms
FN:1048,_RNvMsb_NtNtCs1u7In8Za3Xp_17sqlrustgo_storage10bplus_tree5indexNtB5_13FullTextIndex6delete
FN:1029,_RNvMsb_NtNtCs1u7In8Za3Xp_17sqlrustgo_storage10bplus_tree5indexNtB5_13FullTextIndex6insert
FN:1089,_RNvMsb_NtNtCs1u7In8Za3Xp_17sqlrustgo_storage10bplus_tree5indexNtB5_13FullTextIndex6search
FN:1015,_RNvMsb_NtNtCs1u7In8Za3Xp_17sqlrustgo_storage10bplus_tree5indexNtB5_13FullTextIndex8is_dirty
FN:1143,_RNvMsb_NtNtCs1u7In8Za3Xp_17sqlrustgo_storage10bplus_tree5indexNtB5_13FullTextIndex8is_empty
FN:1020,_RNvMsb_NtNtCs1u7In8Za3Xp_17sqlrustgo_storage10bplus_tree5indexNtB5_13FullTextIndex8tokenize
FN:1068,_RNvMsb_NtNtCs1u7In8Za3Xp_17sqlrustgo_storage10bplus_tree5indexNtB5_13FullTextIndex9intersect
FN:1138,_RNvMsb_NtNtCs1u7In8Za3Xp_17sqlrustgo_storage10bplus_tree5indexNtB5_13FullTextIndex9num_terms
FN:63,_RNvNtNtCs1u7In8Za3Xp_17sqlrustgo_storage10bplus_tree5index14compare_values
FN:767,_RNvNtNtCs1u7In8Za3Xp_17sqlrustgo_storage10bplus_tree5index14serialize_node
FN:819,_RNvNtNtCs1u7In8Za3Xp_17sqlrustgo_storage10bplus_tree5index16deserialize_node
FN:67,_RNvNvNtNtCs1u7In8Za3Xp_17sqlrustgo_storage10bplus_tree5index14compare_values10type_order
FN:112,_RNvXs0_NtNtCs1u7In8Za3Xp_17sqlrustgo_storage10bplus_tree5indexNtB5_12CompositeKeyNtNtCs8nPosuWgJFh_4core3cmp3Ord3cmp
FN:597,_RNvXs4_NtNtCs1u7In8Za3Xp_17sqlrustgo_storage10bplus_tree5indexNtB5_10BTreeIndexNtNtCs8nPosuWgJFh_4core7default7Default7default
FN:762,_RNvXs6_NtNtCs1u7In8Za3Xp_17sqlrustgo_storage10bplus_tree5indexNtB5_19CompositeBTreeIndexNtNtCs8nPosuWgJFh_4core7default7Default7default
FN:930,_RNvXs7_NtNtCs1u7In8Za3Xp_17sqlrustgo_storage10bplus_tree5indexNtB5_16FullTextMetadataNtNtCs8nPosuWgJFh_4core7default7Default7default
FN:106,_RNvXs_NtNtCs1u7In8Za3Xp_17sqlrustgo_storage10bplus_tree5indexNtB4_12CompositeKeyNtNtCs8nPosuWgJFh_4core3cmp10PartialOrd11partial_cmp
FN:987,_RNvXsa_NtNtCs1u7In8Za3Xp_17sqlrustgo_storage10bplus_tree5indexNtB5_11PostingListNtNtCs8nPosuWgJFh_4core7default7Default7default
FN:54,_RNCNvMNtNtCs1u7In8Za3Xp_17sqlrustgo_storage10bplus_tree5indexNtB4_12CompositeKey8from_row0B8_
FN:1063,_RNCNvMsb_NtNtCs1u7In8Za3Xp_17sqlrustgo_storage10bplus_tree5indexNtB7_13FullTextIndex14filter_deleted0Bb_
FN:1123,_RNCNvMsb_NtNtCs1u7In8Za3Xp_17sqlrustgo_storage10bplus_tree5indexNtB7_13FullTextIndex14term_frequency0Bb_
FN:1099,_RNCNvMsb_NtNtCs1u7In8Za3Xp_17sqlrustgo_storage10bplus_tree5indexNtB7_13FullTextIndex6search0Bb_
FN:1022,_RNCNvMsb_NtNtCs1u7In8Za3Xp_17sqlrustgo_storage10bplus_tree5indexNtB7_13FullTextIndex8tokenize0Bb_
FN:1024,_RNCNvMsb_NtNtCs1u7In8Za3Xp_17sqlrustgo_storage10bplus_tree5indexNtB7_13FullTextIndex8tokenizes0_0Bb_
FN:1023,_RNCNvMsb_NtNtCs1u7In8Za3Xp_17sqlrustgo_storage10bplus_tree5indexNtB7_13FullTextIndex8tokenizes_0Bb_
FN:54,_RNCNvMNtNtCsd1AkON0xxEy_17sqlrustgo_storage10bplus_tree5indexNtB4_12CompositeKey8from_row0B8_
FN:1063,_RNCNvMsb_NtNtCsd1AkON0xxEy_17sqlrustgo_storage10bplus_tree5indexNtB7_13FullTextIndex14filter_deleted0Bb_
FN:1123,_RNCNvMsb_NtNtCsd1AkON0xxEy_17sqlrustgo_storage10bplus_tree5indexNtB7_13FullTextIndex14term_frequency0Bb_
FN:1099,_RNCNvMsb_NtNtCsd1AkON0xxEy_17sqlrustgo_storage10bplus_tree5indexNtB7_13FullTextIndex6search0Bb_
FN:1022,_RNCNvMsb_NtNtCsd1AkON0xxEy_17sqlrustgo_storage10bplus_tree5indexNtB7_13FullTextIndex8tokenize0Bb_
FN:1024,_RNCNvMsb_NtNtCsd1AkON0xxEy_17sqlrustgo_storage10bplus_tree5indexNtB7_13FullTextIndex8tokenizes0_0Bb_
FN:1023,_RNCNvMsb_NtNtCsd1AkON0xxEy_17sqlrustgo_storage10bplus_tree5indexNtB7_13FullTextIndex8tokenizes_0Bb_
FN:39,_RNvMNtNtCsd1AkON0xxEy_17sqlrustgo_storage10bplus_tree5indexNtB2_12CompositeKey10from_slice
FN:35,_RNvMNtNtCsd1AkON0xxEy_17sqlrustgo_storage10bplus_tree5indexNtB2_12CompositeKey3new
FN:50,_RNvMNtNtCsd1AkON0xxEy_17sqlrustgo_storage10bplus_tree5indexNtB2_12CompositeKey8from_row
FN:45,_RNvMNtNtCsd1AkON0xxEy_17sqlrustgo_storage10bplus_tree5indexNtB2_12CompositeKey8is_empty
FN:243,_RNvMs1_NtNtCsd1AkON0xxEy_17sqlrustgo_storage10bplus_tree5indexNtB5_9BTreeNode10remove_key
FN:149,_RNvMs1_NtNtCsd1AkON0xxEy_17sqlrustgo_storage10bplus_tree5indexNtB5_9BTreeNode12new_internal
FN:177,_RNvMs1_NtNtCsd1AkON0xxEy_17sqlrustgo_storage10bplus_tree5indexNtB5_9BTreeNode14find_key_index
FN:183,_RNvMs1_NtNtCsd1AkON0xxEy_17sqlrustgo_storage10bplus_tree5indexNtB5_9BTreeNode15find_all_values
FN:168,_RNvMs1_NtNtCsd1AkON0xxEy_17sqlrustgo_storage10bplus_tree5indexNtB5_9BTreeNode16find_child_index
FN:203,_RNvMs1_NtNtCsd1AkON0xxEy_17sqlrustgo_storage10bplus_tree5indexNtB5_9BTreeNode16insert_key_value
FN:160,_RNvMs1_NtNtCsd1AkON0xxEy_17sqlrustgo_storage10bplus_tree5indexNtB5_9BTreeNode7is_full
FN:138,_RNvMs1_NtNtCsd1AkON0xxEy_17sqlrustgo_storage10bplus_tree5indexNtB5_9BTreeNode8new_leaf
FN:164,_RNvMs1_NtNtCsd1AkON0xxEy_17sqlrustgo_storage10bplus_tree5indexNtB5_9BTreeNode9can_split
FN:213,_RNvMs1_NtNtCsd1AkON0xxEy_17sqlrustgo_storage10bplus_tree5indexNtB5_9BTreeNode9insert_at
FN:290,_RNvMs2_NtNtCsd1AkON0xxEy_17sqlrustgo_storage10bplus_tree5indexNtB5_10IndexStats11selectivity
FN:285,_RNvMs2_NtNtCsd1AkON0xxEy_17sqlrustgo_storage10bplus_tree5indexNtB5_10IndexStats3new
FN:326,_RNvMs3_NtNtCsd1AkON0xxEy_17sqlrustgo_storage10bplus_tree5indexNtB5_10BTreeIndex10mark_dirty
FN:403,_RNvMs3_NtNtCsd1AkON0xxEy_17sqlrustgo_storage10bplus_tree5indexNtB5_10BTreeIndex10search_all
FN:369,_RNvMs3_NtNtCsd1AkON0xxEy_17sqlrustgo_storage10bplus_tree5indexNtB5_10BTreeIndex10set_unique
FN:484,_RNvMs3_NtNtCsd1AkON0xxEy_17sqlrustgo_storage10bplus_tree5indexNtB5_10BTreeIndex11range_query
FN:411,_RNvMs3_NtNtCsd1AkON0xxEy_17sqlrustgo_storage10bplus_tree5indexNtB5_10BTreeIndex11search_node
FN:591,_RNvMs3_NtNtCsd1AkON0xxEy_17sqlrustgo_storage10bplus_tree5indexNtB5_10BTreeIndex11usage_stats
FN:374,_RNvMs3_NtNtCsd1AkON0xxEy_17sqlrustgo_storage10bplus_tree5indexNtB5_10BTreeIndex13allocate_node
FN:541,_RNvMs3_NtNtCsd1AkON0xxEy_17sqlrustgo_storage10bplus_tree5indexNtB5_10BTreeIndex13collect_stats
FN:314,_RNvMs3_NtNtCsd1AkON0xxEy_17sqlrustgo_storage10bplus_tree5indexNtB5_10BTreeIndex13from_metadata
FN:354,_RNvMs3_NtNtCsd1AkON0xxEy_17sqlrustgo_storage10bplus_tree5indexNtB5_10BTreeIndex13insert_unique
FN:434,_RNvMs3_NtNtCsd1AkON0xxEy_17sqlrustgo_storage10bplus_tree5indexNtB5_10BTreeIndex15search_node_all
FN:466,_RNvMs3_NtNtCsd1AkON0xxEy_17sqlrustgo_storage10bplus_tree5indexNtB5_10BTreeIndex16delete_from_node
FN:380,_RNvMs3_NtNtCsd1AkON0xxEy_17sqlrustgo_storage10bplus_tree5indexNtB5_10BTreeIndex16insert_into_node
FN:494,_RNvMs3_NtNtCsd1AkON0xxEy_17sqlrustgo_storage10bplus_tree5indexNtB5_10BTreeIndex16range_query_leaf
FN:531,_RNvMs3_NtNtCsd1AkON0xxEy_17sqlrustgo_storage10bplus_tree5indexNtB5_10BTreeIndex17collect_keys_leaf
FN:579,_RNvMs3_NtNtCsd1AkON0xxEy_17sqlrustgo_storage10bplus_tree5indexNtB5_10BTreeIndex20estimate_cardinality
FN:509,_RNvMs3_NtNtCsd1AkON0xxEy_17sqlrustgo_storage10bplus_tree5indexNtB5_10BTreeIndex3len
FN:306,_RNvMs3_NtNtCsd1AkON0xxEy_17sqlrustgo_storage10bplus_tree5indexNtB5_10BTreeIndex3new
FN:521,_RNvMs3_NtNtCsd1AkON0xxEy_17sqlrustgo_storage10bplus_tree5indexNtB5_10BTreeIndex4keys
FN:453,_RNvMs3_NtNtCsd1AkON0xxEy_17sqlrustgo_storage10bplus_tree5indexNtB5_10BTreeIndex6delete
FN:517,_RNvMs3_NtNtCsd1AkON0xxEy_17sqlrustgo_storage10bplus_tree5indexNtB5_10BTreeIndex6height
FN:330,_RNvMs3_NtNtCsd1AkON0xxEy_17sqlrustgo_storage10bplus_tree5indexNtB5_10BTreeIndex6insert
FN:394,_RNvMs3_NtNtCsd1AkON0xxEy_17sqlrustgo_storage10bplus_tree5indexNtB5_10BTreeIndex6search
FN:322,_RNvMs3_NtNtCsd1AkON0xxEy_17sqlrustgo_storage10bplus_tree5indexNtB5_10BTreeIndex8is_dirty
FN:513,_RNvMs3_NtNtCsd1AkON0xxEy_17sqlrustgo_storage10bplus_tree5indexNtB5_10BTreeIndex8is_empty
FN:364,_RNvMs3_NtNtCsd1AkON0xxEy_17sqlrustgo_storage10bplus_tree5indexNtB5_10BTreeIndex9is_unique
FN:634,_RNvMs5_NtNtCsd1AkON0xxEy_17sqlrustgo_storage10bplus_tree5indexNtB5_19CompositeBTreeIndex10mark_dirty
FN:756,_RNvMs5_NtNtCsd1AkON0xxEy_17sqlrustgo_storage10bplus_tree5indexNtB5_19CompositeBTreeIndex11num_columns
FN:720,_RNvMs5_NtNtCsd1AkON0xxEy_17sqlrustgo_storage10bplus_tree5indexNtB5_19CompositeBTreeIndex11range_query
FN:705,_RNvMs5_NtNtCsd1AkON0xxEy_17sqlrustgo_storage10bplus_tree5indexNtB5_19CompositeBTreeIndex11search_node
FN:676,_RNvMs5_NtNtCsd1AkON0xxEy_17sqlrustgo_storage10bplus_tree5indexNtB5_19CompositeBTreeIndex13allocate_node
FN:621,_RNvMs5_NtNtCsd1AkON0xxEy_17sqlrustgo_storage10bplus_tree5indexNtB5_19CompositeBTreeIndex13from_metadata
FN:682,_RNvMs5_NtNtCsd1AkON0xxEy_17sqlrustgo_storage10bplus_tree5indexNtB5_19CompositeBTreeIndex16insert_into_node
FN:733,_RNvMs5_NtNtCsd1AkON0xxEy_17sqlrustgo_storage10bplus_tree5indexNtB5_19CompositeBTreeIndex16range_query_leaf
FN:665,_RNvMs5_NtNtCsd1AkON0xxEy_17sqlrustgo_storage10bplus_tree5indexNtB5_19CompositeBTreeIndex20encode_composite_key
FN:748,_RNvMs5_NtNtCsd1AkON0xxEy_17sqlrustgo_storage10bplus_tree5indexNtB5_19CompositeBTreeIndex3len
FN:612,_RNvMs5_NtNtCsd1AkON0xxEy_17sqlrustgo_storage10bplus_tree5indexNtB5_19CompositeBTreeIndex3new
FN:639,_RNvMs5_NtNtCsd1AkON0xxEy_17sqlrustgo_storage10bplus_tree5indexNtB5_19CompositeBTreeIndex6insert
FN:696,_RNvMs5_NtNtCsd1AkON0xxEy_17sqlrustgo_storage10bplus_tree5indexNtB5_19CompositeBTreeIndex6search
FN:630,_RNvMs5_NtNtCsd1AkON0xxEy_17sqlrustgo_storage10bplus_tree5indexNtB5_19CompositeBTreeIndex8is_dirty
FN:752,_RNvMs5_NtNtCsd1AkON0xxEy_17sqlrustgo_storage10bplus_tree5indexNtB5_19CompositeBTreeIndex8is_empty
FN:941,_RNvMs8_NtNtCsd1AkON0xxEy_17sqlrustgo_storage10bplus_tree5indexNtB5_16FullTextMetadata3new
FN:972,_RNvMs9_NtNtCsd1AkON0xxEy_17sqlrustgo_storage10bplus_tree5indexNtB5_11PostingList10add_doc_id
FN:965,_RNvMs9_NtNtCsd1AkON0xxEy_17sqlrustgo_storage10bplus_tree5indexNtB5_11PostingList13with_capacity
FN:959,_RNvMs9_NtNtCsd1AkON0xxEy_17sqlrustgo_storage10bplus_tree5indexNtB5_11PostingList3new
FN:981,_RNvMs9_NtNtCsd1AkON0xxEy_17sqlrustgo_storage10bplus_tree5indexNtB5_11PostingList8contains
FN:1054,_RNvMsb_NtNtCsd1AkON0xxEy_17sqlrustgo_storage10bplus_tree5indexNtB5_13FullTextIndex10is_deleted
FN:1133,_RNvMsb_NtNtCsd1AkON0xxEy_17sqlrustgo_storage10bplus_tree5indexNtB5_13FullTextIndex13num_documents
FN:1059,_RNvMsb_NtNtCsd1AkON0xxEy_17sqlrustgo_storage10bplus_tree5indexNtB5_13FullTextIndex14filter_deleted
FN:1120,_RNvMsb_NtNtCsd1AkON0xxEy_17sqlrustgo_storage10bplus_tree5indexNtB5_13FullTextIndex14term_frequency
FN:1005,_RNvMsb_NtNtCsd1AkON0xxEy_17sqlrustgo_storage10bplus_tree5indexNtB5_13FullTextIndex3new
FN:1128,_RNvMsb_NtNtCsd1AkON0xxEy_17sqlrustgo_storage10bplus_tree5indexNtB5_13FullTextIndex5terms
FN:1048,_RNvMsb_NtNtCsd1AkON0xxEy_17sqlrustgo_storage10bplus_tree5indexNtB5_13FullTextIndex6delete
FN:1029,_RNvMsb_NtNtCsd1AkON0xxEy_17sqlrustgo_storage10bplus_tree5indexNtB5_13FullTextIndex6insert
FN:1089,_RNvMsb_NtNtCsd1AkON0xxEy_17sqlrustgo_storage10bplus_tree5indexNtB5_13FullTextIndex6search
FN:1015,_RNvMsb_NtNtCsd1AkON0xxEy_17sqlrustgo_storage10bplus_tree5indexNtB5_13FullTextIndex8is_dirty
FN:1143,_RNvMsb_NtNtCsd1AkON0xxEy_17sqlrustgo_storage10bplus_tree5indexNtB5_13FullTextIndex8is_empty
FN:1020,_RNvMsb_NtNtCsd1AkON0xxEy_17sqlrustgo_storage10bplus_tree5indexNtB5_13FullTextIndex8tokenize
FN:1068,_RNvMsb_NtNtCsd1AkON0xxEy_17sqlrustgo_storage10bplus_tree5indexNtB5_13FullTextIndex9intersect
FN:1138,_RNvMsb_NtNtCsd1AkON0xxEy_17sqlrustgo_storage10bplus_tree5indexNtB5_13FullTextIndex9num_terms
FN:63,_RNvNtNtCsd1AkON0xxEy_17sqlrustgo_storage10bplus_tree5index14compare_values
FN:767,_RNvNtNtCsd1AkON0xxEy_17sqlrustgo_storage10bplus_tree5index14serialize_node
FN:819,_RNvNtNtCsd1AkON0xxEy_17sqlrustgo_storage10bplus_tree5index16deserialize_node
FN:67,_RNvNvNtNtCsd1AkON0xxEy_17sqlrustgo_storage10bplus_tree5index14compare_values10type_order
FN:112,_RNvXs0_NtNtCsd1AkON0xxEy_17sqlrustgo_storage10bplus_tree5indexNtB5_12CompositeKeyNtNtCs8nPosuWgJFh_4core3cmp3Ord3cmp
FN:597,_RNvXs4_NtNtCsd1AkON0xxEy_17sqlrustgo_storage10bplus_tree5indexNtB5_10BTreeIndexNtNtCs8nPosuWgJFh_4core7default7Default7default
FN:762,_RNvXs6_NtNtCsd1AkON0xxEy_17sqlrustgo_storage10bplus_tree5indexNtB5_19CompositeBTreeIndexNtNtCs8nPosuWgJFh_4core7default7Default7default
FN:930,_RNvXs7_NtNtCsd1AkON0xxEy_17sqlrustgo_storage10bplus_tree5indexNtB5_16FullTextMetadataNtNtCs8nPosuWgJFh_4core7default7Default7default
FN:106,_RNvXs_NtNtCsd1AkON0xxEy_17sqlrustgo_storage10bplus_tree5indexNtB4_12CompositeKeyNtNtCs8nPosuWgJFh_4core3cmp10PartialOrd11partial_cmp
FN:987,_RNvXsa_NtNtCsd1AkON0xxEy_17sqlrustgo_storage10bplus_tree5indexNtB5_11PostingListNtNtCs8nPosuWgJFh_4core7default7Default7default
FN:54,_RNCNvMNtNtCs9oXD4GUMzTX_17sqlrustgo_storage10bplus_tree5indexNtB4_12CompositeKey8from_row0B8_
FN:1063,_RNCNvMsb_NtNtCs9oXD4GUMzTX_17sqlrustgo_storage10bplus_tree5indexNtB7_13FullTextIndex14filter_deleted0Bb_
FN:1123,_RNCNvMsb_NtNtCs9oXD4GUMzTX_17sqlrustgo_storage10bplus_tree5indexNtB7_13FullTextIndex14term_frequency0Bb_
FN:1099,_RNCNvMsb_NtNtCs9oXD4GUMzTX_17sqlrustgo_storage10bplus_tree5indexNtB7_13FullTextIndex6search0Bb_
FN:1022,_RNCNvMsb_NtNtCs9oXD4GUMzTX_17sqlrustgo_storage10bplus_tree5indexNtB7_13FullTextIndex8tokenize0Bb_
FN:1024,_RNCNvMsb_NtNtCs9oXD4GUMzTX_17sqlrustgo_storage10bplus_tree5indexNtB7_13FullTextIndex8tokenizes0_0Bb_
FN:1023,_RNCNvMsb_NtNtCs9oXD4GUMzTX_17sqlrustgo_storage10bplus_tree5indexNtB7_13FullTextIndex8tokenizes_0Bb_
FN:39,_RNvMNtNtCs9oXD4GUMzTX_17sqlrustgo_storage10bplus_tree5indexNtB2_12CompositeKey10from_slice
FN:35,_RNvMNtNtCs9oXD4GUMzTX_17sqlrustgo_storage10bplus_tree5indexNtB2_12CompositeKey3new
FN:50,_RNvMNtNtCs9oXD4GUMzTX_17sqlrustgo_storage10bplus_tree5indexNtB2_12CompositeKey8from_row
FN:45,_RNvMNtNtCs9oXD4GUMzTX_17sqlrustgo_storage10bplus_tree5indexNtB2_12CompositeKey8is_empty
FN:243,_RNvMs1_NtNtCs9oXD4GUMzTX_17sqlrustgo_storage10bplus_tree5indexNtB5_9BTreeNode10remove_key
FN:149,_RNvMs1_NtNtCs9oXD4GUMzTX_17sqlrustgo_storage10bplus_tree5indexNtB5_9BTreeNode12new_internal
FN:177,_RNvMs1_NtNtCs9oXD4GUMzTX_17sqlrustgo_storage10bplus_tree5indexNtB5_9BTreeNode14find_key_index
FN:183,_RNvMs1_NtNtCs9oXD4GUMzTX_17sqlrustgo_storage10bplus_tree5indexNtB5_9BTreeNode15find_all_values
FN:168,_RNvMs1_NtNtCs9oXD4GUMzTX_17sqlrustgo_storage10bplus_tree5indexNtB5_9BTreeNode16find_child_index
FN:203,_RNvMs1_NtNtCs9oXD4GUMzTX_17sqlrustgo_storage10bplus_tree5indexNtB5_9BTreeNode16insert_key_value
FN:160,_RNvMs1_NtNtCs9oXD4GUMzTX_17sqlrustgo_storage10bplus_tree5indexNtB5_9BTreeNode7is_full
FN:138,_RNvMs1_NtNtCs9oXD4GUMzTX_17sqlrustgo_storage10bplus_tree5indexNtB5_9BTreeNode8new_leaf
FN:164,_RNvMs1_NtNtCs9oXD4GUMzTX_17sqlrustgo_storage10bplus_tree5indexNtB5_9BTreeNode9can_split
FN:213,_RNvMs1_NtNtCs9oXD4GUMzTX_17sqlrustgo_storage10bplus_tree5indexNtB5_9BTreeNode9insert_at
FN:290,_RNvMs2_NtNtCs9oXD4GUMzTX_17sqlrustgo_storage10bplus_tree5indexNtB5_10IndexStats11selectivity
FN:285,_RNvMs2_NtNtCs9oXD4GUMzTX_17sqlrustgo_storage10bplus_tree5indexNtB5_10IndexStats3new
FN:326,_RNvMs3_NtNtCs9oXD4GUMzTX_17sqlrustgo_storage10bplus_tree5indexNtB5_10BTreeIndex10mark_dirty
FN:403,_RNvMs3_NtNtCs9oXD4GUMzTX_17sqlrustgo_storage10bplus_tree5indexNtB5_10BTreeIndex10search_all
FN:369,_RNvMs3_NtNtCs9oXD4GUMzTX_17sqlrustgo_storage10bplus_tree5indexNtB5_10BTreeIndex10set_unique
FN:484,_RNvMs3_NtNtCs9oXD4GUMzTX_17sqlrustgo_storage10bplus_tree5indexNtB5_10BTreeIndex11range_query
FN:411,_RNvMs3_NtNtCs9oXD4GUMzTX_17sqlrustgo_storage10bplus_tree5indexNtB5_10BTreeIndex11search_node
FN:591,_RNvMs3_NtNtCs9oXD4GUMzTX_17sqlrustgo_storage10bplus_tree5indexNtB5_10BTreeIndex11usage_stats
FN:374,_RNvMs3_NtNtCs9oXD4GUMzTX_17sqlrustgo_storage10bplus_tree5indexNtB5_10BTreeIndex13allocate_node
FN:541,_RNvMs3_NtNtCs9oXD4GUMzTX_17sqlrustgo_storage10bplus_tree5indexNtB5_10BTreeIndex13collect_stats
FN:314,_RNvMs3_NtNtCs9oXD4GUMzTX_17sqlrustgo_storage10bplus_tree5indexNtB5_10BTreeIndex13from_metadata
FN:354,_RNvMs3_NtNtCs9oXD4GUMzTX_17sqlrustgo_storage10bplus_tree5indexNtB5_10BTreeIndex13insert_unique
FN:434,_RNvMs3_NtNtCs9oXD4GUMzTX_17sqlrustgo_storage10bplus_tree5indexNtB5_10BTreeIndex15search_node_all
FN:466,_RNvMs3_NtNtCs9oXD4GUMzTX_17sqlrustgo_storage10bplus_tree5indexNtB5_10BTreeIndex16delete_from_node
FN:380,_RNvMs3_NtNtCs9oXD4GUMzTX_17sqlrustgo_storage10bplus_tree5indexNtB5_10BTreeIndex16insert_into_node
FN:494,_RNvMs3_NtNtCs9oXD4GUMzTX_17sqlrustgo_storage10bplus_tree5indexNtB5_10BTreeIndex16range_query_leaf
FN:531,_RNvMs3_NtNtCs9oXD4GUMzTX_17sqlrustgo_storage10bplus_tree5indexNtB5_10BTreeIndex17collect_keys_leaf
FN:579,_RNvMs3_NtNtCs9oXD4GUMzTX_17sqlrustgo_storage10bplus_tree5indexNtB5_10BTreeIndex20estimate_cardinality
FN:509,_RNvMs3_NtNtCs9oXD4GUMzTX_17sqlrustgo_storage10bplus_tree5indexNtB5_10BTreeIndex3len
FN:306,_RNvMs3_NtNtCs9oXD4GUMzTX_17sqlrustgo_storage10bplus_tree5indexNtB5_10BTreeIndex3new
FN:521,_RNvMs3_NtNtCs9oXD4GUMzTX_17sqlrustgo_storage10bplus_tree5indexNtB5_10BTreeIndex4keys
FN:453,_RNvMs3_NtNtCs9oXD4GUMzTX_17sqlrustgo_storage10bplus_tree5indexNtB5_10BTreeIndex6delete
FN:517,_RNvMs3_NtNtCs9oXD4GUMzTX_17sqlrustgo_storage10bplus_tree5indexNtB5_10BTreeIndex6height
FN:330,_RNvMs3_NtNtCs9oXD4GUMzTX_17sqlrustgo_storage10bplus_tree5indexNtB5_10BTreeIndex6insert
FN:394,_RNvMs3_NtNtCs9oXD4GUMzTX_17sqlrustgo_storage10bplus_tree5indexNtB5_10BTreeIndex6search
FN:322,_RNvMs3_NtNtCs9oXD4GUMzTX_17sqlrustgo_storage10bplus_tree5indexNtB5_10BTreeIndex8is_dirty
FN:513,_RNvMs3_NtNtCs9oXD4GUMzTX_17sqlrustgo_storage10bplus_tree5indexNtB5_10BTreeIndex8is_empty
FN:364,_RNvMs3_NtNtCs9oXD4GUMzTX_17sqlrustgo_storage10bplus_tree5indexNtB5_10BTreeIndex9is_unique
FN:634,_RNvMs5_NtNtCs9oXD4GUMzTX_17sqlrustgo_storage10bplus_tree5indexNtB5_19CompositeBTreeIndex10mark_dirty
FN:756,_RNvMs5_NtNtCs9oXD4GUMzTX_17sqlrustgo_storage10bplus_tree5indexNtB5_19CompositeBTreeIndex11num_columns
FN:720,_RNvMs5_NtNtCs9oXD4GUMzTX_17sqlrustgo_storage10bplus_tree5indexNtB5_19CompositeBTreeIndex11range_query
FN:705,_RNvMs5_NtNtCs9oXD4GUMzTX_17sqlrustgo_storage10bplus_tree5indexNtB5_19CompositeBTreeIndex11search_node
FN:676,_RNvMs5_NtNtCs9oXD4GUMzTX_17sqlrustgo_storage10bplus_tree5indexNtB5_19CompositeBTreeIndex13allocate_node
FN:621,_RNvMs5_NtNtCs9oXD4GUMzTX_17sqlrustgo_storage10bplus_tree5indexNtB5_19CompositeBTreeIndex13from_metadata
FN:682,_RNvMs5_NtNtCs9oXD4GUMzTX_17sqlrustgo_storage10bplus_tree5indexNtB5_19CompositeBTreeIndex16insert_into_node
FN:733,_RNvMs5_NtNtCs9oXD4GUMzTX_17sqlrustgo_storage10bplus_tree5indexNtB5_19CompositeBTreeIndex16range_query_leaf
FN:665,_RNvMs5_NtNtCs9oXD4GUMzTX_17sqlrustgo_storage10bplus_tree5indexNtB5_19CompositeBTreeIndex20encode_composite_key
FN:748,_RNvMs5_NtNtCs9oXD4GUMzTX_17sqlrustgo_storage10bplus_tree5indexNtB5_19CompositeBTreeIndex3len
FN:612,_RNvMs5_NtNtCs9oXD4GUMzTX_17sqlrustgo_storage10bplus_tree5indexNtB5_19CompositeBTreeIndex3new
FN:639,_RNvMs5_NtNtCs9oXD4GUMzTX_17sqlrustgo_storage10bplus_tree5indexNtB5_19CompositeBTreeIndex6insert
FN:696,_RNvMs5_NtNtCs9oXD4GUMzTX_17sqlrustgo_storage10bplus_tree5indexNtB5_19CompositeBTreeIndex6search
FN:630,_RNvMs5_NtNtCs9oXD4GUMzTX_17sqlrustgo_storage10bplus_tree5indexNtB5_19CompositeBTreeIndex8is_dirty
FN:752,_RNvMs5_NtNtCs9oXD4GUMzTX_17sqlrustgo_storage10bplus_tree5indexNtB5_19CompositeBTreeIndex8is_empty
FN:941,_RNvMs8_NtNtCs9oXD4GUMzTX_17sqlrustgo_storage10bplus_tree5indexNtB5_16FullTextMetadata3new
FN:972,_RNvMs9_NtNtCs9oXD4GUMzTX_17sqlrustgo_storage10bplus_tree5indexNtB5_11PostingList10add_doc_id
FN:965,_RNvMs9_NtNtCs9oXD4GUMzTX_17sqlrustgo_storage10bplus_tree5indexNtB5_11PostingList13with_capacity
FN:959,_RNvMs9_NtNtCs9oXD4GUMzTX_17sqlrustgo_storage10bplus_tree5indexNtB5_11PostingList3new
FN:981,_RNvMs9_NtNtCs9oXD4GUMzTX_17sqlrustgo_storage10bplus_tree5indexNtB5_11PostingList8contains
FN:1054,_RNvMsb_NtNtCs9oXD4GUMzTX_17sqlrustgo_storage10bplus_tree5indexNtB5_13FullTextIndex10is_deleted
FN:1133,_RNvMsb_NtNtCs9oXD4GUMzTX_17sqlrustgo_storage10bplus_tree5indexNtB5_13FullTextIndex13num_documents
FN:1059,_RNvMsb_NtNtCs9oXD4GUMzTX_17sqlrustgo_storage10bplus_tree5indexNtB5_13FullTextIndex14filter_deleted
FN:1120,_RNvMsb_NtNtCs9oXD4GUMzTX_17sqlrustgo_storage10bplus_tree5indexNtB5_13FullTextIndex14term_frequency
FN:1005,_RNvMsb_NtNtCs9oXD4GUMzTX_17sqlrustgo_storage10bplus_tree5indexNtB5_13FullTextIndex3new
FN:1128,_RNvMsb_NtNtCs9oXD4GUMzTX_17sqlrustgo_storage10bplus_tree5indexNtB5_13FullTextIndex5terms
FN:1048,_RNvMsb_NtNtCs9oXD4GUMzTX_17sqlrustgo_storage10bplus_tree5indexNtB5_13FullTextIndex6delete
FN:1029,_RNvMsb_NtNtCs9oXD4GUMzTX_17sqlrustgo_storage10bplus_tree5indexNtB5_13FullTextIndex6insert
FN:1089,_RNvMsb_NtNtCs9oXD4GUMzTX_17sqlrustgo_storage10bplus_tree5indexNtB5_13FullTextIndex6search
FN:1015,_RNvMsb_NtNtCs9oXD4GUMzTX_17sqlrustgo_storage10bplus_tree5indexNtB5_13FullTextIndex8is_dirty
FN:1143,_RNvMsb_NtNtCs9oXD4GUMzTX_17sqlrustgo_storage10bplus_tree5indexNtB5_13FullTextIndex8is_empty
FN:1020,_RNvMsb_NtNtCs9oXD4GUMzTX_17sqlrustgo_storage10bplus_tree5indexNtB5_13FullTextIndex8tokenize
FN:1068,_RNvMsb_NtNtCs9oXD4GUMzTX_17sqlrustgo_storage10bplus_tree5indexNtB5_13FullTextIndex9intersect
FN:1138,_RNvMsb_NtNtCs9oXD4GUMzTX_17sqlrustgo_storage10bplus_tree5indexNtB5_13FullTextIndex9num_terms
FN:63,_RNvNtNtCs9oXD4GUMzTX_17sqlrustgo_storage10bplus_tree5index14compare_values
FN:767,_RNvNtNtCs9oXD4GUMzTX_17sqlrustgo_storage10bplus_tree5index14serialize_node
FN:819,_RNvNtNtCs9oXD4GUMzTX_17sqlrustgo_storage10bplus_tree5index16deserialize_node
FN:67,_RNvNvNtNtCs9oXD4GUMzTX_17sqlrustgo_storage10bplus_tree5index14compare_values10type_order
FN:112,_RNvXs0_NtNtCs9oXD4GUMzTX_17sqlrustgo_storage10bplus_tree5indexNtB5_12CompositeKeyNtNtCs8nPosuWgJFh_4core3cmp3Ord3cmp
FN:597,_RNvXs4_NtNtCs9oXD4GUMzTX_17sqlrustgo_storage10bplus_tree5indexNtB5_10BTreeIndexNtNtCs8nPosuWgJFh_4core7default7Default7default
FN:762,_RNvXs6_NtNtCs9oXD4GUMzTX_17sqlrustgo_storage10bplus_tree5indexNtB5_19CompositeBTreeIndexNtNtCs8nPosuWgJFh_4core7default7Default7default
FN:930,_RNvXs7_NtNtCs9oXD4GUMzTX_17sqlrustgo_storage10bplus_tree5indexNtB5_16FullTextMetadataNtNtCs8nPosuWgJFh_4core7default7Default7default
FN:106,_RNvXs_NtNtCs9oXD4GUMzTX_17sqlrustgo_storage10bplus_tree5indexNtB4_12CompositeKeyNtNtCs8nPosuWgJFh_4core3cmp10PartialOrd11partial_cmp
FN:987,_RNvXsa_NtNtCs9oXD4GUMzTX_17sqlrustgo_storage10bplus_tree5indexNtB5_11PostingListNtNtCs8nPosuWgJFh_4core7default7Default7default
FN:39,_RNvMNtNtCsl9zPO89iGuX_17sqlrustgo_storage10bplus_tree5indexNtB2_12CompositeKey10from_slice
FN:35,_RNvMNtNtCsl9zPO89iGuX_17sqlrustgo_storage10bplus_tree5indexNtB2_12CompositeKey3new
FN:50,_RNvMNtNtCsl9zPO89iGuX_17sqlrustgo_storage10bplus_tree5indexNtB2_12CompositeKey8from_row
FN:45,_RNvMNtNtCsl9zPO89iGuX_17sqlrustgo_storage10bplus_tree5indexNtB2_12CompositeKey8is_empty
FN:243,_RNvMs1_NtNtCsl9zPO89iGuX_17sqlrustgo_storage10bplus_tree5indexNtB5_9BTreeNode10remove_key
FN:149,_RNvMs1_NtNtCsl9zPO89iGuX_17sqlrustgo_storage10bplus_tree5indexNtB5_9BTreeNode12new_internal
FN:177,_RNvMs1_NtNtCsl9zPO89iGuX_17sqlrustgo_storage10bplus_tree5indexNtB5_9BTreeNode14find_key_index
FN:183,_RNvMs1_NtNtCsl9zPO89iGuX_17sqlrustgo_storage10bplus_tree5indexNtB5_9BTreeNode15find_all_values
FN:168,_RNvMs1_NtNtCsl9zPO89iGuX_17sqlrustgo_storage10bplus_tree5indexNtB5_9BTreeNode16find_child_index
FN:203,_RNvMs1_NtNtCsl9zPO89iGuX_17sqlrustgo_storage10bplus_tree5indexNtB5_9BTreeNode16insert_key_value
FN:160,_RNvMs1_NtNtCsl9zPO89iGuX_17sqlrustgo_storage10bplus_tree5indexNtB5_9BTreeNode7is_full
FN:138,_RNvMs1_NtNtCsl9zPO89iGuX_17sqlrustgo_storage10bplus_tree5indexNtB5_9BTreeNode8new_leaf
FN:164,_RNvMs1_NtNtCsl9zPO89iGuX_17sqlrustgo_storage10bplus_tree5indexNtB5_9BTreeNode9can_split
FN:213,_RNvMs1_NtNtCsl9zPO89iGuX_17sqlrustgo_storage10bplus_tree5indexNtB5_9BTreeNode9insert_at
FN:290,_RNvMs2_NtNtCsl9zPO89iGuX_17sqlrustgo_storage10bplus_tree5indexNtB5_10IndexStats11selectivity
FN:285,_RNvMs2_NtNtCsl9zPO89iGuX_17sqlrustgo_storage10bplus_tree5indexNtB5_10IndexStats3new
FN:326,_RNvMs3_NtNtCsl9zPO89iGuX_17sqlrustgo_storage10bplus_tree5indexNtB5_10BTreeIndex10mark_dirty
FN:403,_RNvMs3_NtNtCsl9zPO89iGuX_17sqlrustgo_storage10bplus_tree5indexNtB5_10BTreeIndex10search_all
FN:369,_RNvMs3_NtNtCsl9zPO89iGuX_17sqlrustgo_storage10bplus_tree5indexNtB5_10BTreeIndex10set_unique
FN:484,_RNvMs3_NtNtCsl9zPO89iGuX_17sqlrustgo_storage10bplus_tree5indexNtB5_10BTreeIndex11range_query
FN:411,_RNvMs3_NtNtCsl9zPO89iGuX_17sqlrustgo_storage10bplus_tree5indexNtB5_10BTreeIndex11search_node
FN:591,_RNvMs3_NtNtCsl9zPO89iGuX_17sqlrustgo_storage10bplus_tree5indexNtB5_10BTreeIndex11usage_stats
FN:374,_RNvMs3_NtNtCsl9zPO89iGuX_17sqlrustgo_storage10bplus_tree5indexNtB5_10BTreeIndex13allocate_node
FN:541,_RNvMs3_NtNtCsl9zPO89iGuX_17sqlrustgo_storage10bplus_tree5indexNtB5_10BTreeIndex13collect_stats
FN:314,_RNvMs3_NtNtCsl9zPO89iGuX_17sqlrustgo_storage10bplus_tree5indexNtB5_10BTreeIndex13from_metadata
FN:354,_RNvMs3_NtNtCsl9zPO89iGuX_17sqlrustgo_storage10bplus_tree5indexNtB5_10BTreeIndex13insert_unique
FN:434,_RNvMs3_NtNtCsl9zPO89iGuX_17sqlrustgo_storage10bplus_tree5indexNtB5_10BTreeIndex15search_node_all
FN:466,_RNvMs3_NtNtCsl9zPO89iGuX_17sqlrustgo_storage10bplus_tree5indexNtB5_10BTreeIndex16delete_from_node
FN:380,_RNvMs3_NtNtCsl9zPO89iGuX_17sqlrustgo_storage10bplus_tree5indexNtB5_10BTreeIndex16insert_into_node
FN:494,_RNvMs3_NtNtCsl9zPO89iGuX_17sqlrustgo_storage10bplus_tree5indexNtB5_10BTreeIndex16range_query_leaf
FN:531,_RNvMs3_NtNtCsl9zPO89iGuX_17sqlrustgo_storage10bplus_tree5indexNtB5_10BTreeIndex17collect_keys_leaf
FN:579,_RNvMs3_NtNtCsl9zPO89iGuX_17sqlrustgo_storage10bplus_tree5indexNtB5_10BTreeIndex20estimate_cardinality
FN:509,_RNvMs3_NtNtCsl9zPO89iGuX_17sqlrustgo_storage10bplus_tree5indexNtB5_10BTreeIndex3len
FN:306,_RNvMs3_NtNtCsl9zPO89iGuX_17sqlrustgo_storage10bplus_tree5indexNtB5_10BTreeIndex3new
FN:521,_RNvMs3_NtNtCsl9zPO89iGuX_17sqlrustgo_storage10bplus_tree5indexNtB5_10BTreeIndex4keys
FN:453,_RNvMs3_NtNtCsl9zPO89iGuX_17sqlrustgo_storage10bplus_tree5indexNtB5_10BTreeIndex6delete
FN:517,_RNvMs3_NtNtCsl9zPO89iGuX_17sqlrustgo_storage10bplus_tree5indexNtB5_10BTreeIndex6height
FN:330,_RNvMs3_NtNtCsl9zPO89iGuX_17sqlrustgo_storage10bplus_tree5indexNtB5_10BTreeIndex6insert
FN:394,_RNvMs3_NtNtCsl9zPO89iGuX_17sqlrustgo_storage10bplus_tree5indexNtB5_10BTreeIndex6search
FN:322,_RNvMs3_NtNtCsl9zPO89iGuX_17sqlrustgo_storage10bplus_tree5indexNtB5_10BTreeIndex8is_dirty
FN:513,_RNvMs3_NtNtCsl9zPO89iGuX_17sqlrustgo_storage10bplus_tree5indexNtB5_10BTreeIndex8is_empty
FN:364,_RNvMs3_NtNtCsl9zPO89iGuX_17sqlrustgo_storage10bplus_tree5indexNtB5_10BTreeIndex9is_unique
FN:634,_RNvMs5_NtNtCsl9zPO89iGuX_17sqlrustgo_storage10bplus_tree5indexNtB5_19CompositeBTreeIndex10mark_dirty
FN:756,_RNvMs5_NtNtCsl9zPO89iGuX_17sqlrustgo_storage10bplus_tree5indexNtB5_19CompositeBTreeIndex11num_columns
FN:720,_RNvMs5_NtNtCsl9zPO89iGuX_17sqlrustgo_storage10bplus_tree5indexNtB5_19CompositeBTreeIndex11range_query
FN:705,_RNvMs5_NtNtCsl9zPO89iGuX_17sqlrustgo_storage10bplus_tree5indexNtB5_19CompositeBTreeIndex11search_node
FN:676,_RNvMs5_NtNtCsl9zPO89iGuX_17sqlrustgo_storage10bplus_tree5indexNtB5_19CompositeBTreeIndex13allocate_node
FN:621,_RNvMs5_NtNtCsl9zPO89iGuX_17sqlrustgo_storage10bplus_tree5indexNtB5_19CompositeBTreeIndex13from_metadata
FN:682,_RNvMs5_NtNtCsl9zPO89iGuX_17sqlrustgo_storage10bplus_tree5indexNtB5_19CompositeBTreeIndex16insert_into_node
FN:733,_RNvMs5_NtNtCsl9zPO89iGuX_17sqlrustgo_storage10bplus_tree5indexNtB5_19CompositeBTreeIndex16range_query_leaf
FN:665,_RNvMs5_NtNtCsl9zPO89iGuX_17sqlrustgo_storage10bplus_tree5indexNtB5_19CompositeBTreeIndex20encode_composite_key
FN:748,_RNvMs5_NtNtCsl9zPO89iGuX_17sqlrustgo_storage10bplus_tree5indexNtB5_19CompositeBTreeIndex3len
FN:612,_RNvMs5_NtNtCsl9zPO89iGuX_17sqlrustgo_storage10bplus_tree5indexNtB5_19CompositeBTreeIndex3new
FN:639,_RNvMs5_NtNtCsl9zPO89iGuX_17sqlrustgo_storage10bplus_tree5indexNtB5_19CompositeBTreeIndex6insert
FN:696,_RNvMs5_NtNtCsl9zPO89iGuX_17sqlrustgo_storage10bplus_tree5indexNtB5_19CompositeBTreeIndex6search
FN:630,_RNvMs5_NtNtCsl9zPO89iGuX_17sqlrustgo_storage10bplus_tree5indexNtB5_19CompositeBTreeIndex8is_dirty
FN:752,_RNvMs5_NtNtCsl9zPO89iGuX_17sqlrustgo_storage10bplus_tree5indexNtB5_19CompositeBTreeIndex8is_empty
FN:941,_RNvMs8_NtNtCsl9zPO89iGuX_17sqlrustgo_storage10bplus_tree5indexNtB5_16FullTextMetadata3new
FN:972,_RNvMs9_NtNtCsl9zPO89iGuX_17sqlrustgo_storage10bplus_tree5indexNtB5_11PostingList10add_doc_id
FN:965,_RNvMs9_NtNtCsl9zPO89iGuX_17sqlrustgo_storage10bplus_tree5indexNtB5_11PostingList13with_capacity
FN:959,_RNvMs9_NtNtCsl9zPO89iGuX_17sqlrustgo_storage10bplus_tree5indexNtB5_11PostingList3new
FN:981,_RNvMs9_NtNtCsl9zPO89iGuX_17sqlrustgo_storage10bplus_tree5indexNtB5_11PostingList8contains
FN:1054,_RNvMsb_NtNtCsl9zPO89iGuX_17sqlrustgo_storage10bplus_tree5indexNtB5_13FullTextIndex10is_deleted
FN:1133,_RNvMsb_NtNtCsl9zPO89iGuX_17sqlrustgo_storage10bplus_tree5indexNtB5_13FullTextIndex13num_documents
FN:1059,_RNvMsb_NtNtCsl9zPO89iGuX_17sqlrustgo_storage10bplus_tree5indexNtB5_13FullTextIndex14filter_deleted
FN:1120,_RNvMsb_NtNtCsl9zPO89iGuX_17sqlrustgo_storage10bplus_tree5indexNtB5_13FullTextIndex14term_frequency
FN:1005,_RNvMsb_NtNtCsl9zPO89iGuX_17sqlrustgo_storage10bplus_tree5indexNtB5_13FullTextIndex3new
FN:1128,_RNvMsb_NtNtCsl9zPO89iGuX_17sqlrustgo_storage10bplus_tree5indexNtB5_13FullTextIndex5terms
FN:1048,_RNvMsb_NtNtCsl9zPO89iGuX_17sqlrustgo_storage10bplus_tree5indexNtB5_13FullTextIndex6delete
FN:1029,_RNvMsb_NtNtCsl9zPO89iGuX_17sqlrustgo_storage10bplus_tree5indexNtB5_13FullTextIndex6insert
FN:1089,_RNvMsb_NtNtCsl9zPO89iGuX_17sqlrustgo_storage10bplus_tree5indexNtB5_13FullTextIndex6search
FN:1015,_RNvMsb_NtNtCsl9zPO89iGuX_17sqlrustgo_storage10bplus_tree5indexNtB5_13FullTextIndex8is_dirty
FN:1143,_RNvMsb_NtNtCsl9zPO89iGuX_17sqlrustgo_storage10bplus_tree5indexNtB5_13FullTextIndex8is_empty
FN:1020,_RNvMsb_NtNtCsl9zPO89iGuX_17sqlrustgo_storage10bplus_tree5indexNtB5_13FullTextIndex8tokenize
FN:1068,_RNvMsb_NtNtCsl9zPO89iGuX_17sqlrustgo_storage10bplus_tree5indexNtB5_13FullTextIndex9intersect
FN:1138,_RNvMsb_NtNtCsl9zPO89iGuX_17sqlrustgo_storage10bplus_tree5indexNtB5_13FullTextIndex9num_terms
FN:63,_RNvNtNtCsl9zPO89iGuX_17sqlrustgo_storage10bplus_tree5index14compare_values
FN:767,_RNvNtNtCsl9zPO89iGuX_17sqlrustgo_storage10bplus_tree5index14serialize_node
FN:819,_RNvNtNtCsl9zPO89iGuX_17sqlrustgo_storage10bplus_tree5index16deserialize_node
FN:67,_RNvNvNtNtCsl9zPO89iGuX_17sqlrustgo_storage10bplus_tree5index14compare_values10type_order
FN:112,_RNvXs0_NtNtCsl9zPO89iGuX_17sqlrustgo_storage10bplus_tree5indexNtB5_12CompositeKeyNtNtCs8nPosuWgJFh_4core3cmp3Ord3cmp
FN:597,_RNvXs4_NtNtCsl9zPO89iGuX_17sqlrustgo_storage10bplus_tree5indexNtB5_10BTreeIndexNtNtCs8nPosuWgJFh_4core7default7Default7default
FN:762,_RNvXs6_NtNtCsl9zPO89iGuX_17sqlrustgo_storage10bplus_tree5indexNtB5_19CompositeBTreeIndexNtNtCs8nPosuWgJFh_4core7default7Default7default
FN:930,_RNvXs7_NtNtCsl9zPO89iGuX_17sqlrustgo_storage10bplus_tree5indexNtB5_16FullTextMetadataNtNtCs8nPosuWgJFh_4core7default7Default7default
FN:106,_RNvXs_NtNtCsl9zPO89iGuX_17sqlrustgo_storage10bplus_tree5indexNtB4_12CompositeKeyNtNtCs8nPosuWgJFh_4core3cmp10PartialOrd11partial_cmp
FN:987,_RNvXsa_NtNtCsl9zPO89iGuX_17sqlrustgo_storage10bplus_tree5indexNtB5_11PostingListNtNtCs8nPosuWgJFh_4core7default7Default7default
FN:54,_RNCNvMNtNtCsl9zPO89iGuX_17sqlrustgo_storage10bplus_tree5indexNtB4_12CompositeKey8from_row0B8_
FN:1063,_RNCNvMsb_NtNtCsl9zPO89iGuX_17sqlrustgo_storage10bplus_tree5indexNtB7_13FullTextIndex14filter_deleted0Bb_
FN:1123,_RNCNvMsb_NtNtCsl9zPO89iGuX_17sqlrustgo_storage10bplus_tree5indexNtB7_13FullTextIndex14term_frequency0Bb_
FN:1099,_RNCNvMsb_NtNtCsl9zPO89iGuX_17sqlrustgo_storage10bplus_tree5indexNtB7_13FullTextIndex6search0Bb_
FN:1022,_RNCNvMsb_NtNtCsl9zPO89iGuX_17sqlrustgo_storage10bplus_tree5indexNtB7_13FullTextIndex8tokenize0Bb_
FN:1024,_RNCNvMsb_NtNtCsl9zPO89iGuX_17sqlrustgo_storage10bplus_tree5indexNtB7_13FullTextIndex8tokenizes0_0Bb_
FN:1023,_RNCNvMsb_NtNtCsl9zPO89iGuX_17sqlrustgo_storage10bplus_tree5indexNtB7_13FullTextIndex8tokenizes_0Bb_
FN:1916,_RNCNvNtNtNtCsgGnK47HN26N_17sqlrustgo_storage10bplus_tree5index20covering_index_testss_25test_covering_index_check0B9_
FN:1925,_RNCNvNtNtNtCsgGnK47HN26N_17sqlrustgo_storage10bplus_tree5index20covering_index_testss_29test_non_covering_index_check0B9_
FN:45,_RNvMNtNtCsgGnK47HN26N_17sqlrustgo_storage10bplus_tree5indexNtB2_12CompositeKey8is_empty
FN:183,_RNvMs1_NtNtCsgGnK47HN26N_17sqlrustgo_storage10bplus_tree5indexNtB5_9BTreeNode15find_all_values
FN:285,_RNvMs2_NtNtCsgGnK47HN26N_17sqlrustgo_storage10bplus_tree5indexNtB5_10IndexStats3new
FN:326,_RNvMs3_NtNtCsgGnK47HN26N_17sqlrustgo_storage10bplus_tree5indexNtB5_10BTreeIndex10mark_dirty
FN:403,_RNvMs3_NtNtCsgGnK47HN26N_17sqlrustgo_storage10bplus_tree5indexNtB5_10BTreeIndex10search_all
FN:369,_RNvMs3_NtNtCsgGnK47HN26N_17sqlrustgo_storage10bplus_tree5indexNtB5_10BTreeIndex10set_unique
FN:314,_RNvMs3_NtNtCsgGnK47HN26N_17sqlrustgo_storage10bplus_tree5indexNtB5_10BTreeIndex13from_metadata
FN:354,_RNvMs3_NtNtCsgGnK47HN26N_17sqlrustgo_storage10bplus_tree5indexNtB5_10BTreeIndex13insert_unique
FN:434,_RNvMs3_NtNtCsgGnK47HN26N_17sqlrustgo_storage10bplus_tree5indexNtB5_10BTreeIndex15search_node_all
FN:322,_RNvMs3_NtNtCsgGnK47HN26N_17sqlrustgo_storage10bplus_tree5indexNtB5_10BTreeIndex8is_dirty
FN:364,_RNvMs3_NtNtCsgGnK47HN26N_17sqlrustgo_storage10bplus_tree5indexNtB5_10BTreeIndex9is_unique
FN:634,_RNvMs5_NtNtCsgGnK47HN26N_17sqlrustgo_storage10bplus_tree5indexNtB5_19CompositeBTreeIndex10mark_dirty
FN:621,_RNvMs5_NtNtCsgGnK47HN26N_17sqlrustgo_storage10bplus_tree5indexNtB5_19CompositeBTreeIndex13from_metadata
FN:630,_RNvMs5_NtNtCsgGnK47HN26N_17sqlrustgo_storage10bplus_tree5indexNtB5_19CompositeBTreeIndex8is_dirty
FN:752,_RNvMs5_NtNtCsgGnK47HN26N_17sqlrustgo_storage10bplus_tree5indexNtB5_19CompositeBTreeIndex8is_empty
FN:965,_RNvMs9_NtNtCsgGnK47HN26N_17sqlrustgo_storage10bplus_tree5indexNtB5_11PostingList13with_capacity
FN:1015,_RNvMsb_NtNtCsgGnK47HN26N_17sqlrustgo_storage10bplus_tree5indexNtB5_13FullTextIndex8is_dirty
FN:63,_RNvNtNtCsgGnK47HN26N_17sqlrustgo_storage10bplus_tree5index14compare_values
FN:67,_RNvNvNtNtCsgGnK47HN26N_17sqlrustgo_storage10bplus_tree5index14compare_values10type_order
FN:112,_RNvXs0_NtNtCsgGnK47HN26N_17sqlrustgo_storage10bplus_tree5indexNtB5_12CompositeKeyNtNtCs8nPosuWgJFh_4core3cmp3Ord3cmp
FN:597,_RNvXs4_NtNtCsgGnK47HN26N_17sqlrustgo_storage10bplus_tree5indexNtB5_10BTreeIndexNtNtCs8nPosuWgJFh_4core7default7Default7default
FN:762,_RNvXs6_NtNtCsgGnK47HN26N_17sqlrustgo_storage10bplus_tree5indexNtB5_19CompositeBTreeIndexNtNtCs8nPosuWgJFh_4core7default7Default7default
FN:930,_RNvXs7_NtNtCsgGnK47HN26N_17sqlrustgo_storage10bplus_tree5indexNtB5_16FullTextMetadataNtNtCs8nPosuWgJFh_4core7default7Default7default
FN:106,_RNvXs_NtNtCsgGnK47HN26N_17sqlrustgo_storage10bplus_tree5indexNtB4_12CompositeKeyNtNtCs8nPosuWgJFh_4core3cmp10PartialOrd11partial_cmp
FN:1956,_RNvNtNtNtCsgGnK47HN26N_17sqlrustgo_storage10bplus_tree5index21index_selection_testss_25test_best_index_selection
FN:1946,_RNvNtNtNtCsgGnK47HN26N_17sqlrustgo_storage10bplus_tree5index21index_selection_testss_28test_selectivity_calculation
FN:1911,_RNvNtNtNtCsgGnK47HN26N_17sqlrustgo_storage10bplus_tree5index20covering_index_testss_25test_covering_index_check
FN:1930,_RNvNtNtNtCsgGnK47HN26N_17sqlrustgo_storage10bplus_tree5index20covering_index_testss_29test_index_only_scan_decision
FN:1921,_RNvNtNtNtCsgGnK47HN26N_17sqlrustgo_storage10bplus_tree5index20covering_index_testss_29test_non_covering_index_check
FN:1826,_RNvNtNtNtCsgGnK47HN26N_17sqlrustgo_storage10bplus_tree5index21composite_index_testss_27test_composite_key_creation
FN:1850,_RNvNtNtNtCsgGnK47HN26N_17sqlrustgo_storage10bplus_tree5index21composite_index_testss_27test_composite_key_equality
FN:1890,_RNvNtNtNtCsgGnK47HN26N_17sqlrustgo_storage10bplus_tree5index21composite_index_testss_28test_index_stats_selectivity
FN:1840,_RNvNtNtNtCsgGnK47HN26N_17sqlrustgo_storage10bplus_tree5index21composite_index_testss_29test_composite_key_from_slice
FN:1872,_RNvNtNtNtCsgGnK47HN26N_17sqlrustgo_storage10bplus_tree5index21composite_index_testss_38test_composite_btree_insert_and_search
FN:39,_RNvMNtNtCsgGnK47HN26N_17sqlrustgo_storage10bplus_tree5indexNtB2_12CompositeKey10from_slice
FN:35,_RNvMNtNtCsgGnK47HN26N_17sqlrustgo_storage10bplus_tree5indexNtB2_12CompositeKey3new
FN:50,_RNvMNtNtCsgGnK47HN26N_17sqlrustgo_storage10bplus_tree5indexNtB2_12CompositeKey8from_row
FN:243,_RNvMs1_NtNtCsgGnK47HN26N_17sqlrustgo_storage10bplus_tree5indexNtB5_9BTreeNode10remove_key
FN:149,_RNvMs1_NtNtCsgGnK47HN26N_17sqlrustgo_storage10bplus_tree5indexNtB5_9BTreeNode12new_internal
FN:177,_RNvMs1_NtNtCsgGnK47HN26N_17sqlrustgo_storage10bplus_tree5indexNtB5_9BTreeNode14find_key_index
FN:168,_RNvMs1_NtNtCsgGnK47HN26N_17sqlrustgo_storage10bplus_tree5indexNtB5_9BTreeNode16find_child_index
FN:203,_RNvMs1_NtNtCsgGnK47HN26N_17sqlrustgo_storage10bplus_tree5indexNtB5_9BTreeNode16insert_key_value
FN:160,_RNvMs1_NtNtCsgGnK47HN26N_17sqlrustgo_storage10bplus_tree5indexNtB5_9BTreeNode7is_full
FN:138,_RNvMs1_NtNtCsgGnK47HN26N_17sqlrustgo_storage10bplus_tree5indexNtB5_9BTreeNode8new_leaf
FN:164,_RNvMs1_NtNtCsgGnK47HN26N_17sqlrustgo_storage10bplus_tree5indexNtB5_9BTreeNode9can_split
FN:213,_RNvMs1_NtNtCsgGnK47HN26N_17sqlrustgo_storage10bplus_tree5indexNtB5_9BTreeNode9insert_at
FN:290,_RNvMs2_NtNtCsgGnK47HN26N_17sqlrustgo_storage10bplus_tree5indexNtB5_10IndexStats11selectivity
FN:484,_RNvMs3_NtNtCsgGnK47HN26N_17sqlrustgo_storage10bplus_tree5indexNtB5_10BTreeIndex11range_query
FN:411,_RNvMs3_NtNtCsgGnK47HN26N_17sqlrustgo_storage10bplus_tree5indexNtB5_10BTreeIndex11search_node
FN:591,_RNvMs3_NtNtCsgGnK47HN26N_17sqlrustgo_storage10bplus_tree5indexNtB5_10BTreeIndex11usage_stats
FN:374,_RNvMs3_NtNtCsgGnK47HN26N_17sqlrustgo_storage10bplus_tree5indexNtB5_10BTreeIndex13allocate_node
FN:541,_RNvMs3_NtNtCsgGnK47HN26N_17sqlrustgo_storage10bplus_tree5indexNtB5_10BTreeIndex13collect_stats
FN:466,_RNvMs3_NtNtCsgGnK47HN26N_17sqlrustgo_storage10bplus_tree5indexNtB5_10BTreeIndex16delete_from_node
FN:380,_RNvMs3_NtNtCsgGnK47HN26N_17sqlrustgo_storage10bplus_tree5indexNtB5_10BTreeIndex16insert_into_node
FN:494,_RNvMs3_NtNtCsgGnK47HN26N_17sqlrustgo_storage10bplus_tree5indexNtB5_10BTreeIndex16range_query_leaf
FN:531,_RNvMs3_NtNtCsgGnK47HN26N_17sqlrustgo_storage10bplus_tree5indexNtB5_10BTreeIndex17collect_keys_leaf
FN:579,_RNvMs3_NtNtCsgGnK47HN26N_17sqlrustgo_storage10bplus_tree5indexNtB5_10BTreeIndex20estimate_cardinality
FN:509,_RNvMs3_NtNtCsgGnK47HN26N_17sqlrustgo_storage10bplus_tree5indexNtB5_10BTreeIndex3len
FN:306,_RNvMs3_NtNtCsgGnK47HN26N_17sqlrustgo_storage10bplus_tree5indexNtB5_10BTreeIndex3new
FN:521,_RNvMs3_NtNtCsgGnK47HN26N_17sqlrustgo_storage10bplus_tree5indexNtB5_10BTreeIndex4keys
FN:453,_RNvMs3_NtNtCsgGnK47HN26N_17sqlrustgo_storage10bplus_tree5indexNtB5_10BTreeIndex6delete
FN:517,_RNvMs3_NtNtCsgGnK47HN26N_17sqlrustgo_storage10bplus_tree5indexNtB5_10BTreeIndex6height
FN:330,_RNvMs3_NtNtCsgGnK47HN26N_17sqlrustgo_storage10bplus_tree5indexNtB5_10BTreeIndex6insert
FN:394,_RNvMs3_NtNtCsgGnK47HN26N_17sqlrustgo_storage10bplus_tree5indexNtB5_10BTreeIndex6search
FN:513,_RNvMs3_NtNtCsgGnK47HN26N_17sqlrustgo_storage10bplus_tree5indexNtB5_10BTreeIndex8is_empty
FN:756,_RNvMs5_NtNtCsgGnK47HN26N_17sqlrustgo_storage10bplus_tree5indexNtB5_19CompositeBTreeIndex11num_columns
FN:720,_RNvMs5_NtNtCsgGnK47HN26N_17sqlrustgo_storage10bplus_tree5indexNtB5_19CompositeBTreeIndex11range_query
FN:705,_RNvMs5_NtNtCsgGnK47HN26N_17sqlrustgo_storage10bplus_tree5indexNtB5_19CompositeBTreeIndex11search_node
FN:676,_RNvMs5_NtNtCsgGnK47HN26N_17sqlrustgo_storage10bplus_tree5indexNtB5_19CompositeBTreeIndex13allocate_node
FN:682,_RNvMs5_NtNtCsgGnK47HN26N_17sqlrustgo_storage10bplus_tree5indexNtB5_19CompositeBTreeIndex16insert_into_node
FN:733,_RNvMs5_NtNtCsgGnK47HN26N_17sqlrustgo_storage10bplus_tree5indexNtB5_19CompositeBTreeIndex16range_query_leaf
FN:665,_RNvMs5_NtNtCsgGnK47HN26N_17sqlrustgo_storage10bplus_tree5indexNtB5_19CompositeBTreeIndex20encode_composite_key
FN:748,_RNvMs5_NtNtCsgGnK47HN26N_17sqlrustgo_storage10bplus_tree5indexNtB5_19CompositeBTreeIndex3len
FN:612,_RNvMs5_NtNtCsgGnK47HN26N_17sqlrustgo_storage10bplus_tree5indexNtB5_19CompositeBTreeIndex3new
FN:639,_RNvMs5_NtNtCsgGnK47HN26N_17sqlrustgo_storage10bplus_tree5indexNtB5_19CompositeBTreeIndex6insert
FN:696,_RNvMs5_NtNtCsgGnK47HN26N_17sqlrustgo_storage10bplus_tree5indexNtB5_19CompositeBTreeIndex6search
FN:941,_RNvMs8_NtNtCsgGnK47HN26N_17sqlrustgo_storage10bplus_tree5indexNtB5_16FullTextMetadata3new
FN:972,_RNvMs9_NtNtCsgGnK47HN26N_17sqlrustgo_storage10bplus_tree5indexNtB5_11PostingList10add_doc_id
FN:959,_RNvMs9_NtNtCsgGnK47HN26N_17sqlrustgo_storage10bplus_tree5indexNtB5_11PostingList3new
FN:981,_RNvMs9_NtNtCsgGnK47HN26N_17sqlrustgo_storage10bplus_tree5indexNtB5_11PostingList8contains
FN:1054,_RNvMsb_NtNtCsgGnK47HN26N_17sqlrustgo_storage10bplus_tree5indexNtB5_13FullTextIndex10is_deleted
FN:1133,_RNvMsb_NtNtCsgGnK47HN26N_17sqlrustgo_storage10bplus_tree5indexNtB5_13FullTextIndex13num_documents
FN:1059,_RNvMsb_NtNtCsgGnK47HN26N_17sqlrustgo_storage10bplus_tree5indexNtB5_13FullTextIndex14filter_deleted
FN:1120,_RNvMsb_NtNtCsgGnK47HN26N_17sqlrustgo_storage10bplus_tree5indexNtB5_13FullTextIndex14term_frequency
FN:1005,_RNvMsb_NtNtCsgGnK47HN26N_17sqlrustgo_storage10bplus_tree5indexNtB5_13FullTextIndex3new
FN:1128,_RNvMsb_NtNtCsgGnK47HN26N_17sqlrustgo_storage10bplus_tree5indexNtB5_13FullTextIndex5terms
FN:1048,_RNvMsb_NtNtCsgGnK47HN26N_17sqlrustgo_storage10bplus_tree5indexNtB5_13FullTextIndex6delete
FN:1029,_RNvMsb_NtNtCsgGnK47HN26N_17sqlrustgo_storage10bplus_tree5indexNtB5_13FullTextIndex6insert
FN:1089,_RNvMsb_NtNtCsgGnK47HN26N_17sqlrustgo_storage10bplus_tree5indexNtB5_13FullTextIndex6search
FN:1143,_RNvMsb_NtNtCsgGnK47HN26N_17sqlrustgo_storage10bplus_tree5indexNtB5_13FullTextIndex8is_empty
FN:1020,_RNvMsb_NtNtCsgGnK47HN26N_17sqlrustgo_storage10bplus_tree5indexNtB5_13FullTextIndex8tokenize
FN:1068,_RNvMsb_NtNtCsgGnK47HN26N_17sqlrustgo_storage10bplus_tree5indexNtB5_13FullTextIndex9intersect
FN:1138,_RNvMsb_NtNtCsgGnK47HN26N_17sqlrustgo_storage10bplus_tree5indexNtB5_13FullTextIndex9num_terms
FN:767,_RNvNtNtCsgGnK47HN26N_17sqlrustgo_storage10bplus_tree5index14serialize_node
FN:819,_RNvNtNtCsgGnK47HN26N_17sqlrustgo_storage10bplus_tree5index16deserialize_node
FN:987,_RNvXsa_NtNtCsgGnK47HN26N_17sqlrustgo_storage10bplus_tree5indexNtB5_11PostingListNtNtCs8nPosuWgJFh_4core7default7Default7default
FN:1631,_RNvNtNtNtCsgGnK47HN26N_17sqlrustgo_storage10bplus_tree5index5testss_14test_fts_terms
FN:1551,_RNvNtNtNtCsgGnK47HN26N_17sqlrustgo_storage10bplus_tree5index5testss_15test_fts_insert
FN:1522,_RNvNtNtNtCsgGnK47HN26N_17sqlrustgo_storage10bplus_tree5index5testss_17test_fts_tokenize
FN:1411,_RNvNtNtNtCsgGnK47HN26N_17sqlrustgo_storage10bplus_tree5index5testss_17test_node_is_full
FN:1514,_RNvNtNtNtCsgGnK47HN26N_17sqlrustgo_storage10bplus_tree5index5testss_18test_fts_index_new
FN:1654,_RNvNtNtNtCsgGnK47HN26N_17sqlrustgo_storage10bplus_tree5index5testss_18test_fts_intersect
FN:1574,_RNvNtNtNtCsgGnK47HN26N_17sqlrustgo_storage10bplus_tree5index5testss_19test_fts_search_and
FN:1418,_RNvNtNtNtCsgGnK47HN26N_17sqlrustgo_storage10bplus_tree5index5testss_19test_node_can_split
FN:1333,_RNvNtNtNtCsgGnK47HN26N_17sqlrustgo_storage10bplus_tree5index5testss_20test_btree_index_len
FN:1153,_RNvNtNtNtCsgGnK47HN26N_17sqlrustgo_storage10bplus_tree5index5testss_20test_btree_index_new
FN:1604,_RNvNtNtNtCsgGnK47HN26N_17sqlrustgo_storage10bplus_tree5index5testss_20test_fts_delete_lazy
FN:1237,_RNvNtNtNtCsgGnK47HN26N_17sqlrustgo_storage10bplus_tree5index5testss_21test_btree_index_keys
FN:1672,_RNvNtNtNtCsgGnK47HN26N_17sqlrustgo_storage10bplus_tree5index5testss_22test_fts_complex_query
FN:1176,_RNvNtNtNtCsgGnK47HN26N_17sqlrustgo_storage10bplus_tree5index5testss_23test_btree_index_delete
FN:1319,_RNvNtNtNtCsgGnK47HN26N_17sqlrustgo_storage10bplus_tree5index5testss_23test_btree_index_height
FN:1160,_RNvNtNtNtCsgGnK47HN26N_17sqlrustgo_storage10bplus_tree5index5testss_23test_btree_index_insert
FN:1808,_RNvNtNtNtCsgGnK47HN26N_17sqlrustgo_storage10bplus_tree5index5testss_23test_fts_index_contains
FN:1802,_RNvNtNtNtCsgGnK47HN26N_17sqlrustgo_storage10bplus_tree5index5testss_23test_fts_index_is_empty
FN:1618,_RNvNtNtNtCsgGnK47HN26N_17sqlrustgo_storage10bplus_tree5index5testss_23test_fts_term_frequency
FN:1248,_RNvNtNtNtCsgGnK47HN26N_17sqlrustgo_storage10bplus_tree5index5testss_23test_node_serialization
FN:1586,_RNvNtNtNtCsgGnK47HN26N_17sqlrustgo_storage10bplus_tree5index5testss_24test_fts_search_no_match
FN:1441,_RNvNtNtNtCsgGnK47HN26N_17sqlrustgo_storage10bplus_tree5index5testss_24test_index_stats_default
FN:1384,_RNvNtNtNtCsgGnK47HN26N_17sqlrustgo_storage10bplus_tree5index5testss_24test_node_find_key_index
FN:1313,_RNvNtNtNtCsgGnK47HN26N_17sqlrustgo_storage10bplus_tree5index5testss_25test_btree_index_is_empty
FN:1528,_RNvNtNtNtCsgGnK47HN26N_17sqlrustgo_storage10bplus_tree5index5testss_25test_fts_tokenize_chinese
FN:1286,_RNvNtNtNtCsgGnK47HN26N_17sqlrustgo_storage10bplus_tree5index5testss_26test_btree_node_remove_key
FN:1397,_RNvNtNtNtCsgGnK47HN26N_17sqlrustgo_storage10bplus_tree5index5testss_26test_node_find_child_index
FN:1791,_RNvNtNtNtCsgGnK47HN26N_17sqlrustgo_storage10bplus_tree5index5testss_26test_posting_list_contains
FN:1737,_RNvNtNtNtCsgGnK47HN26N_17sqlrustgo_storage10bplus_tree5index5testss_27test_btree_metadata_default
FN:1356,_RNvNtNtNtCsgGnK47HN26N_17sqlrustgo_storage10bplus_tree5index5testss_27test_btree_search_not_found
FN:1692,_RNvNtNtNtCsgGnK47HN26N_17sqlrustgo_storage10bplus_tree5index5testss_27test_composite_key_creation
FN:1561,_RNvNtNtNtCsgGnK47HN26N_17sqlrustgo_storage10bplus_tree5index5testss_27test_fts_search_single_term
FN:1345,_RNvNtNtNtCsgGnK47HN26N_17sqlrustgo_storage10bplus_tree5index5testss_28test_btree_index_keys_sorted
FN:1184,_RNvNtNtNtCsgGnK47HN26N_17sqlrustgo_storage10bplus_tree5index5testss_28test_btree_index_range_query
FN:1496,_RNvNtNtNtCsgGnK47HN26N_17sqlrustgo_storage10bplus_tree5index5testss_28test_btree_index_usage_stats
FN:1366,_RNvNtNtNtCsgGnK47HN26N_17sqlrustgo_storage10bplus_tree5index5testss_28test_btree_range_query_empty
FN:1643,_RNvNtNtNtCsgGnK47HN26N_17sqlrustgo_storage10bplus_tree5index5testss_28test_fts_posting_list_sorted
FN:1455,_RNvNtNtNtCsgGnK47HN26N_17sqlrustgo_storage10bplus_tree5index5testss_28test_index_stats_selectivity
FN:1170,_RNvNtNtNtCsgGnK47HN26N_17sqlrustgo_storage10bplus_tree5index5testss_29test_btree_index_search_empty
FN:1702,_RNvNtNtNtCsgGnK47HN26N_17sqlrustgo_storage10bplus_tree5index5testss_29test_composite_key_from_slice
FN:1433,_RNvNtNtNtCsgGnK47HN26N_17sqlrustgo_storage10bplus_tree5index5testss_29test_deserialize_invalid_data
FN:1663,_RNvNtNtNtCsgGnK47HN26N_17sqlrustgo_storage10bplus_tree5index5testss_29test_fts_intersect_no_overlap
FN:1538,_RNvNtNtNtCsgGnK47HN26N_17sqlrustgo_storage10bplus_tree5index5testss_29test_fts_tokenize_punctuation
FN:1544,_RNvNtNtNtCsgGnK47HN26N_17sqlrustgo_storage10bplus_tree5index5testss_29test_fts_tokenize_short_words
FN:1480,_RNvNtNtNtCsgGnK47HN26N_17sqlrustgo_storage10bplus_tree5index5testss_30test_btree_index_collect_stats
FN:1373,_RNvNtNtNtCsgGnK47HN26N_17sqlrustgo_storage10bplus_tree5index5testss_30test_btree_range_query_partial
FN:1217,_RNvNtNtNtCsgGnK47HN26N_17sqlrustgo_storage10bplus_tree5index5testss_32test_btree_index_delete_multiple
FN:1195,_RNvNtNtNtCsgGnK47HN26N_17sqlrustgo_storage10bplus_tree5index5testss_32test_btree_index_insert_multiple
FN:1709,_RNvNtNtNtCsgGnK47HN26N_17sqlrustgo_storage10bplus_tree5index5testss_32test_btree_node_insert_key_value
FN:1595,_RNvNtNtNtCsgGnK47HN26N_17sqlrustgo_storage10bplus_tree5index5testss_32test_fts_search_case_insensitive
FN:1266,_RNvNtNtNtCsgGnK47HN26N_17sqlrustgo_storage10bplus_tree5index5testss_32test_internal_node_serialization
FN:1507,_RNvNtNtNtCsgGnK47HN26N_17sqlrustgo_storage10bplus_tree5index5testss_33test_composite_btree_index_insert
FN:1758,_RNvNtNtNtCsgGnK47HN26N_17sqlrustgo_storage10bplus_tree5index5testss_33test_composite_btree_index_search
FN:1449,_RNvNtNtNtCsgGnK47HN26N_17sqlrustgo_storage10bplus_tree5index5testss_34test_index_stats_selectivity_empty
FN:1471,_RNvNtNtNtCsgGnK47HN26N_17sqlrustgo_storage10bplus_tree5index5testss_36test_btree_index_collect_stats_empty
FN:1204,_RNvNtNtNtCsgGnK47HN26N_17sqlrustgo_storage10bplus_tree5index5testss_36test_btree_index_search_after_insert
FN:1301,_RNvNtNtNtCsgGnK47HN26N_17sqlrustgo_storage10bplus_tree5index5testss_36test_btree_node_remove_key_not_found
FN:1463,_RNvNtNtNtCsgGnK47HN26N_17sqlrustgo_storage10bplus_tree5index5testss_36test_index_stats_selectivity_clamped
FN:1425,_RNvNtNtNtCsgGnK47HN26N_17sqlrustgo_storage10bplus_tree5index5testss_37test_serialize_deserialize_empty_node
FN:1721,_RNvNtNtNtCsgGnK47HN26N_17sqlrustgo_storage10bplus_tree5index5testss_38test_btree_node_insert_key_value_split
FN:1785,_RNvNtNtNtCsgGnK47HN26N_17sqlrustgo_storage10bplus_tree5index5testss_38test_composite_btree_index_num_columns
FN:1771,_RNvNtNtNtCsgGnK47HN26N_17sqlrustgo_storage10bplus_tree5index5testss_38test_composite_btree_index_range_query
FN:1743,_RNvNtNtNtCsgGnK47HN26N_17sqlrustgo_storage10bplus_tree5index5testss_40test_composite_btree_index_insert_unique
FN:54,_RNCNvMNtNtCsgGnK47HN26N_17sqlrustgo_storage10bplus_tree5indexNtB4_12CompositeKey8from_row0B8_
FN:1063,_RNCNvMsb_NtNtCsgGnK47HN26N_17sqlrustgo_storage10bplus_tree5indexNtB7_13FullTextIndex14filter_deleted0Bb_
FN:1123,_RNCNvMsb_NtNtCsgGnK47HN26N_17sqlrustgo_storage10bplus_tree5indexNtB7_13FullTextIndex14term_frequency0Bb_
FN:1099,_RNCNvMsb_NtNtCsgGnK47HN26N_17sqlrustgo_storage10bplus_tree5indexNtB7_13FullTextIndex6search0Bb_
FN:1022,_RNCNvMsb_NtNtCsgGnK47HN26N_17sqlrustgo_storage10bplus_tree5indexNtB7_13FullTextIndex8tokenize0Bb_
FN:1024,_RNCNvMsb_NtNtCsgGnK47HN26N_17sqlrustgo_storage10bplus_tree5indexNtB7_13FullTextIndex8tokenizes0_0Bb_
FN:1023,_RNCNvMsb_NtNtCsgGnK47HN26N_17sqlrustgo_storage10bplus_tree5indexNtB7_13FullTextIndex8tokenizes_0Bb_
FN:1961,_RNCNvNtNtNtCsgGnK47HN26N_17sqlrustgo_storage10bplus_tree5index21index_selection_testss_25test_best_index_selection0B9_
FN:39,_RNvMNtNtCs2l7roSUS7lg_17sqlrustgo_storage10bplus_tree5indexNtB2_12CompositeKey10from_slice
FN:35,_RNvMNtNtCs2l7roSUS7lg_17sqlrustgo_storage10bplus_tree5indexNtB2_12CompositeKey3new
FN:50,_RNvMNtNtCs2l7roSUS7lg_17sqlrustgo_storage10bplus_tree5indexNtB2_12CompositeKey8from_row
FN:45,_RNvMNtNtCs2l7roSUS7lg_17sqlrustgo_storage10bplus_tree5indexNtB2_12CompositeKey8is_empty
FN:243,_RNvMs1_NtNtCs2l7roSUS7lg_17sqlrustgo_storage10bplus_tree5indexNtB5_9BTreeNode10remove_key
FN:149,_RNvMs1_NtNtCs2l7roSUS7lg_17sqlrustgo_storage10bplus_tree5indexNtB5_9BTreeNode12new_internal
FN:177,_RNvMs1_NtNtCs2l7roSUS7lg_17sqlrustgo_storage10bplus_tree5indexNtB5_9BTreeNode14find_key_index
FN:183,_RNvMs1_NtNtCs2l7roSUS7lg_17sqlrustgo_storage10bplus_tree5indexNtB5_9BTreeNode15find_all_values
FN:168,_RNvMs1_NtNtCs2l7roSUS7lg_17sqlrustgo_storage10bplus_tree5indexNtB5_9BTreeNode16find_child_index
FN:203,_RNvMs1_NtNtCs2l7roSUS7lg_17sqlrustgo_storage10bplus_tree5indexNtB5_9BTreeNode16insert_key_value
FN:160,_RNvMs1_NtNtCs2l7roSUS7lg_17sqlrustgo_storage10bplus_tree5indexNtB5_9BTreeNode7is_full
FN:138,_RNvMs1_NtNtCs2l7roSUS7lg_17sqlrustgo_storage10bplus_tree5indexNtB5_9BTreeNode8new_leaf
FN:164,_RNvMs1_NtNtCs2l7roSUS7lg_17sqlrustgo_storage10bplus_tree5indexNtB5_9BTreeNode9can_split
FN:213,_RNvMs1_NtNtCs2l7roSUS7lg_17sqlrustgo_storage10bplus_tree5indexNtB5_9BTreeNode9insert_at
FN:290,_RNvMs2_NtNtCs2l7roSUS7lg_17sqlrustgo_storage10bplus_tree5indexNtB5_10IndexStats11selectivity
FN:285,_RNvMs2_NtNtCs2l7roSUS7lg_17sqlrustgo_storage10bplus_tree5indexNtB5_10IndexStats3new
FN:326,_RNvMs3_NtNtCs2l7roSUS7lg_17sqlrustgo_storage10bplus_tree5indexNtB5_10BTreeIndex10mark_dirty
FN:403,_RNvMs3_NtNtCs2l7roSUS7lg_17sqlrustgo_storage10bplus_tree5indexNtB5_10BTreeIndex10search_all
FN:369,_RNvMs3_NtNtCs2l7roSUS7lg_17sqlrustgo_storage10bplus_tree5indexNtB5_10BTreeIndex10set_unique
FN:484,_RNvMs3_NtNtCs2l7roSUS7lg_17sqlrustgo_storage10bplus_tree5indexNtB5_10BTreeIndex11range_query
FN:411,_RNvMs3_NtNtCs2l7roSUS7lg_17sqlrustgo_storage10bplus_tree5indexNtB5_10BTreeIndex11search_node
FN:591,_RNvMs3_NtNtCs2l7roSUS7lg_17sqlrustgo_storage10bplus_tree5indexNtB5_10BTreeIndex11usage_stats
FN:374,_RNvMs3_NtNtCs2l7roSUS7lg_17sqlrustgo_storage10bplus_tree5indexNtB5_10BTreeIndex13allocate_node
FN:541,_RNvMs3_NtNtCs2l7roSUS7lg_17sqlrustgo_storage10bplus_tree5indexNtB5_10BTreeIndex13collect_stats
FN:314,_RNvMs3_NtNtCs2l7roSUS7lg_17sqlrustgo_storage10bplus_tree5indexNtB5_10BTreeIndex13from_metadata
FN:354,_RNvMs3_NtNtCs2l7roSUS7lg_17sqlrustgo_storage10bplus_tree5indexNtB5_10BTreeIndex13insert_unique
FN:434,_RNvMs3_NtNtCs2l7roSUS7lg_17sqlrustgo_storage10bplus_tree5indexNtB5_10BTreeIndex15search_node_all
FN:466,_RNvMs3_NtNtCs2l7roSUS7lg_17sqlrustgo_storage10bplus_tree5indexNtB5_10BTreeIndex16delete_from_node
FN:380,_RNvMs3_NtNtCs2l7roSUS7lg_17sqlrustgo_storage10bplus_tree5indexNtB5_10BTreeIndex16insert_into_node
FN:494,_RNvMs3_NtNtCs2l7roSUS7lg_17sqlrustgo_storage10bplus_tree5indexNtB5_10BTreeIndex16range_query_leaf
FN:531,_RNvMs3_NtNtCs2l7roSUS7lg_17sqlrustgo_storage10bplus_tree5indexNtB5_10BTreeIndex17collect_keys_leaf
FN:579,_RNvMs3_NtNtCs2l7roSUS7lg_17sqlrustgo_storage10bplus_tree5indexNtB5_10BTreeIndex20estimate_cardinality
FN:509,_RNvMs3_NtNtCs2l7roSUS7lg_17sqlrustgo_storage10bplus_tree5indexNtB5_10BTreeIndex3len
FN:306,_RNvMs3_NtNtCs2l7roSUS7lg_17sqlrustgo_storage10bplus_tree5indexNtB5_10BTreeIndex3new
FN:521,_RNvMs3_NtNtCs2l7roSUS7lg_17sqlrustgo_storage10bplus_tree5indexNtB5_10BTreeIndex4keys
FN:453,_RNvMs3_NtNtCs2l7roSUS7lg_17sqlrustgo_storage10bplus_tree5indexNtB5_10BTreeIndex6delete
FN:517,_RNvMs3_NtNtCs2l7roSUS7lg_17sqlrustgo_storage10bplus_tree5indexNtB5_10BTreeIndex6height
FN:330,_RNvMs3_NtNtCs2l7roSUS7lg_17sqlrustgo_storage10bplus_tree5indexNtB5_10BTreeIndex6insert
FN:394,_RNvMs3_NtNtCs2l7roSUS7lg_17sqlrustgo_storage10bplus_tree5indexNtB5_10BTreeIndex6search
FN:322,_RNvMs3_NtNtCs2l7roSUS7lg_17sqlrustgo_storage10bplus_tree5indexNtB5_10BTreeIndex8is_dirty
FN:513,_RNvMs3_NtNtCs2l7roSUS7lg_17sqlrustgo_storage10bplus_tree5indexNtB5_10BTreeIndex8is_empty
FN:364,_RNvMs3_NtNtCs2l7roSUS7lg_17sqlrustgo_storage10bplus_tree5indexNtB5_10BTreeIndex9is_unique
FN:634,_RNvMs5_NtNtCs2l7roSUS7lg_17sqlrustgo_storage10bplus_tree5indexNtB5_19CompositeBTreeIndex10mark_dirty
FN:756,_RNvMs5_NtNtCs2l7roSUS7lg_17sqlrustgo_storage10bplus_tree5indexNtB5_19CompositeBTreeIndex11num_columns
FN:720,_RNvMs5_NtNtCs2l7roSUS7lg_17sqlrustgo_storage10bplus_tree5indexNtB5_19CompositeBTreeIndex11range_query
FN:705,_RNvMs5_NtNtCs2l7roSUS7lg_17sqlrustgo_storage10bplus_tree5indexNtB5_19CompositeBTreeIndex11search_node
FN:676,_RNvMs5_NtNtCs2l7roSUS7lg_17sqlrustgo_storage10bplus_tree5indexNtB5_19CompositeBTreeIndex13allocate_node
FN:621,_RNvMs5_NtNtCs2l7roSUS7lg_17sqlrustgo_storage10bplus_tree5indexNtB5_19CompositeBTreeIndex13from_metadata
FN:682,_RNvMs5_NtNtCs2l7roSUS7lg_17sqlrustgo_storage10bplus_tree5indexNtB5_19CompositeBTreeIndex16insert_into_node
FN:733,_RNvMs5_NtNtCs2l7roSUS7lg_17sqlrustgo_storage10bplus_tree5indexNtB5_19CompositeBTreeIndex16range_query_leaf
FN:665,_RNvMs5_NtNtCs2l7roSUS7lg_17sqlrustgo_storage10bplus_tree5indexNtB5_19CompositeBTreeIndex20encode_composite_key
FN:748,_RNvMs5_NtNtCs2l7roSUS7lg_17sqlrustgo_storage10bplus_tree5indexNtB5_19CompositeBTreeIndex3len
FN:612,_RNvMs5_NtNtCs2l7roSUS7lg_17sqlrustgo_storage10bplus_tree5indexNtB5_19CompositeBTreeIndex3new
FN:639,_RNvMs5_NtNtCs2l7roSUS7lg_17sqlrustgo_storage10bplus_tree5indexNtB5_19CompositeBTreeIndex6insert
FN:696,_RNvMs5_NtNtCs2l7roSUS7lg_17sqlrustgo_storage10bplus_tree5indexNtB5_19CompositeBTreeIndex6search
FN:630,_RNvMs5_NtNtCs2l7roSUS7lg_17sqlrustgo_storage10bplus_tree5indexNtB5_19CompositeBTreeIndex8is_dirty
FN:752,_RNvMs5_NtNtCs2l7roSUS7lg_17sqlrustgo_storage10bplus_tree5indexNtB5_19CompositeBTreeIndex8is_empty
FN:941,_RNvMs8_NtNtCs2l7roSUS7lg_17sqlrustgo_storage10bplus_tree5indexNtB5_16FullTextMetadata3new
FN:972,_RNvMs9_NtNtCs2l7roSUS7lg_17sqlrustgo_storage10bplus_tree5indexNtB5_11PostingList10add_doc_id
FN:965,_RNvMs9_NtNtCs2l7roSUS7lg_17sqlrustgo_storage10bplus_tree5indexNtB5_11PostingList13with_capacity
FN:959,_RNvMs9_NtNtCs2l7roSUS7lg_17sqlrustgo_storage10bplus_tree5indexNtB5_11PostingList3new
FN:981,_RNvMs9_NtNtCs2l7roSUS7lg_17sqlrustgo_storage10bplus_tree5indexNtB5_11PostingList8contains
FN:1054,_RNvMsb_NtNtCs2l7roSUS7lg_17sqlrustgo_storage10bplus_tree5indexNtB5_13FullTextIndex10is_deleted
FN:1133,_RNvMsb_NtNtCs2l7roSUS7lg_17sqlrustgo_storage10bplus_tree5indexNtB5_13FullTextIndex13num_documents
FN:1059,_RNvMsb_NtNtCs2l7roSUS7lg_17sqlrustgo_storage10bplus_tree5indexNtB5_13FullTextIndex14filter_deleted
FN:1120,_RNvMsb_NtNtCs2l7roSUS7lg_17sqlrustgo_storage10bplus_tree5indexNtB5_13FullTextIndex14term_frequency
FN:1005,_RNvMsb_NtNtCs2l7roSUS7lg_17sqlrustgo_storage10bplus_tree5indexNtB5_13FullTextIndex3new
FN:1128,_RNvMsb_NtNtCs2l7roSUS7lg_17sqlrustgo_storage10bplus_tree5indexNtB5_13FullTextIndex5terms
FN:1048,_RNvMsb_NtNtCs2l7roSUS7lg_17sqlrustgo_storage10bplus_tree5indexNtB5_13FullTextIndex6delete
FN:1029,_RNvMsb_NtNtCs2l7roSUS7lg_17sqlrustgo_storage10bplus_tree5indexNtB5_13FullTextIndex6insert
FN:1089,_RNvMsb_NtNtCs2l7roSUS7lg_17sqlrustgo_storage10bplus_tree5indexNtB5_13FullTextIndex6search
FN:1015,_RNvMsb_NtNtCs2l7roSUS7lg_17sqlrustgo_storage10bplus_tree5indexNtB5_13FullTextIndex8is_dirty
FN:1143,_RNvMsb_NtNtCs2l7roSUS7lg_17sqlrustgo_storage10bplus_tree5indexNtB5_13FullTextIndex8is_empty
FN:1020,_RNvMsb_NtNtCs2l7roSUS7lg_17sqlrustgo_storage10bplus_tree5indexNtB5_13FullTextIndex8tokenize
FN:1068,_RNvMsb_NtNtCs2l7roSUS7lg_17sqlrustgo_storage10bplus_tree5indexNtB5_13FullTextIndex9intersect
FN:1138,_RNvMsb_NtNtCs2l7roSUS7lg_17sqlrustgo_storage10bplus_tree5indexNtB5_13FullTextIndex9num_terms
FN:63,_RNvNtNtCs2l7roSUS7lg_17sqlrustgo_storage10bplus_tree5index14compare_values
FN:767,_RNvNtNtCs2l7roSUS7lg_17sqlrustgo_storage10bplus_tree5index14serialize_node
FN:819,_RNvNtNtCs2l7roSUS7lg_17sqlrustgo_storage10bplus_tree5index16deserialize_node
FN:67,_RNvNvNtNtCs2l7roSUS7lg_17sqlrustgo_storage10bplus_tree5index14compare_values10type_order
FN:112,_RNvXs0_NtNtCs2l7roSUS7lg_17sqlrustgo_storage10bplus_tree5indexNtB5_12CompositeKeyNtNtCs8nPosuWgJFh_4core3cmp3Ord3cmp
FN:597,_RNvXs4_NtNtCs2l7roSUS7lg_17sqlrustgo_storage10bplus_tree5indexNtB5_10BTreeIndexNtNtCs8nPosuWgJFh_4core7default7Default7default
FN:762,_RNvXs6_NtNtCs2l7roSUS7lg_17sqlrustgo_storage10bplus_tree5indexNtB5_19CompositeBTreeIndexNtNtCs8nPosuWgJFh_4core7default7Default7default
FN:930,_RNvXs7_NtNtCs2l7roSUS7lg_17sqlrustgo_storage10bplus_tree5indexNtB5_16FullTextMetadataNtNtCs8nPosuWgJFh_4core7default7Default7default
FN:106,_RNvXs_NtNtCs2l7roSUS7lg_17sqlrustgo_storage10bplus_tree5indexNtB4_12CompositeKeyNtNtCs8nPosuWgJFh_4core3cmp10PartialOrd11partial_cmp
FN:987,_RNvXsa_NtNtCs2l7roSUS7lg_17sqlrustgo_storage10bplus_tree5indexNtB5_11PostingListNtNtCs8nPosuWgJFh_4core7default7Default7default
FN:54,_RNCNvMNtNtCs2l7roSUS7lg_17sqlrustgo_storage10bplus_tree5indexNtB4_12CompositeKey8from_row0B8_
FN:1063,_RNCNvMsb_NtNtCs2l7roSUS7lg_17sqlrustgo_storage10bplus_tree5indexNtB7_13FullTextIndex14filter_deleted0Bb_
FN:1123,_RNCNvMsb_NtNtCs2l7roSUS7lg_17sqlrustgo_storage10bplus_tree5indexNtB7_13FullTextIndex14term_frequency0Bb_
FN:1099,_RNCNvMsb_NtNtCs2l7roSUS7lg_17sqlrustgo_storage10bplus_tree5indexNtB7_13FullTextIndex6search0Bb_
FN:1022,_RNCNvMsb_NtNtCs2l7roSUS7lg_17sqlrustgo_storage10bplus_tree5indexNtB7_13FullTextIndex8tokenize0Bb_
FN:1024,_RNCNvMsb_NtNtCs2l7roSUS7lg_17sqlrustgo_storage10bplus_tree5indexNtB7_13FullTextIndex8tokenizes0_0Bb_
FN:1023,_RNCNvMsb_NtNtCs2l7roSUS7lg_17sqlrustgo_storage10bplus_tree5indexNtB7_13FullTextIndex8tokenizes_0Bb_
FNDA:0,_RNCNvMNtNtCs38XCG6692bz_17sqlrustgo_storage10bplus_tree5indexNtB4_12CompositeKey8from_row0B8_
FNDA:0,_RNCNvMsb_NtNtCs38XCG6692bz_17sqlrustgo_storage10bplus_tree5indexNtB7_13FullTextIndex14filter_deleted0Bb_
FNDA:0,_RNCNvMsb_NtNtCs38XCG6692bz_17sqlrustgo_storage10bplus_tree5indexNtB7_13FullTextIndex14term_frequency0Bb_
FNDA:0,_RNCNvMsb_NtNtCs38XCG6692bz_17sqlrustgo_storage10bplus_tree5indexNtB7_13FullTextIndex6search0Bb_
FNDA:0,_RNCNvMsb_NtNtCs38XCG6692bz_17sqlrustgo_storage10bplus_tree5indexNtB7_13FullTextIndex8tokenize0Bb_
FNDA:0,_RNCNvMsb_NtNtCs38XCG6692bz_17sqlrustgo_storage10bplus_tree5indexNtB7_13FullTextIndex8tokenizes0_0Bb_
FNDA:0,_RNCNvMsb_NtNtCs38XCG6692bz_17sqlrustgo_storage10bplus_tree5indexNtB7_13FullTextIndex8tokenizes_0Bb_
FNDA:0,_RNvMNtNtCs38XCG6692bz_17sqlrustgo_storage10bplus_tree5indexNtB2_12CompositeKey10from_slice
FNDA:0,_RNvMNtNtCs38XCG6692bz_17sqlrustgo_storage10bplus_tree5indexNtB2_12CompositeKey3new
FNDA:0,_RNvMNtNtCs38XCG6692bz_17sqlrustgo_storage10bplus_tree5indexNtB2_12CompositeKey8from_row
FNDA:0,_RNvMNtNtCs38XCG6692bz_17sqlrustgo_storage10bplus_tree5indexNtB2_12CompositeKey8is_empty
FNDA:0,_RNvMs1_NtNtCs38XCG6692bz_17sqlrustgo_storage10bplus_tree5indexNtB5_9BTreeNode10remove_key
FNDA:0,_RNvMs1_NtNtCs38XCG6692bz_17sqlrustgo_storage10bplus_tree5indexNtB5_9BTreeNode12new_internal
FNDA:0,_RNvMs1_NtNtCs38XCG6692bz_17sqlrustgo_storage10bplus_tree5indexNtB5_9BTreeNode14find_key_index
FNDA:0,_RNvMs1_NtNtCs38XCG6692bz_17sqlrustgo_storage10bplus_tree5indexNtB5_9BTreeNode15find_all_values
FNDA:0,_RNvMs1_NtNtCs38XCG6692bz_17sqlrustgo_storage10bplus_tree5indexNtB5_9BTreeNode16find_child_index
FNDA:0,_RNvMs1_NtNtCs38XCG6692bz_17sqlrustgo_storage10bplus_tree5indexNtB5_9BTreeNode16insert_key_value
FNDA:0,_RNvMs1_NtNtCs38XCG6692bz_17sqlrustgo_storage10bplus_tree5indexNtB5_9BTreeNode7is_full
FNDA:0,_RNvMs1_NtNtCs38XCG6692bz_17sqlrustgo_storage10bplus_tree5indexNtB5_9BTreeNode8new_leaf
FNDA:0,_RNvMs1_NtNtCs38XCG6692bz_17sqlrustgo_storage10bplus_tree5indexNtB5_9BTreeNode9can_split
FNDA:0,_RNvMs1_NtNtCs38XCG6692bz_17sqlrustgo_storage10bplus_tree5indexNtB5_9BTreeNode9insert_at
FNDA:0,_RNvMs2_NtNtCs38XCG6692bz_17sqlrustgo_storage10bplus_tree5indexNtB5_10IndexStats11selectivity
FNDA:0,_RNvMs2_NtNtCs38XCG6692bz_17sqlrustgo_storage10bplus_tree5indexNtB5_10IndexStats3new
FNDA:0,_RNvMs3_NtNtCs38XCG6692bz_17sqlrustgo_storage10bplus_tree5indexNtB5_10BTreeIndex10mark_dirty
FNDA:0,_RNvMs3_NtNtCs38XCG6692bz_17sqlrustgo_storage10bplus_tree5indexNtB5_10BTreeIndex10search_all
FNDA:0,_RNvMs3_NtNtCs38XCG6692bz_17sqlrustgo_storage10bplus_tree5indexNtB5_10BTreeIndex10set_unique
FNDA:0,_RNvMs3_NtNtCs38XCG6692bz_17sqlrustgo_storage10bplus_tree5indexNtB5_10BTreeIndex11range_query
FNDA:0,_RNvMs3_NtNtCs38XCG6692bz_17sqlrustgo_storage10bplus_tree5indexNtB5_10BTreeIndex11search_node
FNDA:0,_RNvMs3_NtNtCs38XCG6692bz_17sqlrustgo_storage10bplus_tree5indexNtB5_10BTreeIndex11usage_stats
FNDA:0,_RNvMs3_NtNtCs38XCG6692bz_17sqlrustgo_storage10bplus_tree5indexNtB5_10BTreeIndex13allocate_node
FNDA:0,_RNvMs3_NtNtCs38XCG6692bz_17sqlrustgo_storage10bplus_tree5indexNtB5_10BTreeIndex13collect_stats
FNDA:0,_RNvMs3_NtNtCs38XCG6692bz_17sqlrustgo_storage10bplus_tree5indexNtB5_10BTreeIndex13from_metadata
FNDA:0,_RNvMs3_NtNtCs38XCG6692bz_17sqlrustgo_storage10bplus_tree5indexNtB5_10BTreeIndex13insert_unique
FNDA:0,_RNvMs3_NtNtCs38XCG6692bz_17sqlrustgo_storage10bplus_tree5indexNtB5_10BTreeIndex15search_node_all
FNDA:0,_RNvMs3_NtNtCs38XCG6692bz_17sqlrustgo_storage10bplus_tree5indexNtB5_10BTreeIndex16delete_from_node
FNDA:0,_RNvMs3_NtNtCs38XCG6692bz_17sqlrustgo_storage10bplus_tree5indexNtB5_10BTreeIndex16insert_into_node
FNDA:0,_RNvMs3_NtNtCs38XCG6692bz_17sqlrustgo_storage10bplus_tree5indexNtB5_10BTreeIndex16range_query_leaf
FNDA:0,_RNvMs3_NtNtCs38XCG6692bz_17sqlrustgo_storage10bplus_tree5indexNtB5_10BTreeIndex17collect_keys_leaf
FNDA:0,_RNvMs3_NtNtCs38XCG6692bz_17sqlrustgo_storage10bplus_tree5indexNtB5_10BTreeIndex20estimate_cardinality
FNDA:0,_RNvMs3_NtNtCs38XCG6692bz_17sqlrustgo_storage10bplus_tree5indexNtB5_10BTreeIndex3len
FNDA:0,_RNvMs3_NtNtCs38XCG6692bz_17sqlrustgo_storage10bplus_tree5indexNtB5_10BTreeIndex3new
FNDA:0,_RNvMs3_NtNtCs38XCG6692bz_17sqlrustgo_storage10bplus_tree5indexNtB5_10BTreeIndex4keys
FNDA:0,_RNvMs3_NtNtCs38XCG6692bz_17sqlrustgo_storage10bplus_tree5indexNtB5_10BTreeIndex6delete
FNDA:0,_RNvMs3_NtNtCs38XCG6692bz_17sqlrustgo_storage10bplus_tree5indexNtB5_10BTreeIndex6height
FNDA:0,_RNvMs3_NtNtCs38XCG6692bz_17sqlrustgo_storage10bplus_tree5indexNtB5_10BTreeIndex6insert
FNDA:0,_RNvMs3_NtNtCs38XCG6692bz_17sqlrustgo_storage10bplus_tree5indexNtB5_10BTreeIndex6search
FNDA:0,_RNvMs3_NtNtCs38XCG6692bz_17sqlrustgo_storage10bplus_tree5indexNtB5_10BTreeIndex8is_dirty
FNDA:0,_RNvMs3_NtNtCs38XCG6692bz_17sqlrustgo_storage10bplus_tree5indexNtB5_10BTreeIndex8is_empty
FNDA:0,_RNvMs3_NtNtCs38XCG6692bz_17sqlrustgo_storage10bplus_tree5indexNtB5_10BTreeIndex9is_unique
FNDA:0,_RNvMs5_NtNtCs38XCG6692bz_17sqlrustgo_storage10bplus_tree5indexNtB5_19CompositeBTreeIndex10mark_dirty
FNDA:0,_RNvMs5_NtNtCs38XCG6692bz_17sqlrustgo_storage10bplus_tree5indexNtB5_19CompositeBTreeIndex11num_columns
FNDA:0,_RNvMs5_NtNtCs38XCG6692bz_17sqlrustgo_storage10bplus_tree5indexNtB5_19CompositeBTreeIndex11range_query
FNDA:0,_RNvMs5_NtNtCs38XCG6692bz_17sqlrustgo_storage10bplus_tree5indexNtB5_19CompositeBTreeIndex11search_node
FNDA:0,_RNvMs5_NtNtCs38XCG6692bz_17sqlrustgo_storage10bplus_tree5indexNtB5_19CompositeBTreeIndex13allocate_node
FNDA:0,_RNvMs5_NtNtCs38XCG6692bz_17sqlrustgo_storage10bplus_tree5indexNtB5_19CompositeBTreeIndex13from_metadata
FNDA:0,_RNvMs5_NtNtCs38XCG6692bz_17sqlrustgo_storage10bplus_tree5indexNtB5_19CompositeBTreeIndex16insert_into_node
FNDA:0,_RNvMs5_NtNtCs38XCG6692bz_17sqlrustgo_storage10bplus_tree5indexNtB5_19CompositeBTreeIndex16range_query_leaf
FNDA:0,_RNvMs5_NtNtCs38XCG6692bz_17sqlrustgo_storage10bplus_tree5indexNtB5_19CompositeBTreeIndex20encode_composite_key
FNDA:0,_RNvMs5_NtNtCs38XCG6692bz_17sqlrustgo_storage10bplus_tree5indexNtB5_19CompositeBTreeIndex3len
FNDA:0,_RNvMs5_NtNtCs38XCG6692bz_17sqlrustgo_storage10bplus_tree5indexNtB5_19CompositeBTreeIndex3new
FNDA:0,_RNvMs5_NtNtCs38XCG6692bz_17sqlrustgo_storage10bplus_tree5indexNtB5_19CompositeBTreeIndex6insert
FNDA:0,_RNvMs5_NtNtCs38XCG6692bz_17sqlrustgo_storage10bplus_tree5indexNtB5_19CompositeBTreeIndex6search
FNDA:0,_RNvMs5_NtNtCs38XCG6692bz_17sqlrustgo_storage10bplus_tree5indexNtB5_19CompositeBTreeIndex8is_dirty
FNDA:0,_RNvMs5_NtNtCs38XCG6692bz_17sqlrustgo_storage10bplus_tree5indexNtB5_19CompositeBTreeIndex8is_empty
FNDA:0,_RNvMs8_NtNtCs38XCG6692bz_17sqlrustgo_storage10bplus_tree5indexNtB5_16FullTextMetadata3new
FNDA:0,_RNvMs9_NtNtCs38XCG6692bz_17sqlrustgo_storage10bplus_tree5indexNtB5_11PostingList10add_doc_id
FNDA:0,_RNvMs9_NtNtCs38XCG6692bz_17sqlrustgo_storage10bplus_tree5indexNtB5_11PostingList13with_capacity
FNDA:0,_RNvMs9_NtNtCs38XCG6692bz_17sqlrustgo_storage10bplus_tree5indexNtB5_11PostingList3new
FNDA:0,_RNvMs9_NtNtCs38XCG6692bz_17sqlrustgo_storage10bplus_tree5indexNtB5_11PostingList8contains
FNDA:0,_RNvMsb_NtNtCs38XCG6692bz_17sqlrustgo_storage10bplus_tree5indexNtB5_13FullTextIndex10is_deleted
FNDA:0,_RNvMsb_NtNtCs38XCG6692bz_17sqlrustgo_storage10bplus_tree5indexNtB5_13FullTextIndex13num_documents
FNDA:0,_RNvMsb_NtNtCs38XCG6692bz_17sqlrustgo_storage10bplus_tree5indexNtB5_13FullTextIndex14filter_deleted
FNDA:0,_RNvMsb_NtNtCs38XCG6692bz_17sqlrustgo_storage10bplus_tree5indexNtB5_13FullTextIndex14term_frequency
FNDA:0,_RNvMsb_NtNtCs38XCG6692bz_17sqlrustgo_storage10bplus_tree5indexNtB5_13FullTextIndex3new
FNDA:0,_RNvMsb_NtNtCs38XCG6692bz_17sqlrustgo_storage10bplus_tree5indexNtB5_13FullTextIndex5terms
FNDA:0,_RNvMsb_NtNtCs38XCG6692bz_17sqlrustgo_storage10bplus_tree5indexNtB5_13FullTextIndex6delete
FNDA:0,_RNvMsb_NtNtCs38XCG6692bz_17sqlrustgo_storage10bplus_tree5indexNtB5_13FullTextIndex6insert
FNDA:0,_RNvMsb_NtNtCs38XCG6692bz_17sqlrustgo_storage10bplus_tree5indexNtB5_13FullTextIndex6search
FNDA:0,_RNvMsb_NtNtCs38XCG6692bz_17sqlrustgo_storage10bplus_tree5indexNtB5_13FullTextIndex8is_dirty
FNDA:0,_RNvMsb_NtNtCs38XCG6692bz_17sqlrustgo_storage10bplus_tree5indexNtB5_13FullTextIndex8is_empty
FNDA:0,_RNvMsb_NtNtCs38XCG6692bz_17sqlrustgo_storage10bplus_tree5indexNtB5_13FullTextIndex8tokenize
FNDA:0,_RNvMsb_NtNtCs38XCG6692bz_17sqlrustgo_storage10bplus_tree5indexNtB5_13FullTextIndex9intersect
FNDA:0,_RNvMsb_NtNtCs38XCG6692bz_17sqlrustgo_storage10bplus_tree5indexNtB5_13FullTextIndex9num_terms
FNDA:0,_RNvNtNtCs38XCG6692bz_17sqlrustgo_storage10bplus_tree5index14compare_values
FNDA:0,_RNvNtNtCs38XCG6692bz_17sqlrustgo_storage10bplus_tree5index14serialize_node
FNDA:0,_RNvNtNtCs38XCG6692bz_17sqlrustgo_storage10bplus_tree5index16deserialize_node
FNDA:0,_RNvNvNtNtCs38XCG6692bz_17sqlrustgo_storage10bplus_tree5index14compare_values10type_order
FNDA:0,_RNvXs0_NtNtCs38XCG6692bz_17sqlrustgo_storage10bplus_tree5indexNtB5_12CompositeKeyNtNtCs8nPosuWgJFh_4core3cmp3Ord3cmp
FNDA:0,_RNvXs4_NtNtCs38XCG6692bz_17sqlrustgo_storage10bplus_tree5indexNtB5_10BTreeIndexNtNtCs8nPosuWgJFh_4core7default7Default7default
FNDA:0,_RNvXs6_NtNtCs38XCG6692bz_17sqlrustgo_storage10bplus_tree5indexNtB5_19CompositeBTreeIndexNtNtCs8nPosuWgJFh_4core7default7Default7default
FNDA:0,_RNvXs7_NtNtCs38XCG6692bz_17sqlrustgo_storage10bplus_tree5indexNtB5_16FullTextMetadataNtNtCs8nPosuWgJFh_4core7default7Default7default
FNDA:0,_RNvXs_NtNtCs38XCG6692bz_17sqlrustgo_storage10bplus_tree5indexNtB4_12CompositeKeyNtNtCs8nPosuWgJFh_4core3cmp10PartialOrd11partial_cmp
FNDA:0,_RNvXsa_NtNtCs38XCG6692bz_17sqlrustgo_storage10bplus_tree5indexNtB5_11PostingListNtNtCs8nPosuWgJFh_4core7default7Default7default
FNDA:0,_RNvMNtNtCs1u7In8Za3Xp_17sqlrustgo_storage10bplus_tree5indexNtB2_12CompositeKey10from_slice
FNDA:0,_RNvMNtNtCs1u7In8Za3Xp_17sqlrustgo_storage10bplus_tree5indexNtB2_12CompositeKey3new
FNDA:0,_RNvMNtNtCs1u7In8Za3Xp_17sqlrustgo_storage10bplus_tree5indexNtB2_12CompositeKey8from_row
FNDA:0,_RNvMNtNtCs1u7In8Za3Xp_17sqlrustgo_storage10bplus_tree5indexNtB2_12CompositeKey8is_empty
FNDA:0,_RNvMs1_NtNtCs1u7In8Za3Xp_17sqlrustgo_storage10bplus_tree5indexNtB5_9BTreeNode10remove_key
FNDA:0,_RNvMs1_NtNtCs1u7In8Za3Xp_17sqlrustgo_storage10bplus_tree5indexNtB5_9BTreeNode12new_internal
FNDA:0,_RNvMs1_NtNtCs1u7In8Za3Xp_17sqlrustgo_storage10bplus_tree5indexNtB5_9BTreeNode14find_key_index
FNDA:0,_RNvMs1_NtNtCs1u7In8Za3Xp_17sqlrustgo_storage10bplus_tree5indexNtB5_9BTreeNode15find_all_values
FNDA:0,_RNvMs1_NtNtCs1u7In8Za3Xp_17sqlrustgo_storage10bplus_tree5indexNtB5_9BTreeNode16find_child_index
FNDA:0,_RNvMs1_NtNtCs1u7In8Za3Xp_17sqlrustgo_storage10bplus_tree5indexNtB5_9BTreeNode16insert_key_value
FNDA:0,_RNvMs1_NtNtCs1u7In8Za3Xp_17sqlrustgo_storage10bplus_tree5indexNtB5_9BTreeNode7is_full
FNDA:0,_RNvMs1_NtNtCs1u7In8Za3Xp_17sqlrustgo_storage10bplus_tree5indexNtB5_9BTreeNode8new_leaf
FNDA:0,_RNvMs1_NtNtCs1u7In8Za3Xp_17sqlrustgo_storage10bplus_tree5indexNtB5_9BTreeNode9can_split
FNDA:0,_RNvMs1_NtNtCs1u7In8Za3Xp_17sqlrustgo_storage10bplus_tree5indexNtB5_9BTreeNode9insert_at
FNDA:0,_RNvMs2_NtNtCs1u7In8Za3Xp_17sqlrustgo_storage10bplus_tree5indexNtB5_10IndexStats11selectivity
FNDA:0,_RNvMs2_NtNtCs1u7In8Za3Xp_17sqlrustgo_storage10bplus_tree5indexNtB5_10IndexStats3new
FNDA:0,_RNvMs3_NtNtCs1u7In8Za3Xp_17sqlrustgo_storage10bplus_tree5indexNtB5_10BTreeIndex10mark_dirty
FNDA:0,_RNvMs3_NtNtCs1u7In8Za3Xp_17sqlrustgo_storage10bplus_tree5indexNtB5_10BTreeIndex10search_all
FNDA:0,_RNvMs3_NtNtCs1u7In8Za3Xp_17sqlrustgo_storage10bplus_tree5indexNtB5_10BTreeIndex10set_unique
FNDA:0,_RNvMs3_NtNtCs1u7In8Za3Xp_17sqlrustgo_storage10bplus_tree5indexNtB5_10BTreeIndex11range_query
FNDA:0,_RNvMs3_NtNtCs1u7In8Za3Xp_17sqlrustgo_storage10bplus_tree5indexNtB5_10BTreeIndex11search_node
FNDA:0,_RNvMs3_NtNtCs1u7In8Za3Xp_17sqlrustgo_storage10bplus_tree5indexNtB5_10BTreeIndex11usage_stats
FNDA:0,_RNvMs3_NtNtCs1u7In8Za3Xp_17sqlrustgo_storage10bplus_tree5indexNtB5_10BTreeIndex13allocate_node
FNDA:0,_RNvMs3_NtNtCs1u7In8Za3Xp_17sqlrustgo_storage10bplus_tree5indexNtB5_10BTreeIndex13collect_stats
FNDA:0,_RNvMs3_NtNtCs1u7In8Za3Xp_17sqlrustgo_storage10bplus_tree5indexNtB5_10BTreeIndex13from_metadata
FNDA:0,_RNvMs3_NtNtCs1u7In8Za3Xp_17sqlrustgo_storage10bplus_tree5indexNtB5_10BTreeIndex13insert_unique
FNDA:0,_RNvMs3_NtNtCs1u7In8Za3Xp_17sqlrustgo_storage10bplus_tree5indexNtB5_10BTreeIndex15search_node_all
FNDA:0,_RNvMs3_NtNtCs1u7In8Za3Xp_17sqlrustgo_storage10bplus_tree5indexNtB5_10BTreeIndex16delete_from_node
FNDA:0,_RNvMs3_NtNtCs1u7In8Za3Xp_17sqlrustgo_storage10bplus_tree5indexNtB5_10BTreeIndex16insert_into_node
FNDA:0,_RNvMs3_NtNtCs1u7In8Za3Xp_17sqlrustgo_storage10bplus_tree5indexNtB5_10BTreeIndex16range_query_leaf
FNDA:0,_RNvMs3_NtNtCs1u7In8Za3Xp_17sqlrustgo_storage10bplus_tree5indexNtB5_10BTreeIndex17collect_keys_leaf
FNDA:0,_RNvMs3_NtNtCs1u7In8Za3Xp_17sqlrustgo_storage10bplus_tree5indexNtB5_10BTreeIndex20estimate_cardinality
FNDA:0,_RNvMs3_NtNtCs1u7In8Za3Xp_17sqlrustgo_storage10bplus_tree5indexNtB5_10BTreeIndex3len
FNDA:0,_RNvMs3_NtNtCs1u7In8Za3Xp_17sqlrustgo_storage10bplus_tree5indexNtB5_10BTreeIndex3new
FNDA:0,_RNvMs3_NtNtCs1u7In8Za3Xp_17sqlrustgo_storage10bplus_tree5indexNtB5_10BTreeIndex4keys
FNDA:0,_RNvMs3_NtNtCs1u7In8Za3Xp_17sqlrustgo_storage10bplus_tree5indexNtB5_10BTreeIndex6delete
FNDA:0,_RNvMs3_NtNtCs1u7In8Za3Xp_17sqlrustgo_storage10bplus_tree5indexNtB5_10BTreeIndex6height
FNDA:0,_RNvMs3_NtNtCs1u7In8Za3Xp_17sqlrustgo_storage10bplus_tree5indexNtB5_10BTreeIndex6insert
FNDA:0,_RNvMs3_NtNtCs1u7In8Za3Xp_17sqlrustgo_storage10bplus_tree5indexNtB5_10BTreeIndex6search
FNDA:0,_RNvMs3_NtNtCs1u7In8Za3Xp_17sqlrustgo_storage10bplus_tree5indexNtB5_10BTreeIndex8is_dirty
FNDA:0,_RNvMs3_NtNtCs1u7In8Za3Xp_17sqlrustgo_storage10bplus_tree5indexNtB5_10BTreeIndex8is_empty
FNDA:0,_RNvMs3_NtNtCs1u7In8Za3Xp_17sqlrustgo_storage10bplus_tree5indexNtB5_10BTreeIndex9is_unique
FNDA:0,_RNvMs5_NtNtCs1u7In8Za3Xp_17sqlrustgo_storage10bplus_tree5indexNtB5_19CompositeBTreeIndex10mark_dirty
FNDA:0,_RNvMs5_NtNtCs1u7In8Za3Xp_17sqlrustgo_storage10bplus_tree5indexNtB5_19CompositeBTreeIndex11num_columns
FNDA:0,_RNvMs5_NtNtCs1u7In8Za3Xp_17sqlrustgo_storage10bplus_tree5indexNtB5_19CompositeBTreeIndex11range_query
FNDA:0,_RNvMs5_NtNtCs1u7In8Za3Xp_17sqlrustgo_storage10bplus_tree5indexNtB5_19CompositeBTreeIndex11search_node
FNDA:0,_RNvMs5_NtNtCs1u7In8Za3Xp_17sqlrustgo_storage10bplus_tree5indexNtB5_19CompositeBTreeIndex13allocate_node
FNDA:0,_RNvMs5_NtNtCs1u7In8Za3Xp_17sqlrustgo_storage10bplus_tree5indexNtB5_19CompositeBTreeIndex13from_metadata
FNDA:0,_RNvMs5_NtNtCs1u7In8Za3Xp_17sqlrustgo_storage10bplus_tree5indexNtB5_19CompositeBTreeIndex16insert_into_node
FNDA:0,_RNvMs5_NtNtCs1u7In8Za3Xp_17sqlrustgo_storage10bplus_tree5indexNtB5_19CompositeBTreeIndex16range_query_leaf
FNDA:0,_RNvMs5_NtNtCs1u7In8Za3Xp_17sqlrustgo_storage10bplus_tree5indexNtB5_19CompositeBTreeIndex20encode_composite_key
FNDA:0,_RNvMs5_NtNtCs1u7In8Za3Xp_17sqlrustgo_storage10bplus_tree5indexNtB5_19CompositeBTreeIndex3len
FNDA:0,_RNvMs5_NtNtCs1u7In8Za3Xp_17sqlrustgo_storage10bplus_tree5indexNtB5_19CompositeBTreeIndex3new
FNDA:0,_RNvMs5_NtNtCs1u7In8Za3Xp_17sqlrustgo_storage10bplus_tree5indexNtB5_19CompositeBTreeIndex6insert
FNDA:0,_RNvMs5_NtNtCs1u7In8Za3Xp_17sqlrustgo_storage10bplus_tree5indexNtB5_19CompositeBTreeIndex6search
FNDA:0,_RNvMs5_NtNtCs1u7In8Za3Xp_17sqlrustgo_storage10bplus_tree5indexNtB5_19CompositeBTreeIndex8is_dirty
FNDA:0,_RNvMs5_NtNtCs1u7In8Za3Xp_17sqlrustgo_storage10bplus_tree5indexNtB5_19CompositeBTreeIndex8is_empty
FNDA:0,_RNvMs8_NtNtCs1u7In8Za3Xp_17sqlrustgo_storage10bplus_tree5indexNtB5_16FullTextMetadata3new
FNDA:0,_RNvMs9_NtNtCs1u7In8Za3Xp_17sqlrustgo_storage10bplus_tree5indexNtB5_11PostingList10add_doc_id
FNDA:0,_RNvMs9_NtNtCs1u7In8Za3Xp_17sqlrustgo_storage10bplus_tree5indexNtB5_11PostingList13with_capacity
FNDA:0,_RNvMs9_NtNtCs1u7In8Za3Xp_17sqlrustgo_storage10bplus_tree5indexNtB5_11PostingList3new
FNDA:0,_RNvMs9_NtNtCs1u7In8Za3Xp_17sqlrustgo_storage10bplus_tree5indexNtB5_11PostingList8contains
FNDA:0,_RNvMsb_NtNtCs1u7In8Za3Xp_17sqlrustgo_storage10bplus_tree5indexNtB5_13FullTextIndex10is_deleted
FNDA:0,_RNvMsb_NtNtCs1u7In8Za3Xp_17sqlrustgo_storage10bplus_tree5indexNtB5_13FullTextIndex13num_documents
FNDA:0,_RNvMsb_NtNtCs1u7In8Za3Xp_17sqlrustgo_storage10bplus_tree5indexNtB5_13FullTextIndex14filter_deleted
FNDA:0,_RNvMsb_NtNtCs1u7In8Za3Xp_17sqlrustgo_storage10bplus_tree5indexNtB5_13FullTextIndex14term_frequency
FNDA:0,_RNvMsb_NtNtCs1u7In8Za3Xp_17sqlrustgo_storage10bplus_tree5indexNtB5_13FullTextIndex3new
FNDA:0,_RNvMsb_NtNtCs1u7In8Za3Xp_17sqlrustgo_storage10bplus_tree5indexNtB5_13FullTextIndex5terms
FNDA:0,_RNvMsb_NtNtCs1u7In8Za3Xp_17sqlrustgo_storage10bplus_tree5indexNtB5_13FullTextIndex6delete
FNDA:0,_RNvMsb_NtNtCs1u7In8Za3Xp_17sqlrustgo_storage10bplus_tree5indexNtB5_13FullTextIndex6insert
FNDA:0,_RNvMsb_NtNtCs1u7In8Za3Xp_17sqlrustgo_storage10bplus_tree5indexNtB5_13FullTextIndex6search
FNDA:0,_RNvMsb_NtNtCs1u7In8Za3Xp_17sqlrustgo_storage10bplus_tree5indexNtB5_13FullTextIndex8is_dirty
FNDA:0,_RNvMsb_NtNtCs1u7In8Za3Xp_17sqlrustgo_storage10bplus_tree5indexNtB5_13FullTextIndex8is_empty
FNDA:0,_RNvMsb_NtNtCs1u7In8Za3Xp_17sqlrustgo_storage10bplus_tree5indexNtB5_13FullTextIndex8tokenize
FNDA:0,_RNvMsb_NtNtCs1u7In8Za3Xp_17sqlrustgo_storage10bplus_tree5indexNtB5_13FullTextIndex9intersect
FNDA:0,_RNvMsb_NtNtCs1u7In8Za3Xp_17sqlrustgo_storage10bplus_tree5indexNtB5_13FullTextIndex9num_terms
FNDA:0,_RNvNtNtCs1u7In8Za3Xp_17sqlrustgo_storage10bplus_tree5index14compare_values
FNDA:0,_RNvNtNtCs1u7In8Za3Xp_17sqlrustgo_storage10bplus_tree5index14serialize_node
FNDA:0,_RNvNtNtCs1u7In8Za3Xp_17sqlrustgo_storage10bplus_tree5index16deserialize_node
FNDA:0,_RNvNvNtNtCs1u7In8Za3Xp_17sqlrustgo_storage10bplus_tree5index14compare_values10type_order
FNDA:0,_RNvXs0_NtNtCs1u7In8Za3Xp_17sqlrustgo_storage10bplus_tree5indexNtB5_12CompositeKeyNtNtCs8nPosuWgJFh_4core3cmp3Ord3cmp
FNDA:0,_RNvXs4_NtNtCs1u7In8Za3Xp_17sqlrustgo_storage10bplus_tree5indexNtB5_10BTreeIndexNtNtCs8nPosuWgJFh_4core7default7Default7default
FNDA:0,_RNvXs6_NtNtCs1u7In8Za3Xp_17sqlrustgo_storage10bplus_tree5indexNtB5_19CompositeBTreeIndexNtNtCs8nPosuWgJFh_4core7default7Default7default
FNDA:0,_RNvXs7_NtNtCs1u7In8Za3Xp_17sqlrustgo_storage10bplus_tree5indexNtB5_16FullTextMetadataNtNtCs8nPosuWgJFh_4core7default7Default7default
FNDA:0,_RNvXs_NtNtCs1u7In8Za3Xp_17sqlrustgo_storage10bplus_tree5indexNtB4_12CompositeKeyNtNtCs8nPosuWgJFh_4core3cmp10PartialOrd11partial_cmp
FNDA:0,_RNvXsa_NtNtCs1u7In8Za3Xp_17sqlrustgo_storage10bplus_tree5indexNtB5_11PostingListNtNtCs8nPosuWgJFh_4core7default7Default7default
FNDA:0,_RNCNvMNtNtCs1u7In8Za3Xp_17sqlrustgo_storage10bplus_tree5indexNtB4_12CompositeKey8from_row0B8_
FNDA:0,_RNCNvMsb_NtNtCs1u7In8Za3Xp_17sqlrustgo_storage10bplus_tree5indexNtB7_13FullTextIndex14filter_deleted0Bb_
FNDA:0,_RNCNvMsb_NtNtCs1u7In8Za3Xp_17sqlrustgo_storage10bplus_tree5indexNtB7_13FullTextIndex14term_frequency0Bb_
FNDA:0,_RNCNvMsb_NtNtCs1u7In8Za3Xp_17sqlrustgo_storage10bplus_tree5indexNtB7_13FullTextIndex6search0Bb_
FNDA:0,_RNCNvMsb_NtNtCs1u7In8Za3Xp_17sqlrustgo_storage10bplus_tree5indexNtB7_13FullTextIndex8tokenize0Bb_
FNDA:0,_RNCNvMsb_NtNtCs1u7In8Za3Xp_17sqlrustgo_storage10bplus_tree5indexNtB7_13FullTextIndex8tokenizes0_0Bb_
FNDA:0,_RNCNvMsb_NtNtCs1u7In8Za3Xp_17sqlrustgo_storage10bplus_tree5indexNtB7_13FullTextIndex8tokenizes_0Bb_
FNDA:0,_RNCNvMNtNtCsd1AkON0xxEy_17sqlrustgo_storage10bplus_tree5indexNtB4_12CompositeKey8from_row0B8_
FNDA:0,_RNCNvMsb_NtNtCsd1AkON0xxEy_17sqlrustgo_storage10bplus_tree5indexNtB7_13FullTextIndex14filter_deleted0Bb_
FNDA:0,_RNCNvMsb_NtNtCsd1AkON0xxEy_17sqlrustgo_storage10bplus_tree5indexNtB7_13FullTextIndex14term_frequency0Bb_
FNDA:0,_RNCNvMsb_NtNtCsd1AkON0xxEy_17sqlrustgo_storage10bplus_tree5indexNtB7_13FullTextIndex6search0Bb_
FNDA:0,_RNCNvMsb_NtNtCsd1AkON0xxEy_17sqlrustgo_storage10bplus_tree5indexNtB7_13FullTextIndex8tokenize0Bb_
FNDA:0,_RNCNvMsb_NtNtCsd1AkON0xxEy_17sqlrustgo_storage10bplus_tree5indexNtB7_13FullTextIndex8tokenizes0_0Bb_
FNDA:0,_RNCNvMsb_NtNtCsd1AkON0xxEy_17sqlrustgo_storage10bplus_tree5indexNtB7_13FullTextIndex8tokenizes_0Bb_
FNDA:0,_RNvMNtNtCsd1AkON0xxEy_17sqlrustgo_storage10bplus_tree5indexNtB2_12CompositeKey10from_slice
FNDA:0,_RNvMNtNtCsd1AkON0xxEy_17sqlrustgo_storage10bplus_tree5indexNtB2_12CompositeKey3new
FNDA:0,_RNvMNtNtCsd1AkON0xxEy_17sqlrustgo_storage10bplus_tree5indexNtB2_12CompositeKey8from_row
FNDA:0,_RNvMNtNtCsd1AkON0xxEy_17sqlrustgo_storage10bplus_tree5indexNtB2_12CompositeKey8is_empty
FNDA:0,_RNvMs1_NtNtCsd1AkON0xxEy_17sqlrustgo_storage10bplus_tree5indexNtB5_9BTreeNode10remove_key
FNDA:0,_RNvMs1_NtNtCsd1AkON0xxEy_17sqlrustgo_storage10bplus_tree5indexNtB5_9BTreeNode12new_internal
FNDA:0,_RNvMs1_NtNtCsd1AkON0xxEy_17sqlrustgo_storage10bplus_tree5indexNtB5_9BTreeNode14find_key_index
FNDA:0,_RNvMs1_NtNtCsd1AkON0xxEy_17sqlrustgo_storage10bplus_tree5indexNtB5_9BTreeNode15find_all_values
FNDA:0,_RNvMs1_NtNtCsd1AkON0xxEy_17sqlrustgo_storage10bplus_tree5indexNtB5_9BTreeNode16find_child_index
FNDA:0,_RNvMs1_NtNtCsd1AkON0xxEy_17sqlrustgo_storage10bplus_tree5indexNtB5_9BTreeNode16insert_key_value
FNDA:0,_RNvMs1_NtNtCsd1AkON0xxEy_17sqlrustgo_storage10bplus_tree5indexNtB5_9BTreeNode7is_full
FNDA:0,_RNvMs1_NtNtCsd1AkON0xxEy_17sqlrustgo_storage10bplus_tree5indexNtB5_9BTreeNode8new_leaf
FNDA:0,_RNvMs1_NtNtCsd1AkON0xxEy_17sqlrustgo_storage10bplus_tree5indexNtB5_9BTreeNode9can_split
FNDA:0,_RNvMs1_NtNtCsd1AkON0xxEy_17sqlrustgo_storage10bplus_tree5indexNtB5_9BTreeNode9insert_at
FNDA:0,_RNvMs2_NtNtCsd1AkON0xxEy_17sqlrustgo_storage10bplus_tree5indexNtB5_10IndexStats11selectivity
FNDA:0,_RNvMs2_NtNtCsd1AkON0xxEy_17sqlrustgo_storage10bplus_tree5indexNtB5_10IndexStats3new
FNDA:0,_RNvMs3_NtNtCsd1AkON0xxEy_17sqlrustgo_storage10bplus_tree5indexNtB5_10BTreeIndex10mark_dirty
FNDA:0,_RNvMs3_NtNtCsd1AkON0xxEy_17sqlrustgo_storage10bplus_tree5indexNtB5_10BTreeIndex10search_all
FNDA:0,_RNvMs3_NtNtCsd1AkON0xxEy_17sqlrustgo_storage10bplus_tree5indexNtB5_10BTreeIndex10set_unique
FNDA:0,_RNvMs3_NtNtCsd1AkON0xxEy_17sqlrustgo_storage10bplus_tree5indexNtB5_10BTreeIndex11range_query
FNDA:0,_RNvMs3_NtNtCsd1AkON0xxEy_17sqlrustgo_storage10bplus_tree5indexNtB5_10BTreeIndex11search_node
FNDA:0,_RNvMs3_NtNtCsd1AkON0xxEy_17sqlrustgo_storage10bplus_tree5indexNtB5_10BTreeIndex11usage_stats
FNDA:0,_RNvMs3_NtNtCsd1AkON0xxEy_17sqlrustgo_storage10bplus_tree5indexNtB5_10BTreeIndex13allocate_node
FNDA:0,_RNvMs3_NtNtCsd1AkON0xxEy_17sqlrustgo_storage10bplus_tree5indexNtB5_10BTreeIndex13collect_stats
FNDA:0,_RNvMs3_NtNtCsd1AkON0xxEy_17sqlrustgo_storage10bplus_tree5indexNtB5_10BTreeIndex13from_metadata
FNDA:0,_RNvMs3_NtNtCsd1AkON0xxEy_17sqlrustgo_storage10bplus_tree5indexNtB5_10BTreeIndex13insert_unique
FNDA:0,_RNvMs3_NtNtCsd1AkON0xxEy_17sqlrustgo_storage10bplus_tree5indexNtB5_10BTreeIndex15search_node_all
FNDA:0,_RNvMs3_NtNtCsd1AkON0xxEy_17sqlrustgo_storage10bplus_tree5indexNtB5_10BTreeIndex16delete_from_node
FNDA:0,_RNvMs3_NtNtCsd1AkON0xxEy_17sqlrustgo_storage10bplus_tree5indexNtB5_10BTreeIndex16insert_into_node
FNDA:0,_RNvMs3_NtNtCsd1AkON0xxEy_17sqlrustgo_storage10bplus_tree5indexNtB5_10BTreeIndex16range_query_leaf
FNDA:0,_RNvMs3_NtNtCsd1AkON0xxEy_17sqlrustgo_storage10bplus_tree5indexNtB5_10BTreeIndex17collect_keys_leaf
FNDA:0,_RNvMs3_NtNtCsd1AkON0xxEy_17sqlrustgo_storage10bplus_tree5indexNtB5_10BTreeIndex20estimate_cardinality
FNDA:0,_RNvMs3_NtNtCsd1AkON0xxEy_17sqlrustgo_storage10bplus_tree5indexNtB5_10BTreeIndex3len
FNDA:0,_RNvMs3_NtNtCsd1AkON0xxEy_17sqlrustgo_storage10bplus_tree5indexNtB5_10BTreeIndex3new
FNDA:0,_RNvMs3_NtNtCsd1AkON0xxEy_17sqlrustgo_storage10bplus_tree5indexNtB5_10BTreeIndex4keys
FNDA:0,_RNvMs3_NtNtCsd1AkON0xxEy_17sqlrustgo_storage10bplus_tree5indexNtB5_10BTreeIndex6delete
FNDA:0,_RNvMs3_NtNtCsd1AkON0xxEy_17sqlrustgo_storage10bplus_tree5indexNtB5_10BTreeIndex6height
FNDA:0,_RNvMs3_NtNtCsd1AkON0xxEy_17sqlrustgo_storage10bplus_tree5indexNtB5_10BTreeIndex6insert
FNDA:0,_RNvMs3_NtNtCsd1AkON0xxEy_17sqlrustgo_storage10bplus_tree5indexNtB5_10BTreeIndex6search
FNDA:0,_RNvMs3_NtNtCsd1AkON0xxEy_17sqlrustgo_storage10bplus_tree5indexNtB5_10BTreeIndex8is_dirty
FNDA:0,_RNvMs3_NtNtCsd1AkON0xxEy_17sqlrustgo_storage10bplus_tree5indexNtB5_10BTreeIndex8is_empty
FNDA:0,_RNvMs3_NtNtCsd1AkON0xxEy_17sqlrustgo_storage10bplus_tree5indexNtB5_10BTreeIndex9is_unique
FNDA:0,_RNvMs5_NtNtCsd1AkON0xxEy_17sqlrustgo_storage10bplus_tree5indexNtB5_19CompositeBTreeIndex10mark_dirty
FNDA:0,_RNvMs5_NtNtCsd1AkON0xxEy_17sqlrustgo_storage10bplus_tree5indexNtB5_19CompositeBTreeIndex11num_columns
FNDA:0,_RNvMs5_NtNtCsd1AkON0xxEy_17sqlrustgo_storage10bplus_tree5indexNtB5_19CompositeBTreeIndex11range_query
FNDA:0,_RNvMs5_NtNtCsd1AkON0xxEy_17sqlrustgo_storage10bplus_tree5indexNtB5_19CompositeBTreeIndex11search_node
FNDA:0,_RNvMs5_NtNtCsd1AkON0xxEy_17sqlrustgo_storage10bplus_tree5indexNtB5_19CompositeBTreeIndex13allocate_node
FNDA:0,_RNvMs5_NtNtCsd1AkON0xxEy_17sqlrustgo_storage10bplus_tree5indexNtB5_19CompositeBTreeIndex13from_metadata
FNDA:0,_RNvMs5_NtNtCsd1AkON0xxEy_17sqlrustgo_storage10bplus_tree5indexNtB5_19CompositeBTreeIndex16insert_into_node
FNDA:0,_RNvMs5_NtNtCsd1AkON0xxEy_17sqlrustgo_storage10bplus_tree5indexNtB5_19CompositeBTreeIndex16range_query_leaf
FNDA:0,_RNvMs5_NtNtCsd1AkON0xxEy_17sqlrustgo_storage10bplus_tree5indexNtB5_19CompositeBTreeIndex20encode_composite_key
FNDA:0,_RNvMs5_NtNtCsd1AkON0xxEy_17sqlrustgo_storage10bplus_tree5indexNtB5_19CompositeBTreeIndex3len
FNDA:0,_RNvMs5_NtNtCsd1AkON0xxEy_17sqlrustgo_storage10bplus_tree5indexNtB5_19CompositeBTreeIndex3new
FNDA:0,_RNvMs5_NtNtCsd1AkON0xxEy_17sqlrustgo_storage10bplus_tree5indexNtB5_19CompositeBTreeIndex6insert
FNDA:0,_RNvMs5_NtNtCsd1AkON0xxEy_17sqlrustgo_storage10bplus_tree5indexNtB5_19CompositeBTreeIndex6search
FNDA:0,_RNvMs5_NtNtCsd1AkON0xxEy_17sqlrustgo_storage10bplus_tree5indexNtB5_19CompositeBTreeIndex8is_dirty
FNDA:0,_RNvMs5_NtNtCsd1AkON0xxEy_17sqlrustgo_storage10bplus_tree5indexNtB5_19CompositeBTreeIndex8is_empty
FNDA:0,_RNvMs8_NtNtCsd1AkON0xxEy_17sqlrustgo_storage10bplus_tree5indexNtB5_16FullTextMetadata3new
FNDA:0,_RNvMs9_NtNtCsd1AkON0xxEy_17sqlrustgo_storage10bplus_tree5indexNtB5_11PostingList10add_doc_id
FNDA:0,_RNvMs9_NtNtCsd1AkON0xxEy_17sqlrustgo_storage10bplus_tree5indexNtB5_11PostingList13with_capacity
FNDA:0,_RNvMs9_NtNtCsd1AkON0xxEy_17sqlrustgo_storage10bplus_tree5indexNtB5_11PostingList3new
FNDA:0,_RNvMs9_NtNtCsd1AkON0xxEy_17sqlrustgo_storage10bplus_tree5indexNtB5_11PostingList8contains
FNDA:0,_RNvMsb_NtNtCsd1AkON0xxEy_17sqlrustgo_storage10bplus_tree5indexNtB5_13FullTextIndex10is_deleted
FNDA:0,_RNvMsb_NtNtCsd1AkON0xxEy_17sqlrustgo_storage10bplus_tree5indexNtB5_13FullTextIndex13num_documents
FNDA:0,_RNvMsb_NtNtCsd1AkON0xxEy_17sqlrustgo_storage10bplus_tree5indexNtB5_13FullTextIndex14filter_deleted
FNDA:0,_RNvMsb_NtNtCsd1AkON0xxEy_17sqlrustgo_storage10bplus_tree5indexNtB5_13FullTextIndex14term_frequency
FNDA:0,_RNvMsb_NtNtCsd1AkON0xxEy_17sqlrustgo_storage10bplus_tree5indexNtB5_13FullTextIndex3new
FNDA:0,_RNvMsb_NtNtCsd1AkON0xxEy_17sqlrustgo_storage10bplus_tree5indexNtB5_13FullTextIndex5terms
FNDA:0,_RNvMsb_NtNtCsd1AkON0xxEy_17sqlrustgo_storage10bplus_tree5indexNtB5_13FullTextIndex6delete
FNDA:0,_RNvMsb_NtNtCsd1AkON0xxEy_17sqlrustgo_storage10bplus_tree5indexNtB5_13FullTextIndex6insert
FNDA:0,_RNvMsb_NtNtCsd1AkON0xxEy_17sqlrustgo_storage10bplus_tree5indexNtB5_13FullTextIndex6search
FNDA:0,_RNvMsb_NtNtCsd1AkON0xxEy_17sqlrustgo_storage10bplus_tree5indexNtB5_13FullTextIndex8is_dirty
FNDA:0,_RNvMsb_NtNtCsd1AkON0xxEy_17sqlrustgo_storage10bplus_tree5indexNtB5_13FullTextIndex8is_empty
FNDA:0,_RNvMsb_NtNtCsd1AkON0xxEy_17sqlrustgo_storage10bplus_tree5indexNtB5_13FullTextIndex8tokenize
FNDA:0,_RNvMsb_NtNtCsd1AkON0xxEy_17sqlrustgo_storage10bplus_tree5indexNtB5_13FullTextIndex9intersect
FNDA:0,_RNvMsb_NtNtCsd1AkON0xxEy_17sqlrustgo_storage10bplus_tree5indexNtB5_13FullTextIndex9num_terms
FNDA:0,_RNvNtNtCsd1AkON0xxEy_17sqlrustgo_storage10bplus_tree5index14compare_values
FNDA:0,_RNvNtNtCsd1AkON0xxEy_17sqlrustgo_storage10bplus_tree5index14serialize_node
FNDA:0,_RNvNtNtCsd1AkON0xxEy_17sqlrustgo_storage10bplus_tree5index16deserialize_node
FNDA:0,_RNvNvNtNtCsd1AkON0xxEy_17sqlrustgo_storage10bplus_tree5index14compare_values10type_order
FNDA:0,_RNvXs0_NtNtCsd1AkON0xxEy_17sqlrustgo_storage10bplus_tree5indexNtB5_12CompositeKeyNtNtCs8nPosuWgJFh_4core3cmp3Ord3cmp
FNDA:0,_RNvXs4_NtNtCsd1AkON0xxEy_17sqlrustgo_storage10bplus_tree5indexNtB5_10BTreeIndexNtNtCs8nPosuWgJFh_4core7default7Default7default
FNDA:0,_RNvXs6_NtNtCsd1AkON0xxEy_17sqlrustgo_storage10bplus_tree5indexNtB5_19CompositeBTreeIndexNtNtCs8nPosuWgJFh_4core7default7Default7default
FNDA:0,_RNvXs7_NtNtCsd1AkON0xxEy_17sqlrustgo_storage10bplus_tree5indexNtB5_16FullTextMetadataNtNtCs8nPosuWgJFh_4core7default7Default7default
FNDA:0,_RNvXs_NtNtCsd1AkON0xxEy_17sqlrustgo_storage10bplus_tree5indexNtB4_12CompositeKeyNtNtCs8nPosuWgJFh_4core3cmp10PartialOrd11partial_cmp
FNDA:0,_RNvXsa_NtNtCsd1AkON0xxEy_17sqlrustgo_storage10bplus_tree5indexNtB5_11PostingListNtNtCs8nPosuWgJFh_4core7default7Default7default
FNDA:0,_RNCNvMNtNtCs9oXD4GUMzTX_17sqlrustgo_storage10bplus_tree5indexNtB4_12CompositeKey8from_row0B8_
FNDA:0,_RNCNvMsb_NtNtCs9oXD4GUMzTX_17sqlrustgo_storage10bplus_tree5indexNtB7_13FullTextIndex14filter_deleted0Bb_
FNDA:0,_RNCNvMsb_NtNtCs9oXD4GUMzTX_17sqlrustgo_storage10bplus_tree5indexNtB7_13FullTextIndex14term_frequency0Bb_
FNDA:0,_RNCNvMsb_NtNtCs9oXD4GUMzTX_17sqlrustgo_storage10bplus_tree5indexNtB7_13FullTextIndex6search0Bb_
FNDA:0,_RNCNvMsb_NtNtCs9oXD4GUMzTX_17sqlrustgo_storage10bplus_tree5indexNtB7_13FullTextIndex8tokenize0Bb_
FNDA:0,_RNCNvMsb_NtNtCs9oXD4GUMzTX_17sqlrustgo_storage10bplus_tree5indexNtB7_13FullTextIndex8tokenizes0_0Bb_
FNDA:0,_RNCNvMsb_NtNtCs9oXD4GUMzTX_17sqlrustgo_storage10bplus_tree5indexNtB7_13FullTextIndex8tokenizes_0Bb_
FNDA:0,_RNvMNtNtCs9oXD4GUMzTX_17sqlrustgo_storage10bplus_tree5indexNtB2_12CompositeKey10from_slice
FNDA:0,_RNvMNtNtCs9oXD4GUMzTX_17sqlrustgo_storage10bplus_tree5indexNtB2_12CompositeKey3new
FNDA:0,_RNvMNtNtCs9oXD4GUMzTX_17sqlrustgo_storage10bplus_tree5indexNtB2_12CompositeKey8from_row
FNDA:0,_RNvMNtNtCs9oXD4GUMzTX_17sqlrustgo_storage10bplus_tree5indexNtB2_12CompositeKey8is_empty
FNDA:0,_RNvMs1_NtNtCs9oXD4GUMzTX_17sqlrustgo_storage10bplus_tree5indexNtB5_9BTreeNode10remove_key
FNDA:0,_RNvMs1_NtNtCs9oXD4GUMzTX_17sqlrustgo_storage10bplus_tree5indexNtB5_9BTreeNode12new_internal
FNDA:0,_RNvMs1_NtNtCs9oXD4GUMzTX_17sqlrustgo_storage10bplus_tree5indexNtB5_9BTreeNode14find_key_index
FNDA:0,_RNvMs1_NtNtCs9oXD4GUMzTX_17sqlrustgo_storage10bplus_tree5indexNtB5_9BTreeNode15find_all_values
FNDA:0,_RNvMs1_NtNtCs9oXD4GUMzTX_17sqlrustgo_storage10bplus_tree5indexNtB5_9BTreeNode16find_child_index
FNDA:0,_RNvMs1_NtNtCs9oXD4GUMzTX_17sqlrustgo_storage10bplus_tree5indexNtB5_9BTreeNode16insert_key_value
FNDA:0,_RNvMs1_NtNtCs9oXD4GUMzTX_17sqlrustgo_storage10bplus_tree5indexNtB5_9BTreeNode7is_full
FNDA:0,_RNvMs1_NtNtCs9oXD4GUMzTX_17sqlrustgo_storage10bplus_tree5indexNtB5_9BTreeNode8new_leaf
FNDA:0,_RNvMs1_NtNtCs9oXD4GUMzTX_17sqlrustgo_storage10bplus_tree5indexNtB5_9BTreeNode9can_split
FNDA:0,_RNvMs1_NtNtCs9oXD4GUMzTX_17sqlrustgo_storage10bplus_tree5indexNtB5_9BTreeNode9insert_at
FNDA:0,_RNvMs2_NtNtCs9oXD4GUMzTX_17sqlrustgo_storage10bplus_tree5indexNtB5_10IndexStats11selectivity
FNDA:0,_RNvMs2_NtNtCs9oXD4GUMzTX_17sqlrustgo_storage10bplus_tree5indexNtB5_10IndexStats3new
FNDA:0,_RNvMs3_NtNtCs9oXD4GUMzTX_17sqlrustgo_storage10bplus_tree5indexNtB5_10BTreeIndex10mark_dirty
FNDA:0,_RNvMs3_NtNtCs9oXD4GUMzTX_17sqlrustgo_storage10bplus_tree5indexNtB5_10BTreeIndex10search_all
FNDA:0,_RNvMs3_NtNtCs9oXD4GUMzTX_17sqlrustgo_storage10bplus_tree5indexNtB5_10BTreeIndex10set_unique
FNDA:0,_RNvMs3_NtNtCs9oXD4GUMzTX_17sqlrustgo_storage10bplus_tree5indexNtB5_10BTreeIndex11range_query
FNDA:0,_RNvMs3_NtNtCs9oXD4GUMzTX_17sqlrustgo_storage10bplus_tree5indexNtB5_10BTreeIndex11search_node
FNDA:0,_RNvMs3_NtNtCs9oXD4GUMzTX_17sqlrustgo_storage10bplus_tree5indexNtB5_10BTreeIndex11usage_stats
FNDA:0,_RNvMs3_NtNtCs9oXD4GUMzTX_17sqlrustgo_storage10bplus_tree5indexNtB5_10BTreeIndex13allocate_node
FNDA:0,_RNvMs3_NtNtCs9oXD4GUMzTX_17sqlrustgo_storage10bplus_tree5indexNtB5_10BTreeIndex13collect_stats
FNDA:0,_RNvMs3_NtNtCs9oXD4GUMzTX_17sqlrustgo_storage10bplus_tree5indexNtB5_10BTreeIndex13from_metadata
FNDA:0,_RNvMs3_NtNtCs9oXD4GUMzTX_17sqlrustgo_storage10bplus_tree5indexNtB5_10BTreeIndex13insert_unique
FNDA:0,_RNvMs3_NtNtCs9oXD4GUMzTX_17sqlrustgo_storage10bplus_tree5indexNtB5_10BTreeIndex15search_node_all
FNDA:0,_RNvMs3_NtNtCs9oXD4GUMzTX_17sqlrustgo_storage10bplus_tree5indexNtB5_10BTreeIndex16delete_from_node
FNDA:0,_RNvMs3_NtNtCs9oXD4GUMzTX_17sqlrustgo_storage10bplus_tree5indexNtB5_10BTreeIndex16insert_into_node
FNDA:0,_RNvMs3_NtNtCs9oXD4GUMzTX_17sqlrustgo_storage10bplus_tree5indexNtB5_10BTreeIndex16range_query_leaf
FNDA:0,_RNvMs3_NtNtCs9oXD4GUMzTX_17sqlrustgo_storage10bplus_tree5indexNtB5_10BTreeIndex17collect_keys_leaf
FNDA:0,_RNvMs3_NtNtCs9oXD4GUMzTX_17sqlrustgo_storage10bplus_tree5indexNtB5_10BTreeIndex20estimate_cardinality
FNDA:0,_RNvMs3_NtNtCs9oXD4GUMzTX_17sqlrustgo_storage10bplus_tree5indexNtB5_10BTreeIndex3len
FNDA:0,_RNvMs3_NtNtCs9oXD4GUMzTX_17sqlrustgo_storage10bplus_tree5indexNtB5_10BTreeIndex3new
FNDA:0,_RNvMs3_NtNtCs9oXD4GUMzTX_17sqlrustgo_storage10bplus_tree5indexNtB5_10BTreeIndex4keys
FNDA:0,_RNvMs3_NtNtCs9oXD4GUMzTX_17sqlrustgo_storage10bplus_tree5indexNtB5_10BTreeIndex6delete
FNDA:0,_RNvMs3_NtNtCs9oXD4GUMzTX_17sqlrustgo_storage10bplus_tree5indexNtB5_10BTreeIndex6height
FNDA:0,_RNvMs3_NtNtCs9oXD4GUMzTX_17sqlrustgo_storage10bplus_tree5indexNtB5_10BTreeIndex6insert
FNDA:0,_RNvMs3_NtNtCs9oXD4GUMzTX_17sqlrustgo_storage10bplus_tree5indexNtB5_10BTreeIndex6search
FNDA:0,_RNvMs3_NtNtCs9oXD4GUMzTX_17sqlrustgo_storage10bplus_tree5indexNtB5_10BTreeIndex8is_dirty
FNDA:0,_RNvMs3_NtNtCs9oXD4GUMzTX_17sqlrustgo_storage10bplus_tree5indexNtB5_10BTreeIndex8is_empty
FNDA:0,_RNvMs3_NtNtCs9oXD4GUMzTX_17sqlrustgo_storage10bplus_tree5indexNtB5_10BTreeIndex9is_unique
FNDA:0,_RNvMs5_NtNtCs9oXD4GUMzTX_17sqlrustgo_storage10bplus_tree5indexNtB5_19CompositeBTreeIndex10mark_dirty
FNDA:0,_RNvMs5_NtNtCs9oXD4GUMzTX_17sqlrustgo_storage10bplus_tree5indexNtB5_19CompositeBTreeIndex11num_columns
FNDA:0,_RNvMs5_NtNtCs9oXD4GUMzTX_17sqlrustgo_storage10bplus_tree5indexNtB5_19CompositeBTreeIndex11range_query
FNDA:0,_RNvMs5_NtNtCs9oXD4GUMzTX_17sqlrustgo_storage10bplus_tree5indexNtB5_19CompositeBTreeIndex11search_node
FNDA:0,_RNvMs5_NtNtCs9oXD4GUMzTX_17sqlrustgo_storage10bplus_tree5indexNtB5_19CompositeBTreeIndex13allocate_node
FNDA:0,_RNvMs5_NtNtCs9oXD4GUMzTX_17sqlrustgo_storage10bplus_tree5indexNtB5_19CompositeBTreeIndex13from_metadata
FNDA:0,_RNvMs5_NtNtCs9oXD4GUMzTX_17sqlrustgo_storage10bplus_tree5indexNtB5_19CompositeBTreeIndex16insert_into_node
FNDA:0,_RNvMs5_NtNtCs9oXD4GUMzTX_17sqlrustgo_storage10bplus_tree5indexNtB5_19CompositeBTreeIndex16range_query_leaf
FNDA:0,_RNvMs5_NtNtCs9oXD4GUMzTX_17sqlrustgo_storage10bplus_tree5indexNtB5_19CompositeBTreeIndex20encode_composite_key
FNDA:0,_RNvMs5_NtNtCs9oXD4GUMzTX_17sqlrustgo_storage10bplus_tree5indexNtB5_19CompositeBTreeIndex3len
FNDA:0,_RNvMs5_NtNtCs9oXD4GUMzTX_17sqlrustgo_storage10bplus_tree5indexNtB5_19CompositeBTreeIndex3new
FNDA:0,_RNvMs5_NtNtCs9oXD4GUMzTX_17sqlrustgo_storage10bplus_tree5indexNtB5_19CompositeBTreeIndex6insert
FNDA:0,_RNvMs5_NtNtCs9oXD4GUMzTX_17sqlrustgo_storage10bplus_tree5indexNtB5_19CompositeBTreeIndex6search
FNDA:0,_RNvMs5_NtNtCs9oXD4GUMzTX_17sqlrustgo_storage10bplus_tree5indexNtB5_19CompositeBTreeIndex8is_dirty
FNDA:0,_RNvMs5_NtNtCs9oXD4GUMzTX_17sqlrustgo_storage10bplus_tree5indexNtB5_19CompositeBTreeIndex8is_empty
FNDA:0,_RNvMs8_NtNtCs9oXD4GUMzTX_17sqlrustgo_storage10bplus_tree5indexNtB5_16FullTextMetadata3new
FNDA:0,_RNvMs9_NtNtCs9oXD4GUMzTX_17sqlrustgo_storage10bplus_tree5indexNtB5_11PostingList10add_doc_id
FNDA:0,_RNvMs9_NtNtCs9oXD4GUMzTX_17sqlrustgo_storage10bplus_tree5indexNtB5_11PostingList13with_capacity
FNDA:0,_RNvMs9_NtNtCs9oXD4GUMzTX_17sqlrustgo_storage10bplus_tree5indexNtB5_11PostingList3new
FNDA:0,_RNvMs9_NtNtCs9oXD4GUMzTX_17sqlrustgo_storage10bplus_tree5indexNtB5_11PostingList8contains
FNDA:0,_RNvMsb_NtNtCs9oXD4GUMzTX_17sqlrustgo_storage10bplus_tree5indexNtB5_13FullTextIndex10is_deleted
FNDA:0,_RNvMsb_NtNtCs9oXD4GUMzTX_17sqlrustgo_storage10bplus_tree5indexNtB5_13FullTextIndex13num_documents
FNDA:0,_RNvMsb_NtNtCs9oXD4GUMzTX_17sqlrustgo_storage10bplus_tree5indexNtB5_13FullTextIndex14filter_deleted
FNDA:0,_RNvMsb_NtNtCs9oXD4GUMzTX_17sqlrustgo_storage10bplus_tree5indexNtB5_13FullTextIndex14term_frequency
FNDA:0,_RNvMsb_NtNtCs9oXD4GUMzTX_17sqlrustgo_storage10bplus_tree5indexNtB5_13FullTextIndex3new
FNDA:0,_RNvMsb_NtNtCs9oXD4GUMzTX_17sqlrustgo_storage10bplus_tree5indexNtB5_13FullTextIndex5terms
FNDA:0,_RNvMsb_NtNtCs9oXD4GUMzTX_17sqlrustgo_storage10bplus_tree5indexNtB5_13FullTextIndex6delete
FNDA:0,_RNvMsb_NtNtCs9oXD4GUMzTX_17sqlrustgo_storage10bplus_tree5indexNtB5_13FullTextIndex6insert
FNDA:0,_RNvMsb_NtNtCs9oXD4GUMzTX_17sqlrustgo_storage10bplus_tree5indexNtB5_13FullTextIndex6search
FNDA:0,_RNvMsb_NtNtCs9oXD4GUMzTX_17sqlrustgo_storage10bplus_tree5indexNtB5_13FullTextIndex8is_dirty
FNDA:0,_RNvMsb_NtNtCs9oXD4GUMzTX_17sqlrustgo_storage10bplus_tree5indexNtB5_13FullTextIndex8is_empty
FNDA:0,_RNvMsb_NtNtCs9oXD4GUMzTX_17sqlrustgo_storage10bplus_tree5indexNtB5_13FullTextIndex8tokenize
FNDA:0,_RNvMsb_NtNtCs9oXD4GUMzTX_17sqlrustgo_storage10bplus_tree5indexNtB5_13FullTextIndex9intersect
FNDA:0,_RNvMsb_NtNtCs9oXD4GUMzTX_17sqlrustgo_storage10bplus_tree5indexNtB5_13FullTextIndex9num_terms
FNDA:0,_RNvNtNtCs9oXD4GUMzTX_17sqlrustgo_storage10bplus_tree5index14compare_values
FNDA:0,_RNvNtNtCs9oXD4GUMzTX_17sqlrustgo_storage10bplus_tree5index14serialize_node
FNDA:0,_RNvNtNtCs9oXD4GUMzTX_17sqlrustgo_storage10bplus_tree5index16deserialize_node
FNDA:0,_RNvNvNtNtCs9oXD4GUMzTX_17sqlrustgo_storage10bplus_tree5index14compare_values10type_order
FNDA:0,_RNvXs0_NtNtCs9oXD4GUMzTX_17sqlrustgo_storage10bplus_tree5indexNtB5_12CompositeKeyNtNtCs8nPosuWgJFh_4core3cmp3Ord3cmp
FNDA:0,_RNvXs4_NtNtCs9oXD4GUMzTX_17sqlrustgo_storage10bplus_tree5indexNtB5_10BTreeIndexNtNtCs8nPosuWgJFh_4core7default7Default7default
FNDA:0,_RNvXs6_NtNtCs9oXD4GUMzTX_17sqlrustgo_storage10bplus_tree5indexNtB5_19CompositeBTreeIndexNtNtCs8nPosuWgJFh_4core7default7Default7default
FNDA:0,_RNvXs7_NtNtCs9oXD4GUMzTX_17sqlrustgo_storage10bplus_tree5indexNtB5_16FullTextMetadataNtNtCs8nPosuWgJFh_4core7default7Default7default
FNDA:0,_RNvXs_NtNtCs9oXD4GUMzTX_17sqlrustgo_storage10bplus_tree5indexNtB4_12CompositeKeyNtNtCs8nPosuWgJFh_4core3cmp10PartialOrd11partial_cmp
FNDA:0,_RNvXsa_NtNtCs9oXD4GUMzTX_17sqlrustgo_storage10bplus_tree5indexNtB5_11PostingListNtNtCs8nPosuWgJFh_4core7default7Default7default
FNDA:0,_RNvMNtNtCsl9zPO89iGuX_17sqlrustgo_storage10bplus_tree5indexNtB2_12CompositeKey10from_slice
FNDA:0,_RNvMNtNtCsl9zPO89iGuX_17sqlrustgo_storage10bplus_tree5indexNtB2_12CompositeKey3new
FNDA:0,_RNvMNtNtCsl9zPO89iGuX_17sqlrustgo_storage10bplus_tree5indexNtB2_12CompositeKey8from_row
FNDA:0,_RNvMNtNtCsl9zPO89iGuX_17sqlrustgo_storage10bplus_tree5indexNtB2_12CompositeKey8is_empty
FNDA:0,_RNvMs1_NtNtCsl9zPO89iGuX_17sqlrustgo_storage10bplus_tree5indexNtB5_9BTreeNode10remove_key
FNDA:0,_RNvMs1_NtNtCsl9zPO89iGuX_17sqlrustgo_storage10bplus_tree5indexNtB5_9BTreeNode12new_internal
FNDA:0,_RNvMs1_NtNtCsl9zPO89iGuX_17sqlrustgo_storage10bplus_tree5indexNtB5_9BTreeNode14find_key_index
FNDA:0,_RNvMs1_NtNtCsl9zPO89iGuX_17sqlrustgo_storage10bplus_tree5indexNtB5_9BTreeNode15find_all_values
FNDA:0,_RNvMs1_NtNtCsl9zPO89iGuX_17sqlrustgo_storage10bplus_tree5indexNtB5_9BTreeNode16find_child_index
FNDA:0,_RNvMs1_NtNtCsl9zPO89iGuX_17sqlrustgo_storage10bplus_tree5indexNtB5_9BTreeNode16insert_key_value
FNDA:0,_RNvMs1_NtNtCsl9zPO89iGuX_17sqlrustgo_storage10bplus_tree5indexNtB5_9BTreeNode7is_full
FNDA:0,_RNvMs1_NtNtCsl9zPO89iGuX_17sqlrustgo_storage10bplus_tree5indexNtB5_9BTreeNode8new_leaf
FNDA:0,_RNvMs1_NtNtCsl9zPO89iGuX_17sqlrustgo_storage10bplus_tree5indexNtB5_9BTreeNode9can_split
FNDA:0,_RNvMs1_NtNtCsl9zPO89iGuX_17sqlrustgo_storage10bplus_tree5indexNtB5_9BTreeNode9insert_at
FNDA:0,_RNvMs2_NtNtCsl9zPO89iGuX_17sqlrustgo_storage10bplus_tree5indexNtB5_10IndexStats11selectivity
FNDA:0,_RNvMs2_NtNtCsl9zPO89iGuX_17sqlrustgo_storage10bplus_tree5indexNtB5_10IndexStats3new
FNDA:0,_RNvMs3_NtNtCsl9zPO89iGuX_17sqlrustgo_storage10bplus_tree5indexNtB5_10BTreeIndex10mark_dirty
FNDA:0,_RNvMs3_NtNtCsl9zPO89iGuX_17sqlrustgo_storage10bplus_tree5indexNtB5_10BTreeIndex10search_all
FNDA:0,_RNvMs3_NtNtCsl9zPO89iGuX_17sqlrustgo_storage10bplus_tree5indexNtB5_10BTreeIndex10set_unique
FNDA:0,_RNvMs3_NtNtCsl9zPO89iGuX_17sqlrustgo_storage10bplus_tree5indexNtB5_10BTreeIndex11range_query
FNDA:0,_RNvMs3_NtNtCsl9zPO89iGuX_17sqlrustgo_storage10bplus_tree5indexNtB5_10BTreeIndex11search_node
FNDA:0,_RNvMs3_NtNtCsl9zPO89iGuX_17sqlrustgo_storage10bplus_tree5indexNtB5_10BTreeIndex11usage_stats
FNDA:0,_RNvMs3_NtNtCsl9zPO89iGuX_17sqlrustgo_storage10bplus_tree5indexNtB5_10BTreeIndex13allocate_node
FNDA:0,_RNvMs3_NtNtCsl9zPO89iGuX_17sqlrustgo_storage10bplus_tree5indexNtB5_10BTreeIndex13collect_stats
FNDA:0,_RNvMs3_NtNtCsl9zPO89iGuX_17sqlrustgo_storage10bplus_tree5indexNtB5_10BTreeIndex13from_metadata
FNDA:0,_RNvMs3_NtNtCsl9zPO89iGuX_17sqlrustgo_storage10bplus_tree5indexNtB5_10BTreeIndex13insert_unique
FNDA:0,_RNvMs3_NtNtCsl9zPO89iGuX_17sqlrustgo_storage10bplus_tree5indexNtB5_10BTreeIndex15search_node_all
FNDA:0,_RNvMs3_NtNtCsl9zPO89iGuX_17sqlrustgo_storage10bplus_tree5indexNtB5_10BTreeIndex16delete_from_node
FNDA:0,_RNvMs3_NtNtCsl9zPO89iGuX_17sqlrustgo_storage10bplus_tree5indexNtB5_10BTreeIndex16insert_into_node
FNDA:0,_RNvMs3_NtNtCsl9zPO89iGuX_17sqlrustgo_storage10bplus_tree5indexNtB5_10BTreeIndex16range_query_leaf
FNDA:0,_RNvMs3_NtNtCsl9zPO89iGuX_17sqlrustgo_storage10bplus_tree5indexNtB5_10BTreeIndex17collect_keys_leaf
FNDA:0,_RNvMs3_NtNtCsl9zPO89iGuX_17sqlrustgo_storage10bplus_tree5indexNtB5_10BTreeIndex20estimate_cardinality
FNDA:0,_RNvMs3_NtNtCsl9zPO89iGuX_17sqlrustgo_storage10bplus_tree5indexNtB5_10BTreeIndex3len
FNDA:0,_RNvMs3_NtNtCsl9zPO89iGuX_17sqlrustgo_storage10bplus_tree5indexNtB5_10BTreeIndex3new
FNDA:0,_RNvMs3_NtNtCsl9zPO89iGuX_17sqlrustgo_storage10bplus_tree5indexNtB5_10BTreeIndex4keys
FNDA:0,_RNvMs3_NtNtCsl9zPO89iGuX_17sqlrustgo_storage10bplus_tree5indexNtB5_10BTreeIndex6delete
FNDA:0,_RNvMs3_NtNtCsl9zPO89iGuX_17sqlrustgo_storage10bplus_tree5indexNtB5_10BTreeIndex6height
FNDA:0,_RNvMs3_NtNtCsl9zPO89iGuX_17sqlrustgo_storage10bplus_tree5indexNtB5_10BTreeIndex6insert
FNDA:0,_RNvMs3_NtNtCsl9zPO89iGuX_17sqlrustgo_storage10bplus_tree5indexNtB5_10BTreeIndex6search
FNDA:0,_RNvMs3_NtNtCsl9zPO89iGuX_17sqlrustgo_storage10bplus_tree5indexNtB5_10BTreeIndex8is_dirty
FNDA:0,_RNvMs3_NtNtCsl9zPO89iGuX_17sqlrustgo_storage10bplus_tree5indexNtB5_10BTreeIndex8is_empty
FNDA:0,_RNvMs3_NtNtCsl9zPO89iGuX_17sqlrustgo_storage10bplus_tree5indexNtB5_10BTreeIndex9is_unique
FNDA:0,_RNvMs5_NtNtCsl9zPO89iGuX_17sqlrustgo_storage10bplus_tree5indexNtB5_19CompositeBTreeIndex10mark_dirty
FNDA:0,_RNvMs5_NtNtCsl9zPO89iGuX_17sqlrustgo_storage10bplus_tree5indexNtB5_19CompositeBTreeIndex11num_columns
FNDA:0,_RNvMs5_NtNtCsl9zPO89iGuX_17sqlrustgo_storage10bplus_tree5indexNtB5_19CompositeBTreeIndex11range_query
FNDA:0,_RNvMs5_NtNtCsl9zPO89iGuX_17sqlrustgo_storage10bplus_tree5indexNtB5_19CompositeBTreeIndex11search_node
FNDA:0,_RNvMs5_NtNtCsl9zPO89iGuX_17sqlrustgo_storage10bplus_tree5indexNtB5_19CompositeBTreeIndex13allocate_node
FNDA:0,_RNvMs5_NtNtCsl9zPO89iGuX_17sqlrustgo_storage10bplus_tree5indexNtB5_19CompositeBTreeIndex13from_metadata
FNDA:0,_RNvMs5_NtNtCsl9zPO89iGuX_17sqlrustgo_storage10bplus_tree5indexNtB5_19CompositeBTreeIndex16insert_into_node
FNDA:0,_RNvMs5_NtNtCsl9zPO89iGuX_17sqlrustgo_storage10bplus_tree5indexNtB5_19CompositeBTreeIndex16range_query_leaf
FNDA:0,_RNvMs5_NtNtCsl9zPO89iGuX_17sqlrustgo_storage10bplus_tree5indexNtB5_19CompositeBTreeIndex20encode_composite_key
FNDA:0,_RNvMs5_NtNtCsl9zPO89iGuX_17sqlrustgo_storage10bplus_tree5indexNtB5_19CompositeBTreeIndex3len
FNDA:0,_RNvMs5_NtNtCsl9zPO89iGuX_17sqlrustgo_storage10bplus_tree5indexNtB5_19CompositeBTreeIndex3new
FNDA:0,_RNvMs5_NtNtCsl9zPO89iGuX_17sqlrustgo_storage10bplus_tree5indexNtB5_19CompositeBTreeIndex6insert
FNDA:0,_RNvMs5_NtNtCsl9zPO89iGuX_17sqlrustgo_storage10bplus_tree5indexNtB5_19CompositeBTreeIndex6search
FNDA:0,_RNvMs5_NtNtCsl9zPO89iGuX_17sqlrustgo_storage10bplus_tree5indexNtB5_19CompositeBTreeIndex8is_dirty
FNDA:0,_RNvMs5_NtNtCsl9zPO89iGuX_17sqlrustgo_storage10bplus_tree5indexNtB5_19CompositeBTreeIndex8is_empty
FNDA:0,_RNvMs8_NtNtCsl9zPO89iGuX_17sqlrustgo_storage10bplus_tree5indexNtB5_16FullTextMetadata3new
FNDA:0,_RNvMs9_NtNtCsl9zPO89iGuX_17sqlrustgo_storage10bplus_tree5indexNtB5_11PostingList10add_doc_id
FNDA:0,_RNvMs9_NtNtCsl9zPO89iGuX_17sqlrustgo_storage10bplus_tree5indexNtB5_11PostingList13with_capacity
FNDA:0,_RNvMs9_NtNtCsl9zPO89iGuX_17sqlrustgo_storage10bplus_tree5indexNtB5_11PostingList3new
FNDA:0,_RNvMs9_NtNtCsl9zPO89iGuX_17sqlrustgo_storage10bplus_tree5indexNtB5_11PostingList8contains
FNDA:0,_RNvMsb_NtNtCsl9zPO89iGuX_17sqlrustgo_storage10bplus_tree5indexNtB5_13FullTextIndex10is_deleted
FNDA:0,_RNvMsb_NtNtCsl9zPO89iGuX_17sqlrustgo_storage10bplus_tree5indexNtB5_13FullTextIndex13num_documents
FNDA:0,_RNvMsb_NtNtCsl9zPO89iGuX_17sqlrustgo_storage10bplus_tree5indexNtB5_13FullTextIndex14filter_deleted
FNDA:0,_RNvMsb_NtNtCsl9zPO89iGuX_17sqlrustgo_storage10bplus_tree5indexNtB5_13FullTextIndex14term_frequency
FNDA:0,_RNvMsb_NtNtCsl9zPO89iGuX_17sqlrustgo_storage10bplus_tree5indexNtB5_13FullTextIndex3new
FNDA:0,_RNvMsb_NtNtCsl9zPO89iGuX_17sqlrustgo_storage10bplus_tree5indexNtB5_13FullTextIndex5terms
FNDA:0,_RNvMsb_NtNtCsl9zPO89iGuX_17sqlrustgo_storage10bplus_tree5indexNtB5_13FullTextIndex6delete
FNDA:0,_RNvMsb_NtNtCsl9zPO89iGuX_17sqlrustgo_storage10bplus_tree5indexNtB5_13FullTextIndex6insert
FNDA:0,_RNvMsb_NtNtCsl9zPO89iGuX_17sqlrustgo_storage10bplus_tree5indexNtB5_13FullTextIndex6search
FNDA:0,_RNvMsb_NtNtCsl9zPO89iGuX_17sqlrustgo_storage10bplus_tree5indexNtB5_13FullTextIndex8is_dirty
FNDA:0,_RNvMsb_NtNtCsl9zPO89iGuX_17sqlrustgo_storage10bplus_tree5indexNtB5_13FullTextIndex8is_empty
FNDA:0,_RNvMsb_NtNtCsl9zPO89iGuX_17sqlrustgo_storage10bplus_tree5indexNtB5_13FullTextIndex8tokenize
FNDA:0,_RNvMsb_NtNtCsl9zPO89iGuX_17sqlrustgo_storage10bplus_tree5indexNtB5_13FullTextIndex9intersect
FNDA:0,_RNvMsb_NtNtCsl9zPO89iGuX_17sqlrustgo_storage10bplus_tree5indexNtB5_13FullTextIndex9num_terms
FNDA:0,_RNvNtNtCsl9zPO89iGuX_17sqlrustgo_storage10bplus_tree5index14compare_values
FNDA:0,_RNvNtNtCsl9zPO89iGuX_17sqlrustgo_storage10bplus_tree5index14serialize_node
FNDA:0,_RNvNtNtCsl9zPO89iGuX_17sqlrustgo_storage10bplus_tree5index16deserialize_node
FNDA:0,_RNvNvNtNtCsl9zPO89iGuX_17sqlrustgo_storage10bplus_tree5index14compare_values10type_order
FNDA:0,_RNvXs0_NtNtCsl9zPO89iGuX_17sqlrustgo_storage10bplus_tree5indexNtB5_12CompositeKeyNtNtCs8nPosuWgJFh_4core3cmp3Ord3cmp
FNDA:0,_RNvXs4_NtNtCsl9zPO89iGuX_17sqlrustgo_storage10bplus_tree5indexNtB5_10BTreeIndexNtNtCs8nPosuWgJFh_4core7default7Default7default
FNDA:0,_RNvXs6_NtNtCsl9zPO89iGuX_17sqlrustgo_storage10bplus_tree5indexNtB5_19CompositeBTreeIndexNtNtCs8nPosuWgJFh_4core7default7Default7default
FNDA:0,_RNvXs7_NtNtCsl9zPO89iGuX_17sqlrustgo_storage10bplus_tree5indexNtB5_16FullTextMetadataNtNtCs8nPosuWgJFh_4core7default7Default7default
FNDA:0,_RNvXs_NtNtCsl9zPO89iGuX_17sqlrustgo_storage10bplus_tree5indexNtB4_12CompositeKeyNtNtCs8nPosuWgJFh_4core3cmp10PartialOrd11partial_cmp
FNDA:0,_RNvXsa_NtNtCsl9zPO89iGuX_17sqlrustgo_storage10bplus_tree5indexNtB5_11PostingListNtNtCs8nPosuWgJFh_4core7default7Default7default
FNDA:0,_RNCNvMNtNtCsl9zPO89iGuX_17sqlrustgo_storage10bplus_tree5indexNtB4_12CompositeKey8from_row0B8_
FNDA:0,_RNCNvMsb_NtNtCsl9zPO89iGuX_17sqlrustgo_storage10bplus_tree5indexNtB7_13FullTextIndex14filter_deleted0Bb_
FNDA:0,_RNCNvMsb_NtNtCsl9zPO89iGuX_17sqlrustgo_storage10bplus_tree5indexNtB7_13FullTextIndex14term_frequency0Bb_
FNDA:0,_RNCNvMsb_NtNtCsl9zPO89iGuX_17sqlrustgo_storage10bplus_tree5indexNtB7_13FullTextIndex6search0Bb_
FNDA:0,_RNCNvMsb_NtNtCsl9zPO89iGuX_17sqlrustgo_storage10bplus_tree5indexNtB7_13FullTextIndex8tokenize0Bb_
FNDA:0,_RNCNvMsb_NtNtCsl9zPO89iGuX_17sqlrustgo_storage10bplus_tree5indexNtB7_13FullTextIndex8tokenizes0_0Bb_
FNDA:0,_RNCNvMsb_NtNtCsl9zPO89iGuX_17sqlrustgo_storage10bplus_tree5indexNtB7_13FullTextIndex8tokenizes_0Bb_
FNDA:2,_RNCNvNtNtNtCsgGnK47HN26N_17sqlrustgo_storage10bplus_tree5index20covering_index_testss_25test_covering_index_check0B9_
FNDA:2,_RNCNvNtNtNtCsgGnK47HN26N_17sqlrustgo_storage10bplus_tree5index20covering_index_testss_29test_non_covering_index_check0B9_
FNDA:0,_RNvMNtNtCsgGnK47HN26N_17sqlrustgo_storage10bplus_tree5indexNtB2_12CompositeKey8is_empty
FNDA:0,_RNvMs1_NtNtCsgGnK47HN26N_17sqlrustgo_storage10bplus_tree5indexNtB5_9BTreeNode15find_all_values
FNDA:0,_RNvMs2_NtNtCsgGnK47HN26N_17sqlrustgo_storage10bplus_tree5indexNtB5_10IndexStats3new
FNDA:0,_RNvMs3_NtNtCsgGnK47HN26N_17sqlrustgo_storage10bplus_tree5indexNtB5_10BTreeIndex10mark_dirty
FNDA:0,_RNvMs3_NtNtCsgGnK47HN26N_17sqlrustgo_storage10bplus_tree5indexNtB5_10BTreeIndex10search_all
FNDA:0,_RNvMs3_NtNtCsgGnK47HN26N_17sqlrustgo_storage10bplus_tree5indexNtB5_10BTreeIndex10set_unique
FNDA:0,_RNvMs3_NtNtCsgGnK47HN26N_17sqlrustgo_storage10bplus_tree5indexNtB5_10BTreeIndex13from_metadata
FNDA:0,_RNvMs3_NtNtCsgGnK47HN26N_17sqlrustgo_storage10bplus_tree5indexNtB5_10BTreeIndex13insert_unique
FNDA:0,_RNvMs3_NtNtCsgGnK47HN26N_17sqlrustgo_storage10bplus_tree5indexNtB5_10BTreeIndex15search_node_all
FNDA:0,_RNvMs3_NtNtCsgGnK47HN26N_17sqlrustgo_storage10bplus_tree5indexNtB5_10BTreeIndex8is_dirty
FNDA:0,_RNvMs3_NtNtCsgGnK47HN26N_17sqlrustgo_storage10bplus_tree5indexNtB5_10BTreeIndex9is_unique
FNDA:0,_RNvMs5_NtNtCsgGnK47HN26N_17sqlrustgo_storage10bplus_tree5indexNtB5_19CompositeBTreeIndex10mark_dirty
FNDA:0,_RNvMs5_NtNtCsgGnK47HN26N_17sqlrustgo_storage10bplus_tree5indexNtB5_19CompositeBTreeIndex13from_metadata
FNDA:0,_RNvMs5_NtNtCsgGnK47HN26N_17sqlrustgo_storage10bplus_tree5indexNtB5_19CompositeBTreeIndex8is_dirty
FNDA:0,_RNvMs5_NtNtCsgGnK47HN26N_17sqlrustgo_storage10bplus_tree5indexNtB5_19CompositeBTreeIndex8is_empty
FNDA:0,_RNvMs9_NtNtCsgGnK47HN26N_17sqlrustgo_storage10bplus_tree5indexNtB5_11PostingList13with_capacity
FNDA:0,_RNvMsb_NtNtCsgGnK47HN26N_17sqlrustgo_storage10bplus_tree5indexNtB5_13FullTextIndex8is_dirty
FNDA:0,_RNvNtNtCsgGnK47HN26N_17sqlrustgo_storage10bplus_tree5index14compare_values
FNDA:0,_RNvNvNtNtCsgGnK47HN26N_17sqlrustgo_storage10bplus_tree5index14compare_values10type_order
FNDA:0,_RNvXs0_NtNtCsgGnK47HN26N_17sqlrustgo_storage10bplus_tree5indexNtB5_12CompositeKeyNtNtCs8nPosuWgJFh_4core3cmp3Ord3cmp
FNDA:0,_RNvXs4_NtNtCsgGnK47HN26N_17sqlrustgo_storage10bplus_tree5indexNtB5_10BTreeIndexNtNtCs8nPosuWgJFh_4core7default7Default7default
FNDA:0,_RNvXs6_NtNtCsgGnK47HN26N_17sqlrustgo_storage10bplus_tree5indexNtB5_19CompositeBTreeIndexNtNtCs8nPosuWgJFh_4core7default7Default7default
FNDA:0,_RNvXs7_NtNtCsgGnK47HN26N_17sqlrustgo_storage10bplus_tree5indexNtB5_16FullTextMetadataNtNtCs8nPosuWgJFh_4core7default7Default7default
FNDA:0,_RNvXs_NtNtCsgGnK47HN26N_17sqlrustgo_storage10bplus_tree5indexNtB4_12CompositeKeyNtNtCs8nPosuWgJFh_4core3cmp10PartialOrd11partial_cmp
FNDA:1,_RNvNtNtNtCsgGnK47HN26N_17sqlrustgo_storage10bplus_tree5index21index_selection_testss_25test_best_index_selection
FNDA:1,_RNvNtNtNtCsgGnK47HN26N_17sqlrustgo_storage10bplus_tree5index21index_selection_testss_28test_selectivity_calculation
FNDA:1,_RNvNtNtNtCsgGnK47HN26N_17sqlrustgo_storage10bplus_tree5index20covering_index_testss_25test_covering_index_check
FNDA:1,_RNvNtNtNtCsgGnK47HN26N_17sqlrustgo_storage10bplus_tree5index20covering_index_testss_29test_index_only_scan_decision
FNDA:1,_RNvNtNtNtCsgGnK47HN26N_17sqlrustgo_storage10bplus_tree5index20covering_index_testss_29test_non_covering_index_check
FNDA:1,_RNvNtNtNtCsgGnK47HN26N_17sqlrustgo_storage10bplus_tree5index21composite_index_testss_27test_composite_key_creation
FNDA:1,_RNvNtNtNtCsgGnK47HN26N_17sqlrustgo_storage10bplus_tree5index21composite_index_testss_27test_composite_key_equality
FNDA:1,_RNvNtNtNtCsgGnK47HN26N_17sqlrustgo_storage10bplus_tree5index21composite_index_testss_28test_index_stats_selectivity
FNDA:1,_RNvNtNtNtCsgGnK47HN26N_17sqlrustgo_storage10bplus_tree5index21composite_index_testss_29test_composite_key_from_slice
FNDA:1,_RNvNtNtNtCsgGnK47HN26N_17sqlrustgo_storage10bplus_tree5index21composite_index_testss_38test_composite_btree_insert_and_search
FNDA:2,_RNvMNtNtCsgGnK47HN26N_17sqlrustgo_storage10bplus_tree5indexNtB2_12CompositeKey10from_slice
FNDA:16,_RNvMNtNtCsgGnK47HN26N_17sqlrustgo_storage10bplus_tree5indexNtB2_12CompositeKey3new
FNDA:0,_RNvMNtNtCsgGnK47HN26N_17sqlrustgo_storage10bplus_tree5indexNtB2_12CompositeKey8from_row
FNDA:6,_RNvMs1_NtNtCsgGnK47HN26N_17sqlrustgo_storage10bplus_tree5indexNtB5_9BTreeNode10remove_key
FNDA:3,_RNvMs1_NtNtCsgGnK47HN26N_17sqlrustgo_storage10bplus_tree5indexNtB5_9BTreeNode12new_internal
FNDA:19,_RNvMs1_NtNtCsgGnK47HN26N_17sqlrustgo_storage10bplus_tree5indexNtB5_9BTreeNode14find_key_index
FNDA:3,_RNvMs1_NtNtCsgGnK47HN26N_17sqlrustgo_storage10bplus_tree5indexNtB5_9BTreeNode16find_child_index
FNDA:184,_RNvMs1_NtNtCsgGnK47HN26N_17sqlrustgo_storage10bplus_tree5indexNtB5_9BTreeNode16insert_key_value
FNDA:185,_RNvMs1_NtNtCsgGnK47HN26N_17sqlrustgo_storage10bplus_tree5indexNtB5_9BTreeNode7is_full
FNDA:31,_RNvMs1_NtNtCsgGnK47HN26N_17sqlrustgo_storage10bplus_tree5indexNtB5_9BTreeNode8new_leaf
FNDA:1,_RNvMs1_NtNtCsgGnK47HN26N_17sqlrustgo_storage10bplus_tree5indexNtB5_9BTreeNode9can_split
FNDA:184,_RNvMs1_NtNtCsgGnK47HN26N_17sqlrustgo_storage10bplus_tree5indexNtB5_9BTreeNode9insert_at
FNDA:4,_RNvMs2_NtNtCsgGnK47HN26N_17sqlrustgo_storage10bplus_tree5indexNtB5_10IndexStats11selectivity
FNDA:3,_RNvMs3_NtNtCsgGnK47HN26N_17sqlrustgo_storage10bplus_tree5indexNtB5_10BTreeIndex11range_query
FNDA:8,_RNvMs3_NtNtCsgGnK47HN26N_17sqlrustgo_storage10bplus_tree5indexNtB5_10BTreeIndex11search_node
FNDA:1,_RNvMs3_NtNtCsgGnK47HN26N_17sqlrustgo_storage10bplus_tree5indexNtB5_10BTreeIndex11usage_stats
FNDA:14,_RNvMs3_NtNtCsgGnK47HN26N_17sqlrustgo_storage10bplus_tree5indexNtB5_10BTreeIndex13allocate_node
FNDA:3,_RNvMs3_NtNtCsgGnK47HN26N_17sqlrustgo_storage10bplus_tree5indexNtB5_10BTreeIndex13collect_stats
FNDA:4,_RNvMs3_NtNtCsgGnK47HN26N_17sqlrustgo_storage10bplus_tree5indexNtB5_10BTreeIndex16delete_from_node
FNDA:179,_RNvMs3_NtNtCsgGnK47HN26N_17sqlrustgo_storage10bplus_tree5indexNtB5_10BTreeIndex16insert_into_node
FNDA:2,_RNvMs3_NtNtCsgGnK47HN26N_17sqlrustgo_storage10bplus_tree5indexNtB5_10BTreeIndex16range_query_leaf
FNDA:2,_RNvMs3_NtNtCsgGnK47HN26N_17sqlrustgo_storage10bplus_tree5indexNtB5_10BTreeIndex17collect_keys_leaf
FNDA:3,_RNvMs3_NtNtCsgGnK47HN26N_17sqlrustgo_storage10bplus_tree5indexNtB5_10BTreeIndex20estimate_cardinality
FNDA:10,_RNvMs3_NtNtCsgGnK47HN26N_17sqlrustgo_storage10bplus_tree5indexNtB5_10BTreeIndex3len
FNDA:19,_RNvMs3_NtNtCsgGnK47HN26N_17sqlrustgo_storage10bplus_tree5indexNtB5_10BTreeIndex3new
FNDA:2,_RNvMs3_NtNtCsgGnK47HN26N_17sqlrustgo_storage10bplus_tree5indexNtB5_10BTreeIndex4keys
FNDA:4,_RNvMs3_NtNtCsgGnK47HN26N_17sqlrustgo_storage10bplus_tree5indexNtB5_10BTreeIndex6delete
FNDA:2,_RNvMs3_NtNtCsgGnK47HN26N_17sqlrustgo_storage10bplus_tree5indexNtB5_10BTreeIndex6height
FNDA:193,_RNvMs3_NtNtCsgGnK47HN26N_17sqlrustgo_storage10bplus_tree5indexNtB5_10BTreeIndex6insert
FNDA:9,_RNvMs3_NtNtCsgGnK47HN26N_17sqlrustgo_storage10bplus_tree5indexNtB5_10BTreeIndex6search
FNDA:3,_RNvMs3_NtNtCsgGnK47HN26N_17sqlrustgo_storage10bplus_tree5indexNtB5_10BTreeIndex8is_empty
FNDA:1,_RNvMs5_NtNtCsgGnK47HN26N_17sqlrustgo_storage10bplus_tree5indexNtB5_19CompositeBTreeIndex11num_columns
FNDA:1,_RNvMs5_NtNtCsgGnK47HN26N_17sqlrustgo_storage10bplus_tree5indexNtB5_19CompositeBTreeIndex11range_query
FNDA:2,_RNvMs5_NtNtCsgGnK47HN26N_17sqlrustgo_storage10bplus_tree5indexNtB5_19CompositeBTreeIndex11search_node
FNDA:4,_RNvMs5_NtNtCsgGnK47HN26N_17sqlrustgo_storage10bplus_tree5indexNtB5_19CompositeBTreeIndex13allocate_node
FNDA:3,_RNvMs5_NtNtCsgGnK47HN26N_17sqlrustgo_storage10bplus_tree5indexNtB5_19CompositeBTreeIndex16insert_into_node
FNDA:1,_RNvMs5_NtNtCsgGnK47HN26N_17sqlrustgo_storage10bplus_tree5indexNtB5_19CompositeBTreeIndex16range_query_leaf
FNDA:11,_RNvMs5_NtNtCsgGnK47HN26N_17sqlrustgo_storage10bplus_tree5indexNtB5_19CompositeBTreeIndex20encode_composite_key
FNDA:1,_RNvMs5_NtNtCsgGnK47HN26N_17sqlrustgo_storage10bplus_tree5indexNtB5_19CompositeBTreeIndex3len
FNDA:6,_RNvMs5_NtNtCsgGnK47HN26N_17sqlrustgo_storage10bplus_tree5indexNtB5_19CompositeBTreeIndex3new
FNDA:7,_RNvMs5_NtNtCsgGnK47HN26N_17sqlrustgo_storage10bplus_tree5indexNtB5_19CompositeBTreeIndex6insert
FNDA:2,_RNvMs5_NtNtCsgGnK47HN26N_17sqlrustgo_storage10bplus_tree5indexNtB5_19CompositeBTreeIndex6search
FNDA:12,_RNvMs8_NtNtCsgGnK47HN26N_17sqlrustgo_storage10bplus_tree5indexNtB5_16FullTextMetadata3new
FNDA:55,_RNvMs9_NtNtCsgGnK47HN26N_17sqlrustgo_storage10bplus_tree5indexNtB5_11PostingList10add_doc_id
FNDA:36,_RNvMs9_NtNtCsgGnK47HN26N_17sqlrustgo_storage10bplus_tree5indexNtB5_11PostingList3new
FNDA:3,_RNvMs9_NtNtCsgGnK47HN26N_17sqlrustgo_storage10bplus_tree5indexNtB5_11PostingList8contains
FNDA:8,_RNvMsb_NtNtCsgGnK47HN26N_17sqlrustgo_storage10bplus_tree5indexNtB5_13FullTextIndex10is_deleted
FNDA:2,_RNvMsb_NtNtCsgGnK47HN26N_17sqlrustgo_storage10bplus_tree5indexNtB5_13FullTextIndex13num_documents
FNDA:5,_RNvMsb_NtNtCsgGnK47HN26N_17sqlrustgo_storage10bplus_tree5indexNtB5_13FullTextIndex14filter_deleted
FNDA:4,_RNvMsb_NtNtCsgGnK47HN26N_17sqlrustgo_storage10bplus_tree5indexNtB5_13FullTextIndex14term_frequency
FNDA:12,_RNvMsb_NtNtCsgGnK47HN26N_17sqlrustgo_storage10bplus_tree5indexNtB5_13FullTextIndex3new
FNDA:1,_RNvMsb_NtNtCsgGnK47HN26N_17sqlrustgo_storage10bplus_tree5indexNtB5_13FullTextIndex5terms
FNDA:1,_RNvMsb_NtNtCsgGnK47HN26N_17sqlrustgo_storage10bplus_tree5indexNtB5_13FullTextIndex6delete
FNDA:22,_RNvMsb_NtNtCsgGnK47HN26N_17sqlrustgo_storage10bplus_tree5indexNtB5_13FullTextIndex6insert
FNDA:6,_RNvMsb_NtNtCsgGnK47HN26N_17sqlrustgo_storage10bplus_tree5indexNtB5_13FullTextIndex6search
FNDA:3,_RNvMsb_NtNtCsgGnK47HN26N_17sqlrustgo_storage10bplus_tree5indexNtB5_13FullTextIndex8is_empty
FNDA:32,_RNvMsb_NtNtCsgGnK47HN26N_17sqlrustgo_storage10bplus_tree5indexNtB5_13FullTextIndex8tokenize
FNDA:4,_RNvMsb_NtNtCsgGnK47HN26N_17sqlrustgo_storage10bplus_tree5indexNtB5_13FullTextIndex9intersect
FNDA:2,_RNvMsb_NtNtCsgGnK47HN26N_17sqlrustgo_storage10bplus_tree5indexNtB5_13FullTextIndex9num_terms
FNDA:3,_RNvNtNtCsgGnK47HN26N_17sqlrustgo_storage10bplus_tree5index14serialize_node
FNDA:4,_RNvNtNtCsgGnK47HN26N_17sqlrustgo_storage10bplus_tree5index16deserialize_node
FNDA:34,_RNvXsa_NtNtCsgGnK47HN26N_17sqlrustgo_storage10bplus_tree5indexNtB5_11PostingListNtNtCs8nPosuWgJFh_4core7default7Default7default
FNDA:1,_RNvNtNtNtCsgGnK47HN26N_17sqlrustgo_storage10bplus_tree5index5testss_14test_fts_terms
FNDA:1,_RNvNtNtNtCsgGnK47HN26N_17sqlrustgo_storage10bplus_tree5index5testss_15test_fts_insert
FNDA:1,_RNvNtNtNtCsgGnK47HN26N_17sqlrustgo_storage10bplus_tree5index5testss_17test_fts_tokenize
FNDA:1,_RNvNtNtNtCsgGnK47HN26N_17sqlrustgo_storage10bplus_tree5index5testss_17test_node_is_full
FNDA:1,_RNvNtNtNtCsgGnK47HN26N_17sqlrustgo_storage10bplus_tree5index5testss_18test_fts_index_new
FNDA:1,_RNvNtNtNtCsgGnK47HN26N_17sqlrustgo_storage10bplus_tree5index5testss_18test_fts_intersect
FNDA:1,_RNvNtNtNtCsgGnK47HN26N_17sqlrustgo_storage10bplus_tree5index5testss_19test_fts_search_and
FNDA:1,_RNvNtNtNtCsgGnK47HN26N_17sqlrustgo_storage10bplus_tree5index5testss_19test_node_can_split
FNDA:1,_RNvNtNtNtCsgGnK47HN26N_17sqlrustgo_storage10bplus_tree5index5testss_20test_btree_index_len
FNDA:1,_RNvNtNtNtCsgGnK47HN26N_17sqlrustgo_storage10bplus_tree5index5testss_20test_btree_index_new
FNDA:1,_RNvNtNtNtCsgGnK47HN26N_17sqlrustgo_storage10bplus_tree5index5testss_20test_fts_delete_lazy
FNDA:1,_RNvNtNtNtCsgGnK47HN26N_17sqlrustgo_storage10bplus_tree5index5testss_21test_btree_index_keys
FNDA:1,_RNvNtNtNtCsgGnK47HN26N_17sqlrustgo_storage10bplus_tree5index5testss_22test_fts_complex_query
FNDA:1,_RNvNtNtNtCsgGnK47HN26N_17sqlrustgo_storage10bplus_tree5index5testss_23test_btree_index_delete
FNDA:1,_RNvNtNtNtCsgGnK47HN26N_17sqlrustgo_storage10bplus_tree5index5testss_23test_btree_index_height
FNDA:1,_RNvNtNtNtCsgGnK47HN26N_17sqlrustgo_storage10bplus_tree5index5testss_23test_btree_index_insert
FNDA:1,_RNvNtNtNtCsgGnK47HN26N_17sqlrustgo_storage10bplus_tree5index5testss_23test_fts_index_contains
FNDA:1,_RNvNtNtNtCsgGnK47HN26N_17sqlrustgo_storage10bplus_tree5index5testss_23test_fts_index_is_empty
FNDA:1,_RNvNtNtNtCsgGnK47HN26N_17sqlrustgo_storage10bplus_tree5index5testss_23test_fts_term_frequency
FNDA:1,_RNvNtNtNtCsgGnK47HN26N_17sqlrustgo_storage10bplus_tree5index5testss_23test_node_serialization
FNDA:1,_RNvNtNtNtCsgGnK47HN26N_17sqlrustgo_storage10bplus_tree5index5testss_24test_fts_search_no_match
FNDA:1,_RNvNtNtNtCsgGnK47HN26N_17sqlrustgo_storage10bplus_tree5index5testss_24test_index_stats_default
FNDA:1,_RNvNtNtNtCsgGnK47HN26N_17sqlrustgo_storage10bplus_tree5index5testss_24test_node_find_key_index
FNDA:1,_RNvNtNtNtCsgGnK47HN26N_17sqlrustgo_storage10bplus_tree5index5testss_25test_btree_index_is_empty
FNDA:1,_RNvNtNtNtCsgGnK47HN26N_17sqlrustgo_storage10bplus_tree5index5testss_25test_fts_tokenize_chinese
FNDA:1,_RNvNtNtNtCsgGnK47HN26N_17sqlrustgo_storage10bplus_tree5index5testss_26test_btree_node_remove_key
FNDA:1,_RNvNtNtNtCsgGnK47HN26N_17sqlrustgo_storage10bplus_tree5index5testss_26test_node_find_child_index
FNDA:1,_RNvNtNtNtCsgGnK47HN26N_17sqlrustgo_storage10bplus_tree5index5testss_26test_posting_list_contains
FNDA:1,_RNvNtNtNtCsgGnK47HN26N_17sqlrustgo_storage10bplus_tree5index5testss_27test_btree_metadata_default
FNDA:1,_RNvNtNtNtCsgGnK47HN26N_17sqlrustgo_storage10bplus_tree5index5testss_27test_btree_search_not_found
FNDA:1,_RNvNtNtNtCsgGnK47HN26N_17sqlrustgo_storage10bplus_tree5index5testss_27test_composite_key_creation
FNDA:1,_RNvNtNtNtCsgGnK47HN26N_17sqlrustgo_storage10bplus_tree5index5testss_27test_fts_search_single_term
FNDA:1,_RNvNtNtNtCsgGnK47HN26N_17sqlrustgo_storage10bplus_tree5index5testss_28test_btree_index_keys_sorted
FNDA:1,_RNvNtNtNtCsgGnK47HN26N_17sqlrustgo_storage10bplus_tree5index5testss_28test_btree_index_range_query
FNDA:1,_RNvNtNtNtCsgGnK47HN26N_17sqlrustgo_storage10bplus_tree5index5testss_28test_btree_index_usage_stats
FNDA:1,_RNvNtNtNtCsgGnK47HN26N_17sqlrustgo_storage10bplus_tree5index5testss_28test_btree_range_query_empty
FNDA:1,_RNvNtNtNtCsgGnK47HN26N_17sqlrustgo_storage10bplus_tree5index5testss_28test_fts_posting_list_sorted
FNDA:1,_RNvNtNtNtCsgGnK47HN26N_17sqlrustgo_storage10bplus_tree5index5testss_28test_index_stats_selectivity
FNDA:1,_RNvNtNtNtCsgGnK47HN26N_17sqlrustgo_storage10bplus_tree5index5testss_29test_btree_index_search_empty
FNDA:1,_RNvNtNtNtCsgGnK47HN26N_17sqlrustgo_storage10bplus_tree5index5testss_29test_composite_key_from_slice
FNDA:1,_RNvNtNtNtCsgGnK47HN26N_17sqlrustgo_storage10bplus_tree5index5testss_29test_deserialize_invalid_data
FNDA:1,_RNvNtNtNtCsgGnK47HN26N_17sqlrustgo_storage10bplus_tree5index5testss_29test_fts_intersect_no_overlap
FNDA:1,_RNvNtNtNtCsgGnK47HN26N_17sqlrustgo_storage10bplus_tree5index5testss_29test_fts_tokenize_punctuation
FNDA:1,_RNvNtNtNtCsgGnK47HN26N_17sqlrustgo_storage10bplus_tree5index5testss_29test_fts_tokenize_short_words
FNDA:1,_RNvNtNtNtCsgGnK47HN26N_17sqlrustgo_storage10bplus_tree5index5testss_30test_btree_index_collect_stats
FNDA:1,_RNvNtNtNtCsgGnK47HN26N_17sqlrustgo_storage10bplus_tree5index5testss_30test_btree_range_query_partial
FNDA:1,_RNvNtNtNtCsgGnK47HN26N_17sqlrustgo_storage10bplus_tree5index5testss_32test_btree_index_delete_multiple
FNDA:1,_RNvNtNtNtCsgGnK47HN26N_17sqlrustgo_storage10bplus_tree5index5testss_32test_btree_index_insert_multiple
FNDA:1,_RNvNtNtNtCsgGnK47HN26N_17sqlrustgo_storage10bplus_tree5index5testss_32test_btree_node_insert_key_value
FNDA:1,_RNvNtNtNtCsgGnK47HN26N_17sqlrustgo_storage10bplus_tree5index5testss_32test_fts_search_case_insensitive
FNDA:1,_RNvNtNtNtCsgGnK47HN26N_17sqlrustgo_storage10bplus_tree5index5testss_32test_internal_node_serialization
FNDA:1,_RNvNtNtNtCsgGnK47HN26N_17sqlrustgo_storage10bplus_tree5index5testss_33test_composite_btree_index_insert
FNDA:1,_RNvNtNtNtCsgGnK47HN26N_17sqlrustgo_storage10bplus_tree5index5testss_33test_composite_btree_index_search
FNDA:1,_RNvNtNtNtCsgGnK47HN26N_17sqlrustgo_storage10bplus_tree5index5testss_34test_index_stats_selectivity_empty
FNDA:1,_RNvNtNtNtCsgGnK47HN26N_17sqlrustgo_storage10bplus_tree5index5testss_36test_btree_index_collect_stats_empty
FNDA:1,_RNvNtNtNtCsgGnK47HN26N_17sqlrustgo_storage10bplus_tree5index5testss_36test_btree_index_search_after_insert
FNDA:1,_RNvNtNtNtCsgGnK47HN26N_17sqlrustgo_storage10bplus_tree5index5testss_36test_btree_node_remove_key_not_found
FNDA:1,_RNvNtNtNtCsgGnK47HN26N_17sqlrustgo_storage10bplus_tree5index5testss_36test_index_stats_selectivity_clamped
FNDA:1,_RNvNtNtNtCsgGnK47HN26N_17sqlrustgo_storage10bplus_tree5index5testss_37test_serialize_deserialize_empty_node
FNDA:1,_RNvNtNtNtCsgGnK47HN26N_17sqlrustgo_storage10bplus_tree5index5testss_38test_btree_node_insert_key_value_split
FNDA:1,_RNvNtNtNtCsgGnK47HN26N_17sqlrustgo_storage10bplus_tree5index5testss_38test_composite_btree_index_num_columns
FNDA:1,_RNvNtNtNtCsgGnK47HN26N_17sqlrustgo_storage10bplus_tree5index5testss_38test_composite_btree_index_range_query
FNDA:1,_RNvNtNtNtCsgGnK47HN26N_17sqlrustgo_storage10bplus_tree5index5testss_40test_composite_btree_index_insert_unique
FNDA:0,_RNCNvMNtNtCsgGnK47HN26N_17sqlrustgo_storage10bplus_tree5indexNtB4_12CompositeKey8from_row0B8_
FNDA:8,_RNCNvMsb_NtNtCsgGnK47HN26N_17sqlrustgo_storage10bplus_tree5indexNtB7_13FullTextIndex14filter_deleted0Bb_
FNDA:3,_RNCNvMsb_NtNtCsgGnK47HN26N_17sqlrustgo_storage10bplus_tree5indexNtB7_13FullTextIndex14term_frequency0Bb_
FNDA:8,_RNCNvMsb_NtNtCsgGnK47HN26N_17sqlrustgo_storage10bplus_tree5indexNtB7_13FullTextIndex6search0Bb_
FNDA:397,_RNCNvMsb_NtNtCsgGnK47HN26N_17sqlrustgo_storage10bplus_tree5indexNtB7_13FullTextIndex8tokenize0Bb_
FNDA:67,_RNCNvMsb_NtNtCsgGnK47HN26N_17sqlrustgo_storage10bplus_tree5indexNtB7_13FullTextIndex8tokenizes0_0Bb_
FNDA:71,_RNCNvMsb_NtNtCsgGnK47HN26N_17sqlrustgo_storage10bplus_tree5indexNtB7_13FullTextIndex8tokenizes_0Bb_
FNDA:3,_RNCNvNtNtNtCsgGnK47HN26N_17sqlrustgo_storage10bplus_tree5index21index_selection_testss_25test_best_index_selection0B9_
FNDA:0,_RNvMNtNtCs2l7roSUS7lg_17sqlrustgo_storage10bplus_tree5indexNtB2_12CompositeKey10from_slice
FNDA:0,_RNvMNtNtCs2l7roSUS7lg_17sqlrustgo_storage10bplus_tree5indexNtB2_12CompositeKey3new
FNDA:0,_RNvMNtNtCs2l7roSUS7lg_17sqlrustgo_storage10bplus_tree5indexNtB2_12CompositeKey8from_row
FNDA:0,_RNvMNtNtCs2l7roSUS7lg_17sqlrustgo_storage10bplus_tree5indexNtB2_12CompositeKey8is_empty
FNDA:0,_RNvMs1_NtNtCs2l7roSUS7lg_17sqlrustgo_storage10bplus_tree5indexNtB5_9BTreeNode10remove_key
FNDA:0,_RNvMs1_NtNtCs2l7roSUS7lg_17sqlrustgo_storage10bplus_tree5indexNtB5_9BTreeNode12new_internal
FNDA:0,_RNvMs1_NtNtCs2l7roSUS7lg_17sqlrustgo_storage10bplus_tree5indexNtB5_9BTreeNode14find_key_index
FNDA:0,_RNvMs1_NtNtCs2l7roSUS7lg_17sqlrustgo_storage10bplus_tree5indexNtB5_9BTreeNode15find_all_values
FNDA:0,_RNvMs1_NtNtCs2l7roSUS7lg_17sqlrustgo_storage10bplus_tree5indexNtB5_9BTreeNode16find_child_index
FNDA:0,_RNvMs1_NtNtCs2l7roSUS7lg_17sqlrustgo_storage10bplus_tree5indexNtB5_9BTreeNode16insert_key_value
FNDA:0,_RNvMs1_NtNtCs2l7roSUS7lg_17sqlrustgo_storage10bplus_tree5indexNtB5_9BTreeNode7is_full
FNDA:0,_RNvMs1_NtNtCs2l7roSUS7lg_17sqlrustgo_storage10bplus_tree5indexNtB5_9BTreeNode8new_leaf
FNDA:0,_RNvMs1_NtNtCs2l7roSUS7lg_17sqlrustgo_storage10bplus_tree5indexNtB5_9BTreeNode9can_split
FNDA:0,_RNvMs1_NtNtCs2l7roSUS7lg_17sqlrustgo_storage10bplus_tree5indexNtB5_9BTreeNode9insert_at
FNDA:0,_RNvMs2_NtNtCs2l7roSUS7lg_17sqlrustgo_storage10bplus_tree5indexNtB5_10IndexStats11selectivity
FNDA:0,_RNvMs2_NtNtCs2l7roSUS7lg_17sqlrustgo_storage10bplus_tree5indexNtB5_10IndexStats3new
FNDA:0,_RNvMs3_NtNtCs2l7roSUS7lg_17sqlrustgo_storage10bplus_tree5indexNtB5_10BTreeIndex10mark_dirty
FNDA:0,_RNvMs3_NtNtCs2l7roSUS7lg_17sqlrustgo_storage10bplus_tree5indexNtB5_10BTreeIndex10search_all
FNDA:0,_RNvMs3_NtNtCs2l7roSUS7lg_17sqlrustgo_storage10bplus_tree5indexNtB5_10BTreeIndex10set_unique
FNDA:0,_RNvMs3_NtNtCs2l7roSUS7lg_17sqlrustgo_storage10bplus_tree5indexNtB5_10BTreeIndex11range_query
FNDA:0,_RNvMs3_NtNtCs2l7roSUS7lg_17sqlrustgo_storage10bplus_tree5indexNtB5_10BTreeIndex11search_node
FNDA:0,_RNvMs3_NtNtCs2l7roSUS7lg_17sqlrustgo_storage10bplus_tree5indexNtB5_10BTreeIndex11usage_stats
FNDA:0,_RNvMs3_NtNtCs2l7roSUS7lg_17sqlrustgo_storage10bplus_tree5indexNtB5_10BTreeIndex13allocate_node
FNDA:0,_RNvMs3_NtNtCs2l7roSUS7lg_17sqlrustgo_storage10bplus_tree5indexNtB5_10BTreeIndex13collect_stats
FNDA:0,_RNvMs3_NtNtCs2l7roSUS7lg_17sqlrustgo_storage10bplus_tree5indexNtB5_10BTreeIndex13from_metadata
FNDA:0,_RNvMs3_NtNtCs2l7roSUS7lg_17sqlrustgo_storage10bplus_tree5indexNtB5_10BTreeIndex13insert_unique
FNDA:0,_RNvMs3_NtNtCs2l7roSUS7lg_17sqlrustgo_storage10bplus_tree5indexNtB5_10BTreeIndex15search_node_all
FNDA:0,_RNvMs3_NtNtCs2l7roSUS7lg_17sqlrustgo_storage10bplus_tree5indexNtB5_10BTreeIndex16delete_from_node
FNDA:0,_RNvMs3_NtNtCs2l7roSUS7lg_17sqlrustgo_storage10bplus_tree5indexNtB5_10BTreeIndex16insert_into_node
FNDA:0,_RNvMs3_NtNtCs2l7roSUS7lg_17sqlrustgo_storage10bplus_tree5indexNtB5_10BTreeIndex16range_query_leaf
FNDA:0,_RNvMs3_NtNtCs2l7roSUS7lg_17sqlrustgo_storage10bplus_tree5indexNtB5_10BTreeIndex17collect_keys_leaf
FNDA:0,_RNvMs3_NtNtCs2l7roSUS7lg_17sqlrustgo_storage10bplus_tree5indexNtB5_10BTreeIndex20estimate_cardinality
FNDA:0,_RNvMs3_NtNtCs2l7roSUS7lg_17sqlrustgo_storage10bplus_tree5indexNtB5_10BTreeIndex3len
FNDA:0,_RNvMs3_NtNtCs2l7roSUS7lg_17sqlrustgo_storage10bplus_tree5indexNtB5_10BTreeIndex3new
FNDA:0,_RNvMs3_NtNtCs2l7roSUS7lg_17sqlrustgo_storage10bplus_tree5indexNtB5_10BTreeIndex4keys
FNDA:0,_RNvMs3_NtNtCs2l7roSUS7lg_17sqlrustgo_storage10bplus_tree5indexNtB5_10BTreeIndex6delete
FNDA:0,_RNvMs3_NtNtCs2l7roSUS7lg_17sqlrustgo_storage10bplus_tree5indexNtB5_10BTreeIndex6height
FNDA:0,_RNvMs3_NtNtCs2l7roSUS7lg_17sqlrustgo_storage10bplus_tree5indexNtB5_10BTreeIndex6insert
FNDA:0,_RNvMs3_NtNtCs2l7roSUS7lg_17sqlrustgo_storage10bplus_tree5indexNtB5_10BTreeIndex6search
FNDA:0,_RNvMs3_NtNtCs2l7roSUS7lg_17sqlrustgo_storage10bplus_tree5indexNtB5_10BTreeIndex8is_dirty
FNDA:0,_RNvMs3_NtNtCs2l7roSUS7lg_17sqlrustgo_storage10bplus_tree5indexNtB5_10BTreeIndex8is_empty
FNDA:0,_RNvMs3_NtNtCs2l7roSUS7lg_17sqlrustgo_storage10bplus_tree5indexNtB5_10BTreeIndex9is_unique
FNDA:0,_RNvMs5_NtNtCs2l7roSUS7lg_17sqlrustgo_storage10bplus_tree5indexNtB5_19CompositeBTreeIndex10mark_dirty
FNDA:0,_RNvMs5_NtNtCs2l7roSUS7lg_17sqlrustgo_storage10bplus_tree5indexNtB5_19CompositeBTreeIndex11num_columns
FNDA:0,_RNvMs5_NtNtCs2l7roSUS7lg_17sqlrustgo_storage10bplus_tree5indexNtB5_19CompositeBTreeIndex11range_query
FNDA:0,_RNvMs5_NtNtCs2l7roSUS7lg_17sqlrustgo_storage10bplus_tree5indexNtB5_19CompositeBTreeIndex11search_node
FNDA:0,_RNvMs5_NtNtCs2l7roSUS7lg_17sqlrustgo_storage10bplus_tree5indexNtB5_19CompositeBTreeIndex13allocate_node
FNDA:0,_RNvMs5_NtNtCs2l7roSUS7lg_17sqlrustgo_storage10bplus_tree5indexNtB5_19CompositeBTreeIndex13from_metadata
FNDA:0,_RNvMs5_NtNtCs2l7roSUS7lg_17sqlrustgo_storage10bplus_tree5indexNtB5_19CompositeBTreeIndex16insert_into_node
FNDA:0,_RNvMs5_NtNtCs2l7roSUS7lg_17sqlrustgo_storage10bplus_tree5indexNtB5_19CompositeBTreeIndex16range_query_leaf
FNDA:0,_RNvMs5_NtNtCs2l7roSUS7lg_17sqlrustgo_storage10bplus_tree5indexNtB5_19CompositeBTreeIndex20encode_composite_key
FNDA:0,_RNvMs5_NtNtCs2l7roSUS7lg_17sqlrustgo_storage10bplus_tree5indexNtB5_19CompositeBTreeIndex3len
FNDA:0,_RNvMs5_NtNtCs2l7roSUS7lg_17sqlrustgo_storage10bplus_tree5indexNtB5_19CompositeBTreeIndex3new
FNDA:0,_RNvMs5_NtNtCs2l7roSUS7lg_17sqlrustgo_storage10bplus_tree5indexNtB5_19CompositeBTreeIndex6insert
FNDA:0,_RNvMs5_NtNtCs2l7roSUS7lg_17sqlrustgo_storage10bplus_tree5indexNtB5_19CompositeBTreeIndex6search
FNDA:0,_RNvMs5_NtNtCs2l7roSUS7lg_17sqlrustgo_storage10bplus_tree5indexNtB5_19CompositeBTreeIndex8is_dirty
FNDA:0,_RNvMs5_NtNtCs2l7roSUS7lg_17sqlrustgo_storage10bplus_tree5indexNtB5_19CompositeBTreeIndex8is_empty
FNDA:0,_RNvMs8_NtNtCs2l7roSUS7lg_17sqlrustgo_storage10bplus_tree5indexNtB5_16FullTextMetadata3new
FNDA:0,_RNvMs9_NtNtCs2l7roSUS7lg_17sqlrustgo_storage10bplus_tree5indexNtB5_11PostingList10add_doc_id
FNDA:0,_RNvMs9_NtNtCs2l7roSUS7lg_17sqlrustgo_storage10bplus_tree5indexNtB5_11PostingList13with_capacity
FNDA:0,_RNvMs9_NtNtCs2l7roSUS7lg_17sqlrustgo_storage10bplus_tree5indexNtB5_11PostingList3new
FNDA:0,_RNvMs9_NtNtCs2l7roSUS7lg_17sqlrustgo_storage10bplus_tree5indexNtB5_11PostingList8contains
FNDA:0,_RNvMsb_NtNtCs2l7roSUS7lg_17sqlrustgo_storage10bplus_tree5indexNtB5_13FullTextIndex10is_deleted
FNDA:0,_RNvMsb_NtNtCs2l7roSUS7lg_17sqlrustgo_storage10bplus_tree5indexNtB5_13FullTextIndex13num_documents
FNDA:0,_RNvMsb_NtNtCs2l7roSUS7lg_17sqlrustgo_storage10bplus_tree5indexNtB5_13FullTextIndex14filter_deleted
FNDA:0,_RNvMsb_NtNtCs2l7roSUS7lg_17sqlrustgo_storage10bplus_tree5indexNtB5_13FullTextIndex14term_frequency
FNDA:0,_RNvMsb_NtNtCs2l7roSUS7lg_17sqlrustgo_storage10bplus_tree5indexNtB5_13FullTextIndex3new
FNDA:0,_RNvMsb_NtNtCs2l7roSUS7lg_17sqlrustgo_storage10bplus_tree5indexNtB5_13FullTextIndex5terms
FNDA:0,_RNvMsb_NtNtCs2l7roSUS7lg_17sqlrustgo_storage10bplus_tree5indexNtB5_13FullTextIndex6delete
FNDA:0,_RNvMsb_NtNtCs2l7roSUS7lg_17sqlrustgo_storage10bplus_tree5indexNtB5_13FullTextIndex6insert
FNDA:0,_RNvMsb_NtNtCs2l7roSUS7lg_17sqlrustgo_storage10bplus_tree5indexNtB5_13FullTextIndex6search
FNDA:0,_RNvMsb_NtNtCs2l7roSUS7lg_17sqlrustgo_storage10bplus_tree5indexNtB5_13FullTextIndex8is_dirty
FNDA:0,_RNvMsb_NtNtCs2l7roSUS7lg_17sqlrustgo_storage10bplus_tree5indexNtB5_13FullTextIndex8is_empty
FNDA:0,_RNvMsb_NtNtCs2l7roSUS7lg_17sqlrustgo_storage10bplus_tree5indexNtB5_13FullTextIndex8tokenize
FNDA:0,_RNvMsb_NtNtCs2l7roSUS7lg_17sqlrustgo_storage10bplus_tree5indexNtB5_13FullTextIndex9intersect
FNDA:0,_RNvMsb_NtNtCs2l7roSUS7lg_17sqlrustgo_storage10bplus_tree5indexNtB5_13FullTextIndex9num_terms
FNDA:0,_RNvNtNtCs2l7roSUS7lg_17sqlrustgo_storage10bplus_tree5index14compare_values
FNDA:0,_RNvNtNtCs2l7roSUS7lg_17sqlrustgo_storage10bplus_tree5index14serialize_node
FNDA:0,_RNvNtNtCs2l7roSUS7lg_17sqlrustgo_storage10bplus_tree5index16deserialize_node
FNDA:0,_RNvNvNtNtCs2l7roSUS7lg_17sqlrustgo_storage10bplus_tree5index14compare_values10type_order
FNDA:0,_RNvXs0_NtNtCs2l7roSUS7lg_17sqlrustgo_storage10bplus_tree5indexNtB5_12CompositeKeyNtNtCs8nPosuWgJFh_4core3cmp3Ord3cmp
FNDA:0,_RNvXs4_NtNtCs2l7roSUS7lg_17sqlrustgo_storage10bplus_tree5indexNtB5_10BTreeIndexNtNtCs8nPosuWgJFh_4core7default7Default7default
FNDA:0,_RNvXs6_NtNtCs2l7roSUS7lg_17sqlrustgo_storage10bplus_tree5indexNtB5_19CompositeBTreeIndexNtNtCs8nPosuWgJFh_4core7default7Default7default
FNDA:0,_RNvXs7_NtNtCs2l7roSUS7lg_17sqlrustgo_storage10bplus_tree5indexNtB5_16FullTextMetadataNtNtCs8nPosuWgJFh_4core7default7Default7default
FNDA:0,_RNvXs_NtNtCs2l7roSUS7lg_17sqlrustgo_storage10bplus_tree5indexNtB4_12CompositeKeyNtNtCs8nPosuWgJFh_4core3cmp10PartialOrd11partial_cmp
FNDA:0,_RNvXsa_NtNtCs2l7roSUS7lg_17sqlrustgo_storage10bplus_tree5indexNtB5_11PostingListNtNtCs8nPosuWgJFh_4core7default7Default7default
FNDA:0,_RNCNvMNtNtCs2l7roSUS7lg_17sqlrustgo_storage10bplus_tree5indexNtB4_12CompositeKey8from_row0B8_
FNDA:0,_RNCNvMsb_NtNtCs2l7roSUS7lg_17sqlrustgo_storage10bplus_tree5indexNtB7_13FullTextIndex14filter_deleted0Bb_
FNDA:0,_RNCNvMsb_NtNtCs2l7roSUS7lg_17sqlrustgo_storage10bplus_tree5indexNtB7_13FullTextIndex14term_frequency0Bb_
FNDA:0,_RNCNvMsb_NtNtCs2l7roSUS7lg_17sqlrustgo_storage10bplus_tree5indexNtB7_13FullTextIndex6search0Bb_
FNDA:0,_RNCNvMsb_NtNtCs2l7roSUS7lg_17sqlrustgo_storage10bplus_tree5indexNtB7_13FullTextIndex8tokenize0Bb_
FNDA:0,_RNCNvMsb_NtNtCs2l7roSUS7lg_17sqlrustgo_storage10bplus_tree5indexNtB7_13FullTextIndex8tokenizes0_0Bb_
FNDA:0,_RNCNvMsb_NtNtCs2l7roSUS7lg_17sqlrustgo_storage10bplus_tree5indexNtB7_13FullTextIndex8tokenizes_0Bb_
FNF:169
FNH:143
DA:35,16
DA:36,16
DA:37,16
DA:39,2
DA:40,2
DA:41,2
DA:42,2
DA:43,2
DA:45,0
DA:46,0
DA:47,0
DA:50,0
DA:52,0
DA:53,0
DA:54,0
DA:55,0
DA:57,0
DA:63,0
DA:67,0
DA:68,0
DA:69,0
DA:70,0
DA:71,0
DA:72,0
DA:73,0
DA:74,0
DA:75,0
DA:76,0
DA:77,0
DA:78,0
DA:79,0
DA:80,0
DA:82,0
DA:85,0
DA:86,0
DA:87,0
DA:88,0
DA:91,0
DA:92,0
DA:93,0
DA:94,0
DA:96,0
DA:97,0
DA:98,0
DA:102,0
DA:106,0
DA:107,0
DA:108,0
DA:112,0
DA:113,0
DA:114,0
DA:115,0
DA:116,0
DA:117,0
DA:119,0
DA:120,0
DA:138,31
DA:139,31
DA:140,31
DA:141,31
DA:142,31
DA:143,31
DA:144,31
DA:145,31
DA:146,31
DA:147,31
DA:149,3
DA:150,3
DA:151,3
DA:152,3
DA:153,3
DA:154,3
DA:155,3
DA:156,3
DA:157,3
DA:158,3
DA:160,185
DA:161,185
DA:162,185
DA:164,1
DA:165,1
DA:166,1
DA:168,3
DA:171,3
DA:172,0
DA:173,3
DA:175,3
DA:177,19
DA:179,19
DA:180,19
DA:183,0
DA:184,0
DA:186,0
DA:188,0
DA:189,0
DA:190,0
DA:191,0
DA:193,0
DA:194,0
DA:195,0
DA:196,0
DA:197,0
DA:199,0
DA:200,0
DA:201,0
DA:203,184
DA:204,184
DA:205,4962
DA:206,4962
DA:207,5
DA:208,4957
DA:210,179
DA:211,184
DA:213,184
DA:214,184
DA:215,2
DA:216,2
DA:218,2
DA:219,2
DA:220,2
DA:221,2
DA:222,2
DA:224,2
DA:225,0
DA:226,0
DA:227,0
DA:228,2
DA:229,2
DA:230,2
DA:231,2
DA:232,2
DA:234,2
DA:236,182
DA:237,182
DA:238,182
DA:239,182
DA:241,184
DA:243,6
DA:244,6
DA:245,5
DA:246,5
DA:247,5
DA:248,5
DA:249,5
DA:250,1
DA:251,1
DA:252,6
DA:285,0
DA:286,0
DA:287,0
DA:290,4
DA:291,4
DA:292,1
DA:293,3
DA:294,3
DA:295,3
DA:296,4
DA:306,19
DA:307,19
DA:308,19
DA:309,19
DA:310,19
DA:311,19
DA:312,19
DA:314,0
DA:315,0
DA:316,0
DA:317,0
DA:318,0
DA:319,0
DA:320,0
DA:322,0
DA:323,0
DA:324,0
DA:326,0
DA:327,0
DA:328,0
DA:330,193
DA:331,193
DA:332,14
DA:333,14
DA:334,14
DA:335,14
DA:336,14
DA:337,14
DA:338,14
DA:339,14
DA:340,14
DA:341,14
DA:342,14
DA:343,14
DA:344,14
DA:345,179
DA:347,179
DA:348,179
DA:349,179
DA:350,193
DA:354,0
DA:356,0
DA:357,0
DA:358,0
DA:359,0
DA:360,0
DA:361,0
DA:364,0
DA:365,0
DA:366,0
DA:369,0
DA:370,0
DA:371,0
DA:372,0
DA:374,14
DA:375,14
DA:376,14
DA:377,14
DA:378,14
DA:380,179
DA:381,179
DA:382,179
DA:383,179
DA:384,179
DA:385,0
DA:386,0
DA:387,0
DA:388,0
DA:389,0
DA:391,0
DA:392,179
DA:394,9
DA:395,9
DA:396,8
DA:398,1
DA:400,9
DA:403,0
DA:404,0
DA:405,0
DA:407,0
DA:409,0
DA:411,8
DA:412,8
DA:413,8
DA:415,8
DA:416,3
DA:418,5
DA:421,0
DA:422,0
DA:423,0
DA:424,0
DA:426,0
DA:430,0
DA:432,8
DA:434,0
DA:435,0
DA:436,0
DA:438,0
DA:440,0
DA:441,0
DA:442,0
DA:443,0
DA:445,0
DA:449,0
DA:451,0
DA:453,4
DA:454,4
DA:455,0
DA:456,4
DA:458,4
DA:459,4
DA:460,4
DA:461,4
DA:462,4
DA:463,4
DA:464,4
DA:466,4
DA:467,4
DA:468,4
DA:469,4
DA:471,0
DA:472,0
DA:473,0
DA:474,0
DA:476,0
DA:480,0
DA:482,4
DA:484,3
DA:485,3
DA:486,2
DA:487,2
DA:488,2
DA:490,1
DA:492,3
DA:494,2
DA:495,2
DA:496,13
DA:497,13
DA:498,6
DA:499,6
DA:500,6
DA:501,7
DA:503,2
DA:504,0
DA:505,2
DA:506,0
DA:507,2
DA:509,10
DA:510,10
DA:511,10
DA:513,3
DA:514,3
DA:515,3
DA:517,2
DA:518,2
DA:519,2
DA:521,2
DA:522,2
DA:523,2
DA:524,2
DA:525,2
DA:527,0
DA:529,2
DA:531,2
DA:532,2
DA:533,2
DA:534,2
DA:535,0
DA:536,2
DA:537,0
DA:538,2
DA:541,3
DA:542,3
DA:543,3
DA:544,3
DA:545,3
DA:546,3
DA:549,3
DA:550,3
DA:551,3
DA:553,3
DA:554,2
DA:555,2
DA:556,2
DA:558,2
DA:559,2
DA:560,2
DA:561,0
DA:562,0
DA:565,3
DA:566,3
DA:567,3
DA:568,3
DA:573,3
DA:575,3
DA:576,3
DA:579,3
DA:582,3
DA:583,3
DA:584,1
DA:585,2
DA:587,2
DA:588,3
DA:591,1
DA:592,1
DA:593,1
DA:597,0
DA:598,0
DA:599,0
DA:612,6
DA:613,6
DA:614,6
DA:615,6
DA:616,6
DA:617,6
DA:618,6
DA:619,6
DA:621,0
DA:622,0
DA:623,0
DA:624,0
DA:625,0
DA:626,0
DA:627,0
DA:628,0
DA:630,0
DA:631,0
DA:632,0
DA:634,0
DA:635,0
DA:636,0
DA:639,7
DA:642,7
DA:644,7
DA:645,4
DA:646,4
DA:647,4
DA:648,4
DA:649,4
DA:650,4
DA:651,4
DA:652,4
DA:653,4
DA:654,4
DA:655,4
DA:656,4
DA:657,4
DA:658,3
DA:660,3
DA:661,3
DA:662,3
DA:663,7
DA:665,11
DA:669,11
DA:670,11
DA:672,0
DA:674,11
DA:676,4
DA:677,4
DA:678,4
DA:679,4
DA:680,4
DA:682,3
DA:683,3
DA:684,3
DA:685,3
DA:686,3
DA:687,0
DA:688,0
DA:689,0
DA:690,0
DA:691,0
DA:693,0
DA:694,3
DA:696,2
DA:697,2
DA:698,2
DA:699,2
DA:701,0
DA:703,2
DA:705,2
DA:706,2
DA:707,2
DA:708,2
DA:709,0
DA:710,0
DA:711,0
DA:712,0
DA:713,0
DA:714,0
DA:715,0
DA:716,0
DA:717,0
DA:718,2
DA:720,1
DA:721,1
DA:722,1
DA:724,1
DA:725,1
DA:726,1
DA:727,1
DA:729,0
DA:731,1
DA:733,1
DA:734,1
DA:735,3
DA:736,3
DA:737,1
DA:738,1
DA:739,1
DA:740,2
DA:742,1
DA:743,0
DA:744,1
DA:745,0
DA:746,1
DA:748,1
DA:749,1
DA:750,1
DA:752,0
DA:753,0
DA:754,0
DA:756,1
DA:757,1
DA:758,1
DA:762,0
DA:763,0
DA:764,0
DA:767,3
DA:768,3
DA:769,3
DA:771,3
DA:772,2
DA:774,1
DA:776,3
DA:778,3
DA:779,3
DA:781,3
DA:783,3
DA:784,2
DA:785,2
DA:786,0
DA:787,2
DA:788,2
DA:789,2
DA:791,2
DA:792,2
DA:795,2
DA:796,0
DA:797,2
DA:799,2
DA:800,2
DA:801,0
DA:802,2
DA:803,2
DA:804,2
DA:807,3
DA:808,3
DA:809,0
DA:810,3
DA:811,3
DA:812,3
DA:816,3
DA:817,3
DA:819,4
DA:820,4
DA:821,1
DA:822,3
DA:824,3
DA:825,3
DA:826,3
DA:828,3
DA:829,3
DA:830,3
DA:832,3
DA:833,2
DA:835,1
DA:837,3
DA:839,3
DA:840,2
DA:841,2
DA:842,0
DA:843,2
DA:844,2
DA:845,2
DA:846,2
DA:847,2
DA:848,2
DA:849,2
DA:850,2
DA:851,2
DA:852,2
DA:853,2
DA:854,2
DA:856,2
DA:857,2
DA:858,2
DA:859,2
DA:860,2
DA:861,2
DA:862,2
DA:864,2
DA:865,2
DA:868,2
DA:869,2
DA:870,2
DA:871,2
DA:872,2
DA:873,2
DA:874,2
DA:875,2
DA:876,0
DA:877,2
DA:878,0
DA:880,1
DA:881,2
DA:882,0
DA:883,2
DA:884,2
DA:885,2
DA:886,2
DA:887,2
DA:888,2
DA:889,2
DA:890,2
DA:891,2
DA:892,2
DA:893,2
DA:894,2
DA:895,2
DA:898,1
DA:899,3
DA:900,0
DA:901,3
DA:902,3
DA:903,3
DA:904,3
DA:905,3
DA:906,3
DA:907,3
DA:908,3
DA:909,3
DA:913,3
DA:914,4
DA:930,0
DA:931,0
DA:932,0
DA:933,0
DA:934,0
DA:935,0
DA:936,0
DA:937,0
DA:941,12
DA:942,12
DA:943,12
DA:944,12
DA:945,12
DA:946,12
DA:947,12
DA:948,12
DA:959,36
DA:960,36
DA:961,36
DA:962,36
DA:963,36
DA:965,0
DA:966,0
DA:967,0
DA:968,0
DA:969,0
DA:972,55
DA:974,55
DA:975,2
DA:976,53
DA:978,55
DA:981,3
DA:982,3
DA:983,3
DA:987,34
DA:988,34
DA:989,34
DA:1005,12
DA:1006,12
DA:1007,12
DA:1008,12
DA:1009,12
DA:1010,12
DA:1011,12
DA:1012,12
DA:1015,0
DA:1016,0
DA:1017,0
DA:1020,32
DA:1021,32
DA:1022,397
DA:1023,71
DA:1024,67
DA:1025,32
DA:1026,32
DA:1029,22
DA:1030,22
DA:1033,22
DA:1034,22
DA:1035,22
DA:1038,49
DA:1039,49
DA:1040,49
DA:1041,49
DA:1044,22
DA:1045,22
DA:1048,1
DA:1049,1
DA:1050,1
DA:1051,1
DA:1054,8
DA:1055,8
DA:1056,8
DA:1059,5
DA:1060,5
DA:1061,5
DA:1062,5
DA:1063,8
DA:1064,5
DA:1065,5
DA:1068,4
DA:1069,4
DA:1070,4
DA:1071,4
DA:1073,17
DA:1074,13
DA:1075,6
DA:1076,6
DA:1077,6
DA:1078,7
DA:1079,6
DA:1080,6
DA:1081,1
DA:1082,1
DA:1085,4
DA:1086,4
DA:1089,6
DA:1090,6
DA:1092,6
DA:1093,0
DA:1094,6
DA:1097,6
DA:1098,6
DA:1099,8
DA:1100,6
DA:1103,6
DA:1104,1
DA:1105,5
DA:1108,5
DA:1111,5
DA:1112,2
DA:1113,2
DA:1116,5
DA:1117,6
DA:1120,4
DA:1121,4
DA:1122,4
DA:1123,4
DA:1124,4
DA:1125,4
DA:1128,1
DA:1129,1
DA:1130,1
DA:1133,2
DA:1134,2
DA:1135,2
DA:1138,2
DA:1139,2
DA:1140,2
DA:1143,3
DA:1144,3
DA:1145,3
DA:1153,1
DA:1154,1
DA:1155,1
DA:1156,1
DA:1157,1
DA:1160,1
DA:1161,1
DA:1162,1
DA:1163,1
DA:1165,1
DA:1166,1
DA:1167,1
DA:1170,1
DA:1171,1
DA:1172,1
DA:1173,1
DA:1176,1
DA:1177,1
DA:1178,1
DA:1179,1
DA:1180,1
DA:1181,1
DA:1184,1
DA:1185,1
DA:1186,1
DA:1187,1
DA:1188,1
DA:1190,1
DA:1191,1
DA:1192,1
DA:1195,1
DA:1196,1
DA:1197,100
DA:1198,100
DA:1199,100
DA:1200,1
DA:1201,1
DA:1204,1
DA:1205,1
DA:1206,1
DA:1207,1
DA:1208,1
DA:1210,1
DA:1211,1
DA:1212,1
DA:1213,1
DA:1214,1
DA:1217,1
DA:1218,1
DA:1219,1
DA:1220,1
DA:1221,1
DA:1223,1
DA:1224,1
DA:1225,1
DA:1227,1
DA:1228,1
DA:1229,1
DA:1231,1
DA:1232,1
DA:1233,1
DA:1234,1
DA:1237,1
DA:1238,1
DA:1239,1
DA:1240,1
DA:1241,1
DA:1243,1
DA:1244,1
DA:1245,1
DA:1248,1
DA:1249,1
DA:1250,1
DA:1251,1
DA:1252,1
DA:1253,1
DA:1254,1
DA:1256,1
DA:1257,1
DA:1259,1
DA:1260,1
DA:1261,1
DA:1262,1
DA:1263,1
DA:1266,1
DA:1267,1
DA:1268,1
DA:1269,1
DA:1270,1
DA:1271,1
DA:1272,1
DA:1273,1
DA:1275,1
DA:1276,1
DA:1278,1
DA:1279,1
DA:1280,1
DA:1281,1
DA:1282,1
DA:1283,1
DA:1286,1
DA:1287,1
DA:1288,1
DA:1289,1
DA:1290,1
DA:1291,1
DA:1292,1
DA:1294,1
DA:1295,1
DA:1296,1
DA:1297,1
DA:1298,1
DA:1301,1
DA:1302,1
DA:1303,1
DA:1304,1
DA:1305,1
DA:1307,1
DA:1308,1
DA:1309,1
DA:1310,1
DA:1313,1
DA:1314,1
DA:1315,1
DA:1316,1
DA:1319,1
DA:1320,1
DA:1321,1
DA:1322,1
DA:1325,48
DA:1326,48
DA:1327,48
DA:1329,1
DA:1330,1
DA:1333,1
DA:1334,1
DA:1335,1
DA:1337,1
DA:1338,1
DA:1340,1
DA:1341,1
DA:1342,1
DA:1345,1
DA:1346,1
DA:1347,1
DA:1348,1
DA:1349,1
DA:1351,1
DA:1352,1
DA:1353,1
DA:1356,1
DA:1357,1
DA:1358,1
DA:1359,1
DA:1361,1
DA:1362,1
DA:1363,1
DA:1366,1
DA:1367,1
DA:1368,1
DA:1369,1
DA:1370,1
DA:1373,1
DA:1374,1
DA:1375,10
DA:1376,10
DA:1377,10
DA:1379,1
DA:1380,1
DA:1381,1
DA:1384,1
DA:1385,1
DA:1386,1
DA:1387,1
DA:1388,1
DA:1389,1
DA:1391,1
DA:1392,1
DA:1393,1
DA:1394,1
DA:1397,1
DA:1398,1
DA:1399,1
DA:1400,1
DA:1401,1
DA:1402,1
DA:1403,1
DA:1405,1
DA:1406,1
DA:1407,1
DA:1408,1
DA:1411,1
DA:1412,1
DA:1414,1
DA:1415,1
DA:1418,1
DA:1419,1
DA:1421,1
DA:1422,1
DA:1425,1
DA:1426,1
DA:1427,1
DA:1428,1
DA:1429,1
DA:1430,1
DA:1433,1
DA:1434,1
DA:1435,1
DA:1436,1
DA:1441,1
DA:1442,1
DA:1443,1
DA:1444,1
DA:1445,1
DA:1446,1
DA:1449,1
DA:1450,1
DA:1451,1
DA:1452,1
DA:1455,1
DA:1456,1
DA:1457,1
DA:1458,1
DA:1459,1
DA:1460,1
DA:1463,1
DA:1464,1
DA:1465,1
DA:1466,1
DA:1467,1
DA:1468,1
DA:1471,1
DA:1472,1
DA:1473,1
DA:1475,1
DA:1476,1
DA:1477,1
DA:1480,1
DA:1481,1
DA:1484,10
DA:1485,10
DA:1486,10
DA:1488,1
DA:1490,1
DA:1491,1
DA:1492,1
DA:1493,1
DA:1496,1
DA:1497,1
DA:1498,1
DA:1499,1
DA:1501,1
DA:1503,1
DA:1504,1
DA:1507,1
DA:1508,1
DA:1509,1
DA:1514,1
DA:1515,1
DA:1516,1
DA:1517,1
DA:1518,1
DA:1519,1
DA:1522,1
DA:1523,1
DA:1524,1
DA:1525,1
DA:1528,1
DA:1531,1
DA:1533,1
DA:1534,1
DA:1535,1
DA:1538,1
DA:1539,1
DA:1540,1
DA:1541,1
DA:1544,1
DA:1546,1
DA:1547,1
DA:1548,1
DA:1551,1
DA:1552,1
DA:1553,1
DA:1554,1
DA:1556,1
DA:1557,1
DA:1558,1
DA:1561,1
DA:1562,1
DA:1563,1
DA:1564,1
DA:1565,1
DA:1567,1
DA:1568,1
DA:1569,1
DA:1570,1
DA:1571,1
DA:1574,1
DA:1575,1
DA:1576,1
DA:1577,1
DA:1578,1
DA:1581,1
DA:1582,1
DA:1583,1
DA:1586,1
DA:1587,1
DA:1588,1
DA:1590,1
DA:1591,1
DA:1592,1
DA:1595,1
DA:1596,1
DA:1597,1
DA:1599,1
DA:1600,1
DA:1601,1
DA:1604,1
DA:1605,1
DA:1606,1
DA:1607,1
DA:1610,1
DA:1613,1
DA:1614,1
DA:1615,1
DA:1618,1
DA:1619,1
DA:1620,1
DA:1621,1
DA:1622,1
DA:1624,1
DA:1625,1
DA:1626,1
DA:1627,1
DA:1628,1
DA:1631,1
DA:1632,1
DA:1633,1
DA:1634,1
DA:1636,1
DA:1637,1
DA:1638,1
DA:1639,1
DA:1640,1
DA:1643,1
DA:1644,1
DA:1645,1
DA:1646,1
DA:1647,1
DA:1648,1
DA:1650,1
DA:1651,1
DA:1654,1
DA:1655,1
DA:1656,1
DA:1658,1
DA:1659,1
DA:1660,1
DA:1663,1
DA:1664,1
DA:1665,1
DA:1667,1
DA:1668,1
DA:1669,1
DA:1672,1
DA:1673,1
DA:1674,1
DA:1675,1
DA:1676,1
DA:1677,1
DA:1680,1
DA:1685,1
DA:1686,1
DA:1687,1
DA:1688,1
DA:1689,1
DA:1692,1
DA:1693,1
DA:1694,1
DA:1695,1
DA:1696,1
DA:1698,1
DA:1699,1
DA:1702,1
DA:1703,1
DA:1704,1
DA:1705,1
DA:1706,1
DA:1709,1
DA:1710,1
DA:1711,1
DA:1712,1
DA:1713,1
DA:1715,1
DA:1717,1
DA:1718,1
DA:1721,1
DA:1722,1
DA:1724,10
DA:1725,10
DA:1726,10
DA:1727,10
DA:1728,10
DA:1731,1
DA:1733,1
DA:1734,1
DA:1737,1
DA:1738,1
DA:1739,1
DA:1740,1
DA:1743,1
DA:1744,1
DA:1745,1
DA:1746,1
DA:1749,1
DA:1750,1
DA:1754,1
DA:1755,1
DA:1758,1
DA:1759,1
DA:1760,1
DA:1761,1
DA:1765,1
DA:1766,1
DA:1767,1
DA:1768,1
DA:1771,1
DA:1772,1
DA:1773,1
DA:1774,1
DA:1775,1
DA:1777,1
DA:1778,1
DA:1779,1
DA:1781,1
DA:1782,1
DA:1785,1
DA:1786,1
DA:1787,1
DA:1788,1
DA:1791,1
DA:1792,1
DA:1793,1
DA:1794,1
DA:1796,1
DA:1797,1
DA:1798,1
DA:1799,1
DA:1802,1
DA:1803,1
DA:1804,1
DA:1805,1
DA:1808,1
DA:1809,1
DA:1810,1
DA:1812,1
DA:1813,1
DA:1826,1
DA:1828,1
DA:1829,1
DA:1830,1
DA:1831,1
DA:1833,1
DA:1834,1
DA:1835,1
DA:1836,1
DA:1837,1
DA:1840,1
DA:1841,1
DA:1842,1
DA:1843,1
DA:1845,1
DA:1847,1
DA:1850,1
DA:1851,1
DA:1852,1
DA:1853,1
DA:1854,1
DA:1856,1
DA:1857,1
DA:1858,1
DA:1859,1
DA:1861,1
DA:1862,1
DA:1863,1
DA:1864,1
DA:1867,1
DA:1868,1
DA:1869,1
DA:1872,1
DA:1873,1
DA:1876,1
DA:1877,1
DA:1882,1
DA:1883,1
DA:1884,1
DA:1885,1
DA:1886,1
DA:1887,1
DA:1890,1
DA:1891,1
DA:1892,1
DA:1893,1
DA:1894,1
DA:1895,1
DA:1897,1
DA:1898,1
DA:1899,1
DA:1911,1
DA:1913,1
DA:1914,1
DA:1916,2
DA:1917,1
DA:1918,1
DA:1921,1
DA:1922,1
DA:1923,1
DA:1925,2
DA:1926,1
DA:1927,1
DA:1930,1
DA:1931,1
DA:1933,1
DA:1935,1
DA:1936,1
DA:1946,1
DA:1948,1
DA:1949,1
DA:1951,1
DA:1952,1
DA:1953,1
DA:1956,1
DA:1957,1
DA:1959,1
DA:1960,1
DA:1961,3
DA:1962,1
DA:1964,1
DA:1965,1
BRF:0
BRH:0
LF:1282
LH:1073
end_of_record
SF:/home/openclaw/dev/yinglichina8848/sqlrustgo/crates/storage/src/bplus_tree/mod.rs
FN:44,_RNCNvMNtCs38XCG6692bz_17sqlrustgo_storage10bplus_treeNtB4_15SimpleBPlusTree6search0B6_
FN:47,_RNvMNtCs38XCG6692bz_17sqlrustgo_storage10bplus_treeNtB2_15SimpleBPlusTree10search_all
FN:51,_RNvMNtCs38XCG6692bz_17sqlrustgo_storage10bplus_treeNtB2_15SimpleBPlusTree11range_query
FN:31,_RNvMNtCs38XCG6692bz_17sqlrustgo_storage10bplus_treeNtB2_15SimpleBPlusTree3len
FN:25,_RNvMNtCs38XCG6692bz_17sqlrustgo_storage10bplus_treeNtB2_15SimpleBPlusTree3new
FN:59,_RNvMNtCs38XCG6692bz_17sqlrustgo_storage10bplus_treeNtB2_15SimpleBPlusTree4keys
FN:39,_RNvMNtCs38XCG6692bz_17sqlrustgo_storage10bplus_treeNtB2_15SimpleBPlusTree6insert
FN:43,_RNvMNtCs38XCG6692bz_17sqlrustgo_storage10bplus_treeNtB2_15SimpleBPlusTree6search
FN:35,_RNvMNtCs38XCG6692bz_17sqlrustgo_storage10bplus_treeNtB2_15SimpleBPlusTree8is_empty
FN:44,_RNCNvMNtCs1u7In8Za3Xp_17sqlrustgo_storage10bplus_treeNtB4_15SimpleBPlusTree6search0B6_
FN:47,_RNvMNtCs1u7In8Za3Xp_17sqlrustgo_storage10bplus_treeNtB2_15SimpleBPlusTree10search_all
FN:51,_RNvMNtCs1u7In8Za3Xp_17sqlrustgo_storage10bplus_treeNtB2_15SimpleBPlusTree11range_query
FN:31,_RNvMNtCs1u7In8Za3Xp_17sqlrustgo_storage10bplus_treeNtB2_15SimpleBPlusTree3len
FN:25,_RNvMNtCs1u7In8Za3Xp_17sqlrustgo_storage10bplus_treeNtB2_15SimpleBPlusTree3new
FN:59,_RNvMNtCs1u7In8Za3Xp_17sqlrustgo_storage10bplus_treeNtB2_15SimpleBPlusTree4keys
FN:39,_RNvMNtCs1u7In8Za3Xp_17sqlrustgo_storage10bplus_treeNtB2_15SimpleBPlusTree6insert
FN:43,_RNvMNtCs1u7In8Za3Xp_17sqlrustgo_storage10bplus_treeNtB2_15SimpleBPlusTree6search
FN:35,_RNvMNtCs1u7In8Za3Xp_17sqlrustgo_storage10bplus_treeNtB2_15SimpleBPlusTree8is_empty
FN:44,_RNCNvMNtCsd1AkON0xxEy_17sqlrustgo_storage10bplus_treeNtB4_15SimpleBPlusTree6search0B6_
FN:47,_RNvMNtCsd1AkON0xxEy_17sqlrustgo_storage10bplus_treeNtB2_15SimpleBPlusTree10search_all
FN:51,_RNvMNtCsd1AkON0xxEy_17sqlrustgo_storage10bplus_treeNtB2_15SimpleBPlusTree11range_query
FN:31,_RNvMNtCsd1AkON0xxEy_17sqlrustgo_storage10bplus_treeNtB2_15SimpleBPlusTree3len
FN:25,_RNvMNtCsd1AkON0xxEy_17sqlrustgo_storage10bplus_treeNtB2_15SimpleBPlusTree3new
FN:59,_RNvMNtCsd1AkON0xxEy_17sqlrustgo_storage10bplus_treeNtB2_15SimpleBPlusTree4keys
FN:39,_RNvMNtCsd1AkON0xxEy_17sqlrustgo_storage10bplus_treeNtB2_15SimpleBPlusTree6insert
FN:43,_RNvMNtCsd1AkON0xxEy_17sqlrustgo_storage10bplus_treeNtB2_15SimpleBPlusTree6search
FN:35,_RNvMNtCsd1AkON0xxEy_17sqlrustgo_storage10bplus_treeNtB2_15SimpleBPlusTree8is_empty
FN:47,_RNvMNtCs9oXD4GUMzTX_17sqlrustgo_storage10bplus_treeNtB2_15SimpleBPlusTree10search_all
FN:51,_RNvMNtCs9oXD4GUMzTX_17sqlrustgo_storage10bplus_treeNtB2_15SimpleBPlusTree11range_query
FN:31,_RNvMNtCs9oXD4GUMzTX_17sqlrustgo_storage10bplus_treeNtB2_15SimpleBPlusTree3len
FN:25,_RNvMNtCs9oXD4GUMzTX_17sqlrustgo_storage10bplus_treeNtB2_15SimpleBPlusTree3new
FN:59,_RNvMNtCs9oXD4GUMzTX_17sqlrustgo_storage10bplus_treeNtB2_15SimpleBPlusTree4keys
FN:39,_RNvMNtCs9oXD4GUMzTX_17sqlrustgo_storage10bplus_treeNtB2_15SimpleBPlusTree6insert
FN:43,_RNvMNtCs9oXD4GUMzTX_17sqlrustgo_storage10bplus_treeNtB2_15SimpleBPlusTree6search
FN:35,_RNvMNtCs9oXD4GUMzTX_17sqlrustgo_storage10bplus_treeNtB2_15SimpleBPlusTree8is_empty
FN:44,_RNCNvMNtCs9oXD4GUMzTX_17sqlrustgo_storage10bplus_treeNtB4_15SimpleBPlusTree6search0B6_
FN:44,_RNCNvMNtCsl9zPO89iGuX_17sqlrustgo_storage10bplus_treeNtB4_15SimpleBPlusTree6search0B6_
FN:47,_RNvMNtCsl9zPO89iGuX_17sqlrustgo_storage10bplus_treeNtB2_15SimpleBPlusTree10search_all
FN:51,_RNvMNtCsl9zPO89iGuX_17sqlrustgo_storage10bplus_treeNtB2_15SimpleBPlusTree11range_query
FN:31,_RNvMNtCsl9zPO89iGuX_17sqlrustgo_storage10bplus_treeNtB2_15SimpleBPlusTree3len
FN:25,_RNvMNtCsl9zPO89iGuX_17sqlrustgo_storage10bplus_treeNtB2_15SimpleBPlusTree3new
FN:59,_RNvMNtCsl9zPO89iGuX_17sqlrustgo_storage10bplus_treeNtB2_15SimpleBPlusTree4keys
FN:39,_RNvMNtCsl9zPO89iGuX_17sqlrustgo_storage10bplus_treeNtB2_15SimpleBPlusTree6insert
FN:43,_RNvMNtCsl9zPO89iGuX_17sqlrustgo_storage10bplus_treeNtB2_15SimpleBPlusTree6search
FN:35,_RNvMNtCsl9zPO89iGuX_17sqlrustgo_storage10bplus_treeNtB2_15SimpleBPlusTree8is_empty
FN:111,_RNvNtNtCsgGnK47HN26N_17sqlrustgo_storage10bplus_tree5testss_27test_simple_bplus_tree_keys
FN:125,_RNvNtNtCsgGnK47HN26N_17sqlrustgo_storage10bplus_tree5testss_31test_simple_bplus_tree_is_empty
FN:137,_RNvNtNtCsgGnK47HN26N_17sqlrustgo_storage10bplus_tree5testss_33test_simple_bplus_tree_search_all
FN:97,_RNvNtNtCsgGnK47HN26N_17sqlrustgo_storage10bplus_tree5testss_34test_simple_bplus_tree_range_query
FN:82,_RNvNtNtCsgGnK47HN26N_17sqlrustgo_storage10bplus_tree5testss_37test_simple_bplus_tree_duplicate_keys
FN:69,_RNvNtNtCsgGnK47HN26N_17sqlrustgo_storage10bplus_tree5testss_40test_simple_bplus_tree_insert_and_search
FN:47,_RNvMNtCsgGnK47HN26N_17sqlrustgo_storage10bplus_treeNtB2_15SimpleBPlusTree10search_all
FN:51,_RNvMNtCsgGnK47HN26N_17sqlrustgo_storage10bplus_treeNtB2_15SimpleBPlusTree11range_query
FN:31,_RNvMNtCsgGnK47HN26N_17sqlrustgo_storage10bplus_treeNtB2_15SimpleBPlusTree3len
FN:25,_RNvMNtCsgGnK47HN26N_17sqlrustgo_storage10bplus_treeNtB2_15SimpleBPlusTree3new
FN:59,_RNvMNtCsgGnK47HN26N_17sqlrustgo_storage10bplus_treeNtB2_15SimpleBPlusTree4keys
FN:39,_RNvMNtCsgGnK47HN26N_17sqlrustgo_storage10bplus_treeNtB2_15SimpleBPlusTree6insert
FN:43,_RNvMNtCsgGnK47HN26N_17sqlrustgo_storage10bplus_treeNtB2_15SimpleBPlusTree6search
FN:35,_RNvMNtCsgGnK47HN26N_17sqlrustgo_storage10bplus_treeNtB2_15SimpleBPlusTree8is_empty
FN:44,_RNCNvMNtCsgGnK47HN26N_17sqlrustgo_storage10bplus_treeNtB4_15SimpleBPlusTree6search0B6_
FN:44,_RNCNvMNtCs2l7roSUS7lg_17sqlrustgo_storage10bplus_treeNtB4_15SimpleBPlusTree6search0B6_
FN:47,_RNvMNtCs2l7roSUS7lg_17sqlrustgo_storage10bplus_treeNtB2_15SimpleBPlusTree10search_all
FN:51,_RNvMNtCs2l7roSUS7lg_17sqlrustgo_storage10bplus_treeNtB2_15SimpleBPlusTree11range_query
FN:31,_RNvMNtCs2l7roSUS7lg_17sqlrustgo_storage10bplus_treeNtB2_15SimpleBPlusTree3len
FN:25,_RNvMNtCs2l7roSUS7lg_17sqlrustgo_storage10bplus_treeNtB2_15SimpleBPlusTree3new
FN:59,_RNvMNtCs2l7roSUS7lg_17sqlrustgo_storage10bplus_treeNtB2_15SimpleBPlusTree4keys
FN:39,_RNvMNtCs2l7roSUS7lg_17sqlrustgo_storage10bplus_treeNtB2_15SimpleBPlusTree6insert
FN:43,_RNvMNtCs2l7roSUS7lg_17sqlrustgo_storage10bplus_treeNtB2_15SimpleBPlusTree6search
FN:35,_RNvMNtCs2l7roSUS7lg_17sqlrustgo_storage10bplus_treeNtB2_15SimpleBPlusTree8is_empty
FNDA:0,_RNCNvMNtCs38XCG6692bz_17sqlrustgo_storage10bplus_treeNtB4_15SimpleBPlusTree6search0B6_
FNDA:0,_RNvMNtCs38XCG6692bz_17sqlrustgo_storage10bplus_treeNtB2_15SimpleBPlusTree10search_all
FNDA:0,_RNvMNtCs38XCG6692bz_17sqlrustgo_storage10bplus_treeNtB2_15SimpleBPlusTree11range_query
FNDA:0,_RNvMNtCs38XCG6692bz_17sqlrustgo_storage10bplus_treeNtB2_15SimpleBPlusTree3len
FNDA:0,_RNvMNtCs38XCG6692bz_17sqlrustgo_storage10bplus_treeNtB2_15SimpleBPlusTree3new
FNDA:0,_RNvMNtCs38XCG6692bz_17sqlrustgo_storage10bplus_treeNtB2_15SimpleBPlusTree4keys
FNDA:0,_RNvMNtCs38XCG6692bz_17sqlrustgo_storage10bplus_treeNtB2_15SimpleBPlusTree6insert
FNDA:0,_RNvMNtCs38XCG6692bz_17sqlrustgo_storage10bplus_treeNtB2_15SimpleBPlusTree6search
FNDA:0,_RNvMNtCs38XCG6692bz_17sqlrustgo_storage10bplus_treeNtB2_15SimpleBPlusTree8is_empty
FNDA:0,_RNCNvMNtCs1u7In8Za3Xp_17sqlrustgo_storage10bplus_treeNtB4_15SimpleBPlusTree6search0B6_
FNDA:0,_RNvMNtCs1u7In8Za3Xp_17sqlrustgo_storage10bplus_treeNtB2_15SimpleBPlusTree10search_all
FNDA:0,_RNvMNtCs1u7In8Za3Xp_17sqlrustgo_storage10bplus_treeNtB2_15SimpleBPlusTree11range_query
FNDA:0,_RNvMNtCs1u7In8Za3Xp_17sqlrustgo_storage10bplus_treeNtB2_15SimpleBPlusTree3len
FNDA:0,_RNvMNtCs1u7In8Za3Xp_17sqlrustgo_storage10bplus_treeNtB2_15SimpleBPlusTree3new
FNDA:0,_RNvMNtCs1u7In8Za3Xp_17sqlrustgo_storage10bplus_treeNtB2_15SimpleBPlusTree4keys
FNDA:0,_RNvMNtCs1u7In8Za3Xp_17sqlrustgo_storage10bplus_treeNtB2_15SimpleBPlusTree6insert
FNDA:0,_RNvMNtCs1u7In8Za3Xp_17sqlrustgo_storage10bplus_treeNtB2_15SimpleBPlusTree6search
FNDA:0,_RNvMNtCs1u7In8Za3Xp_17sqlrustgo_storage10bplus_treeNtB2_15SimpleBPlusTree8is_empty
FNDA:0,_RNCNvMNtCsd1AkON0xxEy_17sqlrustgo_storage10bplus_treeNtB4_15SimpleBPlusTree6search0B6_
FNDA:0,_RNvMNtCsd1AkON0xxEy_17sqlrustgo_storage10bplus_treeNtB2_15SimpleBPlusTree10search_all
FNDA:0,_RNvMNtCsd1AkON0xxEy_17sqlrustgo_storage10bplus_treeNtB2_15SimpleBPlusTree11range_query
FNDA:0,_RNvMNtCsd1AkON0xxEy_17sqlrustgo_storage10bplus_treeNtB2_15SimpleBPlusTree3len
FNDA:0,_RNvMNtCsd1AkON0xxEy_17sqlrustgo_storage10bplus_treeNtB2_15SimpleBPlusTree3new
FNDA:0,_RNvMNtCsd1AkON0xxEy_17sqlrustgo_storage10bplus_treeNtB2_15SimpleBPlusTree4keys
FNDA:0,_RNvMNtCsd1AkON0xxEy_17sqlrustgo_storage10bplus_treeNtB2_15SimpleBPlusTree6insert
FNDA:0,_RNvMNtCsd1AkON0xxEy_17sqlrustgo_storage10bplus_treeNtB2_15SimpleBPlusTree6search
FNDA:0,_RNvMNtCsd1AkON0xxEy_17sqlrustgo_storage10bplus_treeNtB2_15SimpleBPlusTree8is_empty
FNDA:0,_RNvMNtCs9oXD4GUMzTX_17sqlrustgo_storage10bplus_treeNtB2_15SimpleBPlusTree10search_all
FNDA:0,_RNvMNtCs9oXD4GUMzTX_17sqlrustgo_storage10bplus_treeNtB2_15SimpleBPlusTree11range_query
FNDA:0,_RNvMNtCs9oXD4GUMzTX_17sqlrustgo_storage10bplus_treeNtB2_15SimpleBPlusTree3len
FNDA:0,_RNvMNtCs9oXD4GUMzTX_17sqlrustgo_storage10bplus_treeNtB2_15SimpleBPlusTree3new
FNDA:0,_RNvMNtCs9oXD4GUMzTX_17sqlrustgo_storage10bplus_treeNtB2_15SimpleBPlusTree4keys
FNDA:0,_RNvMNtCs9oXD4GUMzTX_17sqlrustgo_storage10bplus_treeNtB2_15SimpleBPlusTree6insert
FNDA:0,_RNvMNtCs9oXD4GUMzTX_17sqlrustgo_storage10bplus_treeNtB2_15SimpleBPlusTree6search
FNDA:0,_RNvMNtCs9oXD4GUMzTX_17sqlrustgo_storage10bplus_treeNtB2_15SimpleBPlusTree8is_empty
FNDA:0,_RNCNvMNtCs9oXD4GUMzTX_17sqlrustgo_storage10bplus_treeNtB4_15SimpleBPlusTree6search0B6_
FNDA:0,_RNCNvMNtCsl9zPO89iGuX_17sqlrustgo_storage10bplus_treeNtB4_15SimpleBPlusTree6search0B6_
FNDA:0,_RNvMNtCsl9zPO89iGuX_17sqlrustgo_storage10bplus_treeNtB2_15SimpleBPlusTree10search_all
FNDA:0,_RNvMNtCsl9zPO89iGuX_17sqlrustgo_storage10bplus_treeNtB2_15SimpleBPlusTree11range_query
FNDA:0,_RNvMNtCsl9zPO89iGuX_17sqlrustgo_storage10bplus_treeNtB2_15SimpleBPlusTree3len
FNDA:0,_RNvMNtCsl9zPO89iGuX_17sqlrustgo_storage10bplus_treeNtB2_15SimpleBPlusTree3new
FNDA:0,_RNvMNtCsl9zPO89iGuX_17sqlrustgo_storage10bplus_treeNtB2_15SimpleBPlusTree4keys
FNDA:0,_RNvMNtCsl9zPO89iGuX_17sqlrustgo_storage10bplus_treeNtB2_15SimpleBPlusTree6insert
FNDA:0,_RNvMNtCsl9zPO89iGuX_17sqlrustgo_storage10bplus_treeNtB2_15SimpleBPlusTree6search
FNDA:0,_RNvMNtCsl9zPO89iGuX_17sqlrustgo_storage10bplus_treeNtB2_15SimpleBPlusTree8is_empty
FNDA:1,_RNvNtNtCsgGnK47HN26N_17sqlrustgo_storage10bplus_tree5testss_27test_simple_bplus_tree_keys
FNDA:1,_RNvNtNtCsgGnK47HN26N_17sqlrustgo_storage10bplus_tree5testss_31test_simple_bplus_tree_is_empty
FNDA:1,_RNvNtNtCsgGnK47HN26N_17sqlrustgo_storage10bplus_tree5testss_33test_simple_bplus_tree_search_all
FNDA:1,_RNvNtNtCsgGnK47HN26N_17sqlrustgo_storage10bplus_tree5testss_34test_simple_bplus_tree_range_query
FNDA:1,_RNvNtNtCsgGnK47HN26N_17sqlrustgo_storage10bplus_tree5testss_37test_simple_bplus_tree_duplicate_keys
FNDA:1,_RNvNtNtCsgGnK47HN26N_17sqlrustgo_storage10bplus_tree5testss_40test_simple_bplus_tree_insert_and_search
FNDA:4,_RNvMNtCsgGnK47HN26N_17sqlrustgo_storage10bplus_treeNtB2_15SimpleBPlusTree10search_all
FNDA:6,_RNvMNtCsgGnK47HN26N_17sqlrustgo_storage10bplus_treeNtB2_15SimpleBPlusTree11range_query
FNDA:3,_RNvMNtCsgGnK47HN26N_17sqlrustgo_storage10bplus_treeNtB2_15SimpleBPlusTree3len
FNDA:21,_RNvMNtCsgGnK47HN26N_17sqlrustgo_storage10bplus_treeNtB2_15SimpleBPlusTree3new
FNDA:1,_RNvMNtCsgGnK47HN26N_17sqlrustgo_storage10bplus_treeNtB2_15SimpleBPlusTree4keys
FNDA:36,_RNvMNtCsgGnK47HN26N_17sqlrustgo_storage10bplus_treeNtB2_15SimpleBPlusTree6insert
FNDA:9,_RNvMNtCsgGnK47HN26N_17sqlrustgo_storage10bplus_treeNtB2_15SimpleBPlusTree6search
FNDA:3,_RNvMNtCsgGnK47HN26N_17sqlrustgo_storage10bplus_treeNtB2_15SimpleBPlusTree8is_empty
FNDA:7,_RNCNvMNtCsgGnK47HN26N_17sqlrustgo_storage10bplus_treeNtB4_15SimpleBPlusTree6search0B6_
FNDA:0,_RNCNvMNtCs2l7roSUS7lg_17sqlrustgo_storage10bplus_treeNtB4_15SimpleBPlusTree6search0B6_
FNDA:0,_RNvMNtCs2l7roSUS7lg_17sqlrustgo_storage10bplus_treeNtB2_15SimpleBPlusTree10search_all
FNDA:0,_RNvMNtCs2l7roSUS7lg_17sqlrustgo_storage10bplus_treeNtB2_15SimpleBPlusTree11range_query
FNDA:0,_RNvMNtCs2l7roSUS7lg_17sqlrustgo_storage10bplus_treeNtB2_15SimpleBPlusTree3len
FNDA:0,_RNvMNtCs2l7roSUS7lg_17sqlrustgo_storage10bplus_treeNtB2_15SimpleBPlusTree3new
FNDA:0,_RNvMNtCs2l7roSUS7lg_17sqlrustgo_storage10bplus_treeNtB2_15SimpleBPlusTree4keys
FNDA:0,_RNvMNtCs2l7roSUS7lg_17sqlrustgo_storage10bplus_treeNtB2_15SimpleBPlusTree6insert
FNDA:0,_RNvMNtCs2l7roSUS7lg_17sqlrustgo_storage10bplus_treeNtB2_15SimpleBPlusTree6search
FNDA:0,_RNvMNtCs2l7roSUS7lg_17sqlrustgo_storage10bplus_treeNtB2_15SimpleBPlusTree8is_empty
FNF:15
FNH:15
DA:25,21
DA:26,21
DA:27,21
DA:28,21
DA:29,21
DA:31,3
DA:32,3
DA:33,3
DA:35,3
DA:36,3
DA:37,3
DA:39,36
DA:40,36
DA:41,36
DA:43,9
DA:44,9
DA:45,9
DA:47,4
DA:48,4
DA:49,4
DA:51,6
DA:52,6
DA:53,9
DA:54,9
DA:55,9
DA:56,6
DA:57,6
DA:59,1
DA:60,1
DA:61,1
DA:69,1
DA:70,1
DA:71,1
DA:72,1
DA:73,1
DA:75,1
DA:76,1
DA:77,1
DA:78,1
DA:79,1
DA:82,1
DA:83,1
DA:84,1
DA:85,1
DA:86,1
DA:88,1
DA:89,1
DA:90,1
DA:91,1
DA:92,1
DA:93,1
DA:94,1
DA:97,1
DA:98,1
DA:99,1
DA:100,1
DA:101,1
DA:102,1
DA:104,1
DA:105,1
DA:106,1
DA:107,1
DA:108,1
DA:111,1
DA:112,1
DA:113,1
DA:114,1
DA:115,1
DA:117,1
DA:118,1
DA:119,1
DA:120,1
DA:121,1
DA:122,1
DA:125,1
DA:126,1
DA:127,1
DA:128,1
DA:130,1
DA:131,1
DA:132,1
DA:133,1
DA:134,1
DA:137,1
DA:138,1
DA:139,1
DA:140,1
DA:142,1
DA:143,1
DA:145,1
DA:146,1
DA:147,1
BRF:0
BRH:0
LF:93
LH:93
end_of_record
SF:/home/openclaw/dev/yinglichina8848/sqlrustgo/crates/storage/src/buffer_pool.rs
FN:175,_RINvMs1_NtCs38XCG6692bz_17sqlrustgo_storage11buffer_poolNtB6_10BufferPool10fetch_pagepEB8_
FN:144,_RINvMs1_NtCs38XCG6692bz_17sqlrustgo_storage11buffer_poolNtB6_10BufferPool11get_or_loadpEB8_
FN:246,_RINvMs1_NtCs38XCG6692bz_17sqlrustgo_storage11buffer_poolNtB6_10BufferPool14prefetch_rangepEB8_
FN:233,_RINvMs1_NtCs38XCG6692bz_17sqlrustgo_storage11buffer_poolNtB6_10BufferPool8prefetchpEB8_
FN:434,_RINvMs4_NtCs38XCG6692bz_17sqlrustgo_storage11buffer_poolNtB6_14BufferPoolLruK11get_or_loadpEB8_
FN:126,_RNCNvMs1_NtCs38XCG6692bz_17sqlrustgo_storage11buffer_poolNtB7_10BufferPool3get0B9_
FN:193,_RNCNvMs1_NtCs38XCG6692bz_17sqlrustgo_storage11buffer_poolNtB7_10BufferPool6insert0B9_
FN:256,_RNCNvMs1_NtCs38XCG6692bz_17sqlrustgo_storage11buffer_poolNtB7_10BufferPool6remove0B9_
FN:470,_RNCNvMs4_NtCs38XCG6692bz_17sqlrustgo_storage11buffer_poolNtB7_14BufferPoolLruK5evict0B9_
FN:471,_RNCNvMs4_NtCs38XCG6692bz_17sqlrustgo_storage11buffer_poolNtB7_14BufferPoolLruK5evicts_0B9_
FN:175,_RINvMs1_NtCs1u7In8Za3Xp_17sqlrustgo_storage11buffer_poolNtB6_10BufferPool10fetch_pagepEB8_
FN:144,_RINvMs1_NtCs1u7In8Za3Xp_17sqlrustgo_storage11buffer_poolNtB6_10BufferPool11get_or_loadpEB8_
FN:246,_RINvMs1_NtCs1u7In8Za3Xp_17sqlrustgo_storage11buffer_poolNtB6_10BufferPool14prefetch_rangepEB8_
FN:233,_RINvMs1_NtCs1u7In8Za3Xp_17sqlrustgo_storage11buffer_poolNtB6_10BufferPool8prefetchpEB8_
FN:434,_RINvMs4_NtCs1u7In8Za3Xp_17sqlrustgo_storage11buffer_poolNtB6_14BufferPoolLruK11get_or_loadpEB8_
FN:126,_RNCNvMs1_NtCs1u7In8Za3Xp_17sqlrustgo_storage11buffer_poolNtB7_10BufferPool3get0B9_
FN:193,_RNCNvMs1_NtCs1u7In8Za3Xp_17sqlrustgo_storage11buffer_poolNtB7_10BufferPool6insert0B9_
FN:256,_RNCNvMs1_NtCs1u7In8Za3Xp_17sqlrustgo_storage11buffer_poolNtB7_10BufferPool6remove0B9_
FN:470,_RNCNvMs4_NtCs1u7In8Za3Xp_17sqlrustgo_storage11buffer_poolNtB7_14BufferPoolLruK5evict0B9_
FN:471,_RNCNvMs4_NtCs1u7In8Za3Xp_17sqlrustgo_storage11buffer_poolNtB7_14BufferPoolLruK5evicts_0B9_
FN:175,_RINvMs1_NtCsd1AkON0xxEy_17sqlrustgo_storage11buffer_poolNtB6_10BufferPool10fetch_pagepEB8_
FN:144,_RINvMs1_NtCsd1AkON0xxEy_17sqlrustgo_storage11buffer_poolNtB6_10BufferPool11get_or_loadpEB8_
FN:246,_RINvMs1_NtCsd1AkON0xxEy_17sqlrustgo_storage11buffer_poolNtB6_10BufferPool14prefetch_rangepEB8_
FN:233,_RINvMs1_NtCsd1AkON0xxEy_17sqlrustgo_storage11buffer_poolNtB6_10BufferPool8prefetchpEB8_
FN:434,_RINvMs4_NtCsd1AkON0xxEy_17sqlrustgo_storage11buffer_poolNtB6_14BufferPoolLruK11get_or_loadpEB8_
FN:126,_RNCNvMs1_NtCsd1AkON0xxEy_17sqlrustgo_storage11buffer_poolNtB7_10BufferPool3get0B9_
FN:193,_RNCNvMs1_NtCsd1AkON0xxEy_17sqlrustgo_storage11buffer_poolNtB7_10BufferPool6insert0B9_
FN:256,_RNCNvMs1_NtCsd1AkON0xxEy_17sqlrustgo_storage11buffer_poolNtB7_10BufferPool6remove0B9_
FN:470,_RNCNvMs4_NtCsd1AkON0xxEy_17sqlrustgo_storage11buffer_poolNtB7_14BufferPoolLruK5evict0B9_
FN:471,_RNCNvMs4_NtCsd1AkON0xxEy_17sqlrustgo_storage11buffer_poolNtB7_14BufferPoolLruK5evicts_0B9_
FN:126,_RNCNvMs1_NtCs9oXD4GUMzTX_17sqlrustgo_storage11buffer_poolNtB7_10BufferPool3get0B9_
FN:193,_RNCNvMs1_NtCs9oXD4GUMzTX_17sqlrustgo_storage11buffer_poolNtB7_10BufferPool6insert0B9_
FN:256,_RNCNvMs1_NtCs9oXD4GUMzTX_17sqlrustgo_storage11buffer_poolNtB7_10BufferPool6remove0B9_
FN:470,_RNCNvMs4_NtCs9oXD4GUMzTX_17sqlrustgo_storage11buffer_poolNtB7_14BufferPoolLruK5evict0B9_
FN:471,_RNCNvMs4_NtCs9oXD4GUMzTX_17sqlrustgo_storage11buffer_poolNtB7_14BufferPoolLruK5evicts_0B9_
FN:175,_RINvMs1_NtCs9oXD4GUMzTX_17sqlrustgo_storage11buffer_poolNtB6_10BufferPool10fetch_pagepEB8_
FN:144,_RINvMs1_NtCs9oXD4GUMzTX_17sqlrustgo_storage11buffer_poolNtB6_10BufferPool11get_or_loadpEB8_
FN:246,_RINvMs1_NtCs9oXD4GUMzTX_17sqlrustgo_storage11buffer_poolNtB6_10BufferPool14prefetch_rangepEB8_
FN:233,_RINvMs1_NtCs9oXD4GUMzTX_17sqlrustgo_storage11buffer_poolNtB6_10BufferPool8prefetchpEB8_
FN:434,_RINvMs4_NtCs9oXD4GUMzTX_17sqlrustgo_storage11buffer_poolNtB6_14BufferPoolLruK11get_or_loadpEB8_
FN:126,_RNCNvMs1_NtCsl9zPO89iGuX_17sqlrustgo_storage11buffer_poolNtB7_10BufferPool3get0B9_
FN:193,_RNCNvMs1_NtCsl9zPO89iGuX_17sqlrustgo_storage11buffer_poolNtB7_10BufferPool6insert0B9_
FN:256,_RNCNvMs1_NtCsl9zPO89iGuX_17sqlrustgo_storage11buffer_poolNtB7_10BufferPool6remove0B9_
FN:470,_RNCNvMs4_NtCsl9zPO89iGuX_17sqlrustgo_storage11buffer_poolNtB7_14BufferPoolLruK5evict0B9_
FN:471,_RNCNvMs4_NtCsl9zPO89iGuX_17sqlrustgo_storage11buffer_poolNtB7_14BufferPoolLruK5evicts_0B9_
FN:175,_RINvMs1_NtCsl9zPO89iGuX_17sqlrustgo_storage11buffer_poolNtB6_10BufferPool10fetch_pagepEB8_
FN:144,_RINvMs1_NtCsl9zPO89iGuX_17sqlrustgo_storage11buffer_poolNtB6_10BufferPool11get_or_loadpEB8_
FN:246,_RINvMs1_NtCsl9zPO89iGuX_17sqlrustgo_storage11buffer_poolNtB6_10BufferPool14prefetch_rangepEB8_
FN:233,_RINvMs1_NtCsl9zPO89iGuX_17sqlrustgo_storage11buffer_poolNtB6_10BufferPool8prefetchpEB8_
FN:434,_RINvMs4_NtCsl9zPO89iGuX_17sqlrustgo_storage11buffer_poolNtB6_14BufferPoolLruK11get_or_loadpEB8_
FN:175,_RINvMs1_NtCsgGnK47HN26N_17sqlrustgo_storage11buffer_poolNtB6_10BufferPool10fetch_pagepEB8_
FN:434,_RINvMs4_NtCsgGnK47HN26N_17sqlrustgo_storage11buffer_poolNtB6_14BufferPoolLruK11get_or_loadpEB8_
FN:513,_RNvMs4_NtCsgGnK47HN26N_17sqlrustgo_storage11buffer_poolNtB5_14BufferPoolLruK11reset_stats
FN:503,_RNvMs4_NtCsgGnK47HN26N_17sqlrustgo_storage11buffer_poolNtB5_14BufferPoolLruK5stats
FN:109,_RNvXs0_NtCsgGnK47HN26N_17sqlrustgo_storage11buffer_poolNtB5_10BufferPoolNtNtB7_10page_guard8PoolLike3pin
FN:113,_RNvXs0_NtCsgGnK47HN26N_17sqlrustgo_storage11buffer_poolNtB5_10BufferPoolNtNtB7_10page_guard8PoolLike5unpin
FN:634,_RNvNtNtCsgGnK47HN26N_17sqlrustgo_storage11buffer_pool5testss_16test_memory_pool
FN:715,_RNvNtNtCsgGnK47HN26N_17sqlrustgo_storage11buffer_pool5testss_20test_buffer_pool_len
FN:532,_RNvNtNtCsgGnK47HN26N_17sqlrustgo_storage11buffer_pool5testss_22test_buffer_pool_basic
FN:659,_RNvNtNtCsgGnK47HN26N_17sqlrustgo_storage11buffer_pool5testss_22test_buffer_pool_clear
FN:569,_RNvNtNtCsgGnK47HN26N_17sqlrustgo_storage11buffer_pool5testss_22test_buffer_pool_stats
FN:622,_RNvNtNtCsgGnK47HN26N_17sqlrustgo_storage11buffer_pool5testss_23test_buffer_pool_remove
FN:780,_RNvNtNtCsgGnK47HN26N_17sqlrustgo_storage11buffer_pool5testss_24test_memory_pool_default
FN:670,_RNvNtNtCsgGnK47HN26N_17sqlrustgo_storage11buffer_pool5testss_25test_buffer_pool_allocate
FN:539,_RNvNtNtCsgGnK47HN26N_17sqlrustgo_storage11buffer_pool5testss_25test_buffer_pool_get_page
FN:582,_RNvNtNtCsgGnK47HN26N_17sqlrustgo_storage11buffer_pool5testss_25test_buffer_pool_hit_rate
FN:595,_RNvNtNtCsgGnK47HN26N_17sqlrustgo_storage11buffer_pool5testss_25test_buffer_pool_prefetch
FN:874,_RNvNtNtCsgGnK47HN26N_17sqlrustgo_storage11buffer_pool5testss_26test_buffer_pool_pin_unpin
FN:862,_RNvNtNtCsgGnK47HN26N_17sqlrustgo_storage11buffer_pool5testss_27test_lruk_buffer_pool_clear
FN:774,_RNvNtNtCsgGnK47HN26N_17sqlrustgo_storage11buffer_pool5testss_27test_memory_pool_block_size
FN:649,_RNvNtNtCsgGnK47HN26N_17sqlrustgo_storage11buffer_pool5testss_27test_memory_pool_wrong_size
FN:679,_RNvNtNtCsgGnK47HN26N_17sqlrustgo_storage11buffer_pool5testss_28test_buffer_pool_get_or_load
FN:701,_RNvNtNtCsgGnK47HN26N_17sqlrustgo_storage11buffer_pool5testss_28test_buffer_pool_reset_stats
FN:549,_RNvNtNtCsgGnK47HN26N_17sqlrustgo_storage11buffer_pool5testss_29test_buffer_pool_lru_eviction
FN:786,_RNvNtNtCsgGnK47HN26N_17sqlrustgo_storage11buffer_pool5testss_30test_buffer_pool_stats_default
FN:757,_RNvNtNtCsgGnK47HN26N_17sqlrustgo_storage11buffer_pool5testss_30test_buffer_pool_with_prefetch
FN:812,_RNvNtNtCsgGnK47HN26N_17sqlrustgo_storage11buffer_pool5testss_30test_lruk_buffer_pool_creation
FN:830,_RNvNtNtCsgGnK47HN26N_17sqlrustgo_storage11buffer_pool5testss_30test_lruk_buffer_pool_eviction
FN:847,_RNvNtNtCsgGnK47HN26N_17sqlrustgo_storage11buffer_pool5testss_30test_lruk_buffer_pool_hit_rate
FN:726,_RNvNtNtCsgGnK47HN26N_17sqlrustgo_storage11buffer_pool5testss_32test_buffer_pool_insert_existing
FN:735,_RNvNtNtCsgGnK47HN26N_17sqlrustgo_storage11buffer_pool5testss_32test_buffer_pool_prefetch_loader
FN:745,_RNvNtNtCsgGnK47HN26N_17sqlrustgo_storage11buffer_pool5testss_32test_buffer_pool_stats_evictions
FN:801,_RNvNtNtCsgGnK47HN26N_17sqlrustgo_storage11buffer_pool5testss_36test_buffer_pool_stats_hit_rate_full
FN:795,_RNvNtNtCsgGnK47HN26N_17sqlrustgo_storage11buffer_pool5testss_36test_buffer_pool_stats_hit_rate_zero
FN:819,_RNvNtNtCsgGnK47HN26N_17sqlrustgo_storage11buffer_pool5testss_36test_lruk_buffer_pool_insert_and_get
FN:763,_RNvNtNtCsgGnK47HN26N_17sqlrustgo_storage11buffer_pool5testss_37test_memory_pool_multiple_allocations
FN:934,_RNvNtNtCsgGnK47HN26N_17sqlrustgo_storage11buffer_pool5testss_38test_buffer_pool_unpin_allows_eviction
FN:897,_RNvNtNtCsgGnK47HN26N_17sqlrustgo_storage11buffer_pool5testss_40test_buffer_pool_skip_pinned_on_eviction
FN:144,_RINvMs1_NtCsgGnK47HN26N_17sqlrustgo_storage11buffer_poolNtB6_10BufferPool11get_or_loadNCNvNtB6_5testss_28test_buffer_pool_get_or_load0EB8_
FN:144,_RINvMs1_NtCsgGnK47HN26N_17sqlrustgo_storage11buffer_poolNtB6_10BufferPool11get_or_loadNCNvNtB6_5testss_28test_buffer_pool_get_or_loads_0EB8_
FN:246,_RINvMs1_NtCsgGnK47HN26N_17sqlrustgo_storage11buffer_poolNtB6_10BufferPool14prefetch_rangeNCNvNtB6_5testss_25test_buffer_pool_prefetch0EB8_
FN:233,_RINvMs1_NtCsgGnK47HN26N_17sqlrustgo_storage11buffer_poolNtB6_10BufferPool8prefetchNCNvNtB6_5testss_25test_buffer_pool_prefetch0EB8_
FN:233,_RINvMs1_NtCsgGnK47HN26N_17sqlrustgo_storage11buffer_poolNtB6_10BufferPool8prefetchNCNvNtB6_5testss_32test_buffer_pool_prefetch_loader0EB8_
FN:126,_RNCNvMs1_NtCsgGnK47HN26N_17sqlrustgo_storage11buffer_poolNtB7_10BufferPool3get0B9_
FN:193,_RNCNvMs1_NtCsgGnK47HN26N_17sqlrustgo_storage11buffer_poolNtB7_10BufferPool6insert0B9_
FN:256,_RNCNvMs1_NtCsgGnK47HN26N_17sqlrustgo_storage11buffer_poolNtB7_10BufferPool6remove0B9_
FN:470,_RNCNvMs4_NtCsgGnK47HN26N_17sqlrustgo_storage11buffer_poolNtB7_14BufferPoolLruK5evict0B9_
FN:471,_RNCNvMs4_NtCsgGnK47HN26N_17sqlrustgo_storage11buffer_poolNtB7_14BufferPoolLruK5evicts_0B9_
FN:34,_RNvMNtCsgGnK47HN26N_17sqlrustgo_storage11buffer_poolNtB2_15BufferPoolStats8hit_rate
FN:302,_RNvMs1_NtCsgGnK47HN26N_17sqlrustgo_storage11buffer_poolNtB5_10BufferPool11reset_stats
FN:120,_RNvMs1_NtCsgGnK47HN26N_17sqlrustgo_storage11buffer_poolNtB5_10BufferPool3get
FN:269,_RNvMs1_NtCsgGnK47HN26N_17sqlrustgo_storage11buffer_poolNtB5_10BufferPool3len
FN:261,_RNvMs1_NtCsgGnK47HN26N_17sqlrustgo_storage11buffer_poolNtB5_10BufferPool5clear
FN:285,_RNvMs1_NtCsgGnK47HN26N_17sqlrustgo_storage11buffer_poolNtB5_10BufferPool5stats
FN:186,_RNvMs1_NtCsgGnK47HN26N_17sqlrustgo_storage11buffer_poolNtB5_10BufferPool6insert
FN:252,_RNvMs1_NtCsgGnK47HN26N_17sqlrustgo_storage11buffer_poolNtB5_10BufferPool6remove
FN:226,_RNvMs1_NtCsgGnK47HN26N_17sqlrustgo_storage11buffer_poolNtB5_10BufferPool8allocate
FN:280,_RNvMs1_NtCsgGnK47HN26N_17sqlrustgo_storage11buffer_poolNtB5_10BufferPool8capacity
FN:296,_RNvMs1_NtCsgGnK47HN26N_17sqlrustgo_storage11buffer_poolNtB5_10BufferPool8hit_rate
FN:275,_RNvMs1_NtCsgGnK47HN26N_17sqlrustgo_storage11buffer_poolNtB5_10BufferPool8is_empty
FN:348,_RNvMs2_NtCsgGnK47HN26N_17sqlrustgo_storage11buffer_poolNtB5_10MemoryPool10block_size
FN:353,_RNvMs2_NtCsgGnK47HN26N_17sqlrustgo_storage11buffer_poolNtB5_10MemoryPool10free_count
FN:318,_RNvMs2_NtCsgGnK47HN26N_17sqlrustgo_storage11buffer_poolNtB5_10MemoryPool3new
FN:338,_RNvMs2_NtCsgGnK47HN26N_17sqlrustgo_storage11buffer_poolNtB5_10MemoryPool4free
FN:326,_RNvMs2_NtCsgGnK47HN26N_17sqlrustgo_storage11buffer_poolNtB5_10MemoryPool8allocate
FN:418,_RNvMs4_NtCsgGnK47HN26N_17sqlrustgo_storage11buffer_poolNtB5_14BufferPoolLruK13record_access
FN:396,_RNvMs4_NtCsgGnK47HN26N_17sqlrustgo_storage11buffer_poolNtB5_14BufferPoolLruK3get
FN:488,_RNvMs4_NtCsgGnK47HN26N_17sqlrustgo_storage11buffer_poolNtB5_14BufferPoolLruK3len
FN:384,_RNvMs4_NtCsgGnK47HN26N_17sqlrustgo_storage11buffer_poolNtB5_14BufferPoolLruK3new
FN:519,_RNvMs4_NtCsgGnK47HN26N_17sqlrustgo_storage11buffer_poolNtB5_14BufferPoolLruK5clear
FN:464,_RNvMs4_NtCsgGnK47HN26N_17sqlrustgo_storage11buffer_poolNtB5_14BufferPoolLruK5evict
FN:449,_RNvMs4_NtCsgGnK47HN26N_17sqlrustgo_storage11buffer_poolNtB5_14BufferPoolLruK6insert
FN:498,_RNvMs4_NtCsgGnK47HN26N_17sqlrustgo_storage11buffer_poolNtB5_14BufferPoolLruK8capacity
FN:508,_RNvMs4_NtCsgGnK47HN26N_17sqlrustgo_storage11buffer_poolNtB5_14BufferPoolLruK8hit_rate
FN:493,_RNvMs4_NtCsgGnK47HN26N_17sqlrustgo_storage11buffer_poolNtB5_14BufferPoolLruK8is_empty
FN:57,_RNvMs_NtCsgGnK47HN26N_17sqlrustgo_storage11buffer_poolNtB4_10BufferPool13with_prefetch
FN:45,_RNvMs_NtCsgGnK47HN26N_17sqlrustgo_storage11buffer_poolNtB4_10BufferPool3new
FN:72,_RNvMs_NtCsgGnK47HN26N_17sqlrustgo_storage11buffer_poolNtB4_10BufferPool3pin
FN:81,_RNvMs_NtCsgGnK47HN26N_17sqlrustgo_storage11buffer_poolNtB4_10BufferPool5unpin
FN:96,_RNvMs_NtCsgGnK47HN26N_17sqlrustgo_storage11buffer_poolNtB4_10BufferPool9is_pinned
FN:102,_RNvMs_NtCsgGnK47HN26N_17sqlrustgo_storage11buffer_poolNtB4_10BufferPool9pin_count
FN:360,_RNvXs3_NtCsgGnK47HN26N_17sqlrustgo_storage11buffer_poolNtB5_10MemoryPoolNtNtCs8nPosuWgJFh_4core7default7Default7default
FN:602,_RNCNvNtNtCsgGnK47HN26N_17sqlrustgo_storage11buffer_pool5testss_25test_buffer_pool_prefetch0B7_
FN:683,_RNCNvNtNtCsgGnK47HN26N_17sqlrustgo_storage11buffer_pool5testss_28test_buffer_pool_get_or_load0B7_
FN:691,_RNCNvNtNtCsgGnK47HN26N_17sqlrustgo_storage11buffer_pool5testss_28test_buffer_pool_get_or_loads_0B7_
FN:738,_RNCNvNtNtCsgGnK47HN26N_17sqlrustgo_storage11buffer_pool5testss_32test_buffer_pool_prefetch_loader0B7_
FN:126,_RNCNvMs1_NtCs2l7roSUS7lg_17sqlrustgo_storage11buffer_poolNtB7_10BufferPool3get0B9_
FN:193,_RNCNvMs1_NtCs2l7roSUS7lg_17sqlrustgo_storage11buffer_poolNtB7_10BufferPool6insert0B9_
FN:256,_RNCNvMs1_NtCs2l7roSUS7lg_17sqlrustgo_storage11buffer_poolNtB7_10BufferPool6remove0B9_
FN:470,_RNCNvMs4_NtCs2l7roSUS7lg_17sqlrustgo_storage11buffer_poolNtB7_14BufferPoolLruK5evict0B9_
FN:471,_RNCNvMs4_NtCs2l7roSUS7lg_17sqlrustgo_storage11buffer_poolNtB7_14BufferPoolLruK5evicts_0B9_
FN:175,_RINvMs1_NtCs2l7roSUS7lg_17sqlrustgo_storage11buffer_poolNtB6_10BufferPool10fetch_pagepEB8_
FN:144,_RINvMs1_NtCs2l7roSUS7lg_17sqlrustgo_storage11buffer_poolNtB6_10BufferPool11get_or_loadpEB8_
FN:246,_RINvMs1_NtCs2l7roSUS7lg_17sqlrustgo_storage11buffer_poolNtB6_10BufferPool14prefetch_rangepEB8_
FN:233,_RINvMs1_NtCs2l7roSUS7lg_17sqlrustgo_storage11buffer_poolNtB6_10BufferPool8prefetchpEB8_
FN:434,_RINvMs4_NtCs2l7roSUS7lg_17sqlrustgo_storage11buffer_poolNtB6_14BufferPoolLruK11get_or_loadpEB8_
FNDA:0,_RINvMs1_NtCs38XCG6692bz_17sqlrustgo_storage11buffer_poolNtB6_10BufferPool10fetch_pagepEB8_
FNDA:0,_RINvMs1_NtCs38XCG6692bz_17sqlrustgo_storage11buffer_poolNtB6_10BufferPool11get_or_loadpEB8_
FNDA:0,_RINvMs1_NtCs38XCG6692bz_17sqlrustgo_storage11buffer_poolNtB6_10BufferPool14prefetch_rangepEB8_
FNDA:0,_RINvMs1_NtCs38XCG6692bz_17sqlrustgo_storage11buffer_poolNtB6_10BufferPool8prefetchpEB8_
FNDA:0,_RINvMs4_NtCs38XCG6692bz_17sqlrustgo_storage11buffer_poolNtB6_14BufferPoolLruK11get_or_loadpEB8_
FNDA:0,_RNCNvMs1_NtCs38XCG6692bz_17sqlrustgo_storage11buffer_poolNtB7_10BufferPool3get0B9_
FNDA:0,_RNCNvMs1_NtCs38XCG6692bz_17sqlrustgo_storage11buffer_poolNtB7_10BufferPool6insert0B9_
FNDA:0,_RNCNvMs1_NtCs38XCG6692bz_17sqlrustgo_storage11buffer_poolNtB7_10BufferPool6remove0B9_
FNDA:0,_RNCNvMs4_NtCs38XCG6692bz_17sqlrustgo_storage11buffer_poolNtB7_14BufferPoolLruK5evict0B9_
FNDA:0,_RNCNvMs4_NtCs38XCG6692bz_17sqlrustgo_storage11buffer_poolNtB7_14BufferPoolLruK5evicts_0B9_
FNDA:0,_RINvMs1_NtCs1u7In8Za3Xp_17sqlrustgo_storage11buffer_poolNtB6_10BufferPool10fetch_pagepEB8_
FNDA:0,_RINvMs1_NtCs1u7In8Za3Xp_17sqlrustgo_storage11buffer_poolNtB6_10BufferPool11get_or_loadpEB8_
FNDA:0,_RINvMs1_NtCs1u7In8Za3Xp_17sqlrustgo_storage11buffer_poolNtB6_10BufferPool14prefetch_rangepEB8_
FNDA:0,_RINvMs1_NtCs1u7In8Za3Xp_17sqlrustgo_storage11buffer_poolNtB6_10BufferPool8prefetchpEB8_
FNDA:0,_RINvMs4_NtCs1u7In8Za3Xp_17sqlrustgo_storage11buffer_poolNtB6_14BufferPoolLruK11get_or_loadpEB8_
FNDA:0,_RNCNvMs1_NtCs1u7In8Za3Xp_17sqlrustgo_storage11buffer_poolNtB7_10BufferPool3get0B9_
FNDA:0,_RNCNvMs1_NtCs1u7In8Za3Xp_17sqlrustgo_storage11buffer_poolNtB7_10BufferPool6insert0B9_
FNDA:0,_RNCNvMs1_NtCs1u7In8Za3Xp_17sqlrustgo_storage11buffer_poolNtB7_10BufferPool6remove0B9_
FNDA:0,_RNCNvMs4_NtCs1u7In8Za3Xp_17sqlrustgo_storage11buffer_poolNtB7_14BufferPoolLruK5evict0B9_
FNDA:0,_RNCNvMs4_NtCs1u7In8Za3Xp_17sqlrustgo_storage11buffer_poolNtB7_14BufferPoolLruK5evicts_0B9_
FNDA:0,_RINvMs1_NtCsd1AkON0xxEy_17sqlrustgo_storage11buffer_poolNtB6_10BufferPool10fetch_pagepEB8_
FNDA:0,_RINvMs1_NtCsd1AkON0xxEy_17sqlrustgo_storage11buffer_poolNtB6_10BufferPool11get_or_loadpEB8_
FNDA:0,_RINvMs1_NtCsd1AkON0xxEy_17sqlrustgo_storage11buffer_poolNtB6_10BufferPool14prefetch_rangepEB8_
FNDA:0,_RINvMs1_NtCsd1AkON0xxEy_17sqlrustgo_storage11buffer_poolNtB6_10BufferPool8prefetchpEB8_
FNDA:0,_RINvMs4_NtCsd1AkON0xxEy_17sqlrustgo_storage11buffer_poolNtB6_14BufferPoolLruK11get_or_loadpEB8_
FNDA:0,_RNCNvMs1_NtCsd1AkON0xxEy_17sqlrustgo_storage11buffer_poolNtB7_10BufferPool3get0B9_
FNDA:0,_RNCNvMs1_NtCsd1AkON0xxEy_17sqlrustgo_storage11buffer_poolNtB7_10BufferPool6insert0B9_
FNDA:0,_RNCNvMs1_NtCsd1AkON0xxEy_17sqlrustgo_storage11buffer_poolNtB7_10BufferPool6remove0B9_
FNDA:0,_RNCNvMs4_NtCsd1AkON0xxEy_17sqlrustgo_storage11buffer_poolNtB7_14BufferPoolLruK5evict0B9_
FNDA:0,_RNCNvMs4_NtCsd1AkON0xxEy_17sqlrustgo_storage11buffer_poolNtB7_14BufferPoolLruK5evicts_0B9_
FNDA:0,_RNCNvMs1_NtCs9oXD4GUMzTX_17sqlrustgo_storage11buffer_poolNtB7_10BufferPool3get0B9_
FNDA:0,_RNCNvMs1_NtCs9oXD4GUMzTX_17sqlrustgo_storage11buffer_poolNtB7_10BufferPool6insert0B9_
FNDA:0,_RNCNvMs1_NtCs9oXD4GUMzTX_17sqlrustgo_storage11buffer_poolNtB7_10BufferPool6remove0B9_
FNDA:0,_RNCNvMs4_NtCs9oXD4GUMzTX_17sqlrustgo_storage11buffer_poolNtB7_14BufferPoolLruK5evict0B9_
FNDA:0,_RNCNvMs4_NtCs9oXD4GUMzTX_17sqlrustgo_storage11buffer_poolNtB7_14BufferPoolLruK5evicts_0B9_
FNDA:0,_RINvMs1_NtCs9oXD4GUMzTX_17sqlrustgo_storage11buffer_poolNtB6_10BufferPool10fetch_pagepEB8_
FNDA:0,_RINvMs1_NtCs9oXD4GUMzTX_17sqlrustgo_storage11buffer_poolNtB6_10BufferPool11get_or_loadpEB8_
FNDA:0,_RINvMs1_NtCs9oXD4GUMzTX_17sqlrustgo_storage11buffer_poolNtB6_10BufferPool14prefetch_rangepEB8_
FNDA:0,_RINvMs1_NtCs9oXD4GUMzTX_17sqlrustgo_storage11buffer_poolNtB6_10BufferPool8prefetchpEB8_
FNDA:0,_RINvMs4_NtCs9oXD4GUMzTX_17sqlrustgo_storage11buffer_poolNtB6_14BufferPoolLruK11get_or_loadpEB8_
FNDA:0,_RNCNvMs1_NtCsl9zPO89iGuX_17sqlrustgo_storage11buffer_poolNtB7_10BufferPool3get0B9_
FNDA:0,_RNCNvMs1_NtCsl9zPO89iGuX_17sqlrustgo_storage11buffer_poolNtB7_10BufferPool6insert0B9_
FNDA:0,_RNCNvMs1_NtCsl9zPO89iGuX_17sqlrustgo_storage11buffer_poolNtB7_10BufferPool6remove0B9_
FNDA:0,_RNCNvMs4_NtCsl9zPO89iGuX_17sqlrustgo_storage11buffer_poolNtB7_14BufferPoolLruK5evict0B9_
FNDA:0,_RNCNvMs4_NtCsl9zPO89iGuX_17sqlrustgo_storage11buffer_poolNtB7_14BufferPoolLruK5evicts_0B9_
FNDA:0,_RINvMs1_NtCsl9zPO89iGuX_17sqlrustgo_storage11buffer_poolNtB6_10BufferPool10fetch_pagepEB8_
FNDA:0,_RINvMs1_NtCsl9zPO89iGuX_17sqlrustgo_storage11buffer_poolNtB6_10BufferPool11get_or_loadpEB8_
FNDA:0,_RINvMs1_NtCsl9zPO89iGuX_17sqlrustgo_storage11buffer_poolNtB6_10BufferPool14prefetch_rangepEB8_
FNDA:0,_RINvMs1_NtCsl9zPO89iGuX_17sqlrustgo_storage11buffer_poolNtB6_10BufferPool8prefetchpEB8_
FNDA:0,_RINvMs4_NtCsl9zPO89iGuX_17sqlrustgo_storage11buffer_poolNtB6_14BufferPoolLruK11get_or_loadpEB8_
FNDA:0,_RINvMs1_NtCsgGnK47HN26N_17sqlrustgo_storage11buffer_poolNtB6_10BufferPool10fetch_pagepEB8_
FNDA:0,_RINvMs4_NtCsgGnK47HN26N_17sqlrustgo_storage11buffer_poolNtB6_14BufferPoolLruK11get_or_loadpEB8_
FNDA:0,_RNvMs4_NtCsgGnK47HN26N_17sqlrustgo_storage11buffer_poolNtB5_14BufferPoolLruK11reset_stats
FNDA:0,_RNvMs4_NtCsgGnK47HN26N_17sqlrustgo_storage11buffer_poolNtB5_14BufferPoolLruK5stats
FNDA:0,_RNvXs0_NtCsgGnK47HN26N_17sqlrustgo_storage11buffer_poolNtB5_10BufferPoolNtNtB7_10page_guard8PoolLike3pin
FNDA:0,_RNvXs0_NtCsgGnK47HN26N_17sqlrustgo_storage11buffer_poolNtB5_10BufferPoolNtNtB7_10page_guard8PoolLike5unpin
FNDA:1,_RNvNtNtCsgGnK47HN26N_17sqlrustgo_storage11buffer_pool5testss_16test_memory_pool
FNDA:1,_RNvNtNtCsgGnK47HN26N_17sqlrustgo_storage11buffer_pool5testss_20test_buffer_pool_len
FNDA:1,_RNvNtNtCsgGnK47HN26N_17sqlrustgo_storage11buffer_pool5testss_22test_buffer_pool_basic
FNDA:1,_RNvNtNtCsgGnK47HN26N_17sqlrustgo_storage11buffer_pool5testss_22test_buffer_pool_clear
FNDA:1,_RNvNtNtCsgGnK47HN26N_17sqlrustgo_storage11buffer_pool5testss_22test_buffer_pool_stats
FNDA:1,_RNvNtNtCsgGnK47HN26N_17sqlrustgo_storage11buffer_pool5testss_23test_buffer_pool_remove
FNDA:1,_RNvNtNtCsgGnK47HN26N_17sqlrustgo_storage11buffer_pool5testss_24test_memory_pool_default
FNDA:1,_RNvNtNtCsgGnK47HN26N_17sqlrustgo_storage11buffer_pool5testss_25test_buffer_pool_allocate
FNDA:1,_RNvNtNtCsgGnK47HN26N_17sqlrustgo_storage11buffer_pool5testss_25test_buffer_pool_get_page
FNDA:1,_RNvNtNtCsgGnK47HN26N_17sqlrustgo_storage11buffer_pool5testss_25test_buffer_pool_hit_rate
FNDA:1,_RNvNtNtCsgGnK47HN26N_17sqlrustgo_storage11buffer_pool5testss_25test_buffer_pool_prefetch
FNDA:1,_RNvNtNtCsgGnK47HN26N_17sqlrustgo_storage11buffer_pool5testss_26test_buffer_pool_pin_unpin
FNDA:1,_RNvNtNtCsgGnK47HN26N_17sqlrustgo_storage11buffer_pool5testss_27test_lruk_buffer_pool_clear
FNDA:1,_RNvNtNtCsgGnK47HN26N_17sqlrustgo_storage11buffer_pool5testss_27test_memory_pool_block_size
FNDA:1,_RNvNtNtCsgGnK47HN26N_17sqlrustgo_storage11buffer_pool5testss_27test_memory_pool_wrong_size
FNDA:1,_RNvNtNtCsgGnK47HN26N_17sqlrustgo_storage11buffer_pool5testss_28test_buffer_pool_get_or_load
FNDA:1,_RNvNtNtCsgGnK47HN26N_17sqlrustgo_storage11buffer_pool5testss_28test_buffer_pool_reset_stats
FNDA:1,_RNvNtNtCsgGnK47HN26N_17sqlrustgo_storage11buffer_pool5testss_29test_buffer_pool_lru_eviction
FNDA:1,_RNvNtNtCsgGnK47HN26N_17sqlrustgo_storage11buffer_pool5testss_30test_buffer_pool_stats_default
FNDA:1,_RNvNtNtCsgGnK47HN26N_17sqlrustgo_storage11buffer_pool5testss_30test_buffer_pool_with_prefetch
FNDA:1,_RNvNtNtCsgGnK47HN26N_17sqlrustgo_storage11buffer_pool5testss_30test_lruk_buffer_pool_creation
FNDA:1,_RNvNtNtCsgGnK47HN26N_17sqlrustgo_storage11buffer_pool5testss_30test_lruk_buffer_pool_eviction
FNDA:1,_RNvNtNtCsgGnK47HN26N_17sqlrustgo_storage11buffer_pool5testss_30test_lruk_buffer_pool_hit_rate
FNDA:1,_RNvNtNtCsgGnK47HN26N_17sqlrustgo_storage11buffer_pool5testss_32test_buffer_pool_insert_existing
FNDA:1,_RNvNtNtCsgGnK47HN26N_17sqlrustgo_storage11buffer_pool5testss_32test_buffer_pool_prefetch_loader
FNDA:1,_RNvNtNtCsgGnK47HN26N_17sqlrustgo_storage11buffer_pool5testss_32test_buffer_pool_stats_evictions
FNDA:1,_RNvNtNtCsgGnK47HN26N_17sqlrustgo_storage11buffer_pool5testss_36test_buffer_pool_stats_hit_rate_full
FNDA:1,_RNvNtNtCsgGnK47HN26N_17sqlrustgo_storage11buffer_pool5testss_36test_buffer_pool_stats_hit_rate_zero
FNDA:1,_RNvNtNtCsgGnK47HN26N_17sqlrustgo_storage11buffer_pool5testss_36test_lruk_buffer_pool_insert_and_get
FNDA:1,_RNvNtNtCsgGnK47HN26N_17sqlrustgo_storage11buffer_pool5testss_37test_memory_pool_multiple_allocations
FNDA:1,_RNvNtNtCsgGnK47HN26N_17sqlrustgo_storage11buffer_pool5testss_38test_buffer_pool_unpin_allows_eviction
FNDA:1,_RNvNtNtCsgGnK47HN26N_17sqlrustgo_storage11buffer_pool5testss_40test_buffer_pool_skip_pinned_on_eviction
FNDA:1,_RINvMs1_NtCsgGnK47HN26N_17sqlrustgo_storage11buffer_poolNtB6_10BufferPool11get_or_loadNCNvNtB6_5testss_28test_buffer_pool_get_or_load0EB8_
FNDA:1,_RINvMs1_NtCsgGnK47HN26N_17sqlrustgo_storage11buffer_poolNtB6_10BufferPool11get_or_loadNCNvNtB6_5testss_28test_buffer_pool_get_or_loads_0EB8_
FNDA:1,_RINvMs1_NtCsgGnK47HN26N_17sqlrustgo_storage11buffer_poolNtB6_10BufferPool14prefetch_rangeNCNvNtB6_5testss_25test_buffer_pool_prefetch0EB8_
FNDA:1,_RINvMs1_NtCsgGnK47HN26N_17sqlrustgo_storage11buffer_poolNtB6_10BufferPool8prefetchNCNvNtB6_5testss_25test_buffer_pool_prefetch0EB8_
FNDA:1,_RINvMs1_NtCsgGnK47HN26N_17sqlrustgo_storage11buffer_poolNtB6_10BufferPool8prefetchNCNvNtB6_5testss_32test_buffer_pool_prefetch_loader0EB8_
FNDA:58,_RNCNvMs1_NtCsgGnK47HN26N_17sqlrustgo_storage11buffer_poolNtB7_10BufferPool3get0B9_
FNDA:1,_RNCNvMs1_NtCsgGnK47HN26N_17sqlrustgo_storage11buffer_poolNtB7_10BufferPool6insert0B9_
FNDA:1,_RNCNvMs1_NtCsgGnK47HN26N_17sqlrustgo_storage11buffer_poolNtB7_10BufferPool6remove0B9_
FNDA:2,_RNCNvMs4_NtCsgGnK47HN26N_17sqlrustgo_storage11buffer_poolNtB7_14BufferPoolLruK5evict0B9_
FNDA:2,_RNCNvMs4_NtCsgGnK47HN26N_17sqlrustgo_storage11buffer_poolNtB7_14BufferPoolLruK5evicts_0B9_
FNDA:4,_RNvMNtCsgGnK47HN26N_17sqlrustgo_storage11buffer_poolNtB2_15BufferPoolStats8hit_rate
FNDA:1,_RNvMs1_NtCsgGnK47HN26N_17sqlrustgo_storage11buffer_poolNtB5_10BufferPool11reset_stats
FNDA:46,_RNvMs1_NtCsgGnK47HN26N_17sqlrustgo_storage11buffer_poolNtB5_10BufferPool3get
FNDA:7,_RNvMs1_NtCsgGnK47HN26N_17sqlrustgo_storage11buffer_poolNtB5_10BufferPool3len
FNDA:1,_RNvMs1_NtCsgGnK47HN26N_17sqlrustgo_storage11buffer_poolNtB5_10BufferPool5clear
FNDA:5,_RNvMs1_NtCsgGnK47HN26N_17sqlrustgo_storage11buffer_poolNtB5_10BufferPool5stats
FNDA:35,_RNvMs1_NtCsgGnK47HN26N_17sqlrustgo_storage11buffer_poolNtB5_10BufferPool6insert
FNDA:2,_RNvMs1_NtCsgGnK47HN26N_17sqlrustgo_storage11buffer_poolNtB5_10BufferPool6remove
FNDA:1,_RNvMs1_NtCsgGnK47HN26N_17sqlrustgo_storage11buffer_poolNtB5_10BufferPool8allocate
FNDA:3,_RNvMs1_NtCsgGnK47HN26N_17sqlrustgo_storage11buffer_poolNtB5_10BufferPool8capacity
FNDA:1,_RNvMs1_NtCsgGnK47HN26N_17sqlrustgo_storage11buffer_poolNtB5_10BufferPool8hit_rate
FNDA:2,_RNvMs1_NtCsgGnK47HN26N_17sqlrustgo_storage11buffer_poolNtB5_10BufferPool8is_empty
FNDA:2,_RNvMs2_NtCsgGnK47HN26N_17sqlrustgo_storage11buffer_poolNtB5_10MemoryPool10block_size
FNDA:2,_RNvMs2_NtCsgGnK47HN26N_17sqlrustgo_storage11buffer_poolNtB5_10MemoryPool10free_count
FNDA:5,_RNvMs2_NtCsgGnK47HN26N_17sqlrustgo_storage11buffer_poolNtB5_10MemoryPool3new
FNDA:2,_RNvMs2_NtCsgGnK47HN26N_17sqlrustgo_storage11buffer_poolNtB5_10MemoryPool4free
FNDA:4,_RNvMs2_NtCsgGnK47HN26N_17sqlrustgo_storage11buffer_poolNtB5_10MemoryPool8allocate
FNDA:10,_RNvMs4_NtCsgGnK47HN26N_17sqlrustgo_storage11buffer_poolNtB5_14BufferPoolLruK13record_access
FNDA:4,_RNvMs4_NtCsgGnK47HN26N_17sqlrustgo_storage11buffer_poolNtB5_14BufferPoolLruK3get
FNDA:4,_RNvMs4_NtCsgGnK47HN26N_17sqlrustgo_storage11buffer_poolNtB5_14BufferPoolLruK3len
FNDA:5,_RNvMs4_NtCsgGnK47HN26N_17sqlrustgo_storage11buffer_poolNtB5_14BufferPoolLruK3new
FNDA:1,_RNvMs4_NtCsgGnK47HN26N_17sqlrustgo_storage11buffer_poolNtB5_14BufferPoolLruK5clear
FNDA:1,_RNvMs4_NtCsgGnK47HN26N_17sqlrustgo_storage11buffer_poolNtB5_14BufferPoolLruK5evict
FNDA:6,_RNvMs4_NtCsgGnK47HN26N_17sqlrustgo_storage11buffer_poolNtB5_14BufferPoolLruK6insert
FNDA:1,_RNvMs4_NtCsgGnK47HN26N_17sqlrustgo_storage11buffer_poolNtB5_14BufferPoolLruK8capacity
FNDA:1,_RNvMs4_NtCsgGnK47HN26N_17sqlrustgo_storage11buffer_poolNtB5_14BufferPoolLruK8hit_rate
FNDA:2,_RNvMs4_NtCsgGnK47HN26N_17sqlrustgo_storage11buffer_poolNtB5_14BufferPoolLruK8is_empty
FNDA:3,_RNvMs_NtCsgGnK47HN26N_17sqlrustgo_storage11buffer_poolNtB4_10BufferPool13with_prefetch
FNDA:34,_RNvMs_NtCsgGnK47HN26N_17sqlrustgo_storage11buffer_poolNtB4_10BufferPool3new
FNDA:5,_RNvMs_NtCsgGnK47HN26N_17sqlrustgo_storage11buffer_poolNtB4_10BufferPool3pin
FNDA:4,_RNvMs_NtCsgGnK47HN26N_17sqlrustgo_storage11buffer_poolNtB4_10BufferPool5unpin
FNDA:13,_RNvMs_NtCsgGnK47HN26N_17sqlrustgo_storage11buffer_poolNtB4_10BufferPool9is_pinned
FNDA:5,_RNvMs_NtCsgGnK47HN26N_17sqlrustgo_storage11buffer_poolNtB4_10BufferPool9pin_count
FNDA:1,_RNvXs3_NtCsgGnK47HN26N_17sqlrustgo_storage11buffer_poolNtB5_10MemoryPoolNtNtCs8nPosuWgJFh_4core7default7Default7default
FNDA:3,_RNCNvNtNtCsgGnK47HN26N_17sqlrustgo_storage11buffer_pool5testss_25test_buffer_pool_prefetch0B7_
FNDA:1,_RNCNvNtNtCsgGnK47HN26N_17sqlrustgo_storage11buffer_pool5testss_28test_buffer_pool_get_or_load0B7_
FNDA:0,_RNCNvNtNtCsgGnK47HN26N_17sqlrustgo_storage11buffer_pool5testss_28test_buffer_pool_get_or_loads_0B7_
FNDA:2,_RNCNvNtNtCsgGnK47HN26N_17sqlrustgo_storage11buffer_pool5testss_32test_buffer_pool_prefetch_loader0B7_
FNDA:0,_RNCNvMs1_NtCs2l7roSUS7lg_17sqlrustgo_storage11buffer_poolNtB7_10BufferPool3get0B9_
FNDA:0,_RNCNvMs1_NtCs2l7roSUS7lg_17sqlrustgo_storage11buffer_poolNtB7_10BufferPool6insert0B9_
FNDA:0,_RNCNvMs1_NtCs2l7roSUS7lg_17sqlrustgo_storage11buffer_poolNtB7_10BufferPool6remove0B9_
FNDA:0,_RNCNvMs4_NtCs2l7roSUS7lg_17sqlrustgo_storage11buffer_poolNtB7_14BufferPoolLruK5evict0B9_
FNDA:0,_RNCNvMs4_NtCs2l7roSUS7lg_17sqlrustgo_storage11buffer_poolNtB7_14BufferPoolLruK5evicts_0B9_
FNDA:0,_RINvMs1_NtCs2l7roSUS7lg_17sqlrustgo_storage11buffer_poolNtB6_10BufferPool10fetch_pagepEB8_
FNDA:0,_RINvMs1_NtCs2l7roSUS7lg_17sqlrustgo_storage11buffer_poolNtB6_10BufferPool11get_or_loadpEB8_
FNDA:0,_RINvMs1_NtCs2l7roSUS7lg_17sqlrustgo_storage11buffer_poolNtB6_10BufferPool14prefetch_rangepEB8_
FNDA:0,_RINvMs1_NtCs2l7roSUS7lg_17sqlrustgo_storage11buffer_poolNtB6_10BufferPool8prefetchpEB8_
FNDA:0,_RINvMs4_NtCs2l7roSUS7lg_17sqlrustgo_storage11buffer_poolNtB6_14BufferPoolLruK11get_or_loadpEB8_
FNF:84
FNH:77
DA:34,4
DA:35,4
DA:36,4
DA:37,1
DA:38,3
DA:39,3
DA:40,4
DA:45,34
DA:46,34
DA:47,34
DA:48,34
DA:49,34
DA:50,34
DA:51,34
DA:52,34
DA:53,34
DA:54,34
DA:57,3
DA:58,3
DA:59,3
DA:60,3
DA:61,3
DA:62,3
DA:63,3
DA:64,3
DA:65,3
DA:66,3
DA:72,5
DA:73,5
DA:74,5
DA:75,5
DA:81,4
DA:82,4
DA:83,4
DA:84,4
DA:85,4
DA:86,4
DA:87,3
DA:88,3
DA:89,1
DA:90,0
DA:91,0
DA:92,1
DA:93,4
DA:96,13
DA:97,13
DA:98,13
DA:99,13
DA:102,5
DA:103,5
DA:104,5
DA:105,5
DA:109,0
DA:110,0
DA:111,0
DA:113,0
DA:114,0
DA:115,0
DA:120,46
DA:121,46
DA:123,46
DA:125,30
DA:126,58
DA:127,30
DA:130,30
DA:131,30
DA:133,30
DA:136,16
DA:137,16
DA:139,16
DA:141,46
DA:144,2
DA:145,2
DA:146,2
DA:149,2
DA:150,1
DA:151,1
DA:154,1
DA:155,1
DA:156,1
DA:157,2
DA:175,0
DA:176,0
DA:177,0
DA:180,0
DA:182,0
DA:183,0
DA:186,35
DA:187,35
DA:189,35
DA:190,35
DA:192,35
DA:193,1
DA:194,1
DA:195,1
DA:196,34
DA:198,34
DA:199,34
DA:200,43
DA:201,10
DA:202,10
DA:203,5
DA:204,1
DA:205,1
DA:206,4
DA:207,4
DA:208,4
DA:209,4
DA:210,5
DA:211,5
DA:212,5
DA:213,5
DA:214,5
DA:215,5
DA:216,0
DA:219,34
DA:220,33
DA:221,33
DA:222,33
DA:223,35
DA:226,1
DA:227,1
DA:228,1
DA:229,1
DA:230,1
DA:233,2
DA:234,5
DA:235,5
DA:236,5
DA:237,5
DA:238,5
DA:239,5
DA:240,5
DA:241,5
DA:243,2
DA:246,1
DA:247,1
DA:248,1
DA:249,1
DA:252,2
DA:253,2
DA:254,2
DA:256,2
DA:257,2
DA:258,2
DA:261,1
DA:262,1
DA:263,1
DA:264,1
DA:265,1
DA:266,1
DA:269,7
DA:270,7
DA:271,7
DA:272,7
DA:275,2
DA:276,2
DA:277,2
DA:280,3
DA:281,3
DA:282,3
DA:285,5
DA:286,5
DA:287,5
DA:288,5
DA:289,5
DA:290,5
DA:291,5
DA:292,5
DA:293,5
DA:296,1
DA:297,1
DA:298,1
DA:299,1
DA:302,1
DA:303,1
DA:304,1
DA:305,1
DA:318,5
DA:319,5
DA:320,5
DA:321,5
DA:322,5
DA:323,5
DA:326,4
DA:327,4
DA:329,4
DA:330,1
DA:331,1
DA:333,3
DA:335,4
DA:338,2
DA:340,2
DA:341,1
DA:342,1
DA:343,1
DA:344,1
DA:345,2
DA:348,2
DA:349,2
DA:350,2
DA:353,2
DA:354,2
DA:355,2
DA:356,2
DA:360,1
DA:361,1
DA:362,1
DA:384,5
DA:385,5
DA:386,5
DA:387,5
DA:388,5
DA:389,5
DA:390,5
DA:391,5
DA:392,5
DA:393,5
DA:396,4
DA:397,4
DA:399,4
DA:401,4
DA:404,4
DA:405,4
DA:407,4
DA:410,0
DA:411,0
DA:413,0
DA:415,4
DA:418,10
DA:419,10
DA:420,10
DA:421,10
DA:423,10
DA:424,10
DA:425,10
DA:428,10
DA:429,2
DA:430,8
DA:431,10
DA:434,0
DA:435,0
DA:436,0
DA:438,0
DA:439,0
DA:440,0
DA:443,0
DA:444,0
DA:445,0
DA:446,0
DA:449,6
DA:450,6
DA:451,6
DA:454,6
DA:455,1
DA:456,1
DA:457,5
DA:459,6
DA:460,6
DA:461,6
DA:464,1
DA:465,1
DA:468,1
DA:469,1
DA:470,2
DA:471,2
DA:472,2
DA:473,0
DA:475,2
DA:477,2
DA:478,1
DA:480,1
DA:481,1
DA:482,1
DA:483,1
DA:484,1
DA:485,1
DA:488,4
DA:489,4
DA:490,4
DA:493,2
DA:494,2
DA:495,2
DA:498,1
DA:499,1
DA:500,1
DA:503,0
DA:504,0
DA:505,0
DA:508,1
DA:509,1
DA:510,1
DA:513,0
DA:514,0
DA:515,0
DA:516,0
DA:519,1
DA:520,1
DA:521,1
DA:522,1
DA:523,1
DA:524,1
DA:532,1
DA:533,1
DA:534,1
DA:535,1
DA:536,1
DA:539,1
DA:540,1
DA:541,1
DA:542,1
DA:543,1
DA:544,1
DA:545,1
DA:546,1
DA:549,1
DA:550,1
DA:552,1
DA:553,1
DA:554,1
DA:557,1
DA:560,1
DA:562,1
DA:563,1
DA:564,1
DA:565,1
DA:566,1
DA:569,1
DA:570,1
DA:572,1
DA:573,1
DA:574,1
DA:576,1
DA:577,1
DA:578,1
DA:579,1
DA:582,1
DA:583,1
DA:585,1
DA:586,9
DA:587,9
DA:588,9
DA:589,1
DA:591,1
DA:592,1
DA:595,1
DA:599,1
DA:601,1
DA:602,3
DA:603,3
DA:604,3
DA:605,3
DA:608,1
DA:611,1
DA:614,1
DA:615,1
DA:617,1
DA:618,1
DA:619,1
DA:622,1
DA:623,1
DA:624,1
DA:626,1
DA:627,1
DA:630,1
DA:631,1
DA:634,1
DA:635,1
DA:637,1
DA:638,1
DA:640,1
DA:643,1
DA:644,1
DA:645,1
DA:646,1
DA:649,1
DA:650,1
DA:652,1
DA:653,1
DA:655,1
DA:656,1
DA:659,1
DA:660,1
DA:661,1
DA:662,1
DA:664,1
DA:665,1
DA:666,1
DA:667,1
DA:670,1
DA:671,1
DA:672,1
DA:674,1
DA:675,1
DA:676,1
DA:679,1
DA:680,1
DA:681,1
DA:683,1
DA:684,1
DA:685,1
DA:686,1
DA:688,1
DA:689,1
DA:691,1
DA:692,0
DA:693,0
DA:694,0
DA:696,1
DA:697,1
DA:698,1
DA:701,1
DA:702,1
DA:703,1
DA:704,1
DA:705,1
DA:707,1
DA:709,1
DA:710,1
DA:711,1
DA:712,1
DA:715,1
DA:716,1
DA:717,1
DA:719,1
DA:720,1
DA:722,1
DA:723,1
DA:726,1
DA:727,1
DA:728,1
DA:729,1
DA:731,1
DA:732,1
DA:735,1
DA:736,1
DA:738,2
DA:740,1
DA:741,1
DA:742,1
DA:745,1
DA:746,1
DA:748,1
DA:749,1
DA:750,1
DA:752,1
DA:753,1
DA:754,1
DA:757,1
DA:758,1
DA:759,1
DA:760,1
DA:763,1
DA:764,1
DA:766,1
DA:767,1
DA:769,1
DA:770,1
DA:771,1
DA:774,1
DA:775,1
DA:776,1
DA:777,1
DA:780,1
DA:781,1
DA:782,1
DA:783,1
DA:786,1
DA:787,1
DA:788,1
DA:789,1
DA:790,1
DA:791,1
DA:792,1
DA:795,1
DA:796,1
DA:797,1
DA:798,1
DA:801,1
DA:802,1
DA:803,1
DA:804,1
DA:805,1
DA:806,1
DA:807,1
DA:808,1
DA:809,1
DA:812,1
DA:813,1
DA:814,1
DA:815,1
DA:816,1
DA:819,1
DA:820,1
DA:822,1
DA:823,1
DA:825,1
DA:826,1
DA:827,1
DA:830,1
DA:831,1
DA:834,1
DA:835,1
DA:836,1
DA:838,1
DA:839,1
DA:840,1
DA:843,1
DA:844,1
DA:847,1
DA:848,1
DA:850,1
DA:851,1
DA:854,1
DA:855,1
DA:856,1
DA:858,1
DA:859,1
DA:862,1
DA:863,1
DA:865,1
DA:866,1
DA:868,1
DA:870,1
DA:871,1
DA:874,1
DA:875,1
DA:876,1
DA:878,1
DA:879,1
DA:881,1
DA:882,1
DA:883,1
DA:885,1
DA:886,1
DA:888,1
DA:889,1
DA:891,1
DA:892,1
DA:893,1
DA:894,1
DA:897,1
DA:898,1
DA:901,1
DA:902,1
DA:903,1
DA:906,1
DA:907,1
DA:908,1
DA:912,1
DA:915,1
DA:918,1
DA:919,1
DA:920,1
DA:921,1
DA:924,1
DA:927,1
DA:930,1
DA:931,1
DA:934,1
DA:935,1
DA:937,1
DA:938,1
DA:941,1
DA:942,1
DA:945,1
DA:948,1
DA:949,1
DA:952,1
DA:955,1
DA:957,1
DA:958,1
DA:959,1
DA:960,1
DA:961,1
BRF:0
BRH:0
LF:584
LH:543
end_of_record
SF:/home/openclaw/dev/yinglichina8848/sqlrustgo/crates/storage/src/buffer_pool_metrics.rs
FN:32,_RNvMNtCsgGnK47HN26N_17sqlrustgo_storage19buffer_pool_metricsNtB2_17BufferPoolMetrics13queries_total
FN:37,_RNvMNtCsgGnK47HN26N_17sqlrustgo_storage19buffer_pool_metricsNtB2_17BufferPoolMetrics14queries_failed
FN:42,_RNvMNtCsgGnK47HN26N_17sqlrustgo_storage19buffer_pool_metricsNtB2_17BufferPoolMetrics14rows_processed
FN:28,_RNvMNtCsgGnK47HN26N_17sqlrustgo_storage19buffer_pool_metricsNtB2_17BufferPoolMetrics17buffer_pool_stats
FN:18,_RNvMNtCsgGnK47HN26N_17sqlrustgo_storage19buffer_pool_metricsNtB2_17BufferPoolMetrics3new
FN:114,_RNvMs0_NtCsgGnK47HN26N_17sqlrustgo_storage19buffer_pool_metricsNtB5_17BufferPoolMetrics11record_rows
FN:75,_RNvXs_NtCsgGnK47HN26N_17sqlrustgo_storage19buffer_pool_metricsNtB4_17BufferPoolMetricsNtNtCs13JyzRa7drF_16sqlrustgo_common7metrics7Metrics10get_metric
FN:57,_RNvXs_NtCsgGnK47HN26N_17sqlrustgo_storage19buffer_pool_metricsNtB4_17BufferPoolMetricsNtNtCs13JyzRa7drF_16sqlrustgo_common7metrics7Metrics12record_error
FN:49,_RNvXs_NtCsgGnK47HN26N_17sqlrustgo_storage19buffer_pool_metricsNtB4_17BufferPoolMetricsNtNtCs13JyzRa7drF_16sqlrustgo_common7metrics7Metrics12record_query
FN:90,_RNvXs_NtCsgGnK47HN26N_17sqlrustgo_storage19buffer_pool_metricsNtB4_17BufferPoolMetricsNtNtCs13JyzRa7drF_16sqlrustgo_common7metrics7Metrics16get_metric_names
FN:71,_RNvXs_NtCsgGnK47HN26N_17sqlrustgo_storage19buffer_pool_metricsNtB4_17BufferPoolMetricsNtNtCs13JyzRa7drF_16sqlrustgo_common7metrics7Metrics16record_cache_hit
FN:67,_RNvXs_NtCsgGnK47HN26N_17sqlrustgo_storage19buffer_pool_metricsNtB4_17BufferPoolMetricsNtNtCs13JyzRa7drF_16sqlrustgo_common7metrics7Metrics17record_bytes_read
FN:73,_RNvXs_NtCsgGnK47HN26N_17sqlrustgo_storage19buffer_pool_metricsNtB4_17BufferPoolMetricsNtNtCs13JyzRa7drF_16sqlrustgo_common7metrics7Metrics17record_cache_miss
FN:69,_RNvXs_NtCsgGnK47HN26N_17sqlrustgo_storage19buffer_pool_metricsNtB4_17BufferPoolMetricsNtNtCs13JyzRa7drF_16sqlrustgo_common7metrics7Metrics20record_bytes_written
FN:62,_RNvXs_NtCsgGnK47HN26N_17sqlrustgo_storage19buffer_pool_metricsNtB4_17BufferPoolMetricsNtNtCs13JyzRa7drF_16sqlrustgo_common7metrics7Metrics22record_error_with_type
FN:101,_RNvXs_NtCsgGnK47HN26N_17sqlrustgo_storage19buffer_pool_metricsNtB4_17BufferPoolMetricsNtNtCs13JyzRa7drF_16sqlrustgo_common7metrics7Metrics5reset
FN:163,_RNvNtNtCsgGnK47HN26N_17sqlrustgo_storage19buffer_pool_metrics5testss_30test_buffer_pool_metrics_reset
FN:126,_RNvNtNtCsgGnK47HN26N_17sqlrustgo_storage19buffer_pool_metrics5testss_33test_buffer_pool_metrics_creation
FN:152,_RNvNtNtCsgGnK47HN26N_17sqlrustgo_storage19buffer_pool_metrics5testss_35test_buffer_pool_metrics_get_metric
FN:174,_RNvNtNtCsgGnK47HN26N_17sqlrustgo_storage19buffer_pool_metrics5testss_36test_buffer_pool_metrics_record_rows
FN:143,_RNvNtNtCsgGnK47HN26N_17sqlrustgo_storage19buffer_pool_metrics5testss_37test_buffer_pool_metrics_record_error
FN:134,_RNvNtNtCsgGnK47HN26N_17sqlrustgo_storage19buffer_pool_metrics5testss_37test_buffer_pool_metrics_record_query
FN:243,_RNvNtNtCsgGnK47HN26N_17sqlrustgo_storage19buffer_pool_metrics5testss_41test_buffer_pool_metrics_get_metric_names
FN:253,_RNvNtNtCsgGnK47HN26N_17sqlrustgo_storage19buffer_pool_metrics5testss_41test_buffer_pool_metrics_multiple_queries
FN:218,_RNvNtNtCsgGnK47HN26N_17sqlrustgo_storage19buffer_pool_metrics5testss_41test_buffer_pool_metrics_record_cache_hit
FN:265,_RNvNtNtCsgGnK47HN26N_17sqlrustgo_storage19buffer_pool_metrics5testss_41test_buffer_pool_metrics_reset_clears_all
FN:183,_RNvNtNtCsgGnK47HN26N_17sqlrustgo_storage19buffer_pool_metrics5testss_42test_buffer_pool_metrics_buffer_pool_stats
FN:202,_RNvNtNtCsgGnK47HN26N_17sqlrustgo_storage19buffer_pool_metrics5testss_42test_buffer_pool_metrics_record_bytes_read
FN:226,_RNvNtNtCsgGnK47HN26N_17sqlrustgo_storage19buffer_pool_metrics5testss_42test_buffer_pool_metrics_record_cache_miss
FN:234,_RNvNtNtCsgGnK47HN26N_17sqlrustgo_storage19buffer_pool_metrics5testss_43test_buffer_pool_metrics_get_metric_unknown
FN:210,_RNvNtNtCsgGnK47HN26N_17sqlrustgo_storage19buffer_pool_metrics5testss_45test_buffer_pool_metrics_record_bytes_written
FN:193,_RNvNtNtCsgGnK47HN26N_17sqlrustgo_storage19buffer_pool_metrics5testss_47test_buffer_pool_metrics_record_error_with_type
FNDA:6,_RNvMNtCsgGnK47HN26N_17sqlrustgo_storage19buffer_pool_metricsNtB2_17BufferPoolMetrics13queries_total
FNDA:4,_RNvMNtCsgGnK47HN26N_17sqlrustgo_storage19buffer_pool_metricsNtB2_17BufferPoolMetrics14queries_failed
FNDA:2,_RNvMNtCsgGnK47HN26N_17sqlrustgo_storage19buffer_pool_metricsNtB2_17BufferPoolMetrics14rows_processed
FNDA:1,_RNvMNtCsgGnK47HN26N_17sqlrustgo_storage19buffer_pool_metricsNtB2_17BufferPoolMetrics17buffer_pool_stats
FNDA:16,_RNvMNtCsgGnK47HN26N_17sqlrustgo_storage19buffer_pool_metricsNtB2_17BufferPoolMetrics3new
FNDA:2,_RNvMs0_NtCsgGnK47HN26N_17sqlrustgo_storage19buffer_pool_metricsNtB5_17BufferPoolMetrics11record_rows
FNDA:2,_RNvXs_NtCsgGnK47HN26N_17sqlrustgo_storage19buffer_pool_metricsNtB4_17BufferPoolMetricsNtNtCs13JyzRa7drF_16sqlrustgo_common7metrics7Metrics10get_metric
FNDA:2,_RNvXs_NtCsgGnK47HN26N_17sqlrustgo_storage19buffer_pool_metricsNtB4_17BufferPoolMetricsNtNtCs13JyzRa7drF_16sqlrustgo_common7metrics7Metrics12record_error
FNDA:7,_RNvXs_NtCsgGnK47HN26N_17sqlrustgo_storage19buffer_pool_metricsNtB4_17BufferPoolMetricsNtNtCs13JyzRa7drF_16sqlrustgo_common7metrics7Metrics12record_query
FNDA:1,_RNvXs_NtCsgGnK47HN26N_17sqlrustgo_storage19buffer_pool_metricsNtB4_17BufferPoolMetricsNtNtCs13JyzRa7drF_16sqlrustgo_common7metrics7Metrics16get_metric_names
FNDA:1,_RNvXs_NtCsgGnK47HN26N_17sqlrustgo_storage19buffer_pool_metricsNtB4_17BufferPoolMetricsNtNtCs13JyzRa7drF_16sqlrustgo_common7metrics7Metrics16record_cache_hit
FNDA:1,_RNvXs_NtCsgGnK47HN26N_17sqlrustgo_storage19buffer_pool_metricsNtB4_17BufferPoolMetricsNtNtCs13JyzRa7drF_16sqlrustgo_common7metrics7Metrics17record_bytes_read
FNDA:1,_RNvXs_NtCsgGnK47HN26N_17sqlrustgo_storage19buffer_pool_metricsNtB4_17BufferPoolMetricsNtNtCs13JyzRa7drF_16sqlrustgo_common7metrics7Metrics17record_cache_miss
FNDA:1,_RNvXs_NtCsgGnK47HN26N_17sqlrustgo_storage19buffer_pool_metricsNtB4_17BufferPoolMetricsNtNtCs13JyzRa7drF_16sqlrustgo_common7metrics7Metrics20record_bytes_written
FNDA:1,_RNvXs_NtCsgGnK47HN26N_17sqlrustgo_storage19buffer_pool_metricsNtB4_17BufferPoolMetricsNtNtCs13JyzRa7drF_16sqlrustgo_common7metrics7Metrics22record_error_with_type
FNDA:2,_RNvXs_NtCsgGnK47HN26N_17sqlrustgo_storage19buffer_pool_metricsNtB4_17BufferPoolMetricsNtNtCs13JyzRa7drF_16sqlrustgo_common7metrics7Metrics5reset
FNDA:1,_RNvNtNtCsgGnK47HN26N_17sqlrustgo_storage19buffer_pool_metrics5testss_30test_buffer_pool_metrics_reset
FNDA:1,_RNvNtNtCsgGnK47HN26N_17sqlrustgo_storage19buffer_pool_metrics5testss_33test_buffer_pool_metrics_creation
FNDA:1,_RNvNtNtCsgGnK47HN26N_17sqlrustgo_storage19buffer_pool_metrics5testss_35test_buffer_pool_metrics_get_metric
FNDA:1,_RNvNtNtCsgGnK47HN26N_17sqlrustgo_storage19buffer_pool_metrics5testss_36test_buffer_pool_metrics_record_rows
FNDA:1,_RNvNtNtCsgGnK47HN26N_17sqlrustgo_storage19buffer_pool_metrics5testss_37test_buffer_pool_metrics_record_error
FNDA:1,_RNvNtNtCsgGnK47HN26N_17sqlrustgo_storage19buffer_pool_metrics5testss_37test_buffer_pool_metrics_record_query
FNDA:1,_RNvNtNtCsgGnK47HN26N_17sqlrustgo_storage19buffer_pool_metrics5testss_41test_buffer_pool_metrics_get_metric_names
FNDA:1,_RNvNtNtCsgGnK47HN26N_17sqlrustgo_storage19buffer_pool_metrics5testss_41test_buffer_pool_metrics_multiple_queries
FNDA:1,_RNvNtNtCsgGnK47HN26N_17sqlrustgo_storage19buffer_pool_metrics5testss_41test_buffer_pool_metrics_record_cache_hit
FNDA:1,_RNvNtNtCsgGnK47HN26N_17sqlrustgo_storage19buffer_pool_metrics5testss_41test_buffer_pool_metrics_reset_clears_all
FNDA:1,_RNvNtNtCsgGnK47HN26N_17sqlrustgo_storage19buffer_pool_metrics5testss_42test_buffer_pool_metrics_buffer_pool_stats
FNDA:1,_RNvNtNtCsgGnK47HN26N_17sqlrustgo_storage19buffer_pool_metrics5testss_42test_buffer_pool_metrics_record_bytes_read
FNDA:1,_RNvNtNtCsgGnK47HN26N_17sqlrustgo_storage19buffer_pool_metrics5testss_42test_buffer_pool_metrics_record_cache_miss
FNDA:1,_RNvNtNtCsgGnK47HN26N_17sqlrustgo_storage19buffer_pool_metrics5testss_43test_buffer_pool_metrics_get_metric_unknown
FNDA:1,_RNvNtNtCsgGnK47HN26N_17sqlrustgo_storage19buffer_pool_metrics5testss_45test_buffer_pool_metrics_record_bytes_written
FNDA:1,_RNvNtNtCsgGnK47HN26N_17sqlrustgo_storage19buffer_pool_metrics5testss_47test_buffer_pool_metrics_record_error_with_type
FNF:32
FNH:32
DA:18,16
DA:19,16
DA:20,16
DA:21,16
DA:22,16
DA:23,16
DA:24,16
DA:25,16
DA:26,16
DA:28,1
DA:29,1
DA:30,1
DA:32,6
DA:33,6
DA:34,6
DA:35,6
DA:37,4
DA:38,4
DA:39,4
DA:40,4
DA:42,2
DA:43,2
DA:44,2
DA:45,2
DA:49,7
DA:50,7
DA:51,7
DA:52,7
DA:53,7
DA:54,7
DA:55,7
DA:57,2
DA:58,2
DA:59,2
DA:60,2
DA:62,1
DA:63,1
DA:64,1
DA:65,1
DA:67,1
DA:69,1
DA:71,1
DA:73,1
DA:75,2
DA:76,2
DA:77,2
DA:78,1
DA:79,1
DA:80,1
DA:81,0
DA:82,0
DA:83,1
DA:84,0
DA:85,0
DA:86,1
DA:88,2
DA:90,1
DA:91,1
DA:92,1
DA:93,1
DA:94,1
DA:95,1
DA:96,1
DA:97,1
DA:99,1
DA:101,2
DA:102,2
DA:103,2
DA:104,2
DA:105,2
DA:106,2
DA:107,2
DA:108,2
DA:109,2
DA:110,2
DA:114,2
DA:115,2
DA:116,2
DA:117,2
DA:126,1
DA:127,1
DA:128,1
DA:129,1
DA:130,1
DA:131,1
DA:134,1
DA:135,1
DA:136,1
DA:138,1
DA:139,1
DA:140,1
DA:143,1
DA:144,1
DA:145,1
DA:147,1
DA:148,1
DA:149,1
DA:152,1
DA:153,1
DA:154,1
DA:156,1
DA:158,1
DA:159,1
DA:160,1
DA:163,1
DA:164,1
DA:165,1
DA:167,1
DA:168,1
DA:170,1
DA:171,1
DA:174,1
DA:175,1
DA:176,1
DA:178,1
DA:179,1
DA:180,1
DA:183,1
DA:184,1
DA:185,1
DA:187,1
DA:188,1
DA:189,1
DA:190,1
DA:193,1
DA:194,1
DA:195,1
DA:197,1
DA:198,1
DA:199,1
DA:202,1
DA:203,1
DA:204,1
DA:206,1
DA:207,1
DA:210,1
DA:211,1
DA:212,1
DA:214,1
DA:215,1
DA:218,1
DA:219,1
DA:220,1
DA:222,1
DA:223,1
DA:226,1
DA:227,1
DA:228,1
DA:230,1
DA:231,1
DA:234,1
DA:235,1
DA:236,1
DA:238,1
DA:239,1
DA:240,1
DA:243,1
DA:244,1
DA:245,1
DA:247,1
DA:248,1
DA:249,1
DA:250,1
DA:253,1
DA:254,1
DA:255,1
DA:257,1
DA:258,1
DA:259,1
DA:261,1
DA:262,1
DA:265,1
DA:266,1
DA:267,1
DA:269,1
DA:270,1
DA:271,1
DA:273,1
DA:275,1
DA:276,1
DA:277,1
DA:278,1
BRF:0
BRH:0
LF:182
LH:178
end_of_record
SF:/home/openclaw/dev/yinglichina8848/sqlrustgo/crates/storage/src/checkpoint.rs
FN:162,_RNCNvMs0_NtCs38XCG6692bz_17sqlrustgo_storage10checkpointNtB7_17CheckpointManager16list_checkpoints0B9_
FN:178,_RNCNvMs0_NtCs38XCG6692bz_17sqlrustgo_storage10checkpointNtB7_17CheckpointManager16list_checkpointss0_0B9_
FN:165,_RNCNvMs0_NtCs38XCG6692bz_17sqlrustgo_storage10checkpointNtB7_17CheckpointManager16list_checkpointss_0B9_
FN:28,_RNvMNtCs38XCG6692bz_17sqlrustgo_storage10checkpointNtB2_18CheckpointMetadata7to_json
FN:40,_RNvMNtCs38XCG6692bz_17sqlrustgo_storage10checkpointNtB2_18CheckpointMetadata9from_json
FN:141,_RNvMs0_NtCs38XCG6692bz_17sqlrustgo_storage10checkpointNtB5_17CheckpointManager13load_metadata
FN:133,_RNvMs0_NtCs38XCG6692bz_17sqlrustgo_storage10checkpointNtB5_17CheckpointManager13save_metadata
FN:128,_RNvMs0_NtCs38XCG6692bz_17sqlrustgo_storage10checkpointNtB5_17CheckpointManager15last_checkpoint
FN:155,_RNvMs0_NtCs38XCG6692bz_17sqlrustgo_storage10checkpointNtB5_17CheckpointManager16list_checkpoints
FN:99,_RNvMs0_NtCs38XCG6692bz_17sqlrustgo_storage10checkpointNtB5_17CheckpointManager16needs_checkpoint
FN:116,_RNvMs0_NtCs38XCG6692bz_17sqlrustgo_storage10checkpointNtB5_17CheckpointManager17record_checkpoint
FN:183,_RNvMs0_NtCs38XCG6692bz_17sqlrustgo_storage10checkpointNtB5_17CheckpointManager23cleanup_old_checkpoints
FN:83,_RNvMs0_NtCs38XCG6692bz_17sqlrustgo_storage10checkpointNtB5_17CheckpointManager3new
FN:94,_RNvMs0_NtCs38XCG6692bz_17sqlrustgo_storage10checkpointNtB5_17CheckpointManager8with_dir
FN:199,_RNvXs1_NtCs38XCG6692bz_17sqlrustgo_storage10checkpointNtB5_17CheckpointManagerNtNtCs8nPosuWgJFh_4core7default7Default7default
FN:64,_RNvXs_NtCs38XCG6692bz_17sqlrustgo_storage10checkpointNtB4_16CheckpointConfigNtNtCs8nPosuWgJFh_4core7default7Default7default
FN:28,_RNvMNtCs1u7In8Za3Xp_17sqlrustgo_storage10checkpointNtB2_18CheckpointMetadata7to_json
FN:40,_RNvMNtCs1u7In8Za3Xp_17sqlrustgo_storage10checkpointNtB2_18CheckpointMetadata9from_json
FN:141,_RNvMs0_NtCs1u7In8Za3Xp_17sqlrustgo_storage10checkpointNtB5_17CheckpointManager13load_metadata
FN:133,_RNvMs0_NtCs1u7In8Za3Xp_17sqlrustgo_storage10checkpointNtB5_17CheckpointManager13save_metadata
FN:128,_RNvMs0_NtCs1u7In8Za3Xp_17sqlrustgo_storage10checkpointNtB5_17CheckpointManager15last_checkpoint
FN:155,_RNvMs0_NtCs1u7In8Za3Xp_17sqlrustgo_storage10checkpointNtB5_17CheckpointManager16list_checkpoints
FN:99,_RNvMs0_NtCs1u7In8Za3Xp_17sqlrustgo_storage10checkpointNtB5_17CheckpointManager16needs_checkpoint
FN:116,_RNvMs0_NtCs1u7In8Za3Xp_17sqlrustgo_storage10checkpointNtB5_17CheckpointManager17record_checkpoint
FN:183,_RNvMs0_NtCs1u7In8Za3Xp_17sqlrustgo_storage10checkpointNtB5_17CheckpointManager23cleanup_old_checkpoints
FN:83,_RNvMs0_NtCs1u7In8Za3Xp_17sqlrustgo_storage10checkpointNtB5_17CheckpointManager3new
FN:94,_RNvMs0_NtCs1u7In8Za3Xp_17sqlrustgo_storage10checkpointNtB5_17CheckpointManager8with_dir
FN:199,_RNvXs1_NtCs1u7In8Za3Xp_17sqlrustgo_storage10checkpointNtB5_17CheckpointManagerNtNtCs8nPosuWgJFh_4core7default7Default7default
FN:64,_RNvXs_NtCs1u7In8Za3Xp_17sqlrustgo_storage10checkpointNtB4_16CheckpointConfigNtNtCs8nPosuWgJFh_4core7default7Default7default
FN:162,_RNCNvMs0_NtCs1u7In8Za3Xp_17sqlrustgo_storage10checkpointNtB7_17CheckpointManager16list_checkpoints0B9_
FN:178,_RNCNvMs0_NtCs1u7In8Za3Xp_17sqlrustgo_storage10checkpointNtB7_17CheckpointManager16list_checkpointss0_0B9_
FN:165,_RNCNvMs0_NtCs1u7In8Za3Xp_17sqlrustgo_storage10checkpointNtB7_17CheckpointManager16list_checkpointss_0B9_
FN:162,_RNCNvMs0_NtCsd1AkON0xxEy_17sqlrustgo_storage10checkpointNtB7_17CheckpointManager16list_checkpoints0B9_
FN:178,_RNCNvMs0_NtCsd1AkON0xxEy_17sqlrustgo_storage10checkpointNtB7_17CheckpointManager16list_checkpointss0_0B9_
FN:165,_RNCNvMs0_NtCsd1AkON0xxEy_17sqlrustgo_storage10checkpointNtB7_17CheckpointManager16list_checkpointss_0B9_
FN:28,_RNvMNtCsd1AkON0xxEy_17sqlrustgo_storage10checkpointNtB2_18CheckpointMetadata7to_json
FN:40,_RNvMNtCsd1AkON0xxEy_17sqlrustgo_storage10checkpointNtB2_18CheckpointMetadata9from_json
FN:141,_RNvMs0_NtCsd1AkON0xxEy_17sqlrustgo_storage10checkpointNtB5_17CheckpointManager13load_metadata
FN:133,_RNvMs0_NtCsd1AkON0xxEy_17sqlrustgo_storage10checkpointNtB5_17CheckpointManager13save_metadata
FN:128,_RNvMs0_NtCsd1AkON0xxEy_17sqlrustgo_storage10checkpointNtB5_17CheckpointManager15last_checkpoint
FN:155,_RNvMs0_NtCsd1AkON0xxEy_17sqlrustgo_storage10checkpointNtB5_17CheckpointManager16list_checkpoints
FN:99,_RNvMs0_NtCsd1AkON0xxEy_17sqlrustgo_storage10checkpointNtB5_17CheckpointManager16needs_checkpoint
FN:116,_RNvMs0_NtCsd1AkON0xxEy_17sqlrustgo_storage10checkpointNtB5_17CheckpointManager17record_checkpoint
FN:183,_RNvMs0_NtCsd1AkON0xxEy_17sqlrustgo_storage10checkpointNtB5_17CheckpointManager23cleanup_old_checkpoints
FN:83,_RNvMs0_NtCsd1AkON0xxEy_17sqlrustgo_storage10checkpointNtB5_17CheckpointManager3new
FN:94,_RNvMs0_NtCsd1AkON0xxEy_17sqlrustgo_storage10checkpointNtB5_17CheckpointManager8with_dir
FN:199,_RNvXs1_NtCsd1AkON0xxEy_17sqlrustgo_storage10checkpointNtB5_17CheckpointManagerNtNtCs8nPosuWgJFh_4core7default7Default7default
FN:64,_RNvXs_NtCsd1AkON0xxEy_17sqlrustgo_storage10checkpointNtB4_16CheckpointConfigNtNtCs8nPosuWgJFh_4core7default7Default7default
FN:162,_RNCNvMs0_NtCs9oXD4GUMzTX_17sqlrustgo_storage10checkpointNtB7_17CheckpointManager16list_checkpoints0B9_
FN:178,_RNCNvMs0_NtCs9oXD4GUMzTX_17sqlrustgo_storage10checkpointNtB7_17CheckpointManager16list_checkpointss0_0B9_
FN:165,_RNCNvMs0_NtCs9oXD4GUMzTX_17sqlrustgo_storage10checkpointNtB7_17CheckpointManager16list_checkpointss_0B9_
FN:28,_RNvMNtCs9oXD4GUMzTX_17sqlrustgo_storage10checkpointNtB2_18CheckpointMetadata7to_json
FN:40,_RNvMNtCs9oXD4GUMzTX_17sqlrustgo_storage10checkpointNtB2_18CheckpointMetadata9from_json
FN:141,_RNvMs0_NtCs9oXD4GUMzTX_17sqlrustgo_storage10checkpointNtB5_17CheckpointManager13load_metadata
FN:133,_RNvMs0_NtCs9oXD4GUMzTX_17sqlrustgo_storage10checkpointNtB5_17CheckpointManager13save_metadata
FN:128,_RNvMs0_NtCs9oXD4GUMzTX_17sqlrustgo_storage10checkpointNtB5_17CheckpointManager15last_checkpoint
FN:155,_RNvMs0_NtCs9oXD4GUMzTX_17sqlrustgo_storage10checkpointNtB5_17CheckpointManager16list_checkpoints
FN:99,_RNvMs0_NtCs9oXD4GUMzTX_17sqlrustgo_storage10checkpointNtB5_17CheckpointManager16needs_checkpoint
FN:116,_RNvMs0_NtCs9oXD4GUMzTX_17sqlrustgo_storage10checkpointNtB5_17CheckpointManager17record_checkpoint
FN:183,_RNvMs0_NtCs9oXD4GUMzTX_17sqlrustgo_storage10checkpointNtB5_17CheckpointManager23cleanup_old_checkpoints
FN:83,_RNvMs0_NtCs9oXD4GUMzTX_17sqlrustgo_storage10checkpointNtB5_17CheckpointManager3new
FN:94,_RNvMs0_NtCs9oXD4GUMzTX_17sqlrustgo_storage10checkpointNtB5_17CheckpointManager8with_dir
FN:199,_RNvXs1_NtCs9oXD4GUMzTX_17sqlrustgo_storage10checkpointNtB5_17CheckpointManagerNtNtCs8nPosuWgJFh_4core7default7Default7default
FN:64,_RNvXs_NtCs9oXD4GUMzTX_17sqlrustgo_storage10checkpointNtB4_16CheckpointConfigNtNtCs8nPosuWgJFh_4core7default7Default7default
FN:162,_RNCNvMs0_NtCsl9zPO89iGuX_17sqlrustgo_storage10checkpointNtB7_17CheckpointManager16list_checkpoints0B9_
FN:178,_RNCNvMs0_NtCsl9zPO89iGuX_17sqlrustgo_storage10checkpointNtB7_17CheckpointManager16list_checkpointss0_0B9_
FN:165,_RNCNvMs0_NtCsl9zPO89iGuX_17sqlrustgo_storage10checkpointNtB7_17CheckpointManager16list_checkpointss_0B9_
FN:28,_RNvMNtCsl9zPO89iGuX_17sqlrustgo_storage10checkpointNtB2_18CheckpointMetadata7to_json
FN:40,_RNvMNtCsl9zPO89iGuX_17sqlrustgo_storage10checkpointNtB2_18CheckpointMetadata9from_json
FN:141,_RNvMs0_NtCsl9zPO89iGuX_17sqlrustgo_storage10checkpointNtB5_17CheckpointManager13load_metadata
FN:133,_RNvMs0_NtCsl9zPO89iGuX_17sqlrustgo_storage10checkpointNtB5_17CheckpointManager13save_metadata
FN:128,_RNvMs0_NtCsl9zPO89iGuX_17sqlrustgo_storage10checkpointNtB5_17CheckpointManager15last_checkpoint
FN:155,_RNvMs0_NtCsl9zPO89iGuX_17sqlrustgo_storage10checkpointNtB5_17CheckpointManager16list_checkpoints
FN:99,_RNvMs0_NtCsl9zPO89iGuX_17sqlrustgo_storage10checkpointNtB5_17CheckpointManager16needs_checkpoint
FN:116,_RNvMs0_NtCsl9zPO89iGuX_17sqlrustgo_storage10checkpointNtB5_17CheckpointManager17record_checkpoint
FN:183,_RNvMs0_NtCsl9zPO89iGuX_17sqlrustgo_storage10checkpointNtB5_17CheckpointManager23cleanup_old_checkpoints
FN:83,_RNvMs0_NtCsl9zPO89iGuX_17sqlrustgo_storage10checkpointNtB5_17CheckpointManager3new
FN:94,_RNvMs0_NtCsl9zPO89iGuX_17sqlrustgo_storage10checkpointNtB5_17CheckpointManager8with_dir
FN:199,_RNvXs1_NtCsl9zPO89iGuX_17sqlrustgo_storage10checkpointNtB5_17CheckpointManagerNtNtCs8nPosuWgJFh_4core7default7Default7default
FN:64,_RNvXs_NtCsl9zPO89iGuX_17sqlrustgo_storage10checkpointNtB4_16CheckpointConfigNtNtCs8nPosuWgJFh_4core7default7Default7default
FN:28,_RNvMNtCsgGnK47HN26N_17sqlrustgo_storage10checkpointNtB2_18CheckpointMetadata7to_json
FN:40,_RNvMNtCsgGnK47HN26N_17sqlrustgo_storage10checkpointNtB2_18CheckpointMetadata9from_json
FN:141,_RNvMs0_NtCsgGnK47HN26N_17sqlrustgo_storage10checkpointNtB5_17CheckpointManager13load_metadata
FN:133,_RNvMs0_NtCsgGnK47HN26N_17sqlrustgo_storage10checkpointNtB5_17CheckpointManager13save_metadata
FN:128,_RNvMs0_NtCsgGnK47HN26N_17sqlrustgo_storage10checkpointNtB5_17CheckpointManager15last_checkpoint
FN:155,_RNvMs0_NtCsgGnK47HN26N_17sqlrustgo_storage10checkpointNtB5_17CheckpointManager16list_checkpoints
FN:99,_RNvMs0_NtCsgGnK47HN26N_17sqlrustgo_storage10checkpointNtB5_17CheckpointManager16needs_checkpoint
FN:116,_RNvMs0_NtCsgGnK47HN26N_17sqlrustgo_storage10checkpointNtB5_17CheckpointManager17record_checkpoint
FN:183,_RNvMs0_NtCsgGnK47HN26N_17sqlrustgo_storage10checkpointNtB5_17CheckpointManager23cleanup_old_checkpoints
FN:83,_RNvMs0_NtCsgGnK47HN26N_17sqlrustgo_storage10checkpointNtB5_17CheckpointManager3new
FN:94,_RNvMs0_NtCsgGnK47HN26N_17sqlrustgo_storage10checkpointNtB5_17CheckpointManager8with_dir
FN:199,_RNvXs1_NtCsgGnK47HN26N_17sqlrustgo_storage10checkpointNtB5_17CheckpointManagerNtNtCs8nPosuWgJFh_4core7default7Default7default
FN:64,_RNvXs_NtCsgGnK47HN26N_17sqlrustgo_storage10checkpointNtB4_16CheckpointConfigNtNtCs8nPosuWgJFh_4core7default7Default7default
FN:162,_RNCNvMs0_NtCsgGnK47HN26N_17sqlrustgo_storage10checkpointNtB7_17CheckpointManager16list_checkpoints0B9_
FN:178,_RNCNvMs0_NtCsgGnK47HN26N_17sqlrustgo_storage10checkpointNtB7_17CheckpointManager16list_checkpointss0_0B9_
FN:165,_RNCNvMs0_NtCsgGnK47HN26N_17sqlrustgo_storage10checkpointNtB7_17CheckpointManager16list_checkpointss_0B9_
FN:234,_RNvNtNtCsgGnK47HN26N_17sqlrustgo_storage10checkpoint5testss_21test_checkpoint_needs
FN:249,_RNvNtNtCsgGnK47HN26N_17sqlrustgo_storage10checkpoint5testss_22test_checkpoint_record
FN:288,_RNvNtNtCsgGnK47HN26N_17sqlrustgo_storage10checkpoint5testss_23test_checkpoint_cleanup
FN:268,_RNvNtNtCsgGnK47HN26N_17sqlrustgo_storage10checkpoint5testss_25test_checkpoint_save_load
FN:228,_RNvNtNtCsgGnK47HN26N_17sqlrustgo_storage10checkpoint5testss_31test_checkpoint_manager_default
FN:210,_RNvNtNtCsgGnK47HN26N_17sqlrustgo_storage10checkpoint5testss_38test_checkpoint_metadata_serialization
FN:162,_RNCNvMs0_NtCs2l7roSUS7lg_17sqlrustgo_storage10checkpointNtB7_17CheckpointManager16list_checkpoints0B9_
FN:178,_RNCNvMs0_NtCs2l7roSUS7lg_17sqlrustgo_storage10checkpointNtB7_17CheckpointManager16list_checkpointss0_0B9_
FN:165,_RNCNvMs0_NtCs2l7roSUS7lg_17sqlrustgo_storage10checkpointNtB7_17CheckpointManager16list_checkpointss_0B9_
FN:28,_RNvMNtCs2l7roSUS7lg_17sqlrustgo_storage10checkpointNtB2_18CheckpointMetadata7to_json
FN:40,_RNvMNtCs2l7roSUS7lg_17sqlrustgo_storage10checkpointNtB2_18CheckpointMetadata9from_json
FN:141,_RNvMs0_NtCs2l7roSUS7lg_17sqlrustgo_storage10checkpointNtB5_17CheckpointManager13load_metadata
FN:133,_RNvMs0_NtCs2l7roSUS7lg_17sqlrustgo_storage10checkpointNtB5_17CheckpointManager13save_metadata
FN:128,_RNvMs0_NtCs2l7roSUS7lg_17sqlrustgo_storage10checkpointNtB5_17CheckpointManager15last_checkpoint
FN:155,_RNvMs0_NtCs2l7roSUS7lg_17sqlrustgo_storage10checkpointNtB5_17CheckpointManager16list_checkpoints
FN:99,_RNvMs0_NtCs2l7roSUS7lg_17sqlrustgo_storage10checkpointNtB5_17CheckpointManager16needs_checkpoint
FN:116,_RNvMs0_NtCs2l7roSUS7lg_17sqlrustgo_storage10checkpointNtB5_17CheckpointManager17record_checkpoint
FN:183,_RNvMs0_NtCs2l7roSUS7lg_17sqlrustgo_storage10checkpointNtB5_17CheckpointManager23cleanup_old_checkpoints
FN:83,_RNvMs0_NtCs2l7roSUS7lg_17sqlrustgo_storage10checkpointNtB5_17CheckpointManager3new
FN:94,_RNvMs0_NtCs2l7roSUS7lg_17sqlrustgo_storage10checkpointNtB5_17CheckpointManager8with_dir
FN:199,_RNvXs1_NtCs2l7roSUS7lg_17sqlrustgo_storage10checkpointNtB5_17CheckpointManagerNtNtCs8nPosuWgJFh_4core7default7Default7default
FN:64,_RNvXs_NtCs2l7roSUS7lg_17sqlrustgo_storage10checkpointNtB4_16CheckpointConfigNtNtCs8nPosuWgJFh_4core7default7Default7default
FNDA:0,_RNCNvMs0_NtCs38XCG6692bz_17sqlrustgo_storage10checkpointNtB7_17CheckpointManager16list_checkpoints0B9_
FNDA:0,_RNCNvMs0_NtCs38XCG6692bz_17sqlrustgo_storage10checkpointNtB7_17CheckpointManager16list_checkpointss0_0B9_
FNDA:0,_RNCNvMs0_NtCs38XCG6692bz_17sqlrustgo_storage10checkpointNtB7_17CheckpointManager16list_checkpointss_0B9_
FNDA:0,_RNvMNtCs38XCG6692bz_17sqlrustgo_storage10checkpointNtB2_18CheckpointMetadata7to_json
FNDA:0,_RNvMNtCs38XCG6692bz_17sqlrustgo_storage10checkpointNtB2_18CheckpointMetadata9from_json
FNDA:0,_RNvMs0_NtCs38XCG6692bz_17sqlrustgo_storage10checkpointNtB5_17CheckpointManager13load_metadata
FNDA:0,_RNvMs0_NtCs38XCG6692bz_17sqlrustgo_storage10checkpointNtB5_17CheckpointManager13save_metadata
FNDA:0,_RNvMs0_NtCs38XCG6692bz_17sqlrustgo_storage10checkpointNtB5_17CheckpointManager15last_checkpoint
FNDA:0,_RNvMs0_NtCs38XCG6692bz_17sqlrustgo_storage10checkpointNtB5_17CheckpointManager16list_checkpoints
FNDA:0,_RNvMs0_NtCs38XCG6692bz_17sqlrustgo_storage10checkpointNtB5_17CheckpointManager16needs_checkpoint
FNDA:0,_RNvMs0_NtCs38XCG6692bz_17sqlrustgo_storage10checkpointNtB5_17CheckpointManager17record_checkpoint
FNDA:0,_RNvMs0_NtCs38XCG6692bz_17sqlrustgo_storage10checkpointNtB5_17CheckpointManager23cleanup_old_checkpoints
FNDA:0,_RNvMs0_NtCs38XCG6692bz_17sqlrustgo_storage10checkpointNtB5_17CheckpointManager3new
FNDA:0,_RNvMs0_NtCs38XCG6692bz_17sqlrustgo_storage10checkpointNtB5_17CheckpointManager8with_dir
FNDA:0,_RNvXs1_NtCs38XCG6692bz_17sqlrustgo_storage10checkpointNtB5_17CheckpointManagerNtNtCs8nPosuWgJFh_4core7default7Default7default
FNDA:0,_RNvXs_NtCs38XCG6692bz_17sqlrustgo_storage10checkpointNtB4_16CheckpointConfigNtNtCs8nPosuWgJFh_4core7default7Default7default
FNDA:0,_RNvMNtCs1u7In8Za3Xp_17sqlrustgo_storage10checkpointNtB2_18CheckpointMetadata7to_json
FNDA:0,_RNvMNtCs1u7In8Za3Xp_17sqlrustgo_storage10checkpointNtB2_18CheckpointMetadata9from_json
FNDA:0,_RNvMs0_NtCs1u7In8Za3Xp_17sqlrustgo_storage10checkpointNtB5_17CheckpointManager13load_metadata
FNDA:0,_RNvMs0_NtCs1u7In8Za3Xp_17sqlrustgo_storage10checkpointNtB5_17CheckpointManager13save_metadata
FNDA:0,_RNvMs0_NtCs1u7In8Za3Xp_17sqlrustgo_storage10checkpointNtB5_17CheckpointManager15last_checkpoint
FNDA:0,_RNvMs0_NtCs1u7In8Za3Xp_17sqlrustgo_storage10checkpointNtB5_17CheckpointManager16list_checkpoints
FNDA:0,_RNvMs0_NtCs1u7In8Za3Xp_17sqlrustgo_storage10checkpointNtB5_17CheckpointManager16needs_checkpoint
FNDA:0,_RNvMs0_NtCs1u7In8Za3Xp_17sqlrustgo_storage10checkpointNtB5_17CheckpointManager17record_checkpoint
FNDA:0,_RNvMs0_NtCs1u7In8Za3Xp_17sqlrustgo_storage10checkpointNtB5_17CheckpointManager23cleanup_old_checkpoints
FNDA:0,_RNvMs0_NtCs1u7In8Za3Xp_17sqlrustgo_storage10checkpointNtB5_17CheckpointManager3new
FNDA:0,_RNvMs0_NtCs1u7In8Za3Xp_17sqlrustgo_storage10checkpointNtB5_17CheckpointManager8with_dir
FNDA:0,_RNvXs1_NtCs1u7In8Za3Xp_17sqlrustgo_storage10checkpointNtB5_17CheckpointManagerNtNtCs8nPosuWgJFh_4core7default7Default7default
FNDA:0,_RNvXs_NtCs1u7In8Za3Xp_17sqlrustgo_storage10checkpointNtB4_16CheckpointConfigNtNtCs8nPosuWgJFh_4core7default7Default7default
FNDA:0,_RNCNvMs0_NtCs1u7In8Za3Xp_17sqlrustgo_storage10checkpointNtB7_17CheckpointManager16list_checkpoints0B9_
FNDA:0,_RNCNvMs0_NtCs1u7In8Za3Xp_17sqlrustgo_storage10checkpointNtB7_17CheckpointManager16list_checkpointss0_0B9_
FNDA:0,_RNCNvMs0_NtCs1u7In8Za3Xp_17sqlrustgo_storage10checkpointNtB7_17CheckpointManager16list_checkpointss_0B9_
FNDA:0,_RNCNvMs0_NtCsd1AkON0xxEy_17sqlrustgo_storage10checkpointNtB7_17CheckpointManager16list_checkpoints0B9_
FNDA:0,_RNCNvMs0_NtCsd1AkON0xxEy_17sqlrustgo_storage10checkpointNtB7_17CheckpointManager16list_checkpointss0_0B9_
FNDA:0,_RNCNvMs0_NtCsd1AkON0xxEy_17sqlrustgo_storage10checkpointNtB7_17CheckpointManager16list_checkpointss_0B9_
FNDA:0,_RNvMNtCsd1AkON0xxEy_17sqlrustgo_storage10checkpointNtB2_18CheckpointMetadata7to_json
FNDA:0,_RNvMNtCsd1AkON0xxEy_17sqlrustgo_storage10checkpointNtB2_18CheckpointMetadata9from_json
FNDA:0,_RNvMs0_NtCsd1AkON0xxEy_17sqlrustgo_storage10checkpointNtB5_17CheckpointManager13load_metadata
FNDA:0,_RNvMs0_NtCsd1AkON0xxEy_17sqlrustgo_storage10checkpointNtB5_17CheckpointManager13save_metadata
FNDA:0,_RNvMs0_NtCsd1AkON0xxEy_17sqlrustgo_storage10checkpointNtB5_17CheckpointManager15last_checkpoint
FNDA:0,_RNvMs0_NtCsd1AkON0xxEy_17sqlrustgo_storage10checkpointNtB5_17CheckpointManager16list_checkpoints
FNDA:0,_RNvMs0_NtCsd1AkON0xxEy_17sqlrustgo_storage10checkpointNtB5_17CheckpointManager16needs_checkpoint
FNDA:0,_RNvMs0_NtCsd1AkON0xxEy_17sqlrustgo_storage10checkpointNtB5_17CheckpointManager17record_checkpoint
FNDA:0,_RNvMs0_NtCsd1AkON0xxEy_17sqlrustgo_storage10checkpointNtB5_17CheckpointManager23cleanup_old_checkpoints
FNDA:0,_RNvMs0_NtCsd1AkON0xxEy_17sqlrustgo_storage10checkpointNtB5_17CheckpointManager3new
FNDA:0,_RNvMs0_NtCsd1AkON0xxEy_17sqlrustgo_storage10checkpointNtB5_17CheckpointManager8with_dir
FNDA:0,_RNvXs1_NtCsd1AkON0xxEy_17sqlrustgo_storage10checkpointNtB5_17CheckpointManagerNtNtCs8nPosuWgJFh_4core7default7Default7default
FNDA:0,_RNvXs_NtCsd1AkON0xxEy_17sqlrustgo_storage10checkpointNtB4_16CheckpointConfigNtNtCs8nPosuWgJFh_4core7default7Default7default
FNDA:0,_RNCNvMs0_NtCs9oXD4GUMzTX_17sqlrustgo_storage10checkpointNtB7_17CheckpointManager16list_checkpoints0B9_
FNDA:0,_RNCNvMs0_NtCs9oXD4GUMzTX_17sqlrustgo_storage10checkpointNtB7_17CheckpointManager16list_checkpointss0_0B9_
FNDA:0,_RNCNvMs0_NtCs9oXD4GUMzTX_17sqlrustgo_storage10checkpointNtB7_17CheckpointManager16list_checkpointss_0B9_
FNDA:0,_RNvMNtCs9oXD4GUMzTX_17sqlrustgo_storage10checkpointNtB2_18CheckpointMetadata7to_json
FNDA:0,_RNvMNtCs9oXD4GUMzTX_17sqlrustgo_storage10checkpointNtB2_18CheckpointMetadata9from_json
FNDA:0,_RNvMs0_NtCs9oXD4GUMzTX_17sqlrustgo_storage10checkpointNtB5_17CheckpointManager13load_metadata
FNDA:0,_RNvMs0_NtCs9oXD4GUMzTX_17sqlrustgo_storage10checkpointNtB5_17CheckpointManager13save_metadata
FNDA:0,_RNvMs0_NtCs9oXD4GUMzTX_17sqlrustgo_storage10checkpointNtB5_17CheckpointManager15last_checkpoint
FNDA:0,_RNvMs0_NtCs9oXD4GUMzTX_17sqlrustgo_storage10checkpointNtB5_17CheckpointManager16list_checkpoints
FNDA:0,_RNvMs0_NtCs9oXD4GUMzTX_17sqlrustgo_storage10checkpointNtB5_17CheckpointManager16needs_checkpoint
FNDA:0,_RNvMs0_NtCs9oXD4GUMzTX_17sqlrustgo_storage10checkpointNtB5_17CheckpointManager17record_checkpoint
FNDA:0,_RNvMs0_NtCs9oXD4GUMzTX_17sqlrustgo_storage10checkpointNtB5_17CheckpointManager23cleanup_old_checkpoints
FNDA:0,_RNvMs0_NtCs9oXD4GUMzTX_17sqlrustgo_storage10checkpointNtB5_17CheckpointManager3new
FNDA:0,_RNvMs0_NtCs9oXD4GUMzTX_17sqlrustgo_storage10checkpointNtB5_17CheckpointManager8with_dir
FNDA:0,_RNvXs1_NtCs9oXD4GUMzTX_17sqlrustgo_storage10checkpointNtB5_17CheckpointManagerNtNtCs8nPosuWgJFh_4core7default7Default7default
FNDA:0,_RNvXs_NtCs9oXD4GUMzTX_17sqlrustgo_storage10checkpointNtB4_16CheckpointConfigNtNtCs8nPosuWgJFh_4core7default7Default7default
FNDA:0,_RNCNvMs0_NtCsl9zPO89iGuX_17sqlrustgo_storage10checkpointNtB7_17CheckpointManager16list_checkpoints0B9_
FNDA:0,_RNCNvMs0_NtCsl9zPO89iGuX_17sqlrustgo_storage10checkpointNtB7_17CheckpointManager16list_checkpointss0_0B9_
FNDA:0,_RNCNvMs0_NtCsl9zPO89iGuX_17sqlrustgo_storage10checkpointNtB7_17CheckpointManager16list_checkpointss_0B9_
FNDA:0,_RNvMNtCsl9zPO89iGuX_17sqlrustgo_storage10checkpointNtB2_18CheckpointMetadata7to_json
FNDA:0,_RNvMNtCsl9zPO89iGuX_17sqlrustgo_storage10checkpointNtB2_18CheckpointMetadata9from_json
FNDA:0,_RNvMs0_NtCsl9zPO89iGuX_17sqlrustgo_storage10checkpointNtB5_17CheckpointManager13load_metadata
FNDA:0,_RNvMs0_NtCsl9zPO89iGuX_17sqlrustgo_storage10checkpointNtB5_17CheckpointManager13save_metadata
FNDA:0,_RNvMs0_NtCsl9zPO89iGuX_17sqlrustgo_storage10checkpointNtB5_17CheckpointManager15last_checkpoint
FNDA:0,_RNvMs0_NtCsl9zPO89iGuX_17sqlrustgo_storage10checkpointNtB5_17CheckpointManager16list_checkpoints
FNDA:0,_RNvMs0_NtCsl9zPO89iGuX_17sqlrustgo_storage10checkpointNtB5_17CheckpointManager16needs_checkpoint
FNDA:0,_RNvMs0_NtCsl9zPO89iGuX_17sqlrustgo_storage10checkpointNtB5_17CheckpointManager17record_checkpoint
FNDA:0,_RNvMs0_NtCsl9zPO89iGuX_17sqlrustgo_storage10checkpointNtB5_17CheckpointManager23cleanup_old_checkpoints
FNDA:0,_RNvMs0_NtCsl9zPO89iGuX_17sqlrustgo_storage10checkpointNtB5_17CheckpointManager3new
FNDA:0,_RNvMs0_NtCsl9zPO89iGuX_17sqlrustgo_storage10checkpointNtB5_17CheckpointManager8with_dir
FNDA:0,_RNvXs1_NtCsl9zPO89iGuX_17sqlrustgo_storage10checkpointNtB5_17CheckpointManagerNtNtCs8nPosuWgJFh_4core7default7Default7default
FNDA:0,_RNvXs_NtCsl9zPO89iGuX_17sqlrustgo_storage10checkpointNtB4_16CheckpointConfigNtNtCs8nPosuWgJFh_4core7default7Default7default
FNDA:7,_RNvMNtCsgGnK47HN26N_17sqlrustgo_storage10checkpointNtB2_18CheckpointMetadata7to_json
FNDA:7,_RNvMNtCsgGnK47HN26N_17sqlrustgo_storage10checkpointNtB2_18CheckpointMetadata9from_json
FNDA:1,_RNvMs0_NtCsgGnK47HN26N_17sqlrustgo_storage10checkpointNtB5_17CheckpointManager13load_metadata
FNDA:1,_RNvMs0_NtCsgGnK47HN26N_17sqlrustgo_storage10checkpointNtB5_17CheckpointManager13save_metadata
FNDA:2,_RNvMs0_NtCsgGnK47HN26N_17sqlrustgo_storage10checkpointNtB5_17CheckpointManager15last_checkpoint
FNDA:1,_RNvMs0_NtCsgGnK47HN26N_17sqlrustgo_storage10checkpointNtB5_17CheckpointManager16list_checkpoints
FNDA:1,_RNvMs0_NtCsgGnK47HN26N_17sqlrustgo_storage10checkpointNtB5_17CheckpointManager16needs_checkpoint
FNDA:1,_RNvMs0_NtCsgGnK47HN26N_17sqlrustgo_storage10checkpointNtB5_17CheckpointManager17record_checkpoint
FNDA:1,_RNvMs0_NtCsgGnK47HN26N_17sqlrustgo_storage10checkpointNtB5_17CheckpointManager23cleanup_old_checkpoints
FNDA:5,_RNvMs0_NtCsgGnK47HN26N_17sqlrustgo_storage10checkpointNtB5_17CheckpointManager3new
FNDA:3,_RNvMs0_NtCsgGnK47HN26N_17sqlrustgo_storage10checkpointNtB5_17CheckpointManager8with_dir
FNDA:1,_RNvXs1_NtCsgGnK47HN26N_17sqlrustgo_storage10checkpointNtB5_17CheckpointManagerNtNtCs8nPosuWgJFh_4core7default7Default7default
FNDA:4,_RNvXs_NtCsgGnK47HN26N_17sqlrustgo_storage10checkpointNtB4_16CheckpointConfigNtNtCs8nPosuWgJFh_4core7default7Default7default
FNDA:5,_RNCNvMs0_NtCsgGnK47HN26N_17sqlrustgo_storage10checkpointNtB7_17CheckpointManager16list_checkpoints0B9_
FNDA:5,_RNCNvMs0_NtCsgGnK47HN26N_17sqlrustgo_storage10checkpointNtB7_17CheckpointManager16list_checkpointss0_0B9_
FNDA:5,_RNCNvMs0_NtCsgGnK47HN26N_17sqlrustgo_storage10checkpointNtB7_17CheckpointManager16list_checkpointss_0B9_
FNDA:1,_RNvNtNtCsgGnK47HN26N_17sqlrustgo_storage10checkpoint5testss_21test_checkpoint_needs
FNDA:1,_RNvNtNtCsgGnK47HN26N_17sqlrustgo_storage10checkpoint5testss_22test_checkpoint_record
FNDA:1,_RNvNtNtCsgGnK47HN26N_17sqlrustgo_storage10checkpoint5testss_23test_checkpoint_cleanup
FNDA:1,_RNvNtNtCsgGnK47HN26N_17sqlrustgo_storage10checkpoint5testss_25test_checkpoint_save_load
FNDA:1,_RNvNtNtCsgGnK47HN26N_17sqlrustgo_storage10checkpoint5testss_31test_checkpoint_manager_default
FNDA:1,_RNvNtNtCsgGnK47HN26N_17sqlrustgo_storage10checkpoint5testss_38test_checkpoint_metadata_serialization
FNDA:0,_RNCNvMs0_NtCs2l7roSUS7lg_17sqlrustgo_storage10checkpointNtB7_17CheckpointManager16list_checkpoints0B9_
FNDA:0,_RNCNvMs0_NtCs2l7roSUS7lg_17sqlrustgo_storage10checkpointNtB7_17CheckpointManager16list_checkpointss0_0B9_
FNDA:0,_RNCNvMs0_NtCs2l7roSUS7lg_17sqlrustgo_storage10checkpointNtB7_17CheckpointManager16list_checkpointss_0B9_
FNDA:0,_RNvMNtCs2l7roSUS7lg_17sqlrustgo_storage10checkpointNtB2_18CheckpointMetadata7to_json
FNDA:0,_RNvMNtCs2l7roSUS7lg_17sqlrustgo_storage10checkpointNtB2_18CheckpointMetadata9from_json
FNDA:0,_RNvMs0_NtCs2l7roSUS7lg_17sqlrustgo_storage10checkpointNtB5_17CheckpointManager13load_metadata
FNDA:0,_RNvMs0_NtCs2l7roSUS7lg_17sqlrustgo_storage10checkpointNtB5_17CheckpointManager13save_metadata
FNDA:0,_RNvMs0_NtCs2l7roSUS7lg_17sqlrustgo_storage10checkpointNtB5_17CheckpointManager15last_checkpoint
FNDA:0,_RNvMs0_NtCs2l7roSUS7lg_17sqlrustgo_storage10checkpointNtB5_17CheckpointManager16list_checkpoints
FNDA:0,_RNvMs0_NtCs2l7roSUS7lg_17sqlrustgo_storage10checkpointNtB5_17CheckpointManager16needs_checkpoint
FNDA:0,_RNvMs0_NtCs2l7roSUS7lg_17sqlrustgo_storage10checkpointNtB5_17CheckpointManager17record_checkpoint
FNDA:0,_RNvMs0_NtCs2l7roSUS7lg_17sqlrustgo_storage10checkpointNtB5_17CheckpointManager23cleanup_old_checkpoints
FNDA:0,_RNvMs0_NtCs2l7roSUS7lg_17sqlrustgo_storage10checkpointNtB5_17CheckpointManager3new
FNDA:0,_RNvMs0_NtCs2l7roSUS7lg_17sqlrustgo_storage10checkpointNtB5_17CheckpointManager8with_dir
FNDA:0,_RNvXs1_NtCs2l7roSUS7lg_17sqlrustgo_storage10checkpointNtB5_17CheckpointManagerNtNtCs8nPosuWgJFh_4core7default7Default7default
FNDA:0,_RNvXs_NtCs2l7roSUS7lg_17sqlrustgo_storage10checkpointNtB4_16CheckpointConfigNtNtCs8nPosuWgJFh_4core7default7Default7default
FNF:22
FNH:22
DA:28,7
DA:29,7
DA:35,7
DA:37,7
DA:40,7
DA:41,7
DA:43,7
DA:44,7
DA:45,7
DA:46,7
DA:47,7
DA:49,7
DA:64,4
DA:65,4
DA:66,4
DA:67,4
DA:68,4
DA:69,4
DA:70,4
DA:83,5
DA:84,5
DA:85,5
DA:86,5
DA:87,5
DA:88,5
DA:89,5
DA:90,5
DA:91,5
DA:94,3
DA:95,3
DA:96,3
DA:99,1
DA:100,1
DA:101,1
DA:102,1
DA:106,1
DA:107,0
DA:108,1
DA:112,1
DA:113,1
DA:116,1
DA:117,1
DA:118,1
DA:119,1
DA:120,1
DA:121,1
DA:122,1
DA:123,1
DA:124,1
DA:125,1
DA:128,2
DA:129,2
DA:130,2
DA:133,1
DA:134,1
DA:135,1
DA:136,1
DA:137,1
DA:138,1
DA:141,1
DA:142,1
DA:143,1
DA:144,0
DA:145,1
DA:147,1
DA:148,1
DA:149,1
DA:151,1
DA:152,1
DA:155,1
DA:156,1
DA:158,5
DA:159,5
DA:160,5
DA:162,5
DA:163,5
DA:164,5
DA:165,5
DA:166,5
DA:168,5
DA:169,5
DA:170,5
DA:172,5
DA:173,5
DA:174,5
DA:175,0
DA:178,5
DA:179,1
DA:180,1
DA:183,1
DA:184,1
DA:185,1
DA:186,1
DA:188,3
DA:189,3
DA:190,3
DA:191,3
DA:194,1
DA:195,1
DA:199,1
DA:200,1
DA:201,1
DA:210,1
DA:211,1
DA:212,1
DA:213,1
DA:214,1
DA:215,1
DA:216,1
DA:217,1
DA:219,1
DA:220,1
DA:222,1
DA:223,1
DA:224,1
DA:225,1
DA:228,1
DA:229,1
DA:230,1
DA:231,1
DA:234,1
DA:235,1
DA:236,1
DA:237,1
DA:238,1
DA:239,1
DA:240,1
DA:242,1
DA:245,1
DA:246,1
DA:249,1
DA:250,1
DA:251,1
DA:253,1
DA:254,1
DA:255,1
DA:256,1
DA:257,1
DA:258,1
DA:259,1
DA:261,1
DA:263,1
DA:264,1
DA:265,1
DA:268,1
DA:269,1
DA:270,1
DA:272,1
DA:273,1
DA:274,1
DA:275,1
DA:276,1
DA:277,1
DA:278,1
DA:280,1
DA:281,1
DA:283,1
DA:284,1
DA:285,1
DA:288,1
DA:289,1
DA:290,1
DA:293,5
DA:294,5
DA:295,5
DA:296,5
DA:297,5
DA:298,5
DA:299,5
DA:300,5
DA:301,5
DA:302,5
DA:303,5
DA:304,5
DA:307,1
DA:308,1
DA:309,1
BRF:0
BRH:0
LF:180
LH:177
end_of_record
SF:/home/openclaw/dev/yinglichina8848/sqlrustgo/crates/storage/src/clock_replacer.rs
FN:222,_RNCNvMs_NtCs38XCG6692bz_17sqlrustgo_storage14clock_replacerNtB6_13ClockReplacer15evictable_count0B8_
FN:223,_RNCNvMs_NtCs38XCG6692bz_17sqlrustgo_storage14clock_replacerNtB6_13ClockReplacer15evictable_counts_0B8_
FN:222,_RNCNvMs_NtCs1u7In8Za3Xp_17sqlrustgo_storage14clock_replacerNtB6_13ClockReplacer15evictable_count0B8_
FN:223,_RNCNvMs_NtCs1u7In8Za3Xp_17sqlrustgo_storage14clock_replacerNtB6_13ClockReplacer15evictable_counts_0B8_
FN:222,_RNCNvMs_NtCsd1AkON0xxEy_17sqlrustgo_storage14clock_replacerNtB6_13ClockReplacer15evictable_count0B8_
FN:223,_RNCNvMs_NtCsd1AkON0xxEy_17sqlrustgo_storage14clock_replacerNtB6_13ClockReplacer15evictable_counts_0B8_
FN:222,_RNCNvMs_NtCs9oXD4GUMzTX_17sqlrustgo_storage14clock_replacerNtB6_13ClockReplacer15evictable_count0B8_
FN:223,_RNCNvMs_NtCs9oXD4GUMzTX_17sqlrustgo_storage14clock_replacerNtB6_13ClockReplacer15evictable_counts_0B8_
FN:222,_RNCNvMs_NtCsl9zPO89iGuX_17sqlrustgo_storage14clock_replacerNtB6_13ClockReplacer15evictable_count0B8_
FN:223,_RNCNvMs_NtCsl9zPO89iGuX_17sqlrustgo_storage14clock_replacerNtB6_13ClockReplacer15evictable_counts_0B8_
