SF:/home/openclaw/dev/yinglichina8848/sqlrustgo/crates/telemetry/src/lib.rs
FN:224,_RNCNvMCsbJnuiqYOyrg_19sqlrustgo_telemetryNtB4_7Metrics16duration_buckets0B4_
FN:174,_RNvMCsbJnuiqYOyrg_19sqlrustgo_telemetryNtB2_7Metrics10cache_hits
FN:179,_RNvMCsbJnuiqYOyrg_19sqlrustgo_telemetryNtB2_7Metrics12cache_misses
FN:86,_RNvMCsbJnuiqYOyrg_19sqlrustgo_telemetryNtB2_7Metrics12record_query
FN:144,_RNvMCsbJnuiqYOyrg_19sqlrustgo_telemetryNtB2_7Metrics13queries_total
FN:184,_RNvMCsbJnuiqYOyrg_19sqlrustgo_telemetryNtB2_7Metrics14cache_hit_rate
FN:221,_RNvMCsbJnuiqYOyrg_19sqlrustgo_telemetryNtB2_7Metrics16duration_buckets
FN:113,_RNvMCsbJnuiqYOyrg_19sqlrustgo_telemetryNtB2_7Metrics16record_cache_hit
FN:169,_RNvMCsbJnuiqYOyrg_19sqlrustgo_telemetryNtB2_7Metrics17connections_total
FN:123,_RNvMCsbJnuiqYOyrg_19sqlrustgo_telemetryNtB2_7Metrics17record_bytes_read
FN:118,_RNvMCsbJnuiqYOyrg_19sqlrustgo_telemetryNtB2_7Metrics17record_cache_miss
FN:164,_RNvMCsbJnuiqYOyrg_19sqlrustgo_telemetryNtB2_7Metrics18connections_active
FN:196,_RNvMCsbJnuiqYOyrg_19sqlrustgo_telemetryNtB2_7Metrics18storage_read_bytes
FN:133,_RNvMCsbJnuiqYOyrg_19sqlrustgo_telemetryNtB2_7Metrics19connection_acquired
FN:139,_RNvMCsbJnuiqYOyrg_19sqlrustgo_telemetryNtB2_7Metrics19connection_released
FN:149,_RNvMCsbJnuiqYOyrg_19sqlrustgo_telemetryNtB2_7Metrics19queries_duration_us
FN:201,_RNvMCsbJnuiqYOyrg_19sqlrustgo_telemetryNtB2_7Metrics19storage_write_bytes
FN:128,_RNvMCsbJnuiqYOyrg_19sqlrustgo_telemetryNtB2_7Metrics20record_bytes_written
FN:154,_RNvMCsbJnuiqYOyrg_19sqlrustgo_telemetryNtB2_7Metrics21avg_query_duration_us
FN:95,_RNvMCsbJnuiqYOyrg_19sqlrustgo_telemetryNtB2_7Metrics22record_duration_bucket
FN:56,_RNvMCsbJnuiqYOyrg_19sqlrustgo_telemetryNtB2_7Metrics3new
FN:206,_RNvMCsbJnuiqYOyrg_19sqlrustgo_telemetryNtB2_7Metrics5reset
FN:243,_RNvMs0_CsbJnuiqYOyrg_19sqlrustgo_telemetryNtB5_12MetricsTimer3new
FN:259,_RNvXs1_CsbJnuiqYOyrg_19sqlrustgo_telemetryNtB5_12MetricsTimerNtNtNtCs8nPosuWgJFh_4core3ops4drop4Drop4drop
FN:251,_RNvMs0_CsbJnuiqYOyrg_19sqlrustgo_telemetryNtB5_12MetricsTimer4stop
FN:230,_RNvXs_CsbJnuiqYOyrg_19sqlrustgo_telemetryNtB4_7MetricsNtNtCs8nPosuWgJFh_4core7default7Default7default
FN:296,_RNvNtCsbJnuiqYOyrg_19sqlrustgo_telemetry5testss_16test_metrics_new
FN:355,_RNvNtCsbJnuiqYOyrg_19sqlrustgo_telemetry5testss_18test_metrics_reset
FN:345,_RNvNtCsbJnuiqYOyrg_19sqlrustgo_telemetry5testss_18test_metrics_timer
FN:369,_RNvNtCsbJnuiqYOyrg_19sqlrustgo_telemetry5testss_21test_duration_buckets
FN:335,_RNvNtCsbJnuiqYOyrg_19sqlrustgo_telemetry5testss_23test_metrics_storage_io
FN:304,_RNvNtCsbJnuiqYOyrg_19sqlrustgo_telemetry5testss_25test_metrics_record_query
FN:323,_RNvNtCsbJnuiqYOyrg_19sqlrustgo_telemetry5testss_28test_metrics_connection_pool
FN:383,_RNvNtCsbJnuiqYOyrg_19sqlrustgo_telemetry5testss_30test_cache_hit_rate_zero_total
FN:312,_RNvNtCsbJnuiqYOyrg_19sqlrustgo_telemetry5testss_34test_metrics_record_cache_hit_miss
FN:389,_RNvNtCsbJnuiqYOyrg_19sqlrustgo_telemetry5testss_36test_avg_query_duration_zero_queries
FNDA:80,_RNCNvMCsbJnuiqYOyrg_19sqlrustgo_telemetryNtB4_7Metrics16duration_buckets0B4_
FNDA:9,_RNvMCsbJnuiqYOyrg_19sqlrustgo_telemetryNtB2_7Metrics10cache_hits
FNDA:8,_RNvMCsbJnuiqYOyrg_19sqlrustgo_telemetryNtB2_7Metrics12cache_misses
FNDA:10,_RNvMCsbJnuiqYOyrg_19sqlrustgo_telemetryNtB2_7Metrics12record_query
FNDA:18,_RNvMCsbJnuiqYOyrg_19sqlrustgo_telemetryNtB2_7Metrics13queries_total
FNDA:10,_RNvMCsbJnuiqYOyrg_19sqlrustgo_telemetryNtB2_7Metrics14cache_hit_rate
FNDA:8,_RNvMCsbJnuiqYOyrg_19sqlrustgo_telemetryNtB2_7Metrics16duration_buckets
FNDA:5,_RNvMCsbJnuiqYOyrg_19sqlrustgo_telemetryNtB2_7Metrics16record_cache_hit
FNDA:9,_RNvMCsbJnuiqYOyrg_19sqlrustgo_telemetryNtB2_7Metrics17connections_total
FNDA:4,_RNvMCsbJnuiqYOyrg_19sqlrustgo_telemetryNtB2_7Metrics17record_bytes_read
FNDA:2,_RNvMCsbJnuiqYOyrg_19sqlrustgo_telemetryNtB2_7Metrics17record_cache_miss
FNDA:11,_RNvMCsbJnuiqYOyrg_19sqlrustgo_telemetryNtB2_7Metrics18connections_active
FNDA:9,_RNvMCsbJnuiqYOyrg_19sqlrustgo_telemetryNtB2_7Metrics18storage_read_bytes
FNDA:4,_RNvMCsbJnuiqYOyrg_19sqlrustgo_telemetryNtB2_7Metrics19connection_acquired
FNDA:1,_RNvMCsbJnuiqYOyrg_19sqlrustgo_telemetryNtB2_7Metrics19connection_released
FNDA:7,_RNvMCsbJnuiqYOyrg_19sqlrustgo_telemetryNtB2_7Metrics19queries_duration_us
FNDA:8,_RNvMCsbJnuiqYOyrg_19sqlrustgo_telemetryNtB2_7Metrics19storage_write_bytes
FNDA:2,_RNvMCsbJnuiqYOyrg_19sqlrustgo_telemetryNtB2_7Metrics20record_bytes_written
FNDA:2,_RNvMCsbJnuiqYOyrg_19sqlrustgo_telemetryNtB2_7Metrics21avg_query_duration_us
FNDA:10,_RNvMCsbJnuiqYOyrg_19sqlrustgo_telemetryNtB2_7Metrics22record_duration_bucket
FNDA:17,_RNvMCsbJnuiqYOyrg_19sqlrustgo_telemetryNtB2_7Metrics3new
FNDA:1,_RNvMCsbJnuiqYOyrg_19sqlrustgo_telemetryNtB2_7Metrics5reset
FNDA:1,_RNvMs0_CsbJnuiqYOyrg_19sqlrustgo_telemetryNtB5_12MetricsTimer3new
FNDA:1,_RNvXs1_CsbJnuiqYOyrg_19sqlrustgo_telemetryNtB5_12MetricsTimerNtNtNtCs8nPosuWgJFh_4core3ops4drop4Drop4drop
FNDA:0,_RNvMs0_CsbJnuiqYOyrg_19sqlrustgo_telemetryNtB5_12MetricsTimer4stop
FNDA:0,_RNvXs_CsbJnuiqYOyrg_19sqlrustgo_telemetryNtB4_7MetricsNtNtCs8nPosuWgJFh_4core7default7Default7default
FNDA:1,_RNvNtCsbJnuiqYOyrg_19sqlrustgo_telemetry5testss_16test_metrics_new
FNDA:1,_RNvNtCsbJnuiqYOyrg_19sqlrustgo_telemetry5testss_18test_metrics_reset
FNDA:1,_RNvNtCsbJnuiqYOyrg_19sqlrustgo_telemetry5testss_18test_metrics_timer
FNDA:1,_RNvNtCsbJnuiqYOyrg_19sqlrustgo_telemetry5testss_21test_duration_buckets
FNDA:1,_RNvNtCsbJnuiqYOyrg_19sqlrustgo_telemetry5testss_23test_metrics_storage_io
FNDA:1,_RNvNtCsbJnuiqYOyrg_19sqlrustgo_telemetry5testss_25test_metrics_record_query
FNDA:1,_RNvNtCsbJnuiqYOyrg_19sqlrustgo_telemetry5testss_28test_metrics_connection_pool
FNDA:1,_RNvNtCsbJnuiqYOyrg_19sqlrustgo_telemetry5testss_30test_cache_hit_rate_zero_total
FNDA:1,_RNvNtCsbJnuiqYOyrg_19sqlrustgo_telemetry5testss_34test_metrics_record_cache_hit_miss
FNDA:1,_RNvNtCsbJnuiqYOyrg_19sqlrustgo_telemetry5testss_36test_avg_query_duration_zero_queries
FNF:36
FNH:34
DA:56,17
DA:57,17
DA:58,17
DA:59,17
DA:60,17
DA:61,17
DA:62,17
DA:63,17
DA:64,17
DA:65,17
DA:66,17
DA:67,17
DA:68,17
DA:69,17
DA:70,17
DA:71,17
DA:72,17
DA:73,17
DA:74,17
DA:75,17
DA:76,17
DA:77,17
DA:78,17
DA:79,17
DA:86,10
DA:87,10
DA:88,10
DA:89,10
DA:90,10
DA:91,10
DA:92,10
DA:93,10
DA:95,10
DA:99,10
DA:100,10
DA:101,10
DA:102,43
DA:103,43
DA:104,10
DA:105,10
DA:106,33
DA:109,0
DA:110,10
DA:113,5
DA:114,5
DA:115,5
DA:118,2
DA:119,2
DA:120,2
DA:123,4
DA:124,4
DA:125,4
DA:128,2
DA:129,2
DA:130,2
DA:133,4
DA:134,4
DA:135,4
DA:136,4
DA:139,1
DA:140,1
DA:141,1
DA:144,18
DA:145,18
DA:146,18
DA:149,7
DA:150,7
DA:151,7
DA:154,2
DA:155,2
DA:156,2
DA:157,1
DA:159,1
DA:161,2
DA:164,11
DA:165,11
DA:166,11
DA:169,9
DA:170,9
DA:171,9
DA:174,9
DA:175,9
DA:176,9
DA:179,8
DA:180,8
DA:181,8
DA:184,10
DA:185,10
DA:186,10
DA:187,10
DA:188,10
DA:189,8
DA:191,2
DA:193,10
DA:196,9
DA:197,9
DA:198,9
DA:201,8
DA:202,8
DA:203,8
DA:206,1
DA:207,1
DA:208,1
DA:209,1
DA:210,1
DA:211,1
DA:212,1
DA:213,1
DA:214,1
DA:215,10
DA:216,10
DA:217,10
DA:218,1
DA:221,8
DA:222,8
DA:223,8
DA:224,80
DA:225,8
DA:226,8
DA:230,0
DA:231,0
DA:232,0
DA:243,1
DA:244,1
DA:245,1
DA:246,1
DA:247,1
DA:248,1
DA:251,0
DA:252,0
DA:253,0
DA:254,0
DA:255,0
DA:259,1
DA:260,1
DA:261,1
DA:262,1
DA:296,1
DA:297,1
DA:298,1
DA:299,1
DA:300,1
DA:301,1
DA:304,1
DA:305,1
DA:306,1
DA:307,1
DA:308,1
DA:309,1
DA:312,1
DA:313,1
DA:314,1
DA:315,1
DA:316,1
DA:317,1
DA:318,1
DA:319,1
DA:320,1
DA:323,1
DA:324,1
DA:325,1
DA:326,1
DA:327,1
DA:328,1
DA:329,1
DA:330,1
DA:331,1
DA:332,1
DA:335,1
DA:336,1
DA:337,1
DA:338,1
DA:339,1
DA:340,1
DA:341,1
DA:342,1
DA:345,1
DA:346,1
DA:347,1
DA:348,1
DA:349,1
DA:350,1
DA:351,1
DA:352,1
DA:355,1
DA:356,1
DA:357,1
DA:358,1
DA:359,1
DA:360,1
DA:361,1
DA:362,1
DA:363,1
DA:364,1
DA:365,1
DA:366,1
DA:369,1
DA:370,1
DA:371,1
DA:372,1
DA:373,1
DA:374,1
DA:375,1
DA:376,1
DA:377,1
DA:378,1
DA:379,1
DA:380,1
DA:383,1
DA:384,1
DA:385,1
DA:386,1
DA:389,1
DA:390,1
DA:391,1
DA:392,1
BRF:0
BRH:0
LF:217
LH:208
end_of_record
SF:/home/openclaw/dev/yinglichina8848/sqlrustgo/crates/telemetry/src/prometheus.rs
FN:162,_RNvMs_NtCsbJnuiqYOyrg_19sqlrustgo_telemetry10prometheusNtB4_18PrometheusRenderer17render_cache_hits
FN:172,_RNvMs_NtCsbJnuiqYOyrg_19sqlrustgo_telemetry10prometheusNtB4_18PrometheusRenderer19render_cache_misses
FN:68,_RNvMs_NtCsbJnuiqYOyrg_19sqlrustgo_telemetry10prometheusNtB4_18PrometheusRenderer20render_queries_total
FN:182,_RNvMs_NtCsbJnuiqYOyrg_19sqlrustgo_telemetry10prometheusNtB4_18PrometheusRenderer21render_cache_hit_rate
FN:82,_RNvMs_NtCsbJnuiqYOyrg_19sqlrustgo_telemetry10prometheusNtB4_18PrometheusRenderer23render_queries_duration
FN:148,_RNvMs_NtCsbJnuiqYOyrg_19sqlrustgo_telemetry10prometheusNtB4_18PrometheusRenderer24render_connections_total
FN:134,_RNvMs_NtCsbJnuiqYOyrg_19sqlrustgo_telemetry10prometheusNtB4_18PrometheusRenderer25render_connections_active
FN:196,_RNvMs_NtCsbJnuiqYOyrg_19sqlrustgo_telemetry10prometheusNtB4_18PrometheusRenderer25render_storage_read_bytes
FN:210,_RNvMs_NtCsbJnuiqYOyrg_19sqlrustgo_telemetry10prometheusNtB4_18PrometheusRenderer26render_storage_write_bytes
FN:35,_RNvMs_NtCsbJnuiqYOyrg_19sqlrustgo_telemetry10prometheusNtB4_18PrometheusRenderer6render
FN:251,_RNvNtNtCsbJnuiqYOyrg_19sqlrustgo_telemetry10prometheus5testss_17test_render_cache
FN:263,_RNvNtNtCsbJnuiqYOyrg_19sqlrustgo_telemetry10prometheus5testss_19test_render_storage
FN:240,_RNvNtNtCsbJnuiqYOyrg_19sqlrustgo_telemetry10prometheus5testss_23test_render_connections
FN:285,_RNvNtNtCsbJnuiqYOyrg_19sqlrustgo_telemetry10prometheus5testss_25test_render_empty_metrics
FN:230,_RNvNtNtCsbJnuiqYOyrg_19sqlrustgo_telemetry10prometheus5testss_25test_render_queries_total
FN:273,_RNvNtNtCsbJnuiqYOyrg_19sqlrustgo_telemetry10prometheus5testss_30test_render_duration_histogram
FN:295,_RNvNtNtCsbJnuiqYOyrg_19sqlrustgo_telemetry10prometheus5testss_33test_prometheus_format_compliance
FN:18,_RNvMNtCsbJnuiqYOyrg_19sqlrustgo_telemetry10prometheusNtB2_10MetricType6as_str
FN:92,_RNCNvMs_NtCsbJnuiqYOyrg_19sqlrustgo_telemetry10prometheusNtB6_18PrometheusRenderer23render_queries_duration0B8_
FNDA:7,_RNvMs_NtCsbJnuiqYOyrg_19sqlrustgo_telemetry10prometheusNtB4_18PrometheusRenderer17render_cache_hits
FNDA:7,_RNvMs_NtCsbJnuiqYOyrg_19sqlrustgo_telemetry10prometheusNtB4_18PrometheusRenderer19render_cache_misses
FNDA:7,_RNvMs_NtCsbJnuiqYOyrg_19sqlrustgo_telemetry10prometheusNtB4_18PrometheusRenderer20render_queries_total
FNDA:7,_RNvMs_NtCsbJnuiqYOyrg_19sqlrustgo_telemetry10prometheusNtB4_18PrometheusRenderer21render_cache_hit_rate
FNDA:7,_RNvMs_NtCsbJnuiqYOyrg_19sqlrustgo_telemetry10prometheusNtB4_18PrometheusRenderer23render_queries_duration
FNDA:7,_RNvMs_NtCsbJnuiqYOyrg_19sqlrustgo_telemetry10prometheusNtB4_18PrometheusRenderer24render_connections_total
FNDA:7,_RNvMs_NtCsbJnuiqYOyrg_19sqlrustgo_telemetry10prometheusNtB4_18PrometheusRenderer25render_connections_active
FNDA:7,_RNvMs_NtCsbJnuiqYOyrg_19sqlrustgo_telemetry10prometheusNtB4_18PrometheusRenderer25render_storage_read_bytes
FNDA:7,_RNvMs_NtCsbJnuiqYOyrg_19sqlrustgo_telemetry10prometheusNtB4_18PrometheusRenderer26render_storage_write_bytes
FNDA:7,_RNvMs_NtCsbJnuiqYOyrg_19sqlrustgo_telemetry10prometheusNtB4_18PrometheusRenderer6render
FNDA:1,_RNvNtNtCsbJnuiqYOyrg_19sqlrustgo_telemetry10prometheus5testss_17test_render_cache
FNDA:1,_RNvNtNtCsbJnuiqYOyrg_19sqlrustgo_telemetry10prometheus5testss_19test_render_storage
FNDA:1,_RNvNtNtCsbJnuiqYOyrg_19sqlrustgo_telemetry10prometheus5testss_23test_render_connections
FNDA:1,_RNvNtNtCsbJnuiqYOyrg_19sqlrustgo_telemetry10prometheus5testss_25test_render_empty_metrics
FNDA:1,_RNvNtNtCsbJnuiqYOyrg_19sqlrustgo_telemetry10prometheus5testss_25test_render_queries_total
FNDA:1,_RNvNtNtCsbJnuiqYOyrg_19sqlrustgo_telemetry10prometheus5testss_30test_render_duration_histogram
FNDA:1,_RNvNtNtCsbJnuiqYOyrg_19sqlrustgo_telemetry10prometheus5testss_33test_prometheus_format_compliance
FNDA:0,_RNvMNtCsbJnuiqYOyrg_19sqlrustgo_telemetry10prometheusNtB2_10MetricType6as_str
FNDA:70,_RNCNvMs_NtCsbJnuiqYOyrg_19sqlrustgo_telemetry10prometheusNtB6_18PrometheusRenderer23render_queries_duration0B8_
FNF:19
FNH:18
DA:18,0
DA:19,0
DA:20,0
DA:21,0
DA:22,0
DA:24,0
DA:35,7
DA:36,7
DA:39,7
DA:42,7
DA:45,7
DA:48,7
DA:51,7
DA:54,7
DA:57,7
DA:60,7
DA:63,7
DA:65,7
DA:66,7
DA:68,7
DA:70,7
DA:71,7
DA:74,7
DA:75,7
DA:76,7
DA:78,7
DA:80,7
DA:82,7
DA:87,7
DA:88,7
DA:89,7
DA:90,7
DA:91,7
DA:92,70
DA:93,7
DA:94,7
DA:96,7
DA:97,7
DA:100,7
DA:101,7
DA:106,7
DA:107,70
DA:108,70
DA:109,70
DA:110,70
DA:111,70
DA:112,70
DA:113,70
DA:114,70
DA:115,70
DA:117,7
DA:118,7
DA:124,7
DA:125,7
DA:126,7
DA:127,7
DA:128,7
DA:130,7
DA:132,7
DA:134,7
DA:136,7
DA:137,7
DA:140,7
DA:141,7
DA:142,7
DA:144,7
DA:146,7
DA:148,7
DA:150,7
DA:151,7
DA:154,7
DA:155,7
DA:156,7
DA:158,7
DA:160,7
DA:162,7
DA:164,7
DA:165,7
DA:168,7
DA:169,7
DA:170,7
DA:172,7
DA:174,7
DA:175,7
DA:178,7
DA:179,7
DA:180,7
DA:182,7
DA:184,7
DA:185,7
DA:188,7
DA:189,7
DA:190,7
DA:192,7
DA:194,7
DA:196,7
DA:198,7
DA:199,7
DA:202,7
DA:203,7
DA:204,7
DA:206,7
DA:208,7
DA:210,7
DA:212,7
DA:213,7
DA:216,7
DA:217,7
DA:218,7
DA:220,7
DA:222,7
DA:230,1
DA:231,1
DA:232,1
DA:233,1
DA:234,1
DA:235,1
DA:236,1
DA:237,1
DA:240,1
DA:241,1
DA:242,1
DA:243,1
DA:244,1
DA:245,1
DA:246,1
DA:247,1
DA:248,1
DA:251,1
DA:252,1
DA:253,1
DA:254,1
DA:255,1
DA:256,1
DA:257,1
DA:258,1
DA:259,1
DA:260,1
DA:263,1
DA:264,1
DA:265,1
DA:266,1
DA:267,1
DA:268,1
DA:269,1
DA:270,1
DA:273,1
DA:274,1
DA:275,1
DA:276,1
DA:277,1
DA:278,1
DA:279,1
DA:280,1
DA:281,1
DA:282,1
DA:285,1
DA:286,1
DA:287,1
DA:289,1
DA:290,1
DA:291,1
DA:292,1
DA:295,1
DA:296,1
DA:297,1
DA:298,1
DA:301,1
DA:303,1
DA:305,1
DA:306,1
BRF:0
BRH:0
LF:172
LH:166
end_of_record