SF:/home/openclaw/dev/yinglichina8848/sqlrustgo/crates/transaction/src/coordinator.rs
FN:200,_RNCNvMs0_NtCsjfxBuuaWLtE_21sqlrustgo_transaction11coordinatorNtB7_11Coordinator9get_state0B9_
FN:200,_RNCNvMs0_NtCs4BfdzTzvOqG_21sqlrustgo_transaction11coordinatorNtB7_11Coordinator9get_state0B9_
FN:416,_RNvNtNtCs7yHBkdcMBoj_21sqlrustgo_transaction11coordinator5testss_23test_coordinator_commit
FN:430,_RNvNtNtCs7yHBkdcMBoj_21sqlrustgo_transaction11coordinator5testss_25test_coordinator_rollback
FN:451,_RNvNtNtCs7yHBkdcMBoj_21sqlrustgo_transaction11coordinator5testss_25test_register_participant
FN:443,_RNvNtNtCs7yHBkdcMBoj_21sqlrustgo_transaction11coordinator5testss_30test_grpc_client_pool_creation
FN:373,_RNvNtNtCs7yHBkdcMBoj_21sqlrustgo_transaction11coordinator5testss_31test_coordinator_initialization
FN:400,_RNvNtNtCs7yHBkdcMBoj_21sqlrustgo_transaction11coordinator5testss_32test_coordinator_prepare_success
FN:380,_RNvNtNtCs7yHBkdcMBoj_21sqlrustgo_transaction11coordinator5testss_34test_begin_distributed_transaction
FN:388,_RNvNtNtCs7yHBkdcMBoj_21sqlrustgo_transaction11coordinator5testss_34test_coordinator_state_transitions
FN:276,_RNCNCNvMs0_NtCs7yHBkdcMBoj_21sqlrustgo_transaction11coordinatorNtB9_11Coordinator28send_prepare_to_participants00Bb_
FN:208,_RNCNvMs0_NtCs7yHBkdcMBoj_21sqlrustgo_transaction11coordinatorNtB7_11Coordinator20register_participant0B9_
FN:306,_RNCNvMs0_NtCs7yHBkdcMBoj_21sqlrustgo_transaction11coordinatorNtB7_11Coordinator27send_commit_to_participants0B9_
FN:260,_RNCNvMs0_NtCs7yHBkdcMBoj_21sqlrustgo_transaction11coordinatorNtB7_11Coordinator28send_prepare_to_participants0B9_
FN:342,_RNCNvMs0_NtCs7yHBkdcMBoj_21sqlrustgo_transaction11coordinatorNtB7_11Coordinator29send_rollback_to_participants0B9_
FN:281,_RNCNvMs0_NtCs7yHBkdcMBoj_21sqlrustgo_transaction11coordinatorNtB7_11Coordinator6commit0B9_
FN:219,_RNCNvMs0_NtCs7yHBkdcMBoj_21sqlrustgo_transaction11coordinatorNtB7_11Coordinator7prepare0B9_
FN:316,_RNCNvMs0_NtCs7yHBkdcMBoj_21sqlrustgo_transaction11coordinatorNtB7_11Coordinator8rollback0B9_
FN:200,_RNCNvMs0_NtCs7yHBkdcMBoj_21sqlrustgo_transaction11coordinatorNtB7_11Coordinator9get_state0B9_
FN:30,_RNvMNtCs7yHBkdcMBoj_21sqlrustgo_transaction11coordinatorNtB2_14GrpcClientPool3new
FN:183,_RNvMs0_NtCs7yHBkdcMBoj_21sqlrustgo_transaction11coordinatorNtB5_11Coordinator12generate_gid
FN:187,_RNvMs0_NtCs7yHBkdcMBoj_21sqlrustgo_transaction11coordinatorNtB5_11Coordinator17begin_transaction
FN:204,_RNvMs0_NtCs7yHBkdcMBoj_21sqlrustgo_transaction11coordinatorNtB5_11Coordinator20register_participant
FN:302,_RNvMs0_NtCs7yHBkdcMBoj_21sqlrustgo_transaction11coordinatorNtB5_11Coordinator27send_commit_to_participants
FN:256,_RNvMs0_NtCs7yHBkdcMBoj_21sqlrustgo_transaction11coordinatorNtB5_11Coordinator28send_prepare_to_participants
FN:337,_RNvMs0_NtCs7yHBkdcMBoj_21sqlrustgo_transaction11coordinatorNtB5_11Coordinator29send_rollback_to_participants
FN:165,_RNvMs0_NtCs7yHBkdcMBoj_21sqlrustgo_transaction11coordinatorNtB5_11Coordinator3new
FN:281,_RNvMs0_NtCs7yHBkdcMBoj_21sqlrustgo_transaction11coordinatorNtB5_11Coordinator6commit
FN:172,_RNvMs0_NtCs7yHBkdcMBoj_21sqlrustgo_transaction11coordinatorNtB5_11Coordinator7node_id
FN:215,_RNvMs0_NtCs7yHBkdcMBoj_21sqlrustgo_transaction11coordinatorNtB5_11Coordinator7prepare
FN:316,_RNvMs0_NtCs7yHBkdcMBoj_21sqlrustgo_transaction11coordinatorNtB5_11Coordinator8rollback
FN:196,_RNvMs0_NtCs7yHBkdcMBoj_21sqlrustgo_transaction11coordinatorNtB5_11Coordinator9get_state
FN:63,_RNCNCNvMNtCs7yHBkdcMBoj_21sqlrustgo_transaction11coordinatorNtB6_14GrpcClientPool10get_client00B8_
FN:72,_RNCNCNvMNtCs7yHBkdcMBoj_21sqlrustgo_transaction11coordinatorNtB6_14GrpcClientPool10get_client0s0_0B8_
FN:67,_RNCNCNvMNtCs7yHBkdcMBoj_21sqlrustgo_transaction11coordinatorNtB6_14GrpcClientPool10get_client0s_0B8_
FN:122,_RNCNCNvMNtCs7yHBkdcMBoj_21sqlrustgo_transaction11coordinatorNtB6_14GrpcClientPool11send_commit00B8_
FN:101,_RNCNCNvMNtCs7yHBkdcMBoj_21sqlrustgo_transaction11coordinatorNtB6_14GrpcClientPool12send_prepare00B8_
FN:145,_RNCNCNvMNtCs7yHBkdcMBoj_21sqlrustgo_transaction11coordinatorNtB6_14GrpcClientPool13send_rollback00B8_
FN:47,_RNCNvMNtCs7yHBkdcMBoj_21sqlrustgo_transaction11coordinatorNtB4_14GrpcClientPool10get_client0B6_
FN:112,_RNCNvMNtCs7yHBkdcMBoj_21sqlrustgo_transaction11coordinatorNtB4_14GrpcClientPool11send_commit0B6_
FN:89,_RNCNvMNtCs7yHBkdcMBoj_21sqlrustgo_transaction11coordinatorNtB4_14GrpcClientPool12send_prepare0B6_
FN:38,_RNCNvMNtCs7yHBkdcMBoj_21sqlrustgo_transaction11coordinatorNtB4_14GrpcClientPool13register_node0B6_
FN:134,_RNCNvMNtCs7yHBkdcMBoj_21sqlrustgo_transaction11coordinatorNtB4_14GrpcClientPool13send_rollback0B6_
FN:44,_RNvMNtCs7yHBkdcMBoj_21sqlrustgo_transaction11coordinatorNtB2_14GrpcClientPool10get_client
FN:108,_RNvMNtCs7yHBkdcMBoj_21sqlrustgo_transaction11coordinatorNtB2_14GrpcClientPool11send_commit
FN:84,_RNvMNtCs7yHBkdcMBoj_21sqlrustgo_transaction11coordinatorNtB2_14GrpcClientPool12send_prepare
FN:38,_RNvMNtCs7yHBkdcMBoj_21sqlrustgo_transaction11coordinatorNtB2_14GrpcClientPool13register_node
FN:129,_RNvMNtCs7yHBkdcMBoj_21sqlrustgo_transaction11coordinatorNtB2_14GrpcClientPool13send_rollback
FN:177,_RNvMs0_NtCs7yHBkdcMBoj_21sqlrustgo_transaction11coordinatorNtB5_11Coordinator13set_grpc_pool
FN:153,_RNvXs_NtCs7yHBkdcMBoj_21sqlrustgo_transaction11coordinatorNtB4_14GrpcClientPoolNtNtCs8nPosuWgJFh_4core7default7Default7default
FN:416,_RNCNvNtNtCs7yHBkdcMBoj_21sqlrustgo_transaction11coordinator5testss_23test_coordinator_commit0B7_
FN:430,_RNCNvNtNtCs7yHBkdcMBoj_21sqlrustgo_transaction11coordinator5testss_25test_coordinator_rollback0B7_
FN:451,_RNCNvNtNtCs7yHBkdcMBoj_21sqlrustgo_transaction11coordinator5testss_25test_register_participant0B7_
FN:443,_RNCNvNtNtCs7yHBkdcMBoj_21sqlrustgo_transaction11coordinator5testss_30test_grpc_client_pool_creation0B7_
FN:373,_RNCNvNtNtCs7yHBkdcMBoj_21sqlrustgo_transaction11coordinator5testss_31test_coordinator_initialization0B7_
FN:400,_RNCNvNtNtCs7yHBkdcMBoj_21sqlrustgo_transaction11coordinator5testss_32test_coordinator_prepare_success0B7_
FN:380,_RNCNvNtNtCs7yHBkdcMBoj_21sqlrustgo_transaction11coordinator5testss_34test_begin_distributed_transaction0B7_
FN:388,_RNCNvNtNtCs7yHBkdcMBoj_21sqlrustgo_transaction11coordinator5testss_34test_coordinator_state_transitions0B7_
FNDA:0,_RNCNvMs0_NtCsjfxBuuaWLtE_21sqlrustgo_transaction11coordinatorNtB7_11Coordinator9get_state0B9_
FNDA:0,_RNCNvMs0_NtCs4BfdzTzvOqG_21sqlrustgo_transaction11coordinatorNtB7_11Coordinator9get_state0B9_
FNDA:1,_RNvNtNtCs7yHBkdcMBoj_21sqlrustgo_transaction11coordinator5testss_23test_coordinator_commit
FNDA:1,_RNvNtNtCs7yHBkdcMBoj_21sqlrustgo_transaction11coordinator5testss_25test_coordinator_rollback
FNDA:1,_RNvNtNtCs7yHBkdcMBoj_21sqlrustgo_transaction11coordinator5testss_25test_register_participant
FNDA:1,_RNvNtNtCs7yHBkdcMBoj_21sqlrustgo_transaction11coordinator5testss_30test_grpc_client_pool_creation
FNDA:1,_RNvNtNtCs7yHBkdcMBoj_21sqlrustgo_transaction11coordinator5testss_31test_coordinator_initialization
FNDA:1,_RNvNtNtCs7yHBkdcMBoj_21sqlrustgo_transaction11coordinator5testss_32test_coordinator_prepare_success
FNDA:1,_RNvNtNtCs7yHBkdcMBoj_21sqlrustgo_transaction11coordinator5testss_34test_begin_distributed_transaction
FNDA:1,_RNvNtNtCs7yHBkdcMBoj_21sqlrustgo_transaction11coordinator5testss_34test_coordinator_state_transitions
FNDA:4,_RNCNCNvMs0_NtCs7yHBkdcMBoj_21sqlrustgo_transaction11coordinatorNtB9_11Coordinator28send_prepare_to_participants00Bb_
FNDA:1,_RNCNvMs0_NtCs7yHBkdcMBoj_21sqlrustgo_transaction11coordinatorNtB7_11Coordinator20register_participant0B9_
FNDA:1,_RNCNvMs0_NtCs7yHBkdcMBoj_21sqlrustgo_transaction11coordinatorNtB7_11Coordinator27send_commit_to_participants0B9_
FNDA:3,_RNCNvMs0_NtCs7yHBkdcMBoj_21sqlrustgo_transaction11coordinatorNtB7_11Coordinator28send_prepare_to_participants0B9_
FNDA:1,_RNCNvMs0_NtCs7yHBkdcMBoj_21sqlrustgo_transaction11coordinatorNtB7_11Coordinator29send_rollback_to_participants0B9_
FNDA:1,_RNCNvMs0_NtCs7yHBkdcMBoj_21sqlrustgo_transaction11coordinatorNtB7_11Coordinator6commit0B9_
FNDA:3,_RNCNvMs0_NtCs7yHBkdcMBoj_21sqlrustgo_transaction11coordinatorNtB7_11Coordinator7prepare0B9_
FNDA:1,_RNCNvMs0_NtCs7yHBkdcMBoj_21sqlrustgo_transaction11coordinatorNtB7_11Coordinator8rollback0B9_
FNDA:4,_RNCNvMs0_NtCs7yHBkdcMBoj_21sqlrustgo_transaction11coordinatorNtB7_11Coordinator9get_state0B9_
FNDA:1,_RNvMNtCs7yHBkdcMBoj_21sqlrustgo_transaction11coordinatorNtB2_14GrpcClientPool3new
FNDA:5,_RNvMs0_NtCs7yHBkdcMBoj_21sqlrustgo_transaction11coordinatorNtB5_11Coordinator12generate_gid
FNDA:4,_RNvMs0_NtCs7yHBkdcMBoj_21sqlrustgo_transaction11coordinatorNtB5_11Coordinator17begin_transaction
FNDA:1,_RNvMs0_NtCs7yHBkdcMBoj_21sqlrustgo_transaction11coordinatorNtB5_11Coordinator20register_participant
FNDA:1,_RNvMs0_NtCs7yHBkdcMBoj_21sqlrustgo_transaction11coordinatorNtB5_11Coordinator27send_commit_to_participants
FNDA:3,_RNvMs0_NtCs7yHBkdcMBoj_21sqlrustgo_transaction11coordinatorNtB5_11Coordinator28send_prepare_to_participants
FNDA:1,_RNvMs0_NtCs7yHBkdcMBoj_21sqlrustgo_transaction11coordinatorNtB5_11Coordinator29send_rollback_to_participants
FNDA:7,_RNvMs0_NtCs7yHBkdcMBoj_21sqlrustgo_transaction11coordinatorNtB5_11Coordinator3new
FNDA:1,_RNvMs0_NtCs7yHBkdcMBoj_21sqlrustgo_transaction11coordinatorNtB5_11Coordinator6commit
FNDA:1,_RNvMs0_NtCs7yHBkdcMBoj_21sqlrustgo_transaction11coordinatorNtB5_11Coordinator7node_id
FNDA:3,_RNvMs0_NtCs7yHBkdcMBoj_21sqlrustgo_transaction11coordinatorNtB5_11Coordinator7prepare
FNDA:1,_RNvMs0_NtCs7yHBkdcMBoj_21sqlrustgo_transaction11coordinatorNtB5_11Coordinator8rollback
FNDA:4,_RNvMs0_NtCs7yHBkdcMBoj_21sqlrustgo_transaction11coordinatorNtB5_11Coordinator9get_state
FNDA:0,_RNCNCNvMNtCs7yHBkdcMBoj_21sqlrustgo_transaction11coordinatorNtB6_14GrpcClientPool10get_client00B8_
FNDA:0,_RNCNCNvMNtCs7yHBkdcMBoj_21sqlrustgo_transaction11coordinatorNtB6_14GrpcClientPool10get_client0s0_0B8_
FNDA:0,_RNCNCNvMNtCs7yHBkdcMBoj_21sqlrustgo_transaction11coordinatorNtB6_14GrpcClientPool10get_client0s_0B8_
FNDA:0,_RNCNCNvMNtCs7yHBkdcMBoj_21sqlrustgo_transaction11coordinatorNtB6_14GrpcClientPool11send_commit00B8_
FNDA:0,_RNCNCNvMNtCs7yHBkdcMBoj_21sqlrustgo_transaction11coordinatorNtB6_14GrpcClientPool12send_prepare00B8_
FNDA:0,_RNCNCNvMNtCs7yHBkdcMBoj_21sqlrustgo_transaction11coordinatorNtB6_14GrpcClientPool13send_rollback00B8_
FNDA:0,_RNCNvMNtCs7yHBkdcMBoj_21sqlrustgo_transaction11coordinatorNtB4_14GrpcClientPool10get_client0B6_
FNDA:0,_RNCNvMNtCs7yHBkdcMBoj_21sqlrustgo_transaction11coordinatorNtB4_14GrpcClientPool11send_commit0B6_
FNDA:0,_RNCNvMNtCs7yHBkdcMBoj_21sqlrustgo_transaction11coordinatorNtB4_14GrpcClientPool12send_prepare0B6_
FNDA:0,_RNCNvMNtCs7yHBkdcMBoj_21sqlrustgo_transaction11coordinatorNtB4_14GrpcClientPool13register_node0B6_
FNDA:0,_RNCNvMNtCs7yHBkdcMBoj_21sqlrustgo_transaction11coordinatorNtB4_14GrpcClientPool13send_rollback0B6_
FNDA:0,_RNvMNtCs7yHBkdcMBoj_21sqlrustgo_transaction11coordinatorNtB2_14GrpcClientPool10get_client
FNDA:0,_RNvMNtCs7yHBkdcMBoj_21sqlrustgo_transaction11coordinatorNtB2_14GrpcClientPool11send_commit
FNDA:0,_RNvMNtCs7yHBkdcMBoj_21sqlrustgo_transaction11coordinatorNtB2_14GrpcClientPool12send_prepare
FNDA:0,_RNvMNtCs7yHBkdcMBoj_21sqlrustgo_transaction11coordinatorNtB2_14GrpcClientPool13register_node
FNDA:0,_RNvMNtCs7yHBkdcMBoj_21sqlrustgo_transaction11coordinatorNtB2_14GrpcClientPool13send_rollback
FNDA:0,_RNvMs0_NtCs7yHBkdcMBoj_21sqlrustgo_transaction11coordinatorNtB5_11Coordinator13set_grpc_pool
FNDA:0,_RNvXs_NtCs7yHBkdcMBoj_21sqlrustgo_transaction11coordinatorNtB4_14GrpcClientPoolNtNtCs8nPosuWgJFh_4core7default7Default7default
FNDA:1,_RNCNvNtNtCs7yHBkdcMBoj_21sqlrustgo_transaction11coordinator5testss_23test_coordinator_commit0B7_
FNDA:1,_RNCNvNtNtCs7yHBkdcMBoj_21sqlrustgo_transaction11coordinator5testss_25test_coordinator_rollback0B7_
FNDA:1,_RNCNvNtNtCs7yHBkdcMBoj_21sqlrustgo_transaction11coordinator5testss_25test_register_participant0B7_
FNDA:1,_RNCNvNtNtCs7yHBkdcMBoj_21sqlrustgo_transaction11coordinator5testss_30test_grpc_client_pool_creation0B7_
FNDA:1,_RNCNvNtNtCs7yHBkdcMBoj_21sqlrustgo_transaction11coordinator5testss_31test_coordinator_initialization0B7_
FNDA:1,_RNCNvNtNtCs7yHBkdcMBoj_21sqlrustgo_transaction11coordinator5testss_32test_coordinator_prepare_success0B7_
FNDA:1,_RNCNvNtNtCs7yHBkdcMBoj_21sqlrustgo_transaction11coordinator5testss_34test_begin_distributed_transaction0B7_
FNDA:1,_RNCNvNtNtCs7yHBkdcMBoj_21sqlrustgo_transaction11coordinator5testss_34test_coordinator_state_transitions0B7_
FNF:56
FNH:38
DA:30,1
DA:31,1
DA:32,1
DA:33,1
DA:34,1
DA:35,1
DA:38,0
DA:39,0
DA:40,0
DA:41,0
DA:44,0
DA:45,0
DA:46,0
DA:47,0
DA:50,0
DA:51,0
DA:52,0
DA:53,0
DA:57,0
DA:58,0
DA:59,0
DA:62,0
DA:63,0
DA:66,0
DA:67,0
DA:68,0
DA:70,0
DA:71,0
DA:72,0
DA:76,0
DA:77,0
DA:80,0
DA:81,0
DA:84,0
DA:85,0
DA:86,0
DA:87,0
DA:88,0
DA:89,0
DA:90,0
DA:92,0
DA:93,0
DA:94,0
DA:95,0
DA:96,0
DA:98,0
DA:99,0
DA:100,0
DA:101,0
DA:102,0
DA:104,0
DA:105,0
DA:108,0
DA:109,0
DA:110,0
DA:111,0
DA:112,0
DA:113,0
DA:115,0
DA:116,0
DA:117,0
DA:119,0
DA:120,0
DA:121,0
DA:122,0
DA:123,0
DA:125,0
DA:126,0
DA:129,0
DA:130,0
DA:131,0
DA:132,0
DA:133,0
DA:134,0
DA:135,0
DA:137,0
DA:138,0
DA:139,0
DA:140,0
DA:142,0
DA:143,0
DA:144,0
DA:145,0
DA:146,0
DA:148,0
DA:149,0
DA:153,0
DA:154,0
DA:155,0
DA:165,7
DA:166,7
DA:167,7
DA:168,7
DA:169,7
DA:170,7
DA:172,1
DA:173,1
DA:174,1
DA:177,0
DA:180,0
DA:181,0
DA:183,5
DA:184,5
DA:185,5
DA:187,4
DA:188,4
DA:189,4
DA:190,4
DA:191,4
DA:192,4
DA:193,4
DA:194,4
DA:196,4
DA:197,4
DA:198,4
DA:199,4
DA:200,4
DA:201,4
DA:204,1
DA:205,1
DA:206,1
DA:207,1
DA:208,1
DA:211,1
DA:212,1
DA:213,1
DA:215,3
DA:216,3
DA:217,3
DA:218,3
DA:219,3
DA:222,3
DA:223,3
DA:224,3
DA:225,3
DA:226,3
DA:227,3
DA:228,4
DA:229,4
DA:230,4
DA:231,0
DA:236,3
DA:238,3
DA:239,3
DA:240,3
DA:241,3
DA:242,3
DA:243,3
DA:244,3
DA:245,3
DA:247,0
DA:248,0
DA:251,0
DA:253,3
DA:256,3
DA:257,3
DA:258,3
DA:259,3
DA:260,3
DA:262,3
DA:264,4
DA:265,4
DA:269,4
DA:272,4
DA:276,4
DA:277,3
DA:278,3
DA:281,1
DA:282,1
DA:283,1
DA:284,1
DA:285,1
DA:286,1
DA:287,1
DA:290,1
DA:291,1
DA:293,1
DA:294,1
DA:295,1
DA:297,0
DA:299,1
DA:302,1
DA:303,1
DA:304,1
DA:305,1
DA:306,1
DA:307,1
DA:308,1
DA:309,1
DA:312,1
DA:313,1
DA:316,1
DA:317,1
DA:318,1
DA:319,1
DA:320,1
DA:321,1
DA:322,1
DA:325,1
DA:326,1
DA:328,1
DA:329,1
DA:330,1
DA:332,0
DA:334,1
DA:337,1
DA:338,1
DA:339,1
DA:340,1
DA:341,1
DA:342,1
DA:343,1
DA:344,1
DA:345,1
DA:353,1
DA:354,1
DA:373,1
DA:374,1
DA:375,1
DA:376,1
DA:377,1
DA:380,1
DA:381,1
DA:382,1
DA:383,1
DA:384,1
DA:385,1
DA:388,1
DA:389,1
DA:390,1
DA:392,1
DA:393,1
DA:394,1
DA:395,1
DA:396,1
DA:397,1
DA:400,1
DA:401,1
DA:402,1
DA:404,1
DA:405,1
DA:407,1
DA:408,1
DA:409,1
DA:410,1
DA:411,1
DA:412,1
DA:413,1
DA:416,1
DA:417,1
DA:418,1
DA:420,1
DA:421,1
DA:422,1
DA:424,1
DA:425,1
DA:426,1
DA:427,1
DA:430,1
DA:431,1
DA:432,1
DA:434,1
DA:435,1
DA:436,1
DA:438,1
DA:439,1
DA:440,1
DA:443,1
DA:444,1
DA:446,1
DA:447,1
DA:448,1
DA:451,1
DA:452,1
DA:453,1
DA:454,1
DA:455,1
DA:456,1
DA:457,1
BRF:0
BRH:0
LF:317
LH:214
end_of_record
SF:/home/openclaw/dev/yinglichina8848/sqlrustgo/crates/transaction/src/deadlock.rs
FN:24,_RNvMNtCsjfxBuuaWLtE_21sqlrustgo_transaction8deadlockNtB2_16DeadlockDetector11get_timeout
FN:39,_RNvMNtCsjfxBuuaWLtE_21sqlrustgo_transaction8deadlockNtB2_16DeadlockDetector12detect_cycle
FN:17,_RNvMNtCsjfxBuuaWLtE_21sqlrustgo_transaction8deadlockNtB2_16DeadlockDetector12with_timeout
FN:32,_RNvMNtCsjfxBuuaWLtE_21sqlrustgo_transaction8deadlockNtB2_16DeadlockDetector16remove_edges_for
FN:45,_RNvMNtCsjfxBuuaWLtE_21sqlrustgo_transaction8deadlockNtB2_16DeadlockDetector3dfs
FN:13,_RNvMNtCsjfxBuuaWLtE_21sqlrustgo_transaction8deadlockNtB2_16DeadlockDetector3new
FN:28,_RNvMNtCsjfxBuuaWLtE_21sqlrustgo_transaction8deadlockNtB2_16DeadlockDetector8add_edge
FN:77,_RNvXs_NtCsjfxBuuaWLtE_21sqlrustgo_transaction8deadlockNtB4_16DeadlockDetectorNtNtCs8nPosuWgJFh_4core7default7Default7default
FN:52,_RNCNvMNtCsjfxBuuaWLtE_21sqlrustgo_transaction8deadlockNtB4_16DeadlockDetector3dfs0B6_
FN:52,_RNCNvMNtCs4BfdzTzvOqG_21sqlrustgo_transaction8deadlockNtB4_16DeadlockDetector3dfs0B6_
FN:24,_RNvMNtCs4BfdzTzvOqG_21sqlrustgo_transaction8deadlockNtB2_16DeadlockDetector11get_timeout
FN:39,_RNvMNtCs4BfdzTzvOqG_21sqlrustgo_transaction8deadlockNtB2_16DeadlockDetector12detect_cycle
FN:17,_RNvMNtCs4BfdzTzvOqG_21sqlrustgo_transaction8deadlockNtB2_16DeadlockDetector12with_timeout
FN:32,_RNvMNtCs4BfdzTzvOqG_21sqlrustgo_transaction8deadlockNtB2_16DeadlockDetector16remove_edges_for
FN:45,_RNvMNtCs4BfdzTzvOqG_21sqlrustgo_transaction8deadlockNtB2_16DeadlockDetector3dfs
FN:13,_RNvMNtCs4BfdzTzvOqG_21sqlrustgo_transaction8deadlockNtB2_16DeadlockDetector3new
FN:28,_RNvMNtCs4BfdzTzvOqG_21sqlrustgo_transaction8deadlockNtB2_16DeadlockDetector8add_edge
FN:77,_RNvXs_NtCs4BfdzTzvOqG_21sqlrustgo_transaction8deadlockNtB4_16DeadlockDetectorNtNtCs8nPosuWgJFh_4core7default7Default7default
FN:153,_RNCNvNtNtCs7yHBkdcMBoj_21sqlrustgo_transaction8deadlock5testss_42test_remove_edges_for_removes_from_holders0B7_
FN:24,_RNvMNtCs7yHBkdcMBoj_21sqlrustgo_transaction8deadlockNtB2_16DeadlockDetector11get_timeout
FN:39,_RNvMNtCs7yHBkdcMBoj_21sqlrustgo_transaction8deadlockNtB2_16DeadlockDetector12detect_cycle
FN:17,_RNvMNtCs7yHBkdcMBoj_21sqlrustgo_transaction8deadlockNtB2_16DeadlockDetector12with_timeout
FN:32,_RNvMNtCs7yHBkdcMBoj_21sqlrustgo_transaction8deadlockNtB2_16DeadlockDetector16remove_edges_for
FN:45,_RNvMNtCs7yHBkdcMBoj_21sqlrustgo_transaction8deadlockNtB2_16DeadlockDetector3dfs
FN:13,_RNvMNtCs7yHBkdcMBoj_21sqlrustgo_transaction8deadlockNtB2_16DeadlockDetector3new
FN:28,_RNvMNtCs7yHBkdcMBoj_21sqlrustgo_transaction8deadlockNtB2_16DeadlockDetector8add_edge
FN:77,_RNvXs_NtCs7yHBkdcMBoj_21sqlrustgo_transaction8deadlockNtB4_16DeadlockDetectorNtNtCs8nPosuWgJFh_4core7default7Default7default
FN:52,_RNCNvMNtCs7yHBkdcMBoj_21sqlrustgo_transaction8deadlockNtB4_16DeadlockDetector3dfs0B6_
FN:99,_RNvNtNtCs7yHBkdcMBoj_21sqlrustgo_transaction8deadlock5testss_12test_default
FN:105,_RNvNtNtCs7yHBkdcMBoj_21sqlrustgo_transaction8deadlock5testss_13test_add_edge
FN:183,_RNvNtNtCs7yHBkdcMBoj_21sqlrustgo_transaction8deadlock5testss_13test_no_cycle
FN:205,_RNvNtNtCs7yHBkdcMBoj_21sqlrustgo_transaction8deadlock5testss_14test_self_loop
FN:157,_RNvNtNtCs7yHBkdcMBoj_21sqlrustgo_transaction8deadlock5testss_17test_detect_cycle
FN:93,_RNvNtNtCs7yHBkdcMBoj_21sqlrustgo_transaction8deadlock5testss_17test_with_timeout
FN:233,_RNvNtNtCs7yHBkdcMBoj_21sqlrustgo_transaction8deadlock5testss_18test_partial_cycle
FN:215,_RNvNtNtCs7yHBkdcMBoj_21sqlrustgo_transaction8deadlock5testss_19test_two_node_cycle
FN:124,_RNvNtNtCs7yHBkdcMBoj_21sqlrustgo_transaction8deadlock5testss_21test_remove_edges_for
FN:116,_RNvNtNtCs7yHBkdcMBoj_21sqlrustgo_transaction8deadlock5testss_23test_add_multiple_edges
FN:87,_RNvNtNtCs7yHBkdcMBoj_21sqlrustgo_transaction8deadlock5testss_26test_deadlock_detector_new
FN:193,_RNvNtNtCs7yHBkdcMBoj_21sqlrustgo_transaction8deadlock5testss_26test_no_cycle_linear_chain
FN:244,_RNvNtNtCs7yHBkdcMBoj_21sqlrustgo_transaction8deadlock5testss_27test_complex_wait_for_graph
FN:226,_RNvNtNtCs7yHBkdcMBoj_21sqlrustgo_transaction8deadlock5testss_28test_detect_cycle_no_waiters
FN:257,_RNvNtNtCs7yHBkdcMBoj_21sqlrustgo_transaction8deadlock5testss_29test_visited_contains_current
FN:172,_RNvNtNtCs7yHBkdcMBoj_21sqlrustgo_transaction8deadlock5testss_38test_detect_cycle_from_different_start
FN:143,_RNvNtNtCs7yHBkdcMBoj_21sqlrustgo_transaction8deadlock5testss_42test_remove_edges_for_removes_from_holders
FNDA:0,_RNvMNtCsjfxBuuaWLtE_21sqlrustgo_transaction8deadlockNtB2_16DeadlockDetector11get_timeout
FNDA:0,_RNvMNtCsjfxBuuaWLtE_21sqlrustgo_transaction8deadlockNtB2_16DeadlockDetector12detect_cycle
FNDA:0,_RNvMNtCsjfxBuuaWLtE_21sqlrustgo_transaction8deadlockNtB2_16DeadlockDetector12with_timeout
FNDA:0,_RNvMNtCsjfxBuuaWLtE_21sqlrustgo_transaction8deadlockNtB2_16DeadlockDetector16remove_edges_for
FNDA:0,_RNvMNtCsjfxBuuaWLtE_21sqlrustgo_transaction8deadlockNtB2_16DeadlockDetector3dfs
FNDA:0,_RNvMNtCsjfxBuuaWLtE_21sqlrustgo_transaction8deadlockNtB2_16DeadlockDetector3new
FNDA:0,_RNvMNtCsjfxBuuaWLtE_21sqlrustgo_transaction8deadlockNtB2_16DeadlockDetector8add_edge
FNDA:0,_RNvXs_NtCsjfxBuuaWLtE_21sqlrustgo_transaction8deadlockNtB4_16DeadlockDetectorNtNtCs8nPosuWgJFh_4core7default7Default7default
FNDA:0,_RNCNvMNtCsjfxBuuaWLtE_21sqlrustgo_transaction8deadlockNtB4_16DeadlockDetector3dfs0B6_
FNDA:0,_RNCNvMNtCs4BfdzTzvOqG_21sqlrustgo_transaction8deadlockNtB4_16DeadlockDetector3dfs0B6_
FNDA:0,_RNvMNtCs4BfdzTzvOqG_21sqlrustgo_transaction8deadlockNtB2_16DeadlockDetector11get_timeout
FNDA:0,_RNvMNtCs4BfdzTzvOqG_21sqlrustgo_transaction8deadlockNtB2_16DeadlockDetector12detect_cycle
FNDA:0,_RNvMNtCs4BfdzTzvOqG_21sqlrustgo_transaction8deadlockNtB2_16DeadlockDetector12with_timeout
FNDA:0,_RNvMNtCs4BfdzTzvOqG_21sqlrustgo_transaction8deadlockNtB2_16DeadlockDetector16remove_edges_for
FNDA:0,_RNvMNtCs4BfdzTzvOqG_21sqlrustgo_transaction8deadlockNtB2_16DeadlockDetector3dfs
FNDA:0,_RNvMNtCs4BfdzTzvOqG_21sqlrustgo_transaction8deadlockNtB2_16DeadlockDetector3new
FNDA:0,_RNvMNtCs4BfdzTzvOqG_21sqlrustgo_transaction8deadlockNtB2_16DeadlockDetector8add_edge
FNDA:0,_RNvXs_NtCs4BfdzTzvOqG_21sqlrustgo_transaction8deadlockNtB4_16DeadlockDetectorNtNtCs8nPosuWgJFh_4core7default7Default7default
FNDA:1,_RNCNvNtNtCs7yHBkdcMBoj_21sqlrustgo_transaction8deadlock5testss_42test_remove_edges_for_removes_from_holders0B7_
FNDA:1,_RNvMNtCs7yHBkdcMBoj_21sqlrustgo_transaction8deadlockNtB2_16DeadlockDetector11get_timeout
FNDA:15,_RNvMNtCs7yHBkdcMBoj_21sqlrustgo_transaction8deadlockNtB2_16DeadlockDetector12detect_cycle
FNDA:26,_RNvMNtCs7yHBkdcMBoj_21sqlrustgo_transaction8deadlockNtB2_16DeadlockDetector12with_timeout
FNDA:2,_RNvMNtCs7yHBkdcMBoj_21sqlrustgo_transaction8deadlockNtB2_16DeadlockDetector16remove_edges_for
FNDA:45,_RNvMNtCs7yHBkdcMBoj_21sqlrustgo_transaction8deadlockNtB2_16DeadlockDetector3dfs
FNDA:25,_RNvMNtCs7yHBkdcMBoj_21sqlrustgo_transaction8deadlockNtB2_16DeadlockDetector3new
FNDA:36,_RNvMNtCs7yHBkdcMBoj_21sqlrustgo_transaction8deadlockNtB2_16DeadlockDetector8add_edge
FNDA:1,_RNvXs_NtCs7yHBkdcMBoj_21sqlrustgo_transaction8deadlockNtB4_16DeadlockDetectorNtNtCs8nPosuWgJFh_4core7default7Default7default
FNDA:8,_RNCNvMNtCs7yHBkdcMBoj_21sqlrustgo_transaction8deadlockNtB4_16DeadlockDetector3dfs0B6_
FNDA:1,_RNvNtNtCs7yHBkdcMBoj_21sqlrustgo_transaction8deadlock5testss_12test_default
FNDA:1,_RNvNtNtCs7yHBkdcMBoj_21sqlrustgo_transaction8deadlock5testss_13test_add_edge
FNDA:1,_RNvNtNtCs7yHBkdcMBoj_21sqlrustgo_transaction8deadlock5testss_13test_no_cycle
FNDA:1,_RNvNtNtCs7yHBkdcMBoj_21sqlrustgo_transaction8deadlock5testss_14test_self_loop
FNDA:1,_RNvNtNtCs7yHBkdcMBoj_21sqlrustgo_transaction8deadlock5testss_17test_detect_cycle
FNDA:1,_RNvNtNtCs7yHBkdcMBoj_21sqlrustgo_transaction8deadlock5testss_17test_with_timeout
FNDA:1,_RNvNtNtCs7yHBkdcMBoj_21sqlrustgo_transaction8deadlock5testss_18test_partial_cycle
FNDA:1,_RNvNtNtCs7yHBkdcMBoj_21sqlrustgo_transaction8deadlock5testss_19test_two_node_cycle
FNDA:1,_RNvNtNtCs7yHBkdcMBoj_21sqlrustgo_transaction8deadlock5testss_21test_remove_edges_for
FNDA:1,_RNvNtNtCs7yHBkdcMBoj_21sqlrustgo_transaction8deadlock5testss_23test_add_multiple_edges
FNDA:1,_RNvNtNtCs7yHBkdcMBoj_21sqlrustgo_transaction8deadlock5testss_26test_deadlock_detector_new
FNDA:1,_RNvNtNtCs7yHBkdcMBoj_21sqlrustgo_transaction8deadlock5testss_26test_no_cycle_linear_chain
FNDA:1,_RNvNtNtCs7yHBkdcMBoj_21sqlrustgo_transaction8deadlock5testss_27test_complex_wait_for_graph
FNDA:1,_RNvNtNtCs7yHBkdcMBoj_21sqlrustgo_transaction8deadlock5testss_28test_detect_cycle_no_waiters
FNDA:1,_RNvNtNtCs7yHBkdcMBoj_21sqlrustgo_transaction8deadlock5testss_29test_visited_contains_current
FNDA:1,_RNvNtNtCs7yHBkdcMBoj_21sqlrustgo_transaction8deadlock5testss_38test_detect_cycle_from_different_start
FNDA:1,_RNvNtNtCs7yHBkdcMBoj_21sqlrustgo_transaction8deadlock5testss_42test_remove_edges_for_removes_from_holders
FNF:27
FNH:27
DA:13,25
DA:14,25
DA:15,25
DA:17,26
DA:18,26
DA:19,26
DA:20,26
DA:21,26
DA:22,26
DA:24,1
DA:25,1
DA:26,1
DA:28,36
DA:29,36
DA:30,36
DA:32,2
DA:33,2
DA:34,2
DA:35,2
DA:36,2
DA:37,2
DA:39,15
DA:40,15
DA:41,15
DA:42,15
DA:43,15
DA:45,45
DA:46,45
DA:47,45
DA:48,45
DA:49,45
DA:50,45
DA:51,45
DA:52,8
DA:53,6
DA:54,39
DA:56,39
DA:57,1
DA:58,38
DA:60,38
DA:61,38
DA:63,38
DA:64,30
DA:65,30
DA:66,17
DA:67,13
DA:69,9
DA:71,21
DA:72,21
DA:73,45
DA:77,1
DA:78,1
DA:79,1
DA:87,1
DA:88,1
DA:89,1
DA:90,1
DA:93,1
DA:94,1
DA:95,1
DA:96,1
DA:99,1
DA:100,1
DA:101,1
DA:102,1
DA:105,1
DA:106,1
DA:107,1
DA:108,1
DA:109,1
DA:110,1
DA:111,1
DA:112,1
DA:113,1
DA:116,1
DA:117,1
DA:118,1
DA:119,1
DA:120,1
DA:121,1
DA:124,1
DA:125,1
DA:126,1
DA:127,1
DA:129,1
DA:131,1
DA:132,1
DA:133,1
DA:134,1
DA:135,1
DA:136,1
DA:137,1
DA:138,1
DA:140,1
DA:143,1
DA:144,1
DA:145,1
DA:146,1
DA:148,1
DA:150,1
DA:151,1
DA:152,1
DA:153,1
DA:154,1
DA:157,1
DA:158,1
DA:159,1
DA:160,1
DA:161,1
DA:163,1
DA:164,1
DA:165,1
DA:166,1
DA:167,1
DA:168,1
DA:169,1
DA:172,1
DA:173,1
DA:174,1
DA:175,1
DA:176,1
DA:178,1
DA:179,1
DA:180,1
DA:183,1
DA:184,1
DA:185,1
DA:186,1
DA:188,1
DA:189,1
DA:190,1
DA:193,1
DA:194,1
DA:195,1
DA:196,1
DA:197,1
DA:198,1
DA:200,1
DA:201,1
DA:202,1
DA:205,1
DA:206,1
DA:207,1
DA:209,1
DA:210,1
DA:211,1
DA:212,1
DA:215,1
DA:216,1
DA:217,1
DA:218,1
DA:220,1
DA:221,1
DA:222,1
DA:223,1
DA:226,1
DA:227,1
DA:228,1
DA:229,1
DA:230,1
DA:233,1
DA:234,1
DA:235,1
DA:236,1
DA:237,1
DA:239,1
DA:240,1
DA:241,1
DA:244,1
DA:245,1
DA:246,1
DA:247,1
DA:248,1
DA:249,1
DA:250,1
DA:252,1
DA:253,1
DA:254,1
DA:257,1
DA:258,1
DA:259,1
DA:260,1
DA:261,1
DA:263,1
DA:264,1
DA:265,1
BRF:0
BRH:0
LF:188
LH:188
end_of_record
SF:/home/openclaw/dev/yinglichina8848/sqlrustgo/crates/transaction/src/dtc.rs
FN:112,_RNvNtNtCs7yHBkdcMBoj_21sqlrustgo_transaction3dtc5testss_21test_change_operation
FN:106,_RNvNtNtCs7yHBkdcMBoj_21sqlrustgo_transaction3dtc5testss_23test_vote_serialization
FN:122,_RNvNtNtCs7yHBkdcMBoj_21sqlrustgo_transaction3dtc5testss_28test_transaction_context_new
FN:98,_RNvNtNtCs7yHBkdcMBoj_21sqlrustgo_transaction3dtc5testss_34test_transaction_state_transitions
FN:134,_RNvNtNtCs7yHBkdcMBoj_21sqlrustgo_transaction3dtc5testss_40test_transaction_context_add_participant
FN:85,_RNvMNtCs7yHBkdcMBoj_21sqlrustgo_transaction3dtcNtB2_18TransactionContext15add_participant
FN:76,_RNvMNtCs7yHBkdcMBoj_21sqlrustgo_transaction3dtcNtB2_18TransactionContext3new
FNDA:1,_RNvNtNtCs7yHBkdcMBoj_21sqlrustgo_transaction3dtc5testss_21test_change_operation
FNDA:1,_RNvNtNtCs7yHBkdcMBoj_21sqlrustgo_transaction3dtc5testss_23test_vote_serialization
FNDA:1,_RNvNtNtCs7yHBkdcMBoj_21sqlrustgo_transaction3dtc5testss_28test_transaction_context_new
FNDA:1,_RNvNtNtCs7yHBkdcMBoj_21sqlrustgo_transaction3dtc5testss_34test_transaction_state_transitions
FNDA:1,_RNvNtNtCs7yHBkdcMBoj_21sqlrustgo_transaction3dtc5testss_40test_transaction_context_add_participant
FNDA:7,_RNvMNtCs7yHBkdcMBoj_21sqlrustgo_transaction3dtcNtB2_18TransactionContext15add_participant
FNDA:11,_RNvMNtCs7yHBkdcMBoj_21sqlrustgo_transaction3dtcNtB2_18TransactionContext3new
FNF:7
FNH:7
DA:76,11
DA:77,11
DA:78,11
DA:79,11
DA:80,11
DA:81,11
DA:82,11
DA:83,11
DA:85,7
DA:86,7
DA:87,6
DA:88,6
DA:89,7
DA:98,1
DA:99,1
DA:103,1
DA:106,1
DA:107,1
DA:108,1
DA:109,1
DA:112,1
DA:113,1
DA:114,1
DA:115,1
DA:117,1
DA:118,1
DA:119,1
DA:122,1
DA:123,1
DA:124,1
DA:125,1
DA:127,1
DA:128,1
DA:129,1
DA:130,1
DA:131,1
DA:134,1
DA:135,1
DA:136,1
DA:137,1
DA:139,1
DA:140,1
DA:141,1
DA:143,1
DA:144,1
DA:145,1
DA:146,1
BRF:0
BRH:0
LF:47
LH:47
end_of_record
SF:/home/openclaw/dev/yinglichina8848/sqlrustgo/crates/transaction/src/gid.rs
FN:10,_RNvMNtCsjfxBuuaWLtE_21sqlrustgo_transaction3gidNtB2_6NodeId3new
FN:32,_RNvMs0_NtCsjfxBuuaWLtE_21sqlrustgo_transaction3gidNtB5_19GlobalTransactionId3new
FN:46,_RNvMs0_NtCsjfxBuuaWLtE_21sqlrustgo_transaction3gidNtB5_19GlobalTransactionId5parse
FN:66,_RNvXs1_NtCsjfxBuuaWLtE_21sqlrustgo_transaction3gidNtB5_19GlobalTransactionIdNtNtCs8nPosuWgJFh_4core3fmt7Display3fmt
FN:16,_RNvXs_NtCsjfxBuuaWLtE_21sqlrustgo_transaction3gidNtB4_6NodeIdNtNtCs8nPosuWgJFh_4core3fmt7Display3fmt
FN:10,_RNvMNtCs4BfdzTzvOqG_21sqlrustgo_transaction3gidNtB2_6NodeId3new
FN:32,_RNvMs0_NtCs4BfdzTzvOqG_21sqlrustgo_transaction3gidNtB5_19GlobalTransactionId3new
FN:46,_RNvMs0_NtCs4BfdzTzvOqG_21sqlrustgo_transaction3gidNtB5_19GlobalTransactionId5parse
FN:66,_RNvXs1_NtCs4BfdzTzvOqG_21sqlrustgo_transaction3gidNtB5_19GlobalTransactionIdNtNtCs8nPosuWgJFh_4core3fmt7Display3fmt
FN:16,_RNvXs_NtCs4BfdzTzvOqG_21sqlrustgo_transaction3gidNtB4_6NodeIdNtNtCs8nPosuWgJFh_4core3fmt7Display3fmt
FN:32,_RNvMs0_NtCs7yHBkdcMBoj_21sqlrustgo_transaction3gidNtB5_19GlobalTransactionId3new
FN:46,_RNvMs0_NtCs7yHBkdcMBoj_21sqlrustgo_transaction3gidNtB5_19GlobalTransactionId5parse
FN:66,_RNvXs1_NtCs7yHBkdcMBoj_21sqlrustgo_transaction3gidNtB5_19GlobalTransactionIdNtNtCs8nPosuWgJFh_4core3fmt7Display3fmt
FN:16,_RNvXs_NtCs7yHBkdcMBoj_21sqlrustgo_transaction3gidNtB4_6NodeIdNtNtCs8nPosuWgJFh_4core3fmt7Display3fmt
FN:10,_RNvMNtCs7yHBkdcMBoj_21sqlrustgo_transaction3gidNtB2_6NodeId3new
FN:95,_RNvNtNtCs7yHBkdcMBoj_21sqlrustgo_transaction3gid5testss_16test_gid_display
FN:86,_RNvNtNtCs7yHBkdcMBoj_21sqlrustgo_transaction3gid5testss_17test_gid_equality
FN:76,_RNvNtNtCs7yHBkdcMBoj_21sqlrustgo_transaction3gid5testss_19test_gid_generation
FNDA:0,_RNvMNtCsjfxBuuaWLtE_21sqlrustgo_transaction3gidNtB2_6NodeId3new
FNDA:0,_RNvMs0_NtCsjfxBuuaWLtE_21sqlrustgo_transaction3gidNtB5_19GlobalTransactionId3new
FNDA:0,_RNvMs0_NtCsjfxBuuaWLtE_21sqlrustgo_transaction3gidNtB5_19GlobalTransactionId5parse
FNDA:0,_RNvXs1_NtCsjfxBuuaWLtE_21sqlrustgo_transaction3gidNtB5_19GlobalTransactionIdNtNtCs8nPosuWgJFh_4core3fmt7Display3fmt
FNDA:0,_RNvXs_NtCsjfxBuuaWLtE_21sqlrustgo_transaction3gidNtB4_6NodeIdNtNtCs8nPosuWgJFh_4core3fmt7Display3fmt
FNDA:0,_RNvMNtCs4BfdzTzvOqG_21sqlrustgo_transaction3gidNtB2_6NodeId3new
FNDA:0,_RNvMs0_NtCs4BfdzTzvOqG_21sqlrustgo_transaction3gidNtB5_19GlobalTransactionId3new
FNDA:0,_RNvMs0_NtCs4BfdzTzvOqG_21sqlrustgo_transaction3gidNtB5_19GlobalTransactionId5parse
FNDA:0,_RNvXs1_NtCs4BfdzTzvOqG_21sqlrustgo_transaction3gidNtB5_19GlobalTransactionIdNtNtCs8nPosuWgJFh_4core3fmt7Display3fmt
FNDA:0,_RNvXs_NtCs4BfdzTzvOqG_21sqlrustgo_transaction3gidNtB4_6NodeIdNtNtCs8nPosuWgJFh_4core3fmt7Display3fmt
FNDA:21,_RNvMs0_NtCs7yHBkdcMBoj_21sqlrustgo_transaction3gidNtB5_19GlobalTransactionId3new
FNDA:9,_RNvMs0_NtCs7yHBkdcMBoj_21sqlrustgo_transaction3gidNtB5_19GlobalTransactionId5parse
FNDA:5,_RNvXs1_NtCs7yHBkdcMBoj_21sqlrustgo_transaction3gidNtB5_19GlobalTransactionIdNtNtCs8nPosuWgJFh_4core3fmt7Display3fmt
FNDA:0,_RNvXs_NtCs7yHBkdcMBoj_21sqlrustgo_transaction3gidNtB4_6NodeIdNtNtCs8nPosuWgJFh_4core3fmt7Display3fmt
FNDA:0,_RNvMNtCs7yHBkdcMBoj_21sqlrustgo_transaction3gidNtB2_6NodeId3new
FNDA:1,_RNvNtNtCs7yHBkdcMBoj_21sqlrustgo_transaction3gid5testss_16test_gid_display
FNDA:1,_RNvNtNtCs7yHBkdcMBoj_21sqlrustgo_transaction3gid5testss_17test_gid_equality
FNDA:1,_RNvNtNtCs7yHBkdcMBoj_21sqlrustgo_transaction3gid5testss_19test_gid_generation
FNF:8
FNH:6
DA:10,0
DA:11,0
DA:12,0
DA:16,0
DA:17,0
DA:18,0
DA:32,21
DA:33,21
DA:34,21
DA:35,21
DA:36,21
DA:37,21
DA:39,21
DA:40,21
DA:41,21
DA:42,21
DA:43,21
DA:44,21
DA:46,9
DA:48,9
DA:49,9
DA:50,0
DA:51,9
DA:53,9
DA:54,9
DA:55,9
DA:57,9
DA:58,9
DA:59,9
DA:60,9
DA:61,9
DA:62,9
DA:66,5
DA:67,5
DA:68,5
DA:76,1
DA:77,1
DA:78,1
DA:79,1
DA:82,1
DA:83,1
DA:86,1
DA:87,1
DA:88,1
DA:89,1
DA:91,1
DA:92,1
DA:95,1
DA:96,1
DA:97,1
DA:98,1
DA:100,1
DA:101,1
DA:102,1
BRF:0
BRH:0
LF:54
LH:47
end_of_record
SF:/home/openclaw/dev/yinglichina8848/sqlrustgo/crates/transaction/src/lock.rs
FN:122,_RNCNvMs0_NtCsjfxBuuaWLtE_21sqlrustgo_transaction4lockNtB7_11LockManager12acquire_lock0B9_
FN:242,_RNCNvMs0_NtCsjfxBuuaWLtE_21sqlrustgo_transaction4lockNtB7_11LockManager15is_locked_by_tx0B9_
FN:258,_RNCNvMs0_NtCsjfxBuuaWLtE_21sqlrustgo_transaction4lockNtB7_11LockManager17get_tx_lock_count0B9_
FN:249,_RNCNvMs0_NtCsjfxBuuaWLtE_21sqlrustgo_transaction4lockNtB7_11LockManager18has_exclusive_lock0B9_
FN:78,_RNCNvMs_NtCsjfxBuuaWLtE_21sqlrustgo_transaction4lockNtB6_8LockInfo10add_waiter0B8_
FN:84,_RNCNvMs_NtCsjfxBuuaWLtE_21sqlrustgo_transaction4lockNtB6_8LockInfo13remove_waiter0B8_
FN:31,_RNvMNtCsjfxBuuaWLtE_21sqlrustgo_transaction4lockNtB2_11LockRequest3new
FN:113,_RNvMs0_NtCsjfxBuuaWLtE_21sqlrustgo_transaction4lockNtB5_11LockManager12acquire_lock
FN:163,_RNvMs0_NtCsjfxBuuaWLtE_21sqlrustgo_transaction4lockNtB5_11LockManager12release_lock
FN:148,_RNvMs0_NtCsjfxBuuaWLtE_21sqlrustgo_transaction4lockNtB5_11LockManager12upgrade_lock
FN:253,_RNvMs0_NtCsjfxBuuaWLtE_21sqlrustgo_transaction4lockNtB5_11LockManager14get_lock_count
FN:105,_RNvMs0_NtCsjfxBuuaWLtE_21sqlrustgo_transaction4lockNtB5_11LockManager15detect_deadlock
FN:239,_RNvMs0_NtCsjfxBuuaWLtE_21sqlrustgo_transaction4lockNtB5_11LockManager15is_locked_by_tx
FN:257,_RNvMs0_NtCsjfxBuuaWLtE_21sqlrustgo_transaction4lockNtB5_11LockManager17get_tx_lock_count
FN:197,_RNvMs0_NtCsjfxBuuaWLtE_21sqlrustgo_transaction4lockNtB5_11LockManager17release_all_locks
FN:246,_RNvMs0_NtCsjfxBuuaWLtE_21sqlrustgo_transaction4lockNtB5_11LockManager18has_exclusive_lock
FN:109,_RNvMs0_NtCsjfxBuuaWLtE_21sqlrustgo_transaction4lockNtB5_11LockManager20clear_deadlock_edges
FN:97,_RNvMs0_NtCsjfxBuuaWLtE_21sqlrustgo_transaction4lockNtB5_11LockManager3new
FN:235,_RNvMs0_NtCsjfxBuuaWLtE_21sqlrustgo_transaction4lockNtB5_11LockManager9is_locked
FN:69,_RNvMs_NtCsjfxBuuaWLtE_21sqlrustgo_transaction4lockNtB4_8LockInfo10add_holder
FN:77,_RNvMs_NtCsjfxBuuaWLtE_21sqlrustgo_transaction4lockNtB4_8LockInfo10add_waiter
FN:73,_RNvMs_NtCsjfxBuuaWLtE_21sqlrustgo_transaction4lockNtB4_8LockInfo13remove_holder
FN:83,_RNvMs_NtCsjfxBuuaWLtE_21sqlrustgo_transaction4lockNtB4_8LockInfo13remove_waiter
FN:50,_RNvMs_NtCsjfxBuuaWLtE_21sqlrustgo_transaction4lockNtB4_8LockInfo3new
FN:59,_RNvMs_NtCsjfxBuuaWLtE_21sqlrustgo_transaction4lockNtB4_8LockInfo9can_grant
FN:263,_RNvXs1_NtCsjfxBuuaWLtE_21sqlrustgo_transaction4lockNtB5_11LockManagerNtNtCs8nPosuWgJFh_4core7default7Default7default
FN:277,_RNvXs2_NtCsjfxBuuaWLtE_21sqlrustgo_transaction4lockNtB5_9LockErrorNtNtCs8nPosuWgJFh_4core3fmt7Display3fmt
FN:122,_RNCNvMs0_NtCs4BfdzTzvOqG_21sqlrustgo_transaction4lockNtB7_11LockManager12acquire_lock0B9_
FN:242,_RNCNvMs0_NtCs4BfdzTzvOqG_21sqlrustgo_transaction4lockNtB7_11LockManager15is_locked_by_tx0B9_
FN:258,_RNCNvMs0_NtCs4BfdzTzvOqG_21sqlrustgo_transaction4lockNtB7_11LockManager17get_tx_lock_count0B9_
FN:249,_RNCNvMs0_NtCs4BfdzTzvOqG_21sqlrustgo_transaction4lockNtB7_11LockManager18has_exclusive_lock0B9_
FN:78,_RNCNvMs_NtCs4BfdzTzvOqG_21sqlrustgo_transaction4lockNtB6_8LockInfo10add_waiter0B8_
FN:84,_RNCNvMs_NtCs4BfdzTzvOqG_21sqlrustgo_transaction4lockNtB6_8LockInfo13remove_waiter0B8_
FN:31,_RNvMNtCs4BfdzTzvOqG_21sqlrustgo_transaction4lockNtB2_11LockRequest3new
FN:113,_RNvMs0_NtCs4BfdzTzvOqG_21sqlrustgo_transaction4lockNtB5_11LockManager12acquire_lock
FN:163,_RNvMs0_NtCs4BfdzTzvOqG_21sqlrustgo_transaction4lockNtB5_11LockManager12release_lock
FN:148,_RNvMs0_NtCs4BfdzTzvOqG_21sqlrustgo_transaction4lockNtB5_11LockManager12upgrade_lock
FN:253,_RNvMs0_NtCs4BfdzTzvOqG_21sqlrustgo_transaction4lockNtB5_11LockManager14get_lock_count
FN:105,_RNvMs0_NtCs4BfdzTzvOqG_21sqlrustgo_transaction4lockNtB5_11LockManager15detect_deadlock
FN:239,_RNvMs0_NtCs4BfdzTzvOqG_21sqlrustgo_transaction4lockNtB5_11LockManager15is_locked_by_tx
FN:257,_RNvMs0_NtCs4BfdzTzvOqG_21sqlrustgo_transaction4lockNtB5_11LockManager17get_tx_lock_count
FN:197,_RNvMs0_NtCs4BfdzTzvOqG_21sqlrustgo_transaction4lockNtB5_11LockManager17release_all_locks
FN:246,_RNvMs0_NtCs4BfdzTzvOqG_21sqlrustgo_transaction4lockNtB5_11LockManager18has_exclusive_lock
FN:109,_RNvMs0_NtCs4BfdzTzvOqG_21sqlrustgo_transaction4lockNtB5_11LockManager20clear_deadlock_edges
FN:97,_RNvMs0_NtCs4BfdzTzvOqG_21sqlrustgo_transaction4lockNtB5_11LockManager3new
FN:235,_RNvMs0_NtCs4BfdzTzvOqG_21sqlrustgo_transaction4lockNtB5_11LockManager9is_locked
FN:69,_RNvMs_NtCs4BfdzTzvOqG_21sqlrustgo_transaction4lockNtB4_8LockInfo10add_holder
FN:77,_RNvMs_NtCs4BfdzTzvOqG_21sqlrustgo_transaction4lockNtB4_8LockInfo10add_waiter
FN:73,_RNvMs_NtCs4BfdzTzvOqG_21sqlrustgo_transaction4lockNtB4_8LockInfo13remove_holder
FN:83,_RNvMs_NtCs4BfdzTzvOqG_21sqlrustgo_transaction4lockNtB4_8LockInfo13remove_waiter
FN:50,_RNvMs_NtCs4BfdzTzvOqG_21sqlrustgo_transaction4lockNtB4_8LockInfo3new
FN:59,_RNvMs_NtCs4BfdzTzvOqG_21sqlrustgo_transaction4lockNtB4_8LockInfo9can_grant
FN:263,_RNvXs1_NtCs4BfdzTzvOqG_21sqlrustgo_transaction4lockNtB5_11LockManagerNtNtCs8nPosuWgJFh_4core7default7Default7default
FN:277,_RNvXs2_NtCs4BfdzTzvOqG_21sqlrustgo_transaction4lockNtB5_9LockErrorNtNtCs8nPosuWgJFh_4core3fmt7Display3fmt
FN:113,_RNvMs0_NtCs7yHBkdcMBoj_21sqlrustgo_transaction4lockNtB5_11LockManager12acquire_lock
FN:163,_RNvMs0_NtCs7yHBkdcMBoj_21sqlrustgo_transaction4lockNtB5_11LockManager12release_lock
FN:148,_RNvMs0_NtCs7yHBkdcMBoj_21sqlrustgo_transaction4lockNtB5_11LockManager12upgrade_lock
FN:105,_RNvMs0_NtCs7yHBkdcMBoj_21sqlrustgo_transaction4lockNtB5_11LockManager15detect_deadlock
FN:197,_RNvMs0_NtCs7yHBkdcMBoj_21sqlrustgo_transaction4lockNtB5_11LockManager17release_all_locks
FN:246,_RNvMs0_NtCs7yHBkdcMBoj_21sqlrustgo_transaction4lockNtB5_11LockManager18has_exclusive_lock
FN:97,_RNvMs0_NtCs7yHBkdcMBoj_21sqlrustgo_transaction4lockNtB5_11LockManager3new
FN:235,_RNvMs0_NtCs7yHBkdcMBoj_21sqlrustgo_transaction4lockNtB5_11LockManager9is_locked
FN:69,_RNvMs_NtCs7yHBkdcMBoj_21sqlrustgo_transaction4lockNtB4_8LockInfo10add_holder
FN:77,_RNvMs_NtCs7yHBkdcMBoj_21sqlrustgo_transaction4lockNtB4_8LockInfo10add_waiter
FN:73,_RNvMs_NtCs7yHBkdcMBoj_21sqlrustgo_transaction4lockNtB4_8LockInfo13remove_holder
FN:83,_RNvMs_NtCs7yHBkdcMBoj_21sqlrustgo_transaction4lockNtB4_8LockInfo13remove_waiter
FN:50,_RNvMs_NtCs7yHBkdcMBoj_21sqlrustgo_transaction4lockNtB4_8LockInfo3new
FN:59,_RNvMs_NtCs7yHBkdcMBoj_21sqlrustgo_transaction4lockNtB4_8LockInfo9can_grant
FN:242,_RNCNvMs0_NtCs7yHBkdcMBoj_21sqlrustgo_transaction4lockNtB7_11LockManager15is_locked_by_tx0B9_
FN:258,_RNCNvMs0_NtCs7yHBkdcMBoj_21sqlrustgo_transaction4lockNtB7_11LockManager17get_tx_lock_count0B9_
FN:31,_RNvMNtCs7yHBkdcMBoj_21sqlrustgo_transaction4lockNtB2_11LockRequest3new
FN:253,_RNvMs0_NtCs7yHBkdcMBoj_21sqlrustgo_transaction4lockNtB5_11LockManager14get_lock_count
FN:239,_RNvMs0_NtCs7yHBkdcMBoj_21sqlrustgo_transaction4lockNtB5_11LockManager15is_locked_by_tx
FN:257,_RNvMs0_NtCs7yHBkdcMBoj_21sqlrustgo_transaction4lockNtB5_11LockManager17get_tx_lock_count
FN:109,_RNvMs0_NtCs7yHBkdcMBoj_21sqlrustgo_transaction4lockNtB5_11LockManager20clear_deadlock_edges
FN:263,_RNvXs1_NtCs7yHBkdcMBoj_21sqlrustgo_transaction4lockNtB5_11LockManagerNtNtCs8nPosuWgJFh_4core7default7Default7default
FN:277,_RNvXs2_NtCs7yHBkdcMBoj_21sqlrustgo_transaction4lockNtB5_9LockErrorNtNtCs8nPosuWgJFh_4core3fmt7Display3fmt
FN:294,_RNvNtNtCs7yHBkdcMBoj_21sqlrustgo_transaction4lock5testss_16test_shared_lock
FN:344,_RNvNtNtCs7yHBkdcMBoj_21sqlrustgo_transaction4lock5testss_17test_lock_release
FN:329,_RNvNtNtCs7yHBkdcMBoj_21sqlrustgo_transaction4lock5testss_17test_lock_upgrade
FN:305,_RNvNtNtCs7yHBkdcMBoj_21sqlrustgo_transaction4lock5testss_19test_exclusive_lock
FN:375,_RNvNtNtCs7yHBkdcMBoj_21sqlrustgo_transaction4lock5testss_22test_release_all_locks
FN:316,_RNvNtNtCs7yHBkdcMBoj_21sqlrustgo_transaction4lock5testss_25test_shared_lock_conflict
FN:396,_RNvNtNtCs7yHBkdcMBoj_21sqlrustgo_transaction4lock5testss_26test_multiple_shared_locks
FN:358,_RNvNtNtCs7yHBkdcMBoj_21sqlrustgo_transaction4lock5testss_34test_lock_release_grants_to_waiter
FN:409,_RNvNtNtCs7yHBkdcMBoj_21sqlrustgo_transaction4lock5testss_40test_lock_manager_with_deadlock_detector
FN:122,_RNCNvMs0_NtCs7yHBkdcMBoj_21sqlrustgo_transaction4lockNtB7_11LockManager12acquire_lock0B9_
FN:249,_RNCNvMs0_NtCs7yHBkdcMBoj_21sqlrustgo_transaction4lockNtB7_11LockManager18has_exclusive_lock0B9_
FN:78,_RNCNvMs_NtCs7yHBkdcMBoj_21sqlrustgo_transaction4lockNtB6_8LockInfo10add_waiter0B8_
FN:84,_RNCNvMs_NtCs7yHBkdcMBoj_21sqlrustgo_transaction4lockNtB6_8LockInfo13remove_waiter0B8_
FNDA:0,_RNCNvMs0_NtCsjfxBuuaWLtE_21sqlrustgo_transaction4lockNtB7_11LockManager12acquire_lock0B9_
FNDA:0,_RNCNvMs0_NtCsjfxBuuaWLtE_21sqlrustgo_transaction4lockNtB7_11LockManager15is_locked_by_tx0B9_
FNDA:0,_RNCNvMs0_NtCsjfxBuuaWLtE_21sqlrustgo_transaction4lockNtB7_11LockManager17get_tx_lock_count0B9_
FNDA:0,_RNCNvMs0_NtCsjfxBuuaWLtE_21sqlrustgo_transaction4lockNtB7_11LockManager18has_exclusive_lock0B9_
FNDA:0,_RNCNvMs_NtCsjfxBuuaWLtE_21sqlrustgo_transaction4lockNtB6_8LockInfo10add_waiter0B8_
FNDA:0,_RNCNvMs_NtCsjfxBuuaWLtE_21sqlrustgo_transaction4lockNtB6_8LockInfo13remove_waiter0B8_
FNDA:0,_RNvMNtCsjfxBuuaWLtE_21sqlrustgo_transaction4lockNtB2_11LockRequest3new
FNDA:0,_RNvMs0_NtCsjfxBuuaWLtE_21sqlrustgo_transaction4lockNtB5_11LockManager12acquire_lock
FNDA:0,_RNvMs0_NtCsjfxBuuaWLtE_21sqlrustgo_transaction4lockNtB5_11LockManager12release_lock
FNDA:0,_RNvMs0_NtCsjfxBuuaWLtE_21sqlrustgo_transaction4lockNtB5_11LockManager12upgrade_lock
FNDA:0,_RNvMs0_NtCsjfxBuuaWLtE_21sqlrustgo_transaction4lockNtB5_11LockManager14get_lock_count
FNDA:0,_RNvMs0_NtCsjfxBuuaWLtE_21sqlrustgo_transaction4lockNtB5_11LockManager15detect_deadlock
FNDA:0,_RNvMs0_NtCsjfxBuuaWLtE_21sqlrustgo_transaction4lockNtB5_11LockManager15is_locked_by_tx
FNDA:0,_RNvMs0_NtCsjfxBuuaWLtE_21sqlrustgo_transaction4lockNtB5_11LockManager17get_tx_lock_count
FNDA:0,_RNvMs0_NtCsjfxBuuaWLtE_21sqlrustgo_transaction4lockNtB5_11LockManager17release_all_locks
FNDA:0,_RNvMs0_NtCsjfxBuuaWLtE_21sqlrustgo_transaction4lockNtB5_11LockManager18has_exclusive_lock
FNDA:0,_RNvMs0_NtCsjfxBuuaWLtE_21sqlrustgo_transaction4lockNtB5_11LockManager20clear_deadlock_edges
FNDA:0,_RNvMs0_NtCsjfxBuuaWLtE_21sqlrustgo_transaction4lockNtB5_11LockManager3new
FNDA:0,_RNvMs0_NtCsjfxBuuaWLtE_21sqlrustgo_transaction4lockNtB5_11LockManager9is_locked
FNDA:0,_RNvMs_NtCsjfxBuuaWLtE_21sqlrustgo_transaction4lockNtB4_8LockInfo10add_holder
FNDA:0,_RNvMs_NtCsjfxBuuaWLtE_21sqlrustgo_transaction4lockNtB4_8LockInfo10add_waiter
FNDA:0,_RNvMs_NtCsjfxBuuaWLtE_21sqlrustgo_transaction4lockNtB4_8LockInfo13remove_holder
FNDA:0,_RNvMs_NtCsjfxBuuaWLtE_21sqlrustgo_transaction4lockNtB4_8LockInfo13remove_waiter
FNDA:0,_RNvMs_NtCsjfxBuuaWLtE_21sqlrustgo_transaction4lockNtB4_8LockInfo3new
FNDA:0,_RNvMs_NtCsjfxBuuaWLtE_21sqlrustgo_transaction4lockNtB4_8LockInfo9can_grant
FNDA:0,_RNvXs1_NtCsjfxBuuaWLtE_21sqlrustgo_transaction4lockNtB5_11LockManagerNtNtCs8nPosuWgJFh_4core7default7Default7default
FNDA:0,_RNvXs2_NtCsjfxBuuaWLtE_21sqlrustgo_transaction4lockNtB5_9LockErrorNtNtCs8nPosuWgJFh_4core3fmt7Display3fmt
FNDA:0,_RNCNvMs0_NtCs4BfdzTzvOqG_21sqlrustgo_transaction4lockNtB7_11LockManager12acquire_lock0B9_
FNDA:0,_RNCNvMs0_NtCs4BfdzTzvOqG_21sqlrustgo_transaction4lockNtB7_11LockManager15is_locked_by_tx0B9_
FNDA:0,_RNCNvMs0_NtCs4BfdzTzvOqG_21sqlrustgo_transaction4lockNtB7_11LockManager17get_tx_lock_count0B9_
FNDA:0,_RNCNvMs0_NtCs4BfdzTzvOqG_21sqlrustgo_transaction4lockNtB7_11LockManager18has_exclusive_lock0B9_
FNDA:0,_RNCNvMs_NtCs4BfdzTzvOqG_21sqlrustgo_transaction4lockNtB6_8LockInfo10add_waiter0B8_
FNDA:0,_RNCNvMs_NtCs4BfdzTzvOqG_21sqlrustgo_transaction4lockNtB6_8LockInfo13remove_waiter0B8_
FNDA:0,_RNvMNtCs4BfdzTzvOqG_21sqlrustgo_transaction4lockNtB2_11LockRequest3new
FNDA:0,_RNvMs0_NtCs4BfdzTzvOqG_21sqlrustgo_transaction4lockNtB5_11LockManager12acquire_lock
FNDA:0,_RNvMs0_NtCs4BfdzTzvOqG_21sqlrustgo_transaction4lockNtB5_11LockManager12release_lock
FNDA:0,_RNvMs0_NtCs4BfdzTzvOqG_21sqlrustgo_transaction4lockNtB5_11LockManager12upgrade_lock
FNDA:0,_RNvMs0_NtCs4BfdzTzvOqG_21sqlrustgo_transaction4lockNtB5_11LockManager14get_lock_count
FNDA:0,_RNvMs0_NtCs4BfdzTzvOqG_21sqlrustgo_transaction4lockNtB5_11LockManager15detect_deadlock
FNDA:0,_RNvMs0_NtCs4BfdzTzvOqG_21sqlrustgo_transaction4lockNtB5_11LockManager15is_locked_by_tx
FNDA:0,_RNvMs0_NtCs4BfdzTzvOqG_21sqlrustgo_transaction4lockNtB5_11LockManager17get_tx_lock_count
FNDA:0,_RNvMs0_NtCs4BfdzTzvOqG_21sqlrustgo_transaction4lockNtB5_11LockManager17release_all_locks
FNDA:0,_RNvMs0_NtCs4BfdzTzvOqG_21sqlrustgo_transaction4lockNtB5_11LockManager18has_exclusive_lock
FNDA:0,_RNvMs0_NtCs4BfdzTzvOqG_21sqlrustgo_transaction4lockNtB5_11LockManager20clear_deadlock_edges
FNDA:0,_RNvMs0_NtCs4BfdzTzvOqG_21sqlrustgo_transaction4lockNtB5_11LockManager3new
FNDA:0,_RNvMs0_NtCs4BfdzTzvOqG_21sqlrustgo_transaction4lockNtB5_11LockManager9is_locked
FNDA:0,_RNvMs_NtCs4BfdzTzvOqG_21sqlrustgo_transaction4lockNtB4_8LockInfo10add_holder
FNDA:0,_RNvMs_NtCs4BfdzTzvOqG_21sqlrustgo_transaction4lockNtB4_8LockInfo10add_waiter
FNDA:0,_RNvMs_NtCs4BfdzTzvOqG_21sqlrustgo_transaction4lockNtB4_8LockInfo13remove_holder
FNDA:0,_RNvMs_NtCs4BfdzTzvOqG_21sqlrustgo_transaction4lockNtB4_8LockInfo13remove_waiter
FNDA:0,_RNvMs_NtCs4BfdzTzvOqG_21sqlrustgo_transaction4lockNtB4_8LockInfo3new
FNDA:0,_RNvMs_NtCs4BfdzTzvOqG_21sqlrustgo_transaction4lockNtB4_8LockInfo9can_grant
FNDA:0,_RNvXs1_NtCs4BfdzTzvOqG_21sqlrustgo_transaction4lockNtB5_11LockManagerNtNtCs8nPosuWgJFh_4core7default7Default7default
FNDA:0,_RNvXs2_NtCs4BfdzTzvOqG_21sqlrustgo_transaction4lockNtB5_9LockErrorNtNtCs8nPosuWgJFh_4core3fmt7Display3fmt
FNDA:15,_RNvMs0_NtCs7yHBkdcMBoj_21sqlrustgo_transaction4lockNtB5_11LockManager12acquire_lock
FNDA:2,_RNvMs0_NtCs7yHBkdcMBoj_21sqlrustgo_transaction4lockNtB5_11LockManager12release_lock
FNDA:1,_RNvMs0_NtCs7yHBkdcMBoj_21sqlrustgo_transaction4lockNtB5_11LockManager12upgrade_lock
FNDA:1,_RNvMs0_NtCs7yHBkdcMBoj_21sqlrustgo_transaction4lockNtB5_11LockManager15detect_deadlock
FNDA:1,_RNvMs0_NtCs7yHBkdcMBoj_21sqlrustgo_transaction4lockNtB5_11LockManager17release_all_locks
FNDA:3,_RNvMs0_NtCs7yHBkdcMBoj_21sqlrustgo_transaction4lockNtB5_11LockManager18has_exclusive_lock
FNDA:9,_RNvMs0_NtCs7yHBkdcMBoj_21sqlrustgo_transaction4lockNtB5_11LockManager3new
FNDA:4,_RNvMs0_NtCs7yHBkdcMBoj_21sqlrustgo_transaction4lockNtB5_11LockManager9is_locked
FNDA:13,_RNvMs_NtCs7yHBkdcMBoj_21sqlrustgo_transaction4lockNtB4_8LockInfo10add_holder
FNDA:3,_RNvMs_NtCs7yHBkdcMBoj_21sqlrustgo_transaction4lockNtB4_8LockInfo10add_waiter
FNDA:4,_RNvMs_NtCs7yHBkdcMBoj_21sqlrustgo_transaction4lockNtB4_8LockInfo13remove_holder
FNDA:1,_RNvMs_NtCs7yHBkdcMBoj_21sqlrustgo_transaction4lockNtB4_8LockInfo13remove_waiter
FNDA:11,_RNvMs_NtCs7yHBkdcMBoj_21sqlrustgo_transaction4lockNtB4_8LockInfo3new
FNDA:15,_RNvMs_NtCs7yHBkdcMBoj_21sqlrustgo_transaction4lockNtB4_8LockInfo9can_grant
FNDA:0,_RNCNvMs0_NtCs7yHBkdcMBoj_21sqlrustgo_transaction4lockNtB7_11LockManager15is_locked_by_tx0B9_
FNDA:0,_RNCNvMs0_NtCs7yHBkdcMBoj_21sqlrustgo_transaction4lockNtB7_11LockManager17get_tx_lock_count0B9_
FNDA:0,_RNvMNtCs7yHBkdcMBoj_21sqlrustgo_transaction4lockNtB2_11LockRequest3new
FNDA:0,_RNvMs0_NtCs7yHBkdcMBoj_21sqlrustgo_transaction4lockNtB5_11LockManager14get_lock_count
FNDA:0,_RNvMs0_NtCs7yHBkdcMBoj_21sqlrustgo_transaction4lockNtB5_11LockManager15is_locked_by_tx
FNDA:0,_RNvMs0_NtCs7yHBkdcMBoj_21sqlrustgo_transaction4lockNtB5_11LockManager17get_tx_lock_count
FNDA:0,_RNvMs0_NtCs7yHBkdcMBoj_21sqlrustgo_transaction4lockNtB5_11LockManager20clear_deadlock_edges
FNDA:0,_RNvXs1_NtCs7yHBkdcMBoj_21sqlrustgo_transaction4lockNtB5_11LockManagerNtNtCs8nPosuWgJFh_4core7default7Default7default
FNDA:0,_RNvXs2_NtCs7yHBkdcMBoj_21sqlrustgo_transaction4lockNtB5_9LockErrorNtNtCs8nPosuWgJFh_4core3fmt7Display3fmt
FNDA:1,_RNvNtNtCs7yHBkdcMBoj_21sqlrustgo_transaction4lock5testss_16test_shared_lock
FNDA:1,_RNvNtNtCs7yHBkdcMBoj_21sqlrustgo_transaction4lock5testss_17test_lock_release
FNDA:1,_RNvNtNtCs7yHBkdcMBoj_21sqlrustgo_transaction4lock5testss_17test_lock_upgrade
FNDA:1,_RNvNtNtCs7yHBkdcMBoj_21sqlrustgo_transaction4lock5testss_19test_exclusive_lock
FNDA:1,_RNvNtNtCs7yHBkdcMBoj_21sqlrustgo_transaction4lock5testss_22test_release_all_locks
FNDA:1,_RNvNtNtCs7yHBkdcMBoj_21sqlrustgo_transaction4lock5testss_25test_shared_lock_conflict
FNDA:1,_RNvNtNtCs7yHBkdcMBoj_21sqlrustgo_transaction4lock5testss_26test_multiple_shared_locks
FNDA:1,_RNvNtNtCs7yHBkdcMBoj_21sqlrustgo_transaction4lock5testss_34test_lock_release_grants_to_waiter
FNDA:1,_RNvNtNtCs7yHBkdcMBoj_21sqlrustgo_transaction4lock5testss_40test_lock_manager_with_deadlock_detector
FNDA:11,_RNCNvMs0_NtCs7yHBkdcMBoj_21sqlrustgo_transaction4lockNtB7_11LockManager12acquire_lock0B9_
FNDA:3,_RNCNvMs0_NtCs7yHBkdcMBoj_21sqlrustgo_transaction4lockNtB7_11LockManager18has_exclusive_lock0B9_
FNDA:0,_RNCNvMs_NtCs7yHBkdcMBoj_21sqlrustgo_transaction4lockNtB6_8LockInfo10add_waiter0B8_
FNDA:1,_RNCNvMs_NtCs7yHBkdcMBoj_21sqlrustgo_transaction4lockNtB6_8LockInfo13remove_waiter0B8_
FNF:36
FNH:26
DA:31,0
DA:32,0
DA:33,0
DA:34,0
DA:35,0
DA:36,0
DA:37,0
DA:38,0
DA:50,11
DA:51,11
DA:52,11
DA:53,11
DA:54,11
DA:55,11
DA:56,11
DA:57,11
DA:59,15
DA:60,15
DA:62,10
DA:63,1
DA:65,5
DA:67,15
DA:69,13
DA:70,13
DA:71,13
DA:73,4
DA:74,4
DA:75,4
DA:77,3
DA:78,3
DA:79,3
DA:80,3
DA:81,3
DA:83,1
DA:84,1
DA:85,1
DA:97,9
DA:98,9
DA:99,9
DA:100,9
DA:101,9
DA:102,9
DA:103,9
DA:105,1
DA:106,1
DA:107,1
DA:109,0
DA:110,0
DA:111,0
DA:113,15
DA:114,15
DA:115,15
DA:116,15
DA:117,15
DA:118,15
DA:119,15
DA:120,15
DA:121,15
DA:122,15
DA:124,15
DA:125,12
DA:127,12
DA:128,12
DA:130,12
DA:132,3
DA:134,3
DA:135,3
DA:136,3
DA:137,3
DA:138,0
DA:140,3
DA:141,0
DA:142,3
DA:144,3
DA:146,15
DA:148,1
DA:149,1
DA:151,1
DA:152,1
DA:153,1
DA:154,1
DA:155,1
DA:156,1
DA:157,0
DA:158,0
DA:159,0
DA:160,0
DA:161,1
DA:163,2
DA:164,2
DA:165,2
DA:166,2
DA:168,2
DA:169,1
DA:170,1
DA:171,1
DA:172,1
DA:174,1
DA:175,0
DA:176,1
DA:177,0
DA:178,1
DA:180,2
DA:182,0
DA:186,2
DA:187,1
DA:188,1
DA:190,2
DA:191,2
DA:192,2
DA:194,2
DA:195,2
DA:197,1
DA:198,1
DA:200,1
DA:201,1
DA:202,2
DA:203,2
DA:204,2
DA:205,2
DA:207,2
DA:208,0
DA:209,0
DA:210,0
DA:211,0
DA:213,0
DA:214,0
DA:215,0
DA:216,0
DA:217,2
DA:219,2
DA:221,0
DA:225,2
DA:226,2
DA:227,2
DA:228,2
DA:230,0
DA:232,1
DA:233,1
DA:235,4
DA:236,4
DA:237,4
DA:239,0
DA:240,0
DA:241,0
DA:242,0
DA:243,0
DA:244,0
DA:246,3
DA:247,3
DA:248,3
DA:249,3
DA:250,3
DA:251,3
DA:253,0
DA:254,0
DA:255,0
DA:257,0
DA:258,0
DA:259,0
DA:263,0
DA:264,0
DA:265,0
DA:277,0
DA:278,0
DA:279,0
DA:280,0
DA:281,0
DA:282,0
DA:284,0
DA:294,1
DA:295,1
DA:296,1
DA:297,1
DA:299,1
DA:300,1
DA:301,1
DA:302,1
DA:305,1
DA:306,1
DA:307,1
DA:308,1
DA:310,1
DA:311,1
DA:312,1
DA:313,1
DA:316,1
DA:317,1
DA:318,1
DA:320,1
DA:321,1
DA:322,1
DA:323,1
DA:325,1
DA:326,1
DA:329,1
DA:330,1
DA:331,1
DA:332,1
DA:334,1
DA:335,1
DA:336,1
DA:337,1
DA:339,1
DA:340,1
DA:341,1
DA:344,1
DA:345,1
DA:346,1
DA:347,1
DA:349,1
DA:350,1
DA:351,1
DA:352,1
DA:354,1
DA:355,1
DA:358,1
DA:359,1
DA:360,1
DA:362,1
DA:363,1
DA:364,1
DA:365,1
DA:366,1
DA:367,1
DA:369,1
DA:371,1
DA:372,1
DA:375,1
DA:376,1
DA:377,1
DA:378,1
DA:379,1
DA:381,1
DA:382,1
DA:383,1
DA:384,1
DA:385,1
DA:386,1
DA:388,1
DA:390,1
DA:391,1
DA:392,1
DA:393,1
DA:396,1
DA:397,1
DA:398,1
DA:400,1
DA:401,1
DA:402,1
DA:403,1
DA:405,1
DA:406,1
DA:409,1
DA:410,1
DA:412,1
DA:413,1
DA:415,1
DA:416,1
DA:417,1
DA:419,1
DA:420,1
DA:421,1
DA:423,1
DA:424,1
DA:426,1
DA:427,1
BRF:0
BRH:0
LF:273
LH:218
end_of_record
SF:/home/openclaw/dev/yinglichina8848/sqlrustgo/crates/transaction/src/lock_manager.rs
FN:96,_RNvXs_NtCs7yHBkdcMBoj_21sqlrustgo_transaction12lock_managerNtB4_22DistributedLockManagerNtNtCs8nPosuWgJFh_4core7default7Default7default
FN:89,_RNvMNtCs7yHBkdcMBoj_21sqlrustgo_transaction12lock_managerNtB2_22DistributedLockManager10get_holder
FN:39,_RNvMNtCs7yHBkdcMBoj_21sqlrustgo_transaction12lock_managerNtB2_22DistributedLockManager3new
FN:73,_RNvMNtCs7yHBkdcMBoj_21sqlrustgo_transaction12lock_managerNtB2_22DistributedLockManager6unlock
FN:46,_RNvMNtCs7yHBkdcMBoj_21sqlrustgo_transaction12lock_managerNtB2_22DistributedLockManager8try_lock
FN:83,_RNvMNtCs7yHBkdcMBoj_21sqlrustgo_transaction12lock_managerNtB2_22DistributedLockManager9is_locked
FN:175,_RNCNvNtNtCs7yHBkdcMBoj_21sqlrustgo_transaction12lock_manager5testss_13test_row_lock0B7_
FN:151,_RNCNvNtNtCs7yHBkdcMBoj_21sqlrustgo_transaction12lock_manager5testss_14test_is_locked0B7_
FN:163,_RNCNvNtNtCs7yHBkdcMBoj_21sqlrustgo_transaction12lock_manager5testss_15test_get_holder0B7_
FN:119,_RNCNvNtNtCs7yHBkdcMBoj_21sqlrustgo_transaction12lock_manager5testss_18test_lock_conflict0B7_
FN:107,_RNCNvNtNtCs7yHBkdcMBoj_21sqlrustgo_transaction12lock_manager5testss_25test_lock_acquire_release0B7_
FN:136,_RNCNvNtNtCs7yHBkdcMBoj_21sqlrustgo_transaction12lock_manager5testss_27test_lock_same_gid_succeeds0B7_
FN:175,_RNvNtNtCs7yHBkdcMBoj_21sqlrustgo_transaction12lock_manager5testss_13test_row_lock
FN:151,_RNvNtNtCs7yHBkdcMBoj_21sqlrustgo_transaction12lock_manager5testss_14test_is_locked
FN:163,_RNvNtNtCs7yHBkdcMBoj_21sqlrustgo_transaction12lock_manager5testss_15test_get_holder
FN:119,_RNvNtNtCs7yHBkdcMBoj_21sqlrustgo_transaction12lock_manager5testss_18test_lock_conflict
FN:107,_RNvNtNtCs7yHBkdcMBoj_21sqlrustgo_transaction12lock_manager5testss_25test_lock_acquire_release
FN:136,_RNvNtNtCs7yHBkdcMBoj_21sqlrustgo_transaction12lock_manager5testss_27test_lock_same_gid_succeeds
FN:91,_RNCNCNvMNtCs7yHBkdcMBoj_21sqlrustgo_transaction12lock_managerNtB6_22DistributedLockManager10get_holder00B8_
FN:77,_RNCNCNvMNtCs7yHBkdcMBoj_21sqlrustgo_transaction12lock_managerNtB6_22DistributedLockManager6unlock00B8_
FN:89,_RNCNvMNtCs7yHBkdcMBoj_21sqlrustgo_transaction12lock_managerNtB4_22DistributedLockManager10get_holder0B6_
FN:73,_RNCNvMNtCs7yHBkdcMBoj_21sqlrustgo_transaction12lock_managerNtB4_22DistributedLockManager6unlock0B6_
FN:50,_RNCNvMNtCs7yHBkdcMBoj_21sqlrustgo_transaction12lock_managerNtB4_22DistributedLockManager8try_lock0B6_
FN:83,_RNCNvMNtCs7yHBkdcMBoj_21sqlrustgo_transaction12lock_managerNtB4_22DistributedLockManager9is_locked0B6_
FNDA:0,_RNvXs_NtCs7yHBkdcMBoj_21sqlrustgo_transaction12lock_managerNtB4_22DistributedLockManagerNtNtCs8nPosuWgJFh_4core7default7Default7default
FNDA:2,_RNvMNtCs7yHBkdcMBoj_21sqlrustgo_transaction12lock_managerNtB2_22DistributedLockManager10get_holder
FNDA:6,_RNvMNtCs7yHBkdcMBoj_21sqlrustgo_transaction12lock_managerNtB2_22DistributedLockManager3new
FNDA:1,_RNvMNtCs7yHBkdcMBoj_21sqlrustgo_transaction12lock_managerNtB2_22DistributedLockManager6unlock
FNDA:8,_RNvMNtCs7yHBkdcMBoj_21sqlrustgo_transaction12lock_managerNtB2_22DistributedLockManager8try_lock
FNDA:2,_RNvMNtCs7yHBkdcMBoj_21sqlrustgo_transaction12lock_managerNtB2_22DistributedLockManager9is_locked
FNDA:1,_RNCNvNtNtCs7yHBkdcMBoj_21sqlrustgo_transaction12lock_manager5testss_13test_row_lock0B7_
FNDA:1,_RNCNvNtNtCs7yHBkdcMBoj_21sqlrustgo_transaction12lock_manager5testss_14test_is_locked0B7_
FNDA:1,_RNCNvNtNtCs7yHBkdcMBoj_21sqlrustgo_transaction12lock_manager5testss_15test_get_holder0B7_
FNDA:1,_RNCNvNtNtCs7yHBkdcMBoj_21sqlrustgo_transaction12lock_manager5testss_18test_lock_conflict0B7_
FNDA:1,_RNCNvNtNtCs7yHBkdcMBoj_21sqlrustgo_transaction12lock_manager5testss_25test_lock_acquire_release0B7_
FNDA:1,_RNCNvNtNtCs7yHBkdcMBoj_21sqlrustgo_transaction12lock_manager5testss_27test_lock_same_gid_succeeds0B7_
FNDA:1,_RNvNtNtCs7yHBkdcMBoj_21sqlrustgo_transaction12lock_manager5testss_13test_row_lock
FNDA:1,_RNvNtNtCs7yHBkdcMBoj_21sqlrustgo_transaction12lock_manager5testss_14test_is_locked
FNDA:1,_RNvNtNtCs7yHBkdcMBoj_21sqlrustgo_transaction12lock_manager5testss_15test_get_holder
FNDA:1,_RNvNtNtCs7yHBkdcMBoj_21sqlrustgo_transaction12lock_manager5testss_18test_lock_conflict
FNDA:1,_RNvNtNtCs7yHBkdcMBoj_21sqlrustgo_transaction12lock_manager5testss_25test_lock_acquire_release
FNDA:1,_RNvNtNtCs7yHBkdcMBoj_21sqlrustgo_transaction12lock_manager5testss_27test_lock_same_gid_succeeds
FNDA:1,_RNCNCNvMNtCs7yHBkdcMBoj_21sqlrustgo_transaction12lock_managerNtB6_22DistributedLockManager10get_holder00B8_
FNDA:1,_RNCNCNvMNtCs7yHBkdcMBoj_21sqlrustgo_transaction12lock_managerNtB6_22DistributedLockManager6unlock00B8_
FNDA:2,_RNCNvMNtCs7yHBkdcMBoj_21sqlrustgo_transaction12lock_managerNtB4_22DistributedLockManager10get_holder0B6_
FNDA:1,_RNCNvMNtCs7yHBkdcMBoj_21sqlrustgo_transaction12lock_managerNtB4_22DistributedLockManager6unlock0B6_
FNDA:8,_RNCNvMNtCs7yHBkdcMBoj_21sqlrustgo_transaction12lock_managerNtB4_22DistributedLockManager8try_lock0B6_
FNDA:2,_RNCNvMNtCs7yHBkdcMBoj_21sqlrustgo_transaction12lock_managerNtB4_22DistributedLockManager9is_locked0B6_
FNF:24
FNH:23
DA:39,6
DA:40,6
DA:41,6
DA:42,6
DA:43,6
DA:46,8
DA:47,8
DA:48,8
DA:49,8
DA:50,8
DA:51,8
DA:53,8
DA:54,2
DA:55,1
DA:56,1
DA:57,1
DA:58,1
DA:59,6
DA:61,7
DA:62,7
DA:63,7
DA:64,7
DA:65,7
DA:66,7
DA:67,7
DA:69,7
DA:70,8
DA:73,1
DA:74,1
DA:77,1
DA:79,1
DA:80,1
DA:83,2
DA:84,2
DA:85,2
DA:86,2
DA:89,2
DA:90,2
DA:91,2
DA:92,2
DA:96,0
DA:97,0
DA:98,0
DA:107,1
DA:108,1
DA:109,1
DA:111,1
DA:112,1
DA:113,1
DA:115,1
DA:116,1
DA:119,1
DA:120,1
DA:121,1
DA:122,1
DA:124,1
DA:127,1
DA:128,1
DA:131,1
DA:132,1
DA:133,1
DA:136,1
DA:137,1
DA:138,1
DA:140,1
DA:143,1
DA:144,1
DA:146,1
DA:147,1
DA:148,1
DA:151,1
DA:152,1
DA:153,1
DA:155,1
DA:156,1
DA:158,1
DA:159,1
DA:160,1
DA:163,1
DA:164,1
DA:165,1
DA:167,1
DA:168,1
DA:170,1
DA:171,1
DA:172,1
DA:175,1
DA:176,1
DA:177,1
DA:179,1
DA:180,1
DA:181,1
DA:182,1
DA:184,1
DA:185,1
DA:186,1
BRF:0
BRH:0
LF:114
LH:111
end_of_record
SF:/home/openclaw/dev/yinglichina8848/sqlrustgo/crates/transaction/src/manager.rs
FN:37,_RNvMNtCsjfxBuuaWLtE_21sqlrustgo_transaction7managerNtB2_18TransactionContext10is_visible
FN:48,_RNvMNtCsjfxBuuaWLtE_21sqlrustgo_transaction7managerNtB2_18TransactionContext16refresh_snapshot
FN:28,_RNvMNtCsjfxBuuaWLtE_21sqlrustgo_transaction7managerNtB2_18TransactionContext3new
FN:106,_RNvMs_NtCsjfxBuuaWLtE_21sqlrustgo_transaction7managerNtB4_18TransactionManager15begin_read_only
FN:139,_RNvMs_NtCsjfxBuuaWLtE_21sqlrustgo_transaction7managerNtB4_18TransactionManager17get_current_tx_id
FN:172,_RNvMs_NtCsjfxBuuaWLtE_21sqlrustgo_transaction7managerNtB4_18TransactionManager17is_in_transaction
FN:168,_RNvMs_NtCsjfxBuuaWLtE_21sqlrustgo_transaction7managerNtB4_18TransactionManager19get_isolation_level
FN:164,_RNvMs_NtCsjfxBuuaWLtE_21sqlrustgo_transaction7managerNtB4_18TransactionManager19set_isolation_level
FN:98,_RNvMs_NtCsjfxBuuaWLtE_21sqlrustgo_transaction7managerNtB4_18TransactionManager20begin_with_isolation
FN:176,_RNvMs_NtCsjfxBuuaWLtE_21sqlrustgo_transaction7managerNtB4_18TransactionManager20get_global_timestamp
FN:143,_RNvMs_NtCsjfxBuuaWLtE_21sqlrustgo_transaction7managerNtB4_18TransactionManager23get_transaction_context
FN:181,_RNvMs_NtCsjfxBuuaWLtE_21sqlrustgo_transaction7managerNtB4_18TransactionManager33get_transaction_context_for_query
FN:70,_RNvMs_NtCsjfxBuuaWLtE_21sqlrustgo_transaction7managerNtB4_18TransactionManager3new
FN:86,_RNvMs_NtCsjfxBuuaWLtE_21sqlrustgo_transaction7managerNtB4_18TransactionManager5begin
FN:111,_RNvMs_NtCsjfxBuuaWLtE_21sqlrustgo_transaction7managerNtB4_18TransactionManager6commit
FN:125,_RNvMs_NtCsjfxBuuaWLtE_21sqlrustgo_transaction7managerNtB4_18TransactionManager8rollback
FN:78,_RNvMs_NtCsjfxBuuaWLtE_21sqlrustgo_transaction7managerNtB4_18TransactionManager9with_mvcc
FN:275,_RNvXs1_NtCsjfxBuuaWLtE_21sqlrustgo_transaction7managerNtB5_18TransactionManagerNtNtCs8nPosuWgJFh_4core7default7Default7default
FN:291,_RNvXs2_NtCsjfxBuuaWLtE_21sqlrustgo_transaction7managerNtB5_16TransactionErrorNtNtCs8nPosuWgJFh_4core3fmt7Display3fmt
FN:37,_RNvMNtCs7yHBkdcMBoj_21sqlrustgo_transaction7managerNtB2_18TransactionContext10is_visible
FN:48,_RNvMNtCs7yHBkdcMBoj_21sqlrustgo_transaction7managerNtB2_18TransactionContext16refresh_snapshot
FN:28,_RNvMNtCs7yHBkdcMBoj_21sqlrustgo_transaction7managerNtB2_18TransactionContext3new
FN:106,_RNvMs_NtCs7yHBkdcMBoj_21sqlrustgo_transaction7managerNtB4_18TransactionManager15begin_read_only
FN:139,_RNvMs_NtCs7yHBkdcMBoj_21sqlrustgo_transaction7managerNtB4_18TransactionManager17get_current_tx_id
FN:172,_RNvMs_NtCs7yHBkdcMBoj_21sqlrustgo_transaction7managerNtB4_18TransactionManager17is_in_transaction
FN:168,_RNvMs_NtCs7yHBkdcMBoj_21sqlrustgo_transaction7managerNtB4_18TransactionManager19get_isolation_level
FN:164,_RNvMs_NtCs7yHBkdcMBoj_21sqlrustgo_transaction7managerNtB4_18TransactionManager19set_isolation_level
FN:176,_RNvMs_NtCs7yHBkdcMBoj_21sqlrustgo_transaction7managerNtB4_18TransactionManager20get_global_timestamp
FN:143,_RNvMs_NtCs7yHBkdcMBoj_21sqlrustgo_transaction7managerNtB4_18TransactionManager23get_transaction_context
FN:181,_RNvMs_NtCs7yHBkdcMBoj_21sqlrustgo_transaction7managerNtB4_18TransactionManager33get_transaction_context_for_query
FN:70,_RNvMs_NtCs7yHBkdcMBoj_21sqlrustgo_transaction7managerNtB4_18TransactionManager3new
FN:86,_RNvMs_NtCs7yHBkdcMBoj_21sqlrustgo_transaction7managerNtB4_18TransactionManager5begin
FN:111,_RNvMs_NtCs7yHBkdcMBoj_21sqlrustgo_transaction7managerNtB4_18TransactionManager6commit
FN:125,_RNvMs_NtCs7yHBkdcMBoj_21sqlrustgo_transaction7managerNtB4_18TransactionManager8rollback
FN:223,_RINvMs0_NtCs7yHBkdcMBoj_21sqlrustgo_transaction7managerNtB6_18TransactionManager10mvcc_writepEB8_
FN:234,_RINvMs0_NtCs7yHBkdcMBoj_21sqlrustgo_transaction7managerNtB6_18TransactionManager11mvcc_commitpEB8_
FN:253,_RINvMs0_NtCs7yHBkdcMBoj_21sqlrustgo_transaction7managerNtB6_18TransactionManager13mvcc_rollbackpEB8_
FN:214,_RINvMs0_NtCs7yHBkdcMBoj_21sqlrustgo_transaction7managerNtB6_18TransactionManager9mvcc_readpEB8_
FN:98,_RNvMs_NtCs7yHBkdcMBoj_21sqlrustgo_transaction7managerNtB4_18TransactionManager20begin_with_isolation
FN:78,_RNvMs_NtCs7yHBkdcMBoj_21sqlrustgo_transaction7managerNtB4_18TransactionManager9with_mvcc
FN:275,_RNvXs1_NtCs7yHBkdcMBoj_21sqlrustgo_transaction7managerNtB5_18TransactionManagerNtNtCs8nPosuWgJFh_4core7default7Default7default
FN:291,_RNvXs2_NtCs7yHBkdcMBoj_21sqlrustgo_transaction7managerNtB5_16TransactionErrorNtNtCs8nPosuWgJFh_4core3fmt7Display3fmt
FN:386,_RNvNtNtCs7yHBkdcMBoj_21sqlrustgo_transaction7manager5testss_20test_begin_read_only
FN:354,_RNvNtNtCs7yHBkdcMBoj_21sqlrustgo_transaction7manager5testss_20test_isolation_level
FN:310,_RNvNtNtCs7yHBkdcMBoj_21sqlrustgo_transaction7manager5testss_22test_begin_transaction
FN:319,_RNvNtNtCs7yHBkdcMBoj_21sqlrustgo_transaction7manager5testss_23test_commit_transaction
FN:364,_RNvNtNtCs7yHBkdcMBoj_21sqlrustgo_transaction7manager5testss_24test_transaction_context
FN:328,_RNvNtNtCs7yHBkdcMBoj_21sqlrustgo_transaction7manager5testss_25test_rollback_transaction
FN:374,_RNvNtNtCs7yHBkdcMBoj_21sqlrustgo_transaction7manager5testss_26test_multiple_transactions
FN:393,_RNvNtNtCs7yHBkdcMBoj_21sqlrustgo_transaction7manager5testss_29test_read_committed_isolation
FN:409,_RNvNtNtCs7yHBkdcMBoj_21sqlrustgo_transaction7manager5testss_33test_read_committed_no_dirty_read
FN:343,_RNvNtNtCs7yHBkdcMBoj_21sqlrustgo_transaction7manager5testss_34test_transaction_error_in_progress
FN:424,_RNvNtNtCs7yHBkdcMBoj_21sqlrustgo_transaction7manager5testss_35test_snapshot_refresh_on_each_query
FN:336,_RNvNtNtCs7yHBkdcMBoj_21sqlrustgo_transaction7manager5testss_37test_transaction_error_no_transaction
FNDA:0,_RNvMNtCsjfxBuuaWLtE_21sqlrustgo_transaction7managerNtB2_18TransactionContext10is_visible
FNDA:0,_RNvMNtCsjfxBuuaWLtE_21sqlrustgo_transaction7managerNtB2_18TransactionContext16refresh_snapshot
FNDA:0,_RNvMNtCsjfxBuuaWLtE_21sqlrustgo_transaction7managerNtB2_18TransactionContext3new
FNDA:0,_RNvMs_NtCsjfxBuuaWLtE_21sqlrustgo_transaction7managerNtB4_18TransactionManager15begin_read_only
FNDA:0,_RNvMs_NtCsjfxBuuaWLtE_21sqlrustgo_transaction7managerNtB4_18TransactionManager17get_current_tx_id
FNDA:0,_RNvMs_NtCsjfxBuuaWLtE_21sqlrustgo_transaction7managerNtB4_18TransactionManager17is_in_transaction
FNDA:0,_RNvMs_NtCsjfxBuuaWLtE_21sqlrustgo_transaction7managerNtB4_18TransactionManager19get_isolation_level
FNDA:0,_RNvMs_NtCsjfxBuuaWLtE_21sqlrustgo_transaction7managerNtB4_18TransactionManager19set_isolation_level
FNDA:0,_RNvMs_NtCsjfxBuuaWLtE_21sqlrustgo_transaction7managerNtB4_18TransactionManager20begin_with_isolation
FNDA:0,_RNvMs_NtCsjfxBuuaWLtE_21sqlrustgo_transaction7managerNtB4_18TransactionManager20get_global_timestamp
FNDA:0,_RNvMs_NtCsjfxBuuaWLtE_21sqlrustgo_transaction7managerNtB4_18TransactionManager23get_transaction_context
FNDA:0,_RNvMs_NtCsjfxBuuaWLtE_21sqlrustgo_transaction7managerNtB4_18TransactionManager33get_transaction_context_for_query
FNDA:0,_RNvMs_NtCsjfxBuuaWLtE_21sqlrustgo_transaction7managerNtB4_18TransactionManager3new
FNDA:0,_RNvMs_NtCsjfxBuuaWLtE_21sqlrustgo_transaction7managerNtB4_18TransactionManager5begin
FNDA:0,_RNvMs_NtCsjfxBuuaWLtE_21sqlrustgo_transaction7managerNtB4_18TransactionManager6commit
FNDA:0,_RNvMs_NtCsjfxBuuaWLtE_21sqlrustgo_transaction7managerNtB4_18TransactionManager8rollback
FNDA:0,_RNvMs_NtCsjfxBuuaWLtE_21sqlrustgo_transaction7managerNtB4_18TransactionManager9with_mvcc
FNDA:0,_RNvXs1_NtCsjfxBuuaWLtE_21sqlrustgo_transaction7managerNtB5_18TransactionManagerNtNtCs8nPosuWgJFh_4core7default7Default7default
FNDA:0,_RNvXs2_NtCsjfxBuuaWLtE_21sqlrustgo_transaction7managerNtB5_16TransactionErrorNtNtCs8nPosuWgJFh_4core3fmt7Display3fmt
FNDA:2,_RNvMNtCs7yHBkdcMBoj_21sqlrustgo_transaction7managerNtB2_18TransactionContext10is_visible
FNDA:5,_RNvMNtCs7yHBkdcMBoj_21sqlrustgo_transaction7managerNtB2_18TransactionContext16refresh_snapshot
FNDA:6,_RNvMNtCs7yHBkdcMBoj_21sqlrustgo_transaction7managerNtB2_18TransactionContext3new
FNDA:1,_RNvMs_NtCs7yHBkdcMBoj_21sqlrustgo_transaction7managerNtB4_18TransactionManager15begin_read_only
FNDA:1,_RNvMs_NtCs7yHBkdcMBoj_21sqlrustgo_transaction7managerNtB4_18TransactionManager17get_current_tx_id
FNDA:4,_RNvMs_NtCs7yHBkdcMBoj_21sqlrustgo_transaction7managerNtB4_18TransactionManager17is_in_transaction
FNDA:1,_RNvMs_NtCs7yHBkdcMBoj_21sqlrustgo_transaction7managerNtB4_18TransactionManager19get_isolation_level
FNDA:4,_RNvMs_NtCs7yHBkdcMBoj_21sqlrustgo_transaction7managerNtB4_18TransactionManager19set_isolation_level
FNDA:1,_RNvMs_NtCs7yHBkdcMBoj_21sqlrustgo_transaction7managerNtB4_18TransactionManager20get_global_timestamp
FNDA:1,_RNvMs_NtCs7yHBkdcMBoj_21sqlrustgo_transaction7managerNtB4_18TransactionManager23get_transaction_context
FNDA:5,_RNvMs_NtCs7yHBkdcMBoj_21sqlrustgo_transaction7managerNtB4_18TransactionManager33get_transaction_context_for_query
FNDA:12,_RNvMs_NtCs7yHBkdcMBoj_21sqlrustgo_transaction7managerNtB4_18TransactionManager3new
FNDA:12,_RNvMs_NtCs7yHBkdcMBoj_21sqlrustgo_transaction7managerNtB4_18TransactionManager5begin
FNDA:6,_RNvMs_NtCs7yHBkdcMBoj_21sqlrustgo_transaction7managerNtB4_18TransactionManager6commit
FNDA:2,_RNvMs_NtCs7yHBkdcMBoj_21sqlrustgo_transaction7managerNtB4_18TransactionManager8rollback
FNDA:0,_RINvMs0_NtCs7yHBkdcMBoj_21sqlrustgo_transaction7managerNtB6_18TransactionManager10mvcc_writepEB8_
FNDA:0,_RINvMs0_NtCs7yHBkdcMBoj_21sqlrustgo_transaction7managerNtB6_18TransactionManager11mvcc_commitpEB8_
FNDA:0,_RINvMs0_NtCs7yHBkdcMBoj_21sqlrustgo_transaction7managerNtB6_18TransactionManager13mvcc_rollbackpEB8_
FNDA:0,_RINvMs0_NtCs7yHBkdcMBoj_21sqlrustgo_transaction7managerNtB6_18TransactionManager9mvcc_readpEB8_
FNDA:0,_RNvMs_NtCs7yHBkdcMBoj_21sqlrustgo_transaction7managerNtB4_18TransactionManager20begin_with_isolation
FNDA:0,_RNvMs_NtCs7yHBkdcMBoj_21sqlrustgo_transaction7managerNtB4_18TransactionManager9with_mvcc
FNDA:0,_RNvXs1_NtCs7yHBkdcMBoj_21sqlrustgo_transaction7managerNtB5_18TransactionManagerNtNtCs8nPosuWgJFh_4core7default7Default7default
FNDA:0,_RNvXs2_NtCs7yHBkdcMBoj_21sqlrustgo_transaction7managerNtB5_16TransactionErrorNtNtCs8nPosuWgJFh_4core3fmt7Display3fmt
FNDA:1,_RNvNtNtCs7yHBkdcMBoj_21sqlrustgo_transaction7manager5testss_20test_begin_read_only
FNDA:1,_RNvNtNtCs7yHBkdcMBoj_21sqlrustgo_transaction7manager5testss_20test_isolation_level
FNDA:1,_RNvNtNtCs7yHBkdcMBoj_21sqlrustgo_transaction7manager5testss_22test_begin_transaction
FNDA:1,_RNvNtNtCs7yHBkdcMBoj_21sqlrustgo_transaction7manager5testss_23test_commit_transaction
FNDA:1,_RNvNtNtCs7yHBkdcMBoj_21sqlrustgo_transaction7manager5testss_24test_transaction_context
FNDA:1,_RNvNtNtCs7yHBkdcMBoj_21sqlrustgo_transaction7manager5testss_25test_rollback_transaction
FNDA:1,_RNvNtNtCs7yHBkdcMBoj_21sqlrustgo_transaction7manager5testss_26test_multiple_transactions
FNDA:1,_RNvNtNtCs7yHBkdcMBoj_21sqlrustgo_transaction7manager5testss_29test_read_committed_isolation
FNDA:1,_RNvNtNtCs7yHBkdcMBoj_21sqlrustgo_transaction7manager5testss_33test_read_committed_no_dirty_read
FNDA:1,_RNvNtNtCs7yHBkdcMBoj_21sqlrustgo_transaction7manager5testss_34test_transaction_error_in_progress
FNDA:1,_RNvNtNtCs7yHBkdcMBoj_21sqlrustgo_transaction7manager5testss_35test_snapshot_refresh_on_each_query
FNDA:1,_RNvNtNtCs7yHBkdcMBoj_21sqlrustgo_transaction7manager5testss_37test_transaction_error_no_transaction
FNF:35
FNH:27
DA:28,6
DA:29,6
DA:30,6
DA:31,6
DA:32,6
DA:33,6
DA:34,6
DA:35,6
DA:37,2
DA:38,2
DA:39,2
DA:40,2
DA:41,2
DA:42,2
DA:44,0
DA:46,2
DA:48,5
DA:49,5
DA:50,5
DA:51,5
DA:52,5
DA:70,12
DA:71,12
DA:72,12
DA:73,12
DA:74,12
DA:75,12
DA:76,12
DA:78,0
DA:79,0
DA:80,0
DA:81,0
DA:82,0
DA:83,0
DA:84,0
DA:86,12
DA:87,12
DA:88,1
DA:89,11
DA:91,11
DA:92,11
DA:93,11
DA:95,11
DA:96,12
DA:98,0
DA:99,0
DA:100,0
DA:101,0
DA:102,0
DA:103,0
DA:104,0
DA:106,1
DA:107,1
DA:108,1
DA:109,1
DA:111,6
DA:112,6
DA:113,6
DA:114,6
DA:115,6
DA:117,5
DA:118,5
DA:119,5
DA:120,5
DA:122,5
DA:123,6
DA:125,2
DA:126,2
DA:127,2
DA:128,2
DA:129,2
DA:131,2
DA:132,2
DA:133,0
DA:134,2
DA:136,2
DA:137,2
DA:139,1
DA:140,1
DA:141,1
DA:143,1
DA:144,1
DA:146,1
DA:147,1
DA:148,1
DA:149,1
DA:151,1
DA:152,0
DA:153,1
DA:155,1
DA:157,1
DA:158,1
DA:159,1
DA:160,1
DA:161,1
DA:162,1
DA:164,4
DA:165,4
DA:166,4
DA:168,1
DA:169,1
DA:170,1
DA:172,4
DA:173,4
DA:174,4
DA:176,1
DA:177,1
DA:178,1
DA:179,1
DA:181,5
DA:182,5
DA:183,5
DA:184,5
DA:186,5
DA:187,5
DA:188,5
DA:189,5
DA:191,5
DA:192,0
DA:193,5
DA:195,5
DA:196,5
DA:198,5
DA:200,5
DA:201,5
DA:202,5
DA:204,0
DA:205,0
DA:206,0
DA:207,0
DA:208,0
DA:210,5
DA:214,0
DA:215,0
DA:216,0
DA:217,0
DA:218,0
DA:219,0
DA:220,0
DA:221,0
DA:223,0
DA:224,0
DA:225,0
DA:226,0
DA:227,0
DA:228,0
DA:229,0
DA:230,0
DA:231,0
DA:232,0
DA:234,0
DA:235,0
DA:236,0
DA:237,0
DA:238,0
DA:239,0
DA:240,0
DA:241,0
DA:243,0
DA:244,0
DA:245,0
DA:247,0
DA:249,0
DA:250,0
DA:251,0
DA:253,0
DA:254,0
DA:255,0
DA:256,0
DA:257,0
DA:258,0
DA:259,0
DA:260,0
DA:263,0
DA:264,0
DA:265,0
DA:266,0
DA:269,0
DA:270,0
DA:271,0
DA:275,0
DA:276,0
DA:277,0
DA:291,0
DA:292,0
DA:293,0
DA:294,0
DA:295,0
DA:296,0
DA:297,0
DA:298,0
DA:300,0
DA:310,1
DA:311,1
DA:312,1
DA:313,1
DA:314,1
DA:315,1
DA:316,1
DA:319,1
DA:320,1
DA:321,1
DA:322,1
DA:323,1
DA:324,1
DA:325,1
DA:328,1
DA:329,1
DA:330,1
DA:331,1
DA:332,1
DA:333,1
DA:336,1
DA:337,1
DA:338,1
DA:339,1
DA:340,1
DA:343,1
DA:344,1
DA:345,1
DA:346,1
DA:347,1
DA:348,1
DA:351,1
DA:354,1
DA:355,1
DA:356,1
DA:357,1
DA:358,1
DA:361,1
DA:364,1
DA:365,1
DA:366,1
DA:368,1
DA:369,1
DA:370,1
DA:371,1
DA:374,1
DA:375,1
DA:377,1
DA:378,1
DA:380,1
DA:381,1
DA:382,1
DA:383,1
DA:386,1
DA:387,1
DA:388,1
DA:389,1
DA:390,1
DA:393,1
DA:394,1
DA:395,1
DA:397,1
DA:399,1
DA:400,1
DA:402,1
DA:403,1
DA:405,1
DA:406,1
DA:409,1
DA:412,1
DA:413,1
DA:415,1
DA:416,1
DA:418,1
DA:420,1
DA:421,1
DA:424,1
DA:425,1
DA:426,1
DA:428,1
DA:430,1
DA:431,1
DA:433,1
DA:435,1
DA:436,1
DA:438,1
DA:440,1
DA:441,1
BRF:0
BRH:0
LF:280
LH:197
end_of_record
SF:/home/openclaw/dev/yinglichina8848/sqlrustgo/crates/transaction/src/mvcc.rs
FN:15,_RNvMNtCsjfxBuuaWLtE_21sqlrustgo_transaction4mvccNtB2_4TxId3new
FN:27,_RNvMNtCsjfxBuuaWLtE_21sqlrustgo_transaction4mvccNtB2_4TxId6as_u64
FN:19,_RNvMNtCsjfxBuuaWLtE_21sqlrustgo_transaction4mvccNtB2_4TxId7invalid
FN:23,_RNvMNtCsjfxBuuaWLtE_21sqlrustgo_transaction4mvccNtB2_4TxId8is_valid
FN:86,_RNvMs1_NtCsjfxBuuaWLtE_21sqlrustgo_transaction4mvccNtB5_11Transaction10is_aborted
FN:82,_RNvMs1_NtCsjfxBuuaWLtE_21sqlrustgo_transaction4mvccNtB5_11Transaction12is_committed
FN:60,_RNvMs1_NtCsjfxBuuaWLtE_21sqlrustgo_transaction4mvccNtB5_11Transaction3new
FN:74,_RNvMs1_NtCsjfxBuuaWLtE_21sqlrustgo_transaction4mvccNtB5_11Transaction5abort
FN:69,_RNvMs1_NtCsjfxBuuaWLtE_21sqlrustgo_transaction4mvccNtB5_11Transaction6commit
FN:78,_RNvMs1_NtCsjfxBuuaWLtE_21sqlrustgo_transaction4mvccNtB5_11Transaction9is_active
FN:115,_RNvMs2_NtCsjfxBuuaWLtE_21sqlrustgo_transaction4mvccNtB5_8Snapshot10is_visible
FN:107,_RNvMs2_NtCsjfxBuuaWLtE_21sqlrustgo_transaction4mvccNtB5_8Snapshot18new_read_committed
FN:132,_RNvMs2_NtCsjfxBuuaWLtE_21sqlrustgo_transaction4mvccNtB5_8Snapshot25is_visible_read_committed
FN:148,_RNvMs2_NtCsjfxBuuaWLtE_21sqlrustgo_transaction4mvccNtB5_8Snapshot26refresh_for_read_committed
FN:99,_RNvMs2_NtCsjfxBuuaWLtE_21sqlrustgo_transaction4mvccNtB5_8Snapshot3new
FN:199,_RNvMs3_NtCsjfxBuuaWLtE_21sqlrustgo_transaction4mvccNtB5_10RowVersion10is_visible
FN:180,_RNvMs3_NtCsjfxBuuaWLtE_21sqlrustgo_transaction4mvccNtB5_10RowVersion11new_deleted
FN:194,_RNvMs3_NtCsjfxBuuaWLtE_21sqlrustgo_transaction4mvccNtB5_10RowVersion12mark_deleted
FN:170,_RNvMs3_NtCsjfxBuuaWLtE_21sqlrustgo_transaction4mvccNtB5_10RowVersion3new
FN:190,_RNvMs3_NtCsjfxBuuaWLtE_21sqlrustgo_transaction4mvccNtB5_10RowVersion6commit
FN:277,_RNvMs4_NtCsjfxBuuaWLtE_21sqlrustgo_transaction4mvccNtB5_10MvccEngine15create_snapshot
FN:273,_RNvMs4_NtCsjfxBuuaWLtE_21sqlrustgo_transaction4mvccNtB5_10MvccEngine15get_transaction
FN:264,_RNvMs4_NtCsjfxBuuaWLtE_21sqlrustgo_transaction4mvccNtB5_10MvccEngine17abort_transaction
FN:240,_RNvMs4_NtCsjfxBuuaWLtE_21sqlrustgo_transaction4mvccNtB5_10MvccEngine17begin_transaction
FN:253,_RNvMs4_NtCsjfxBuuaWLtE_21sqlrustgo_transaction4mvccNtB5_10MvccEngine18commit_transaction
FN:288,_RNvMs4_NtCsjfxBuuaWLtE_21sqlrustgo_transaction4mvccNtB5_10MvccEngine20get_global_timestamp
FN:232,_RNvMs4_NtCsjfxBuuaWLtE_21sqlrustgo_transaction4mvccNtB5_10MvccEngine3new
FN:39,_RNvXs0_NtCsjfxBuuaWLtE_21sqlrustgo_transaction4mvccNtB5_4TxIdNtNtCs8nPosuWgJFh_4core3fmt7Display3fmt
FN:294,_RNvXs5_NtCsjfxBuuaWLtE_21sqlrustgo_transaction4mvccNtB5_10MvccEngineNtNtCs8nPosuWgJFh_4core7default7Default7default
FN:33,_RNvXs_NtCsjfxBuuaWLtE_21sqlrustgo_transaction4mvccNtB4_4TxIdNtNtCs8nPosuWgJFh_4core7default7Default7default
FN:281,_RNCNvMs4_NtCsjfxBuuaWLtE_21sqlrustgo_transaction4mvccNtB7_10MvccEngine15create_snapshot0B9_
FN:281,_RNCNvMs4_NtCs4BfdzTzvOqG_21sqlrustgo_transaction4mvccNtB7_10MvccEngine15create_snapshot0B9_
FN:15,_RNvMNtCs4BfdzTzvOqG_21sqlrustgo_transaction4mvccNtB2_4TxId3new
FN:27,_RNvMNtCs4BfdzTzvOqG_21sqlrustgo_transaction4mvccNtB2_4TxId6as_u64
FN:19,_RNvMNtCs4BfdzTzvOqG_21sqlrustgo_transaction4mvccNtB2_4TxId7invalid
FN:23,_RNvMNtCs4BfdzTzvOqG_21sqlrustgo_transaction4mvccNtB2_4TxId8is_valid
FN:86,_RNvMs1_NtCs4BfdzTzvOqG_21sqlrustgo_transaction4mvccNtB5_11Transaction10is_aborted
FN:82,_RNvMs1_NtCs4BfdzTzvOqG_21sqlrustgo_transaction4mvccNtB5_11Transaction12is_committed
FN:60,_RNvMs1_NtCs4BfdzTzvOqG_21sqlrustgo_transaction4mvccNtB5_11Transaction3new
FN:74,_RNvMs1_NtCs4BfdzTzvOqG_21sqlrustgo_transaction4mvccNtB5_11Transaction5abort
FN:69,_RNvMs1_NtCs4BfdzTzvOqG_21sqlrustgo_transaction4mvccNtB5_11Transaction6commit
FN:78,_RNvMs1_NtCs4BfdzTzvOqG_21sqlrustgo_transaction4mvccNtB5_11Transaction9is_active
FN:115,_RNvMs2_NtCs4BfdzTzvOqG_21sqlrustgo_transaction4mvccNtB5_8Snapshot10is_visible
FN:107,_RNvMs2_NtCs4BfdzTzvOqG_21sqlrustgo_transaction4mvccNtB5_8Snapshot18new_read_committed
FN:132,_RNvMs2_NtCs4BfdzTzvOqG_21sqlrustgo_transaction4mvccNtB5_8Snapshot25is_visible_read_committed
FN:148,_RNvMs2_NtCs4BfdzTzvOqG_21sqlrustgo_transaction4mvccNtB5_8Snapshot26refresh_for_read_committed
FN:99,_RNvMs2_NtCs4BfdzTzvOqG_21sqlrustgo_transaction4mvccNtB5_8Snapshot3new
FN:199,_RNvMs3_NtCs4BfdzTzvOqG_21sqlrustgo_transaction4mvccNtB5_10RowVersion10is_visible
FN:180,_RNvMs3_NtCs4BfdzTzvOqG_21sqlrustgo_transaction4mvccNtB5_10RowVersion11new_deleted
FN:194,_RNvMs3_NtCs4BfdzTzvOqG_21sqlrustgo_transaction4mvccNtB5_10RowVersion12mark_deleted
FN:170,_RNvMs3_NtCs4BfdzTzvOqG_21sqlrustgo_transaction4mvccNtB5_10RowVersion3new
FN:190,_RNvMs3_NtCs4BfdzTzvOqG_21sqlrustgo_transaction4mvccNtB5_10RowVersion6commit
FN:277,_RNvMs4_NtCs4BfdzTzvOqG_21sqlrustgo_transaction4mvccNtB5_10MvccEngine15create_snapshot
FN:273,_RNvMs4_NtCs4BfdzTzvOqG_21sqlrustgo_transaction4mvccNtB5_10MvccEngine15get_transaction
FN:264,_RNvMs4_NtCs4BfdzTzvOqG_21sqlrustgo_transaction4mvccNtB5_10MvccEngine17abort_transaction
FN:240,_RNvMs4_NtCs4BfdzTzvOqG_21sqlrustgo_transaction4mvccNtB5_10MvccEngine17begin_transaction
FN:253,_RNvMs4_NtCs4BfdzTzvOqG_21sqlrustgo_transaction4mvccNtB5_10MvccEngine18commit_transaction
FN:288,_RNvMs4_NtCs4BfdzTzvOqG_21sqlrustgo_transaction4mvccNtB5_10MvccEngine20get_global_timestamp
FN:232,_RNvMs4_NtCs4BfdzTzvOqG_21sqlrustgo_transaction4mvccNtB5_10MvccEngine3new
FN:39,_RNvXs0_NtCs4BfdzTzvOqG_21sqlrustgo_transaction4mvccNtB5_4TxIdNtNtCs8nPosuWgJFh_4core3fmt7Display3fmt
FN:294,_RNvXs5_NtCs4BfdzTzvOqG_21sqlrustgo_transaction4mvccNtB5_10MvccEngineNtNtCs8nPosuWgJFh_4core7default7Default7default
FN:33,_RNvXs_NtCs4BfdzTzvOqG_21sqlrustgo_transaction4mvccNtB4_4TxIdNtNtCs8nPosuWgJFh_4core7default7Default7default
FN:27,_RNvMNtCs7yHBkdcMBoj_21sqlrustgo_transaction4mvccNtB2_4TxId6as_u64
FN:19,_RNvMNtCs7yHBkdcMBoj_21sqlrustgo_transaction4mvccNtB2_4TxId7invalid
FN:107,_RNvMs2_NtCs7yHBkdcMBoj_21sqlrustgo_transaction4mvccNtB5_8Snapshot18new_read_committed
FN:39,_RNvXs0_NtCs7yHBkdcMBoj_21sqlrustgo_transaction4mvccNtB5_4TxIdNtNtCs8nPosuWgJFh_4core3fmt7Display3fmt
FN:294,_RNvXs5_NtCs7yHBkdcMBoj_21sqlrustgo_transaction4mvccNtB5_10MvccEngineNtNtCs8nPosuWgJFh_4core7default7Default7default
FN:33,_RNvXs_NtCs7yHBkdcMBoj_21sqlrustgo_transaction4mvccNtB4_4TxIdNtNtCs8nPosuWgJFh_4core7default7Default7default
FN:320,_RNvNtNtCs7yHBkdcMBoj_21sqlrustgo_transaction4mvcc5testss_22test_transaction_abort
FN:344,_RNvNtNtCs7yHBkdcMBoj_21sqlrustgo_transaction4mvcc5testss_23test_row_version_commit
FN:331,_RNvNtNtCs7yHBkdcMBoj_21sqlrustgo_transaction4mvcc5testss_24test_snapshot_visibility
FN:304,_RNvNtNtCs7yHBkdcMBoj_21sqlrustgo_transaction4mvcc5testss_26test_transaction_lifecycle
FN:353,_RNvNtNtCs7yHBkdcMBoj_21sqlrustgo_transaction4mvcc5testss_43test_row_version_is_visible_own_uncommitted
FN:360,_RNvNtNtCs7yHBkdcMBoj_21sqlrustgo_transaction4mvcc5testss_45test_row_version_is_visible_other_uncommitted
FN:383,_RNvNtNtCs7yHBkdcMBoj_21sqlrustgo_transaction4mvcc5testss_50test_row_version_is_visible_deleted_after_snapshot
FN:392,_RNvNtNtCs7yHBkdcMBoj_21sqlrustgo_transaction4mvcc5testss_51test_row_version_is_visible_deleted_before_snapshot
FN:375,_RNvNtNtCs7yHBkdcMBoj_21sqlrustgo_transaction4mvcc5testss_52test_row_version_is_visible_committed_after_snapshot
FN:367,_RNvNtNtCs7yHBkdcMBoj_21sqlrustgo_transaction4mvcc5testss_53test_row_version_is_visible_committed_before_snapshot
FN:15,_RNvMNtCs7yHBkdcMBoj_21sqlrustgo_transaction4mvccNtB2_4TxId3new
FN:23,_RNvMNtCs7yHBkdcMBoj_21sqlrustgo_transaction4mvccNtB2_4TxId8is_valid
FN:86,_RNvMs1_NtCs7yHBkdcMBoj_21sqlrustgo_transaction4mvccNtB5_11Transaction10is_aborted
FN:82,_RNvMs1_NtCs7yHBkdcMBoj_21sqlrustgo_transaction4mvccNtB5_11Transaction12is_committed
FN:60,_RNvMs1_NtCs7yHBkdcMBoj_21sqlrustgo_transaction4mvccNtB5_11Transaction3new
FN:74,_RNvMs1_NtCs7yHBkdcMBoj_21sqlrustgo_transaction4mvccNtB5_11Transaction5abort
FN:69,_RNvMs1_NtCs7yHBkdcMBoj_21sqlrustgo_transaction4mvccNtB5_11Transaction6commit
FN:78,_RNvMs1_NtCs7yHBkdcMBoj_21sqlrustgo_transaction4mvccNtB5_11Transaction9is_active
FN:115,_RNvMs2_NtCs7yHBkdcMBoj_21sqlrustgo_transaction4mvccNtB5_8Snapshot10is_visible
FN:132,_RNvMs2_NtCs7yHBkdcMBoj_21sqlrustgo_transaction4mvccNtB5_8Snapshot25is_visible_read_committed
FN:148,_RNvMs2_NtCs7yHBkdcMBoj_21sqlrustgo_transaction4mvccNtB5_8Snapshot26refresh_for_read_committed
FN:99,_RNvMs2_NtCs7yHBkdcMBoj_21sqlrustgo_transaction4mvccNtB5_8Snapshot3new
FN:199,_RNvMs3_NtCs7yHBkdcMBoj_21sqlrustgo_transaction4mvccNtB5_10RowVersion10is_visible
FN:180,_RNvMs3_NtCs7yHBkdcMBoj_21sqlrustgo_transaction4mvccNtB5_10RowVersion11new_deleted
FN:194,_RNvMs3_NtCs7yHBkdcMBoj_21sqlrustgo_transaction4mvccNtB5_10RowVersion12mark_deleted
FN:170,_RNvMs3_NtCs7yHBkdcMBoj_21sqlrustgo_transaction4mvccNtB5_10RowVersion3new
FN:190,_RNvMs3_NtCs7yHBkdcMBoj_21sqlrustgo_transaction4mvccNtB5_10RowVersion6commit
FN:277,_RNvMs4_NtCs7yHBkdcMBoj_21sqlrustgo_transaction4mvccNtB5_10MvccEngine15create_snapshot
FN:273,_RNvMs4_NtCs7yHBkdcMBoj_21sqlrustgo_transaction4mvccNtB5_10MvccEngine15get_transaction
FN:264,_RNvMs4_NtCs7yHBkdcMBoj_21sqlrustgo_transaction4mvccNtB5_10MvccEngine17abort_transaction
FN:240,_RNvMs4_NtCs7yHBkdcMBoj_21sqlrustgo_transaction4mvccNtB5_10MvccEngine17begin_transaction
FN:253,_RNvMs4_NtCs7yHBkdcMBoj_21sqlrustgo_transaction4mvccNtB5_10MvccEngine18commit_transaction
FN:288,_RNvMs4_NtCs7yHBkdcMBoj_21sqlrustgo_transaction4mvccNtB5_10MvccEngine20get_global_timestamp
FN:232,_RNvMs4_NtCs7yHBkdcMBoj_21sqlrustgo_transaction4mvccNtB5_10MvccEngine3new
FN:281,_RNCNvMs4_NtCs7yHBkdcMBoj_21sqlrustgo_transaction4mvccNtB7_10MvccEngine15create_snapshot0B9_
FNDA:0,_RNvMNtCsjfxBuuaWLtE_21sqlrustgo_transaction4mvccNtB2_4TxId3new
FNDA:0,_RNvMNtCsjfxBuuaWLtE_21sqlrustgo_transaction4mvccNtB2_4TxId6as_u64
FNDA:0,_RNvMNtCsjfxBuuaWLtE_21sqlrustgo_transaction4mvccNtB2_4TxId7invalid
FNDA:0,_RNvMNtCsjfxBuuaWLtE_21sqlrustgo_transaction4mvccNtB2_4TxId8is_valid
FNDA:0,_RNvMs1_NtCsjfxBuuaWLtE_21sqlrustgo_transaction4mvccNtB5_11Transaction10is_aborted
FNDA:0,_RNvMs1_NtCsjfxBuuaWLtE_21sqlrustgo_transaction4mvccNtB5_11Transaction12is_committed
FNDA:0,_RNvMs1_NtCsjfxBuuaWLtE_21sqlrustgo_transaction4mvccNtB5_11Transaction3new
FNDA:0,_RNvMs1_NtCsjfxBuuaWLtE_21sqlrustgo_transaction4mvccNtB5_11Transaction5abort
FNDA:0,_RNvMs1_NtCsjfxBuuaWLtE_21sqlrustgo_transaction4mvccNtB5_11Transaction6commit
FNDA:0,_RNvMs1_NtCsjfxBuuaWLtE_21sqlrustgo_transaction4mvccNtB5_11Transaction9is_active
FNDA:0,_RNvMs2_NtCsjfxBuuaWLtE_21sqlrustgo_transaction4mvccNtB5_8Snapshot10is_visible
FNDA:0,_RNvMs2_NtCsjfxBuuaWLtE_21sqlrustgo_transaction4mvccNtB5_8Snapshot18new_read_committed
FNDA:0,_RNvMs2_NtCsjfxBuuaWLtE_21sqlrustgo_transaction4mvccNtB5_8Snapshot25is_visible_read_committed
FNDA:0,_RNvMs2_NtCsjfxBuuaWLtE_21sqlrustgo_transaction4mvccNtB5_8Snapshot26refresh_for_read_committed
FNDA:0,_RNvMs2_NtCsjfxBuuaWLtE_21sqlrustgo_transaction4mvccNtB5_8Snapshot3new
FNDA:0,_RNvMs3_NtCsjfxBuuaWLtE_21sqlrustgo_transaction4mvccNtB5_10RowVersion10is_visible
FNDA:0,_RNvMs3_NtCsjfxBuuaWLtE_21sqlrustgo_transaction4mvccNtB5_10RowVersion11new_deleted
FNDA:0,_RNvMs3_NtCsjfxBuuaWLtE_21sqlrustgo_transaction4mvccNtB5_10RowVersion12mark_deleted
FNDA:0,_RNvMs3_NtCsjfxBuuaWLtE_21sqlrustgo_transaction4mvccNtB5_10RowVersion3new
FNDA:0,_RNvMs3_NtCsjfxBuuaWLtE_21sqlrustgo_transaction4mvccNtB5_10RowVersion6commit
FNDA:0,_RNvMs4_NtCsjfxBuuaWLtE_21sqlrustgo_transaction4mvccNtB5_10MvccEngine15create_snapshot
FNDA:0,_RNvMs4_NtCsjfxBuuaWLtE_21sqlrustgo_transaction4mvccNtB5_10MvccEngine15get_transaction
FNDA:0,_RNvMs4_NtCsjfxBuuaWLtE_21sqlrustgo_transaction4mvccNtB5_10MvccEngine17abort_transaction
FNDA:0,_RNvMs4_NtCsjfxBuuaWLtE_21sqlrustgo_transaction4mvccNtB5_10MvccEngine17begin_transaction
FNDA:0,_RNvMs4_NtCsjfxBuuaWLtE_21sqlrustgo_transaction4mvccNtB5_10MvccEngine18commit_transaction
FNDA:0,_RNvMs4_NtCsjfxBuuaWLtE_21sqlrustgo_transaction4mvccNtB5_10MvccEngine20get_global_timestamp
FNDA:0,_RNvMs4_NtCsjfxBuuaWLtE_21sqlrustgo_transaction4mvccNtB5_10MvccEngine3new
FNDA:0,_RNvXs0_NtCsjfxBuuaWLtE_21sqlrustgo_transaction4mvccNtB5_4TxIdNtNtCs8nPosuWgJFh_4core3fmt7Display3fmt
FNDA:0,_RNvXs5_NtCsjfxBuuaWLtE_21sqlrustgo_transaction4mvccNtB5_10MvccEngineNtNtCs8nPosuWgJFh_4core7default7Default7default
FNDA:0,_RNvXs_NtCsjfxBuuaWLtE_21sqlrustgo_transaction4mvccNtB4_4TxIdNtNtCs8nPosuWgJFh_4core7default7Default7default
FNDA:0,_RNCNvMs4_NtCsjfxBuuaWLtE_21sqlrustgo_transaction4mvccNtB7_10MvccEngine15create_snapshot0B9_
FNDA:0,_RNCNvMs4_NtCs4BfdzTzvOqG_21sqlrustgo_transaction4mvccNtB7_10MvccEngine15create_snapshot0B9_
FNDA:0,_RNvMNtCs4BfdzTzvOqG_21sqlrustgo_transaction4mvccNtB2_4TxId3new
FNDA:0,_RNvMNtCs4BfdzTzvOqG_21sqlrustgo_transaction4mvccNtB2_4TxId6as_u64
FNDA:0,_RNvMNtCs4BfdzTzvOqG_21sqlrustgo_transaction4mvccNtB2_4TxId7invalid
FNDA:0,_RNvMNtCs4BfdzTzvOqG_21sqlrustgo_transaction4mvccNtB2_4TxId8is_valid
FNDA:0,_RNvMs1_NtCs4BfdzTzvOqG_21sqlrustgo_transaction4mvccNtB5_11Transaction10is_aborted
FNDA:0,_RNvMs1_NtCs4BfdzTzvOqG_21sqlrustgo_transaction4mvccNtB5_11Transaction12is_committed
FNDA:0,_RNvMs1_NtCs4BfdzTzvOqG_21sqlrustgo_transaction4mvccNtB5_11Transaction3new
FNDA:0,_RNvMs1_NtCs4BfdzTzvOqG_21sqlrustgo_transaction4mvccNtB5_11Transaction5abort
FNDA:0,_RNvMs1_NtCs4BfdzTzvOqG_21sqlrustgo_transaction4mvccNtB5_11Transaction6commit
FNDA:0,_RNvMs1_NtCs4BfdzTzvOqG_21sqlrustgo_transaction4mvccNtB5_11Transaction9is_active
FNDA:0,_RNvMs2_NtCs4BfdzTzvOqG_21sqlrustgo_transaction4mvccNtB5_8Snapshot10is_visible
FNDA:0,_RNvMs2_NtCs4BfdzTzvOqG_21sqlrustgo_transaction4mvccNtB5_8Snapshot18new_read_committed
FNDA:0,_RNvMs2_NtCs4BfdzTzvOqG_21sqlrustgo_transaction4mvccNtB5_8Snapshot25is_visible_read_committed
FNDA:0,_RNvMs2_NtCs4BfdzTzvOqG_21sqlrustgo_transaction4mvccNtB5_8Snapshot26refresh_for_read_committed
FNDA:0,_RNvMs2_NtCs4BfdzTzvOqG_21sqlrustgo_transaction4mvccNtB5_8Snapshot3new
FNDA:0,_RNvMs3_NtCs4BfdzTzvOqG_21sqlrustgo_transaction4mvccNtB5_10RowVersion10is_visible
FNDA:0,_RNvMs3_NtCs4BfdzTzvOqG_21sqlrustgo_transaction4mvccNtB5_10RowVersion11new_deleted
FNDA:0,_RNvMs3_NtCs4BfdzTzvOqG_21sqlrustgo_transaction4mvccNtB5_10RowVersion12mark_deleted
FNDA:0,_RNvMs3_NtCs4BfdzTzvOqG_21sqlrustgo_transaction4mvccNtB5_10RowVersion3new
FNDA:0,_RNvMs3_NtCs4BfdzTzvOqG_21sqlrustgo_transaction4mvccNtB5_10RowVersion6commit
FNDA:0,_RNvMs4_NtCs4BfdzTzvOqG_21sqlrustgo_transaction4mvccNtB5_10MvccEngine15create_snapshot
FNDA:0,_RNvMs4_NtCs4BfdzTzvOqG_21sqlrustgo_transaction4mvccNtB5_10MvccEngine15get_transaction
FNDA:0,_RNvMs4_NtCs4BfdzTzvOqG_21sqlrustgo_transaction4mvccNtB5_10MvccEngine17abort_transaction
FNDA:0,_RNvMs4_NtCs4BfdzTzvOqG_21sqlrustgo_transaction4mvccNtB5_10MvccEngine17begin_transaction
FNDA:0,_RNvMs4_NtCs4BfdzTzvOqG_21sqlrustgo_transaction4mvccNtB5_10MvccEngine18commit_transaction
FNDA:0,_RNvMs4_NtCs4BfdzTzvOqG_21sqlrustgo_transaction4mvccNtB5_10MvccEngine20get_global_timestamp
FNDA:0,_RNvMs4_NtCs4BfdzTzvOqG_21sqlrustgo_transaction4mvccNtB5_10MvccEngine3new
FNDA:0,_RNvXs0_NtCs4BfdzTzvOqG_21sqlrustgo_transaction4mvccNtB5_4TxIdNtNtCs8nPosuWgJFh_4core3fmt7Display3fmt
FNDA:0,_RNvXs5_NtCs4BfdzTzvOqG_21sqlrustgo_transaction4mvccNtB5_10MvccEngineNtNtCs8nPosuWgJFh_4core7default7Default7default
FNDA:0,_RNvXs_NtCs4BfdzTzvOqG_21sqlrustgo_transaction4mvccNtB4_4TxIdNtNtCs8nPosuWgJFh_4core7default7Default7default
FNDA:0,_RNvMNtCs7yHBkdcMBoj_21sqlrustgo_transaction4mvccNtB2_4TxId6as_u64
FNDA:0,_RNvMNtCs7yHBkdcMBoj_21sqlrustgo_transaction4mvccNtB2_4TxId7invalid
FNDA:0,_RNvMs2_NtCs7yHBkdcMBoj_21sqlrustgo_transaction4mvccNtB5_8Snapshot18new_read_committed
FNDA:0,_RNvXs0_NtCs7yHBkdcMBoj_21sqlrustgo_transaction4mvccNtB5_4TxIdNtNtCs8nPosuWgJFh_4core3fmt7Display3fmt
FNDA:0,_RNvXs5_NtCs7yHBkdcMBoj_21sqlrustgo_transaction4mvccNtB5_10MvccEngineNtNtCs8nPosuWgJFh_4core7default7Default7default
FNDA:0,_RNvXs_NtCs7yHBkdcMBoj_21sqlrustgo_transaction4mvccNtB4_4TxIdNtNtCs8nPosuWgJFh_4core7default7Default7default
FNDA:1,_RNvNtNtCs7yHBkdcMBoj_21sqlrustgo_transaction4mvcc5testss_22test_transaction_abort
FNDA:1,_RNvNtNtCs7yHBkdcMBoj_21sqlrustgo_transaction4mvcc5testss_23test_row_version_commit
FNDA:1,_RNvNtNtCs7yHBkdcMBoj_21sqlrustgo_transaction4mvcc5testss_24test_snapshot_visibility
FNDA:1,_RNvNtNtCs7yHBkdcMBoj_21sqlrustgo_transaction4mvcc5testss_26test_transaction_lifecycle
FNDA:1,_RNvNtNtCs7yHBkdcMBoj_21sqlrustgo_transaction4mvcc5testss_43test_row_version_is_visible_own_uncommitted
FNDA:1,_RNvNtNtCs7yHBkdcMBoj_21sqlrustgo_transaction4mvcc5testss_45test_row_version_is_visible_other_uncommitted
FNDA:1,_RNvNtNtCs7yHBkdcMBoj_21sqlrustgo_transaction4mvcc5testss_50test_row_version_is_visible_deleted_after_snapshot
FNDA:1,_RNvNtNtCs7yHBkdcMBoj_21sqlrustgo_transaction4mvcc5testss_51test_row_version_is_visible_deleted_before_snapshot
FNDA:1,_RNvNtNtCs7yHBkdcMBoj_21sqlrustgo_transaction4mvcc5testss_52test_row_version_is_visible_committed_after_snapshot
FNDA:1,_RNvNtNtCs7yHBkdcMBoj_21sqlrustgo_transaction4mvcc5testss_53test_row_version_is_visible_committed_before_snapshot
FNDA:203,_RNvMNtCs7yHBkdcMBoj_21sqlrustgo_transaction4mvccNtB2_4TxId3new
FNDA:2,_RNvMNtCs7yHBkdcMBoj_21sqlrustgo_transaction4mvccNtB2_4TxId8is_valid
FNDA:1,_RNvMs1_NtCs7yHBkdcMBoj_21sqlrustgo_transaction4mvccNtB5_11Transaction10is_aborted
FNDA:1,_RNvMs1_NtCs7yHBkdcMBoj_21sqlrustgo_transaction4mvccNtB5_11Transaction12is_committed
FNDA:15,_RNvMs1_NtCs7yHBkdcMBoj_21sqlrustgo_transaction4mvccNtB5_11Transaction3new
FNDA:3,_RNvMs1_NtCs7yHBkdcMBoj_21sqlrustgo_transaction4mvccNtB5_11Transaction5abort
FNDA:7,_RNvMs1_NtCs7yHBkdcMBoj_21sqlrustgo_transaction4mvccNtB5_11Transaction6commit
FNDA:15,_RNvMs1_NtCs7yHBkdcMBoj_21sqlrustgo_transaction4mvccNtB5_11Transaction9is_active
FNDA:1,_RNvMs2_NtCs7yHBkdcMBoj_21sqlrustgo_transaction4mvccNtB5_8Snapshot10is_visible
FNDA:2,_RNvMs2_NtCs7yHBkdcMBoj_21sqlrustgo_transaction4mvccNtB5_8Snapshot25is_visible_read_committed
FNDA:5,_RNvMs2_NtCs7yHBkdcMBoj_21sqlrustgo_transaction4mvccNtB5_8Snapshot26refresh_for_read_committed
FNDA:27,_RNvMs2_NtCs7yHBkdcMBoj_21sqlrustgo_transaction4mvccNtB5_8Snapshot3new
FNDA:24,_RNvMs3_NtCs7yHBkdcMBoj_21sqlrustgo_transaction4mvccNtB5_10RowVersion10is_visible
FNDA:6,_RNvMs3_NtCs7yHBkdcMBoj_21sqlrustgo_transaction4mvccNtB5_10RowVersion11new_deleted
FNDA:2,_RNvMs3_NtCs7yHBkdcMBoj_21sqlrustgo_transaction4mvccNtB5_10RowVersion12mark_deleted
FNDA:24,_RNvMs3_NtCs7yHBkdcMBoj_21sqlrustgo_transaction4mvccNtB5_10RowVersion3new
FNDA:5,_RNvMs3_NtCs7yHBkdcMBoj_21sqlrustgo_transaction4mvccNtB5_10RowVersion6commit
FNDA:7,_RNvMs4_NtCs7yHBkdcMBoj_21sqlrustgo_transaction4mvccNtB5_10MvccEngine15create_snapshot
FNDA:9,_RNvMs4_NtCs7yHBkdcMBoj_21sqlrustgo_transaction4mvccNtB5_10MvccEngine15get_transaction
FNDA:3,_RNvMs4_NtCs7yHBkdcMBoj_21sqlrustgo_transaction4mvccNtB5_10MvccEngine17abort_transaction
FNDA:15,_RNvMs4_NtCs7yHBkdcMBoj_21sqlrustgo_transaction4mvccNtB5_10MvccEngine17begin_transaction
FNDA:7,_RNvMs4_NtCs7yHBkdcMBoj_21sqlrustgo_transaction4mvccNtB5_10MvccEngine18commit_transaction
FNDA:6,_RNvMs4_NtCs7yHBkdcMBoj_21sqlrustgo_transaction4mvccNtB5_10MvccEngine20get_global_timestamp
FNDA:15,_RNvMs4_NtCs7yHBkdcMBoj_21sqlrustgo_transaction4mvccNtB5_10MvccEngine3new
FNDA:8,_RNCNvMs4_NtCs7yHBkdcMBoj_21sqlrustgo_transaction4mvccNtB7_10MvccEngine15create_snapshot0B9_
FNF:41
FNH:35
DA:15,203
DA:16,203
DA:17,203
DA:19,0
DA:20,0
DA:21,0
DA:23,2
DA:24,2
DA:25,2
DA:27,0
DA:28,0
DA:29,0
DA:33,0
DA:34,0
DA:35,0
DA:39,0
DA:40,0
DA:41,0
DA:60,15
DA:61,15
DA:62,15
DA:63,15
DA:64,15
DA:65,15
DA:66,15
DA:67,15
DA:69,7
DA:70,7
DA:71,7
DA:72,7
DA:74,3
DA:75,3
DA:76,3
DA:78,15
DA:79,15
DA:80,15
DA:82,1
DA:83,1
DA:84,1
DA:86,1
DA:87,1
DA:88,1
DA:99,27
DA:100,27
DA:101,27
DA:102,27
DA:103,27
DA:104,27
DA:105,27
DA:107,0
DA:108,0
DA:109,0
DA:110,0
DA:111,0
DA:112,0
DA:113,0
DA:115,1
DA:116,1
DA:117,0
DA:118,1
DA:120,1
DA:121,1
DA:122,0
DA:123,1
DA:126,1
DA:127,1
DA:128,0
DA:130,1
DA:132,2
DA:133,2
DA:134,2
DA:135,2
DA:136,2
DA:137,2
DA:138,2
DA:139,1
DA:140,1
DA:142,1
DA:143,0
DA:144,1
DA:146,2
DA:148,5
DA:149,5
DA:150,5
DA:151,5
DA:170,24
DA:171,24
DA:172,24
DA:173,24
DA:174,24
DA:175,24
DA:176,24
DA:177,24
DA:178,24
DA:180,6
DA:181,6
DA:182,6
DA:183,6
DA:184,6
DA:185,6
DA:186,6
DA:187,6
DA:188,6
DA:190,5
DA:191,5
DA:192,5
DA:194,2
DA:195,2
DA:196,2
DA:197,2
DA:199,24
DA:200,24
DA:201,2
DA:202,22
DA:203,22
DA:204,19
DA:205,3
DA:207,19
DA:208,5
DA:209,14
DA:214,14
DA:215,12
DA:216,2
DA:217,1
DA:218,1
DA:219,10
DA:220,2
DA:221,13
DA:222,24
DA:232,15
DA:233,15
DA:234,15
DA:235,15
DA:236,15
DA:237,15
DA:238,15
DA:240,15
DA:241,15
DA:242,15
DA:244,15
DA:245,15
DA:247,15
DA:248,15
DA:250,15
DA:251,15
DA:253,7
DA:254,7
DA:255,7
DA:256,7
DA:257,7
DA:258,7
DA:260,0
DA:262,7
DA:264,3
DA:265,3
DA:266,3
DA:267,3
DA:269,0
DA:271,3
DA:273,9
DA:274,9
DA:275,9
DA:277,7
DA:278,7
DA:279,7
DA:280,7
DA:281,8
DA:282,7
DA:283,7
DA:285,7
DA:286,7
DA:288,6
DA:289,6
DA:290,6
DA:294,0
DA:295,0
DA:296,0
DA:304,1
DA:305,1
DA:307,1
DA:308,1
DA:310,1
DA:311,1
DA:313,1
DA:314,1
DA:315,1
DA:316,1
DA:317,1
DA:320,1
DA:321,1
DA:323,1
DA:324,1
DA:326,1
DA:327,1
DA:328,1
DA:331,1
DA:332,1
DA:334,1
DA:335,1
DA:337,1
DA:338,1
DA:340,1
DA:341,1
DA:344,1
DA:345,1
DA:346,1
DA:348,1
DA:349,1
DA:350,1
DA:353,1
DA:354,1
DA:355,1
DA:356,1
DA:357,1
DA:360,1
DA:361,1
DA:362,1
DA:363,1
DA:364,1
DA:367,1
DA:368,1
DA:369,1
DA:370,1
DA:371,1
DA:372,1
DA:375,1
DA:376,1
DA:377,1
DA:378,1
DA:379,1
DA:380,1
DA:383,1
DA:384,1
DA:385,1
DA:386,1
DA:387,1
DA:388,1
DA:389,1
DA:392,1
DA:393,1
DA:394,1
DA:395,1
DA:396,1
DA:397,1
DA:398,1
BRF:0
BRH:0
LF:246
LH:218
end_of_record
SF:/home/openclaw/dev/yinglichina8848/sqlrustgo/crates/transaction/src/mvcc_storage.rs
FN:29,_RNvMs_NtCs7yHBkdcMBoj_21sqlrustgo_transaction12mvcc_storageNtB4_17MVCCStorageEngine3new
FN:42,_RNvXs0_NtCs7yHBkdcMBoj_21sqlrustgo_transaction12mvcc_storageNtB5_17MVCCStorageEngineNtB5_11MVCCStorage13write_version
FN:47,_RNvXs0_NtCs7yHBkdcMBoj_21sqlrustgo_transaction12mvcc_storageNtB5_17MVCCStorageEngineNtB5_11MVCCStorage14delete_version
FN:52,_RNvXs0_NtCs7yHBkdcMBoj_21sqlrustgo_transaction12mvcc_storageNtB5_17MVCCStorageEngineNtB5_11MVCCStorage15commit_versions
FN:58,_RNvXs0_NtCs7yHBkdcMBoj_21sqlrustgo_transaction12mvcc_storageNtB5_17MVCCStorageEngineNtB5_11MVCCStorage17rollback_versions
FN:37,_RNvXs0_NtCs7yHBkdcMBoj_21sqlrustgo_transaction12mvcc_storageNtB5_17MVCCStorageEngineNtB5_11MVCCStorage4read
FN:23,_RNvXNtCs7yHBkdcMBoj_21sqlrustgo_transaction12mvcc_storageNtB2_17MVCCStorageEngineNtNtCs8nPosuWgJFh_4core7default7Default7default
FN:101,_RNvNtNtCs7yHBkdcMBoj_21sqlrustgo_transaction12mvcc_storage5testss_24test_mvcc_storage_delete
FN:118,_RNvNtNtCs7yHBkdcMBoj_21sqlrustgo_transaction12mvcc_storage5testss_26test_mvcc_storage_rollback
FN:70,_RNvNtNtCs7yHBkdcMBoj_21sqlrustgo_transaction12mvcc_storage5testss_28test_mvcc_storage_read_write
FN:84,_RNvNtNtCs7yHBkdcMBoj_21sqlrustgo_transaction12mvcc_storage5testss_36test_mvcc_storage_snapshot_isolation
FNDA:4,_RNvMs_NtCs7yHBkdcMBoj_21sqlrustgo_transaction12mvcc_storageNtB4_17MVCCStorageEngine3new
FNDA:6,_RNvXs0_NtCs7yHBkdcMBoj_21sqlrustgo_transaction12mvcc_storageNtB5_17MVCCStorageEngineNtB5_11MVCCStorage13write_version
FNDA:1,_RNvXs0_NtCs7yHBkdcMBoj_21sqlrustgo_transaction12mvcc_storageNtB5_17MVCCStorageEngineNtB5_11MVCCStorage14delete_version
FNDA:6,_RNvXs0_NtCs7yHBkdcMBoj_21sqlrustgo_transaction12mvcc_storageNtB5_17MVCCStorageEngineNtB5_11MVCCStorage15commit_versions
FNDA:1,_RNvXs0_NtCs7yHBkdcMBoj_21sqlrustgo_transaction12mvcc_storageNtB5_17MVCCStorageEngineNtB5_11MVCCStorage17rollback_versions
FNDA:7,_RNvXs0_NtCs7yHBkdcMBoj_21sqlrustgo_transaction12mvcc_storageNtB5_17MVCCStorageEngineNtB5_11MVCCStorage4read
FNDA:0,_RNvXNtCs7yHBkdcMBoj_21sqlrustgo_transaction12mvcc_storageNtB2_17MVCCStorageEngineNtNtCs8nPosuWgJFh_4core7default7Default7default
FNDA:1,_RNvNtNtCs7yHBkdcMBoj_21sqlrustgo_transaction12mvcc_storage5testss_24test_mvcc_storage_delete
FNDA:1,_RNvNtNtCs7yHBkdcMBoj_21sqlrustgo_transaction12mvcc_storage5testss_26test_mvcc_storage_rollback
FNDA:1,_RNvNtNtCs7yHBkdcMBoj_21sqlrustgo_transaction12mvcc_storage5testss_28test_mvcc_storage_read_write
FNDA:1,_RNvNtNtCs7yHBkdcMBoj_21sqlrustgo_transaction12mvcc_storage5testss_36test_mvcc_storage_snapshot_isolation
FNF:11
FNH:10
DA:23,0
DA:24,0
DA:25,0
DA:29,4
DA:30,4
DA:31,4
DA:32,4
DA:33,4
DA:37,7
DA:38,7
DA:39,7
DA:40,7
DA:42,6
DA:43,6
DA:44,6
DA:45,6
DA:47,1
DA:48,1
DA:49,1
DA:50,1
DA:52,6
DA:53,6
DA:54,6
DA:55,6
DA:56,6
DA:58,1
DA:59,1
DA:60,1
DA:61,1
DA:62,1
DA:70,1
DA:71,1
DA:73,1
DA:75,1
DA:76,1
DA:78,1
DA:80,1
DA:81,1
DA:84,1
DA:85,1
DA:87,1
DA:88,1
DA:90,1
DA:91,1
DA:93,1
DA:94,1
DA:96,1
DA:97,1
DA:98,1
DA:101,1
DA:102,1
DA:104,1
DA:105,1
DA:107,1
DA:108,1
DA:110,1
DA:111,1
DA:113,1
DA:114,1
DA:115,1
DA:118,1
DA:119,1
DA:121,1
DA:122,1
DA:124,1
DA:126,1
DA:128,1
DA:129,1
DA:130,1
BRF:0
BRH:0
LF:69
LH:66
end_of_record
SF:/home/openclaw/dev/yinglichina8848/sqlrustgo/crates/transaction/src/participant.rs
FN:44,_RNvMNtCs7yHBkdcMBoj_21sqlrustgo_transaction11participantNtB2_11Participant12gid_to_tx_id
FN:94,_RNvMNtCs7yHBkdcMBoj_21sqlrustgo_transaction11participantNtB2_11Participant13handle_commit
FN:52,_RNvMNtCs7yHBkdcMBoj_21sqlrustgo_transaction11participantNtB2_11Participant14handle_prepare
FN:160,_RNvMNtCs7yHBkdcMBoj_21sqlrustgo_transaction11participantNtB2_11Participant15handle_rollback
FN:20,_RNvMNtCs7yHBkdcMBoj_21sqlrustgo_transaction11participantNtB2_11Participant3new
FN:39,_RNvMNtCs7yHBkdcMBoj_21sqlrustgo_transaction11participantNtB2_11Participant7node_id
FN:30,_RNvMNtCs7yHBkdcMBoj_21sqlrustgo_transaction11participantNtB2_11Participant8with_wal
FN:332,_RNCNvNtNtCs7yHBkdcMBoj_21sqlrustgo_transaction11participant5testss_25test_participant_with_wal0B7_
FN:287,_RNCNvNtNtCs7yHBkdcMBoj_21sqlrustgo_transaction11participant5testss_30test_participant_handle_commit0B7_
FN:265,_RNCNvNtNtCs7yHBkdcMBoj_21sqlrustgo_transaction11participant5testss_31test_participant_initialization0B7_
FN:309,_RNCNvNtNtCs7yHBkdcMBoj_21sqlrustgo_transaction11participant5testss_32test_participant_handle_rollback0B7_
FN:349,_RNCNvNtNtCs7yHBkdcMBoj_21sqlrustgo_transaction11participant5testss_32test_participant_lock_contention0B7_
FN:369,_RNCNvNtNtCs7yHBkdcMBoj_21sqlrustgo_transaction11participant5testss_36test_participant_rollback_unknown_tx0B7_
FN:272,_RNCNvNtNtCs7yHBkdcMBoj_21sqlrustgo_transaction11participant5testss_38test_participant_handle_prepare_commit0B7_
FN:332,_RNvNtNtCs7yHBkdcMBoj_21sqlrustgo_transaction11participant5testss_25test_participant_with_wal
FN:287,_RNvNtNtCs7yHBkdcMBoj_21sqlrustgo_transaction11participant5testss_30test_participant_handle_commit
FN:265,_RNvNtNtCs7yHBkdcMBoj_21sqlrustgo_transaction11participant5testss_31test_participant_initialization
FN:309,_RNvNtNtCs7yHBkdcMBoj_21sqlrustgo_transaction11participant5testss_32test_participant_handle_rollback
FN:349,_RNvNtNtCs7yHBkdcMBoj_21sqlrustgo_transaction11participant5testss_32test_participant_lock_contention
FN:369,_RNvNtNtCs7yHBkdcMBoj_21sqlrustgo_transaction11participant5testss_36test_participant_rollback_unknown_tx
FN:272,_RNvNtNtCs7yHBkdcMBoj_21sqlrustgo_transaction11participant5testss_38test_participant_handle_prepare_commit
FN:95,_RNCNCNvMNtCs7yHBkdcMBoj_21sqlrustgo_transaction11participantNtB6_11Participant13handle_commit00B8_
FN:134,_RNCNCNvMNtCs7yHBkdcMBoj_21sqlrustgo_transaction11participantNtB6_11Participant13handle_commit0s1_0B8_
FN:103,_RNCNCNvMNtCs7yHBkdcMBoj_21sqlrustgo_transaction11participantNtB6_11Participant13handle_commit0s_0B8_
FN:53,_RNCNCNvMNtCs7yHBkdcMBoj_21sqlrustgo_transaction11participantNtB6_11Participant14handle_prepare00B8_
FN:78,_RNCNCNvMNtCs7yHBkdcMBoj_21sqlrustgo_transaction11participantNtB6_11Participant14handle_prepare0s0_0B8_
FN:164,_RNCNCNvMNtCs7yHBkdcMBoj_21sqlrustgo_transaction11participantNtB6_11Participant15handle_rollback00B8_
FN:190,_RNCNCNvMNtCs7yHBkdcMBoj_21sqlrustgo_transaction11participantNtB6_11Participant15handle_rollback0s0_0B8_
FN:94,_RNCNvMNtCs7yHBkdcMBoj_21sqlrustgo_transaction11participantNtB4_11Participant13handle_commit0B6_
FN:52,_RNCNvMNtCs7yHBkdcMBoj_21sqlrustgo_transaction11participantNtB4_11Participant14handle_prepare0B6_
FN:163,_RNCNvMNtCs7yHBkdcMBoj_21sqlrustgo_transaction11participantNtB4_11Participant15handle_rollback0B6_
FNDA:1,_RNvMNtCs7yHBkdcMBoj_21sqlrustgo_transaction11participantNtB2_11Participant12gid_to_tx_id
FNDA:1,_RNvMNtCs7yHBkdcMBoj_21sqlrustgo_transaction11participantNtB2_11Participant13handle_commit
FNDA:6,_RNvMNtCs7yHBkdcMBoj_21sqlrustgo_transaction11participantNtB2_11Participant14handle_prepare
FNDA:2,_RNvMNtCs7yHBkdcMBoj_21sqlrustgo_transaction11participantNtB2_11Participant15handle_rollback
FNDA:6,_RNvMNtCs7yHBkdcMBoj_21sqlrustgo_transaction11participantNtB2_11Participant3new
FNDA:1,_RNvMNtCs7yHBkdcMBoj_21sqlrustgo_transaction11participantNtB2_11Participant7node_id
FNDA:1,_RNvMNtCs7yHBkdcMBoj_21sqlrustgo_transaction11participantNtB2_11Participant8with_wal
FNDA:1,_RNCNvNtNtCs7yHBkdcMBoj_21sqlrustgo_transaction11participant5testss_25test_participant_with_wal0B7_
FNDA:1,_RNCNvNtNtCs7yHBkdcMBoj_21sqlrustgo_transaction11participant5testss_30test_participant_handle_commit0B7_
FNDA:1,_RNCNvNtNtCs7yHBkdcMBoj_21sqlrustgo_transaction11participant5testss_31test_participant_initialization0B7_
FNDA:1,_RNCNvNtNtCs7yHBkdcMBoj_21sqlrustgo_transaction11participant5testss_32test_participant_handle_rollback0B7_
FNDA:1,_RNCNvNtNtCs7yHBkdcMBoj_21sqlrustgo_transaction11participant5testss_32test_participant_lock_contention0B7_
FNDA:1,_RNCNvNtNtCs7yHBkdcMBoj_21sqlrustgo_transaction11participant5testss_36test_participant_rollback_unknown_tx0B7_
FNDA:1,_RNCNvNtNtCs7yHBkdcMBoj_21sqlrustgo_transaction11participant5testss_38test_participant_handle_prepare_commit0B7_
FNDA:1,_RNvNtNtCs7yHBkdcMBoj_21sqlrustgo_transaction11participant5testss_25test_participant_with_wal
FNDA:1,_RNvNtNtCs7yHBkdcMBoj_21sqlrustgo_transaction11participant5testss_30test_participant_handle_commit
FNDA:1,_RNvNtNtCs7yHBkdcMBoj_21sqlrustgo_transaction11participant5testss_31test_participant_initialization
FNDA:1,_RNvNtNtCs7yHBkdcMBoj_21sqlrustgo_transaction11participant5testss_32test_participant_handle_rollback
FNDA:1,_RNvNtNtCs7yHBkdcMBoj_21sqlrustgo_transaction11participant5testss_32test_participant_lock_contention
FNDA:1,_RNvNtNtCs7yHBkdcMBoj_21sqlrustgo_transaction11participant5testss_36test_participant_rollback_unknown_tx
FNDA:1,_RNvNtNtCs7yHBkdcMBoj_21sqlrustgo_transaction11participant5testss_38test_participant_handle_prepare_commit
FNDA:0,_RNCNCNvMNtCs7yHBkdcMBoj_21sqlrustgo_transaction11participantNtB6_11Participant13handle_commit00B8_
FNDA:0,_RNCNCNvMNtCs7yHBkdcMBoj_21sqlrustgo_transaction11participantNtB6_11Participant13handle_commit0s1_0B8_
FNDA:0,_RNCNCNvMNtCs7yHBkdcMBoj_21sqlrustgo_transaction11participantNtB6_11Participant13handle_commit0s_0B8_
FNDA:0,_RNCNCNvMNtCs7yHBkdcMBoj_21sqlrustgo_transaction11participantNtB6_11Participant14handle_prepare00B8_
FNDA:0,_RNCNCNvMNtCs7yHBkdcMBoj_21sqlrustgo_transaction11participantNtB6_11Participant14handle_prepare0s0_0B8_
FNDA:0,_RNCNCNvMNtCs7yHBkdcMBoj_21sqlrustgo_transaction11participantNtB6_11Participant15handle_rollback00B8_
FNDA:0,_RNCNCNvMNtCs7yHBkdcMBoj_21sqlrustgo_transaction11participantNtB6_11Participant15handle_rollback0s0_0B8_
FNDA:1,_RNCNvMNtCs7yHBkdcMBoj_21sqlrustgo_transaction11participantNtB4_11Participant13handle_commit0B6_
FNDA:6,_RNCNvMNtCs7yHBkdcMBoj_21sqlrustgo_transaction11participantNtB4_11Participant14handle_prepare0B6_
FNDA:2,_RNCNvMNtCs7yHBkdcMBoj_21sqlrustgo_transaction11participantNtB4_11Participant15handle_rollback0B6_
FNF:31
FNH:24
DA:20,6
DA:21,6
DA:22,6
DA:23,6
DA:24,6
DA:25,6
DA:26,6
DA:27,6
DA:30,1
DA:31,1
DA:32,1
DA:33,1
DA:34,1
DA:35,1
DA:36,1
DA:37,1
DA:39,1
DA:40,1
DA:41,1
DA:44,1
DA:47,1
DA:48,1
DA:49,1
DA:50,1
DA:52,6
DA:53,6
DA:57,6
DA:58,6
DA:59,1
DA:60,1
DA:61,1
DA:62,1
DA:63,1
DA:64,1
DA:65,5
DA:66,5
DA:70,5
DA:71,5
DA:72,5
DA:75,5
DA:76,1
DA:77,1
DA:78,1
DA:79,4
DA:81,5
DA:82,5
DA:83,5
DA:84,5
DA:86,5
DA:87,5
DA:88,5
DA:89,5
DA:90,5
DA:91,5
DA:92,6
DA:94,1
DA:95,1
DA:98,1
DA:99,1
DA:100,0
DA:101,0
DA:102,0
DA:103,0
DA:105,0
DA:106,0
DA:108,0
DA:109,0
DA:110,0
DA:112,1
DA:115,1
DA:116,1
DA:117,1
DA:118,1
DA:119,1
DA:120,1
DA:121,1
DA:122,1
DA:123,0
DA:124,1
DA:125,0
DA:128,1
DA:131,1
DA:132,0
DA:133,0
DA:134,0
DA:135,1
DA:139,1
DA:140,1
DA:144,1
DA:146,1
DA:147,1
DA:148,1
DA:149,1
DA:151,1
DA:152,1
DA:153,1
DA:154,1
DA:155,1
DA:156,1
DA:157,1
DA:158,1
DA:160,2
DA:161,2
DA:162,2
DA:163,2
DA:164,2
DA:168,2
DA:169,2
DA:170,2
DA:171,2
DA:172,2
DA:173,2
DA:174,2
DA:175,1
DA:176,1
DA:180,1
DA:187,1
DA:188,0
DA:189,0
DA:190,0
DA:191,1
DA:195,1
DA:196,1
DA:200,1
DA:202,1
DA:203,1
DA:204,1
DA:205,1
DA:207,1
DA:208,1
DA:209,1
DA:210,1
DA:211,1
DA:212,1
DA:213,1
DA:214,2
DA:265,1
DA:266,1
DA:267,1
DA:268,1
DA:269,1
DA:272,1
DA:273,1
DA:274,1
DA:276,1
DA:277,1
DA:278,1
DA:279,1
DA:280,1
DA:282,1
DA:283,1
DA:284,1
DA:287,1
DA:288,1
DA:289,1
DA:292,1
DA:293,1
DA:294,1
DA:295,1
DA:296,1
DA:297,1
DA:300,1
DA:301,1
DA:302,1
DA:304,1
DA:305,1
DA:306,1
DA:309,1
DA:310,1
DA:311,1
DA:314,1
DA:315,1
DA:316,1
DA:317,1
DA:318,1
DA:319,1
DA:322,1
DA:323,1
DA:324,1
DA:325,1
DA:327,1
DA:328,1
DA:329,1
DA:332,1
DA:333,1
DA:334,1
DA:335,1
DA:336,1
DA:338,1
DA:339,1
DA:340,1
DA:341,1
DA:342,1
DA:344,1
DA:345,1
DA:346,1
DA:349,1
DA:350,1
DA:351,1
DA:353,1
DA:354,1
DA:355,1
DA:356,1
DA:357,1
DA:360,1
DA:361,1
DA:364,1
DA:365,1
DA:366,1
DA:369,1
DA:370,1
DA:371,1
DA:373,1
DA:374,1
DA:375,1
DA:376,1
DA:378,1
DA:379,1
DA:380,1
BRF:0
BRH:0
LF:243
LH:219
end_of_record
SF:/home/openclaw/dev/yinglichina8848/sqlrustgo/crates/transaction/src/recovery.rs
FN:152,_RNCNvMNtCsjfxBuuaWLtE_21sqlrustgo_transaction8recoveryNtB4_8Recovery10log_commit0B6_
FN:159,_RNCNvMNtCsjfxBuuaWLtE_21sqlrustgo_transaction8recoveryNtB4_8Recovery10log_commits_0B6_
FN:122,_RNCNvMNtCsjfxBuuaWLtE_21sqlrustgo_transaction8recoveryNtB4_8Recovery11log_prepare0B6_
FN:129,_RNCNvMNtCsjfxBuuaWLtE_21sqlrustgo_transaction8recoveryNtB4_8Recovery11log_prepares_0B6_
FN:171,_RNCNvMNtCsjfxBuuaWLtE_21sqlrustgo_transaction8recoveryNtB4_8Recovery12log_rollback0B6_
FN:178,_RNCNvMNtCsjfxBuuaWLtE_21sqlrustgo_transaction8recoveryNtB4_8Recovery12log_rollbacks_0B6_
FN:108,_RNCNvMNtCsjfxBuuaWLtE_21sqlrustgo_transaction8recoveryNtB4_8Recovery9log_begin0B6_
FN:152,_RNCNvMNtCs4BfdzTzvOqG_21sqlrustgo_transaction8recoveryNtB4_8Recovery10log_commit0B6_
FN:159,_RNCNvMNtCs4BfdzTzvOqG_21sqlrustgo_transaction8recoveryNtB4_8Recovery10log_commits_0B6_
FN:122,_RNCNvMNtCs4BfdzTzvOqG_21sqlrustgo_transaction8recoveryNtB4_8Recovery11log_prepare0B6_
FN:129,_RNCNvMNtCs4BfdzTzvOqG_21sqlrustgo_transaction8recoveryNtB4_8Recovery11log_prepares_0B6_
FN:171,_RNCNvMNtCs4BfdzTzvOqG_21sqlrustgo_transaction8recoveryNtB4_8Recovery12log_rollback0B6_
FN:178,_RNCNvMNtCs4BfdzTzvOqG_21sqlrustgo_transaction8recoveryNtB4_8Recovery12log_rollbacks_0B6_
FN:108,_RNCNvMNtCs4BfdzTzvOqG_21sqlrustgo_transaction8recoveryNtB4_8Recovery9log_begin0B6_
FN:436,_RNvNtNtCs7yHBkdcMBoj_21sqlrustgo_transaction8recovery5testss_22test_recovery_with_wal
FN:426,_RNvNtNtCs7yHBkdcMBoj_21sqlrustgo_transaction8recovery5testss_23test_recovery_empty_wal
FN:448,_RNvNtNtCs7yHBkdcMBoj_21sqlrustgo_transaction8recovery5testss_23test_recovery_log_begin
FN:473,_RNvNtNtCs7yHBkdcMBoj_21sqlrustgo_transaction8recovery5testss_26test_recovery_log_rollback
FN:409,_RNvNtNtCs7yHBkdcMBoj_21sqlrustgo_transaction8recovery5testss_28test_recovery_report_default
FN:417,_RNvNtNtCs7yHBkdcMBoj_21sqlrustgo_transaction8recovery5testss_33test_scan_incomplete_transactions
FN:458,_RNvNtNtCs7yHBkdcMBoj_21sqlrustgo_transaction8recovery5testss_36test_recovery_log_prepare_and_commit
FN:148,_RNvMNtCs7yHBkdcMBoj_21sqlrustgo_transaction8recoveryNtB2_8Recovery10log_commit
FN:114,_RNvMNtCs7yHBkdcMBoj_21sqlrustgo_transaction8recoveryNtB2_8Recovery11log_prepare
FN:95,_RNvMNtCs7yHBkdcMBoj_21sqlrustgo_transaction8recoveryNtB2_8Recovery12gid_to_tx_id
FN:167,_RNvMNtCs7yHBkdcMBoj_21sqlrustgo_transaction8recoveryNtB2_8Recovery12log_rollback
FN:357,_RNvMNtCs7yHBkdcMBoj_21sqlrustgo_transaction8recoveryNtB2_8Recovery14mark_committed
FN:393,_RNvMNtCs7yHBkdcMBoj_21sqlrustgo_transaction8recoveryNtB2_8Recovery15mark_terminated
FN:375,_RNvMNtCs7yHBkdcMBoj_21sqlrustgo_transaction8recoveryNtB2_8Recovery16mark_rolled_back
FN:327,_RNvMNtCs7yHBkdcMBoj_21sqlrustgo_transaction8recoveryNtB2_8Recovery22rollback_incomplete_tx
FN:186,_RNvMNtCs7yHBkdcMBoj_21sqlrustgo_transaction8recoveryNtB2_8Recovery28scan_incomplete_transactions
FN:344,_RNvMNtCs7yHBkdcMBoj_21sqlrustgo_transaction8recoveryNtB2_8Recovery29query_coordinator_for_outcome
FN:77,_RNvMNtCs7yHBkdcMBoj_21sqlrustgo_transaction8recoveryNtB2_8Recovery3new
FN:283,_RNvMNtCs7yHBkdcMBoj_21sqlrustgo_transaction8recoveryNtB2_8Recovery7recover
FN:86,_RNvMNtCs7yHBkdcMBoj_21sqlrustgo_transaction8recoveryNtB2_8Recovery8with_wal
FN:104,_RNvMNtCs7yHBkdcMBoj_21sqlrustgo_transaction8recoveryNtB2_8Recovery9log_begin
FN:368,_RNCNCNvMNtCs7yHBkdcMBoj_21sqlrustgo_transaction8recoveryNtB6_8Recovery14mark_committed00B8_
FN:386,_RNCNCNvMNtCs7yHBkdcMBoj_21sqlrustgo_transaction8recoveryNtB6_8Recovery16mark_rolled_back00B8_
FN:203,_RNCNCNvMNtCs7yHBkdcMBoj_21sqlrustgo_transaction8recoveryNtB6_8Recovery28scan_incomplete_transactions00B8_
FN:262,_RNCNCNvMNtCs7yHBkdcMBoj_21sqlrustgo_transaction8recoveryNtB6_8Recovery28scan_incomplete_transactions0s0_0B8_
FN:258,_RNCNCNvMNtCs7yHBkdcMBoj_21sqlrustgo_transaction8recoveryNtB6_8Recovery28scan_incomplete_transactions0s_0B8_
FN:152,_RNCNvMNtCs7yHBkdcMBoj_21sqlrustgo_transaction8recoveryNtB4_8Recovery10log_commit0B6_
FN:159,_RNCNvMNtCs7yHBkdcMBoj_21sqlrustgo_transaction8recoveryNtB4_8Recovery10log_commits_0B6_
FN:122,_RNCNvMNtCs7yHBkdcMBoj_21sqlrustgo_transaction8recoveryNtB4_8Recovery11log_prepare0B6_
FN:129,_RNCNvMNtCs7yHBkdcMBoj_21sqlrustgo_transaction8recoveryNtB4_8Recovery11log_prepares_0B6_
FN:171,_RNCNvMNtCs7yHBkdcMBoj_21sqlrustgo_transaction8recoveryNtB4_8Recovery12log_rollback0B6_
FN:178,_RNCNvMNtCs7yHBkdcMBoj_21sqlrustgo_transaction8recoveryNtB4_8Recovery12log_rollbacks_0B6_
FN:357,_RNCNvMNtCs7yHBkdcMBoj_21sqlrustgo_transaction8recoveryNtB4_8Recovery14mark_committed0B6_
FN:393,_RNCNvMNtCs7yHBkdcMBoj_21sqlrustgo_transaction8recoveryNtB4_8Recovery15mark_terminated0B6_
FN:375,_RNCNvMNtCs7yHBkdcMBoj_21sqlrustgo_transaction8recoveryNtB4_8Recovery16mark_rolled_back0B6_
FN:331,_RNCNvMNtCs7yHBkdcMBoj_21sqlrustgo_transaction8recoveryNtB4_8Recovery22rollback_incomplete_tx0B6_
FN:186,_RNCNvMNtCs7yHBkdcMBoj_21sqlrustgo_transaction8recoveryNtB4_8Recovery28scan_incomplete_transactions0B6_
FN:348,_RNCNvMNtCs7yHBkdcMBoj_21sqlrustgo_transaction8recoveryNtB4_8Recovery29query_coordinator_for_outcome0B6_
FN:283,_RNCNvMNtCs7yHBkdcMBoj_21sqlrustgo_transaction8recoveryNtB4_8Recovery7recover0B6_
FN:108,_RNCNvMNtCs7yHBkdcMBoj_21sqlrustgo_transaction8recoveryNtB4_8Recovery9log_begin0B6_
FN:436,_RNCNvNtNtCs7yHBkdcMBoj_21sqlrustgo_transaction8recovery5testss_22test_recovery_with_wal0B7_
FN:426,_RNCNvNtNtCs7yHBkdcMBoj_21sqlrustgo_transaction8recovery5testss_23test_recovery_empty_wal0B7_
FN:448,_RNCNvNtNtCs7yHBkdcMBoj_21sqlrustgo_transaction8recovery5testss_23test_recovery_log_begin0B7_
FN:473,_RNCNvNtNtCs7yHBkdcMBoj_21sqlrustgo_transaction8recovery5testss_26test_recovery_log_rollback0B7_
FN:417,_RNCNvNtNtCs7yHBkdcMBoj_21sqlrustgo_transaction8recovery5testss_33test_scan_incomplete_transactions0B7_
FN:458,_RNCNvNtNtCs7yHBkdcMBoj_21sqlrustgo_transaction8recovery5testss_36test_recovery_log_prepare_and_commit0B7_
FNDA:0,_RNCNvMNtCsjfxBuuaWLtE_21sqlrustgo_transaction8recoveryNtB4_8Recovery10log_commit0B6_
FNDA:0,_RNCNvMNtCsjfxBuuaWLtE_21sqlrustgo_transaction8recoveryNtB4_8Recovery10log_commits_0B6_
FNDA:0,_RNCNvMNtCsjfxBuuaWLtE_21sqlrustgo_transaction8recoveryNtB4_8Recovery11log_prepare0B6_
FNDA:0,_RNCNvMNtCsjfxBuuaWLtE_21sqlrustgo_transaction8recoveryNtB4_8Recovery11log_prepares_0B6_
FNDA:0,_RNCNvMNtCsjfxBuuaWLtE_21sqlrustgo_transaction8recoveryNtB4_8Recovery12log_rollback0B6_
FNDA:0,_RNCNvMNtCsjfxBuuaWLtE_21sqlrustgo_transaction8recoveryNtB4_8Recovery12log_rollbacks_0B6_
FNDA:0,_RNCNvMNtCsjfxBuuaWLtE_21sqlrustgo_transaction8recoveryNtB4_8Recovery9log_begin0B6_
FNDA:0,_RNCNvMNtCs4BfdzTzvOqG_21sqlrustgo_transaction8recoveryNtB4_8Recovery10log_commit0B6_
FNDA:0,_RNCNvMNtCs4BfdzTzvOqG_21sqlrustgo_transaction8recoveryNtB4_8Recovery10log_commits_0B6_
FNDA:0,_RNCNvMNtCs4BfdzTzvOqG_21sqlrustgo_transaction8recoveryNtB4_8Recovery11log_prepare0B6_
FNDA:0,_RNCNvMNtCs4BfdzTzvOqG_21sqlrustgo_transaction8recoveryNtB4_8Recovery11log_prepares_0B6_
FNDA:0,_RNCNvMNtCs4BfdzTzvOqG_21sqlrustgo_transaction8recoveryNtB4_8Recovery12log_rollback0B6_
FNDA:0,_RNCNvMNtCs4BfdzTzvOqG_21sqlrustgo_transaction8recoveryNtB4_8Recovery12log_rollbacks_0B6_
FNDA:0,_RNCNvMNtCs4BfdzTzvOqG_21sqlrustgo_transaction8recoveryNtB4_8Recovery9log_begin0B6_
FNDA:1,_RNvNtNtCs7yHBkdcMBoj_21sqlrustgo_transaction8recovery5testss_22test_recovery_with_wal
FNDA:1,_RNvNtNtCs7yHBkdcMBoj_21sqlrustgo_transaction8recovery5testss_23test_recovery_empty_wal
FNDA:1,_RNvNtNtCs7yHBkdcMBoj_21sqlrustgo_transaction8recovery5testss_23test_recovery_log_begin
FNDA:1,_RNvNtNtCs7yHBkdcMBoj_21sqlrustgo_transaction8recovery5testss_26test_recovery_log_rollback
FNDA:1,_RNvNtNtCs7yHBkdcMBoj_21sqlrustgo_transaction8recovery5testss_28test_recovery_report_default
FNDA:1,_RNvNtNtCs7yHBkdcMBoj_21sqlrustgo_transaction8recovery5testss_33test_scan_incomplete_transactions
FNDA:1,_RNvNtNtCs7yHBkdcMBoj_21sqlrustgo_transaction8recovery5testss_36test_recovery_log_prepare_and_commit
FNDA:1,_RNvMNtCs7yHBkdcMBoj_21sqlrustgo_transaction8recoveryNtB2_8Recovery10log_commit
FNDA:1,_RNvMNtCs7yHBkdcMBoj_21sqlrustgo_transaction8recoveryNtB2_8Recovery11log_prepare
FNDA:3,_RNvMNtCs7yHBkdcMBoj_21sqlrustgo_transaction8recoveryNtB2_8Recovery12gid_to_tx_id
FNDA:1,_RNvMNtCs7yHBkdcMBoj_21sqlrustgo_transaction8recoveryNtB2_8Recovery12log_rollback
FNDA:0,_RNvMNtCs7yHBkdcMBoj_21sqlrustgo_transaction8recoveryNtB2_8Recovery14mark_committed
FNDA:0,_RNvMNtCs7yHBkdcMBoj_21sqlrustgo_transaction8recoveryNtB2_8Recovery15mark_terminated
FNDA:0,_RNvMNtCs7yHBkdcMBoj_21sqlrustgo_transaction8recoveryNtB2_8Recovery16mark_rolled_back
FNDA:0,_RNvMNtCs7yHBkdcMBoj_21sqlrustgo_transaction8recoveryNtB2_8Recovery22rollback_incomplete_tx
FNDA:3,_RNvMNtCs7yHBkdcMBoj_21sqlrustgo_transaction8recoveryNtB2_8Recovery28scan_incomplete_transactions
FNDA:0,_RNvMNtCs7yHBkdcMBoj_21sqlrustgo_transaction8recoveryNtB2_8Recovery29query_coordinator_for_outcome
FNDA:5,_RNvMNtCs7yHBkdcMBoj_21sqlrustgo_transaction8recoveryNtB2_8Recovery3new
FNDA:1,_RNvMNtCs7yHBkdcMBoj_21sqlrustgo_transaction8recoveryNtB2_8Recovery7recover
FNDA:1,_RNvMNtCs7yHBkdcMBoj_21sqlrustgo_transaction8recoveryNtB2_8Recovery8with_wal
FNDA:1,_RNvMNtCs7yHBkdcMBoj_21sqlrustgo_transaction8recoveryNtB2_8Recovery9log_begin
FNDA:0,_RNCNCNvMNtCs7yHBkdcMBoj_21sqlrustgo_transaction8recoveryNtB6_8Recovery14mark_committed00B8_
FNDA:0,_RNCNCNvMNtCs7yHBkdcMBoj_21sqlrustgo_transaction8recoveryNtB6_8Recovery16mark_rolled_back00B8_
FNDA:0,_RNCNCNvMNtCs7yHBkdcMBoj_21sqlrustgo_transaction8recoveryNtB6_8Recovery28scan_incomplete_transactions00B8_
FNDA:0,_RNCNCNvMNtCs7yHBkdcMBoj_21sqlrustgo_transaction8recoveryNtB6_8Recovery28scan_incomplete_transactions0s0_0B8_
FNDA:0,_RNCNCNvMNtCs7yHBkdcMBoj_21sqlrustgo_transaction8recoveryNtB6_8Recovery28scan_incomplete_transactions0s_0B8_
FNDA:0,_RNCNvMNtCs7yHBkdcMBoj_21sqlrustgo_transaction8recoveryNtB4_8Recovery10log_commit0B6_
FNDA:0,_RNCNvMNtCs7yHBkdcMBoj_21sqlrustgo_transaction8recoveryNtB4_8Recovery10log_commits_0B6_
FNDA:0,_RNCNvMNtCs7yHBkdcMBoj_21sqlrustgo_transaction8recoveryNtB4_8Recovery11log_prepare0B6_
FNDA:0,_RNCNvMNtCs7yHBkdcMBoj_21sqlrustgo_transaction8recoveryNtB4_8Recovery11log_prepares_0B6_
FNDA:0,_RNCNvMNtCs7yHBkdcMBoj_21sqlrustgo_transaction8recoveryNtB4_8Recovery12log_rollback0B6_
FNDA:0,_RNCNvMNtCs7yHBkdcMBoj_21sqlrustgo_transaction8recoveryNtB4_8Recovery12log_rollbacks_0B6_
FNDA:0,_RNCNvMNtCs7yHBkdcMBoj_21sqlrustgo_transaction8recoveryNtB4_8Recovery14mark_committed0B6_
FNDA:0,_RNCNvMNtCs7yHBkdcMBoj_21sqlrustgo_transaction8recoveryNtB4_8Recovery15mark_terminated0B6_
FNDA:0,_RNCNvMNtCs7yHBkdcMBoj_21sqlrustgo_transaction8recoveryNtB4_8Recovery16mark_rolled_back0B6_
FNDA:0,_RNCNvMNtCs7yHBkdcMBoj_21sqlrustgo_transaction8recoveryNtB4_8Recovery22rollback_incomplete_tx0B6_
FNDA:3,_RNCNvMNtCs7yHBkdcMBoj_21sqlrustgo_transaction8recoveryNtB4_8Recovery28scan_incomplete_transactions0B6_
FNDA:0,_RNCNvMNtCs7yHBkdcMBoj_21sqlrustgo_transaction8recoveryNtB4_8Recovery29query_coordinator_for_outcome0B6_
FNDA:1,_RNCNvMNtCs7yHBkdcMBoj_21sqlrustgo_transaction8recoveryNtB4_8Recovery7recover0B6_
FNDA:0,_RNCNvMNtCs7yHBkdcMBoj_21sqlrustgo_transaction8recoveryNtB4_8Recovery9log_begin0B6_
FNDA:1,_RNCNvNtNtCs7yHBkdcMBoj_21sqlrustgo_transaction8recovery5testss_22test_recovery_with_wal0B7_
FNDA:1,_RNCNvNtNtCs7yHBkdcMBoj_21sqlrustgo_transaction8recovery5testss_23test_recovery_empty_wal0B7_
FNDA:1,_RNCNvNtNtCs7yHBkdcMBoj_21sqlrustgo_transaction8recovery5testss_23test_recovery_log_begin0B7_
FNDA:1,_RNCNvNtNtCs7yHBkdcMBoj_21sqlrustgo_transaction8recovery5testss_26test_recovery_log_rollback0B7_
FNDA:1,_RNCNvNtNtCs7yHBkdcMBoj_21sqlrustgo_transaction8recovery5testss_33test_scan_incomplete_transactions0B7_
FNDA:1,_RNCNvNtNtCs7yHBkdcMBoj_21sqlrustgo_transaction8recovery5testss_36test_recovery_log_prepare_and_commit0B7_
FNF:46
FNH:24
DA:77,5
DA:78,5
DA:79,5
DA:80,5
DA:81,5
DA:82,5
DA:83,5
DA:86,1
DA:87,1
DA:88,1
DA:89,1
DA:90,1
DA:91,1
DA:92,1
DA:95,3
DA:98,3
DA:99,3
DA:100,3
DA:101,3
DA:104,1
DA:105,1
DA:106,0
DA:107,0
DA:108,0
DA:109,1
DA:110,1
DA:111,1
DA:114,1
DA:115,1
DA:116,1
DA:117,1
DA:118,1
DA:119,1
DA:120,0
DA:121,0
DA:122,0
DA:123,1
DA:125,1
DA:126,1
DA:127,1
DA:128,1
DA:129,1
DA:130,1
DA:131,1
DA:132,1
DA:133,1
DA:134,1
DA:135,1
DA:136,1
DA:137,1
DA:138,1
DA:139,1
DA:140,1
DA:141,1
DA:142,1
DA:143,1
DA:144,1
DA:145,1
DA:148,1
DA:149,1
DA:150,0
DA:151,0
DA:152,0
DA:153,1
DA:155,1
DA:156,1
DA:157,1
DA:158,1
DA:159,1
DA:160,1
DA:161,1
DA:162,1
DA:163,1
DA:164,1
DA:167,1
DA:168,1
DA:169,0
DA:170,0
DA:171,0
DA:172,1
DA:174,1
DA:175,1
DA:176,1
DA:177,1
DA:178,1
DA:179,1
DA:180,0
DA:181,1
DA:182,1
DA:183,1
DA:186,3
DA:187,3
DA:190,3
DA:192,1
DA:193,0
DA:194,1
DA:195,0
DA:199,1
DA:201,1
DA:202,0
DA:203,0
DA:204,0
DA:205,0
DA:206,0
DA:207,0
DA:211,0
DA:212,0
DA:213,0
DA:215,0
DA:216,0
DA:217,0
DA:218,0
DA:219,0
DA:220,0
DA:221,0
DA:222,0
DA:223,0
DA:224,0
DA:225,0
DA:226,0
DA:227,0
DA:228,0
DA:229,0
DA:234,1
DA:238,0
DA:239,0
DA:240,0
DA:241,0
DA:242,0
DA:243,0
DA:244,0
DA:245,0
DA:246,0
DA:247,0
DA:248,0
DA:249,0
DA:251,2
DA:255,3
DA:256,3
DA:257,3
DA:258,3
DA:259,3
DA:260,0
DA:262,0
DA:263,0
DA:264,0
DA:266,0
DA:268,0
DA:269,0
DA:270,0
DA:271,0
DA:272,0
DA:273,0
DA:274,0
DA:275,0
DA:279,3
DA:280,3
DA:283,1
DA:284,1
DA:287,1
DA:289,1
DA:290,0
DA:291,0
DA:293,0
DA:294,0
DA:295,0
DA:298,0
DA:301,0
DA:302,0
DA:303,0
DA:304,0
DA:306,0
DA:307,0
DA:310,0
DA:311,0
DA:314,0
DA:315,0
DA:319,0
DA:323,1
DA:324,1
DA:327,0
DA:328,0
DA:329,0
DA:330,0
DA:331,0
DA:332,0
DA:335,0
DA:339,0
DA:340,0
DA:341,0
DA:344,0
DA:345,0
DA:346,0
DA:347,0
DA:348,0
DA:349,0
DA:353,0
DA:354,0
DA:357,0
DA:358,0
DA:361,0
DA:364,0
DA:365,0
DA:366,0
DA:367,0
DA:368,0
DA:369,0
DA:371,0
DA:372,0
DA:375,0
DA:376,0
DA:379,0
DA:382,0
DA:383,0
DA:384,0
DA:385,0
DA:386,0
DA:387,0
DA:389,0
DA:390,0
DA:393,0
DA:394,0
DA:398,0
DA:399,0
DA:400,0
DA:409,1
DA:410,1
DA:411,1
DA:412,1
DA:413,1
DA:414,1
DA:417,1
DA:418,1
DA:419,1
DA:420,1
DA:422,1
DA:423,1
DA:426,1
DA:427,1
DA:428,1
DA:429,1
DA:430,1
DA:431,1
DA:432,1
DA:433,1
DA:436,1
DA:437,1
DA:438,1
DA:439,1
DA:440,1
DA:443,1
DA:444,1
DA:445,1
DA:448,1
DA:449,1
DA:450,1
DA:451,1
DA:453,1
DA:454,1
DA:455,1
DA:458,1
DA:459,1
DA:460,1
DA:461,1
DA:464,1
DA:465,1
DA:468,1
DA:469,1
DA:470,1
DA:473,1
DA:474,1
DA:475,1
DA:476,1
DA:479,1
DA:480,1
DA:481,1
BRF:0
BRH:0
LF:307
LH:164
end_of_record
SF:/home/openclaw/dev/yinglichina8848/sqlrustgo/crates/transaction/src/router.rs
FN:29,_RNCNvMNtCsjfxBuuaWLtE_21sqlrustgo_transaction6routerNtB4_6Router10get_routes0B6_
FN:29,_RNCNvMNtCs4BfdzTzvOqG_21sqlrustgo_transaction6routerNtB4_6Router10get_routes0B6_
FN:74,_RNvNtNtCs7yHBkdcMBoj_21sqlrustgo_transaction6router5testss_19test_register_table
FN:91,_RNvNtNtCs7yHBkdcMBoj_21sqlrustgo_transaction6router5testss_23test_resolve_multi_node
FN:81,_RNvNtNtCs7yHBkdcMBoj_21sqlrustgo_transaction6router5testss_24test_resolve_single_node
FN:115,_RNvNtNtCs7yHBkdcMBoj_21sqlrustgo_transaction6router5testss_24test_unknown_table_error
FN:68,_RNvNtNtCs7yHBkdcMBoj_21sqlrustgo_transaction6router5testss_26test_router_initialization
FN:102,_RNvNtNtCs7yHBkdcMBoj_21sqlrustgo_transaction6router5testss_31test_is_single_node_transaction
FN:58,_RNvXs_NtCs7yHBkdcMBoj_21sqlrustgo_transaction6routerNtB4_6RouterNtNtCs8nPosuWgJFh_4core7default7Default7default
FN:26,_RNvMNtCs7yHBkdcMBoj_21sqlrustgo_transaction6routerNtB2_6Router10get_routes
FN:16,_RNvMNtCs7yHBkdcMBoj_21sqlrustgo_transaction6routerNtB2_6Router14register_table
FN:34,_RNvMNtCs7yHBkdcMBoj_21sqlrustgo_transaction6routerNtB2_6Router14resolve_tables
FN:21,_RNvMNtCs7yHBkdcMBoj_21sqlrustgo_transaction6routerNtB2_6Router18get_node_for_table
FN:49,_RNvMNtCs7yHBkdcMBoj_21sqlrustgo_transaction6routerNtB2_6Router26is_single_node_transaction
FN:9,_RNvMNtCs7yHBkdcMBoj_21sqlrustgo_transaction6routerNtB2_6Router3new
FN:29,_RNCNvMNtCs7yHBkdcMBoj_21sqlrustgo_transaction6routerNtB4_6Router10get_routes0B6_
FNDA:0,_RNCNvMNtCsjfxBuuaWLtE_21sqlrustgo_transaction6routerNtB4_6Router10get_routes0B6_
FNDA:0,_RNCNvMNtCs4BfdzTzvOqG_21sqlrustgo_transaction6routerNtB4_6Router10get_routes0B6_
FNDA:1,_RNvNtNtCs7yHBkdcMBoj_21sqlrustgo_transaction6router5testss_19test_register_table
FNDA:1,_RNvNtNtCs7yHBkdcMBoj_21sqlrustgo_transaction6router5testss_23test_resolve_multi_node
FNDA:1,_RNvNtNtCs7yHBkdcMBoj_21sqlrustgo_transaction6router5testss_24test_resolve_single_node
FNDA:1,_RNvNtNtCs7yHBkdcMBoj_21sqlrustgo_transaction6router5testss_24test_unknown_table_error
FNDA:1,_RNvNtNtCs7yHBkdcMBoj_21sqlrustgo_transaction6router5testss_26test_router_initialization
FNDA:1,_RNvNtNtCs7yHBkdcMBoj_21sqlrustgo_transaction6router5testss_31test_is_single_node_transaction
FNDA:0,_RNvXs_NtCs7yHBkdcMBoj_21sqlrustgo_transaction6routerNtB4_6RouterNtNtCs8nPosuWgJFh_4core7default7Default7default
FNDA:1,_RNvMNtCs7yHBkdcMBoj_21sqlrustgo_transaction6routerNtB2_6Router10get_routes
FNDA:7,_RNvMNtCs7yHBkdcMBoj_21sqlrustgo_transaction6routerNtB2_6Router14register_table
FNDA:5,_RNvMNtCs7yHBkdcMBoj_21sqlrustgo_transaction6routerNtB2_6Router14resolve_tables
FNDA:1,_RNvMNtCs7yHBkdcMBoj_21sqlrustgo_transaction6routerNtB2_6Router18get_node_for_table
FNDA:2,_RNvMNtCs7yHBkdcMBoj_21sqlrustgo_transaction6routerNtB2_6Router26is_single_node_transaction
FNDA:6,_RNvMNtCs7yHBkdcMBoj_21sqlrustgo_transaction6routerNtB2_6Router3new
FNDA:0,_RNCNvMNtCs7yHBkdcMBoj_21sqlrustgo_transaction6routerNtB4_6Router10get_routes0B6_
FNF:14
FNH:12
DA:9,6
DA:10,6
DA:11,6
DA:12,6
DA:13,6
DA:16,7
DA:17,7
DA:18,7
DA:21,1
DA:22,1
DA:23,1
DA:26,1
DA:27,1
DA:28,1
DA:29,1
DA:30,1
DA:31,1
DA:34,5
DA:35,5
DA:36,8
DA:37,8
DA:38,7
DA:39,7
DA:40,7
DA:42,1
DA:45,4
DA:46,5
DA:49,2
DA:50,2
DA:51,2
DA:52,0
DA:54,2
DA:58,0
DA:59,0
DA:60,0
DA:68,1
DA:69,1
DA:70,1
DA:71,1
DA:74,1
DA:75,1
DA:76,1
DA:77,1
DA:78,1
DA:81,1
DA:82,1
DA:83,1
DA:85,1
DA:86,1
DA:87,1
DA:88,1
DA:91,1
DA:92,1
DA:93,1
DA:94,1
DA:96,1
DA:97,1
DA:98,1
DA:99,1
DA:102,1
DA:103,1
DA:104,1
DA:105,1
DA:107,1
DA:108,1
DA:110,1
DA:111,1
DA:112,1
DA:115,1
DA:116,1
DA:117,1
DA:119,1
DA:120,1
DA:121,1
DA:122,1
DA:123,1
BRF:0
BRH:0
LF:77
LH:72
end_of_record
SF:/home/openclaw/dev/yinglichina8848/sqlrustgo/crates/transaction/src/version_chain.rs
FN:139,_RNCNvMs_NtCsjfxBuuaWLtE_21sqlrustgo_transaction13version_chainNtB6_15VersionChainMap15gc_key_versions0B8_
FN:92,_RNCNvMs_NtCsjfxBuuaWLtE_21sqlrustgo_transaction13version_chainNtB6_15VersionChainMap17rollback_versions0B8_
FN:139,_RNCNvMs_NtCs4BfdzTzvOqG_21sqlrustgo_transaction13version_chainNtB6_15VersionChainMap15gc_key_versions0B8_
FN:92,_RNCNvMs_NtCs4BfdzTzvOqG_21sqlrustgo_transaction13version_chainNtB6_15VersionChainMap17rollback_versions0B8_
FN:139,_RNCNvMs_NtCs7yHBkdcMBoj_21sqlrustgo_transaction13version_chainNtB6_15VersionChainMap15gc_key_versions0B8_
FN:92,_RNCNvMs_NtCs7yHBkdcMBoj_21sqlrustgo_transaction13version_chainNtB6_15VersionChainMap17rollback_versions0B8_
FN:98,_RNvMs_NtCs7yHBkdcMBoj_21sqlrustgo_transaction13version_chainNtB4_15VersionChainMap3len
FN:105,_RNvMs_NtCs7yHBkdcMBoj_21sqlrustgo_transaction13version_chainNtB4_15VersionChainMap8is_empty
FN:64,_RNvMs_NtCs7yHBkdcMBoj_21sqlrustgo_transaction13version_chainNtB4_15VersionChainMap9get_chain
FN:24,_RNvXNtCs7yHBkdcMBoj_21sqlrustgo_transaction13version_chainNtB2_15VersionChainMapNtNtCs8nPosuWgJFh_4core7default7Default7default
FN:40,_RNvMs_NtCs7yHBkdcMBoj_21sqlrustgo_transaction13version_chainNtB4_15VersionChainMap12find_visible
FN:72,_RNvMs_NtCs7yHBkdcMBoj_21sqlrustgo_transaction13version_chainNtB4_15VersionChainMap15commit_versions
FN:124,_RNvMs_NtCs7yHBkdcMBoj_21sqlrustgo_transaction13version_chainNtB4_15VersionChainMap15gc_key_versions
FN:89,_RNvMs_NtCs7yHBkdcMBoj_21sqlrustgo_transaction13version_chainNtB4_15VersionChainMap17rollback_versions
FN:110,_RNvMs_NtCs7yHBkdcMBoj_21sqlrustgo_transaction13version_chainNtB4_15VersionChainMap2gc
FN:31,_RNvMs_NtCs7yHBkdcMBoj_21sqlrustgo_transaction13version_chainNtB4_15VersionChainMap3new
FN:169,_RNvMs_NtCs7yHBkdcMBoj_21sqlrustgo_transaction13version_chainNtB4_15VersionChainMap5stats
FN:57,_RNvMs_NtCs7yHBkdcMBoj_21sqlrustgo_transaction13version_chainNtB4_15VersionChainMap6append
FN:343,_RNvNtNtCs7yHBkdcMBoj_21sqlrustgo_transaction13version_chain5testss_24test_version_chain_stats
FN:224,_RNvNtNtCs7yHBkdcMBoj_21sqlrustgo_transaction13version_chain5testss_27test_version_chain_rollback
FN:249,_RNvNtNtCs7yHBkdcMBoj_21sqlrustgo_transaction13version_chain5testss_28test_version_chain_not_found
FN:275,_RNvNtNtCs7yHBkdcMBoj_21sqlrustgo_transaction13version_chain5testss_36test_version_chain_delete_visibility
FN:299,_RNvNtNtCs7yHBkdcMBoj_21sqlrustgo_transaction13version_chain5testss_37test_version_chain_gc_collect_deleted
FN:315,_RNvNtNtCs7yHBkdcMBoj_21sqlrustgo_transaction13version_chain5testss_37test_version_chain_gc_preserve_recent
FN:329,_RNvNtNtCs7yHBkdcMBoj_21sqlrustgo_transaction13version_chain5testss_40test_version_chain_gc_preserve_active_tx
FN:197,_RNvNtNtCs7yHBkdcMBoj_21sqlrustgo_transaction13version_chain5testss_42test_version_chain_append_and_find_visible
FN:256,_RNvNtNtCs7yHBkdcMBoj_21sqlrustgo_transaction13version_chain5testss_46test_version_chain_uncommitted_visible_to_self
FNDA:0,_RNCNvMs_NtCsjfxBuuaWLtE_21sqlrustgo_transaction13version_chainNtB6_15VersionChainMap15gc_key_versions0B8_
FNDA:0,_RNCNvMs_NtCsjfxBuuaWLtE_21sqlrustgo_transaction13version_chainNtB6_15VersionChainMap17rollback_versions0B8_
FNDA:0,_RNCNvMs_NtCs4BfdzTzvOqG_21sqlrustgo_transaction13version_chainNtB6_15VersionChainMap15gc_key_versions0B8_
FNDA:0,_RNCNvMs_NtCs4BfdzTzvOqG_21sqlrustgo_transaction13version_chainNtB6_15VersionChainMap17rollback_versions0B8_
FNDA:6,_RNCNvMs_NtCs7yHBkdcMBoj_21sqlrustgo_transaction13version_chainNtB6_15VersionChainMap15gc_key_versions0B8_
FNDA:4,_RNCNvMs_NtCs7yHBkdcMBoj_21sqlrustgo_transaction13version_chainNtB6_15VersionChainMap17rollback_versions0B8_
FNDA:0,_RNvMs_NtCs7yHBkdcMBoj_21sqlrustgo_transaction13version_chainNtB4_15VersionChainMap3len
FNDA:0,_RNvMs_NtCs7yHBkdcMBoj_21sqlrustgo_transaction13version_chainNtB4_15VersionChainMap8is_empty
FNDA:0,_RNvMs_NtCs7yHBkdcMBoj_21sqlrustgo_transaction13version_chainNtB4_15VersionChainMap9get_chain
FNDA:0,_RNvXNtCs7yHBkdcMBoj_21sqlrustgo_transaction13version_chainNtB2_15VersionChainMapNtNtCs8nPosuWgJFh_4core7default7Default7default
FNDA:15,_RNvMs_NtCs7yHBkdcMBoj_21sqlrustgo_transaction13version_chainNtB4_15VersionChainMap12find_visible
FNDA:20,_RNvMs_NtCs7yHBkdcMBoj_21sqlrustgo_transaction13version_chainNtB4_15VersionChainMap15commit_versions
FNDA:3,_RNvMs_NtCs7yHBkdcMBoj_21sqlrustgo_transaction13version_chainNtB4_15VersionChainMap15gc_key_versions
FNDA:2,_RNvMs_NtCs7yHBkdcMBoj_21sqlrustgo_transaction13version_chainNtB4_15VersionChainMap17rollback_versions
FNDA:3,_RNvMs_NtCs7yHBkdcMBoj_21sqlrustgo_transaction13version_chainNtB4_15VersionChainMap2gc
FNDA:13,_RNvMs_NtCs7yHBkdcMBoj_21sqlrustgo_transaction13version_chainNtB4_15VersionChainMap3new
FNDA:3,_RNvMs_NtCs7yHBkdcMBoj_21sqlrustgo_transaction13version_chainNtB4_15VersionChainMap5stats
FNDA:23,_RNvMs_NtCs7yHBkdcMBoj_21sqlrustgo_transaction13version_chainNtB4_15VersionChainMap6append
FNDA:1,_RNvNtNtCs7yHBkdcMBoj_21sqlrustgo_transaction13version_chain5testss_24test_version_chain_stats
FNDA:1,_RNvNtNtCs7yHBkdcMBoj_21sqlrustgo_transaction13version_chain5testss_27test_version_chain_rollback
FNDA:1,_RNvNtNtCs7yHBkdcMBoj_21sqlrustgo_transaction13version_chain5testss_28test_version_chain_not_found
FNDA:1,_RNvNtNtCs7yHBkdcMBoj_21sqlrustgo_transaction13version_chain5testss_36test_version_chain_delete_visibility
FNDA:1,_RNvNtNtCs7yHBkdcMBoj_21sqlrustgo_transaction13version_chain5testss_37test_version_chain_gc_collect_deleted
FNDA:1,_RNvNtNtCs7yHBkdcMBoj_21sqlrustgo_transaction13version_chain5testss_37test_version_chain_gc_preserve_recent
FNDA:1,_RNvNtNtCs7yHBkdcMBoj_21sqlrustgo_transaction13version_chain5testss_40test_version_chain_gc_preserve_active_tx
FNDA:1,_RNvNtNtCs7yHBkdcMBoj_21sqlrustgo_transaction13version_chain5testss_42test_version_chain_append_and_find_visible
FNDA:1,_RNvNtNtCs7yHBkdcMBoj_21sqlrustgo_transaction13version_chain5testss_46test_version_chain_uncommitted_visible_to_self
FNF:23
FNH:19
DA:24,0
DA:25,0
DA:26,0
DA:31,13
DA:32,13
DA:33,13
DA:34,13
DA:35,13
DA:40,15
DA:41,15
DA:43,15
DA:44,18
DA:45,18
DA:46,12
DA:47,2
DA:48,10
DA:49,10
DA:50,6
DA:52,1
DA:53,3
DA:54,15
DA:57,23
DA:58,23
DA:59,23
DA:60,23
DA:64,0
DA:65,0
DA:66,0
DA:67,0
DA:72,20
DA:73,20
DA:74,21
DA:75,30
DA:76,30
DA:77,20
DA:79,20
DA:80,6
DA:81,14
DA:82,10
DA:85,20
DA:89,2
DA:90,2
DA:91,2
DA:92,4
DA:94,2
DA:98,0
DA:99,0
DA:100,0
DA:101,0
DA:105,0
DA:106,0
DA:107,0
DA:108,0
DA:110,3
DA:111,3
DA:112,3
DA:113,3
DA:114,3
DA:116,3
DA:117,3
DA:118,3
DA:119,3
DA:120,3
DA:124,3
DA:125,3
DA:126,3
DA:127,3
DA:128,3
DA:129,3
DA:130,3
DA:131,3
DA:132,3
DA:133,0
DA:135,3
DA:136,3
DA:137,3
DA:138,3
DA:139,6
DA:140,6
DA:141,3
DA:142,3
DA:143,3
DA:144,3
DA:145,0
DA:148,3
DA:149,1
DA:150,2
DA:154,2
DA:155,2
DA:156,1
DA:157,1
DA:158,1
DA:159,6
DA:160,3
DA:161,3
DA:162,3
DA:163,1
DA:164,1
DA:165,3
DA:166,3
DA:169,3
DA:170,3
DA:171,3
DA:172,3
DA:173,3
DA:174,4
DA:175,4
DA:176,6
DA:177,6
DA:178,2
DA:179,4
DA:181,4
DA:183,3
DA:184,3
DA:185,3
DA:186,3
DA:187,3
DA:188,3
DA:189,3
DA:197,1
DA:198,1
DA:201,1
DA:202,1
DA:203,1
DA:205,1
DA:208,1
DA:209,1
DA:210,1
DA:212,1
DA:215,1
DA:216,1
DA:219,1
DA:220,1
DA:221,1
DA:224,1
DA:225,1
DA:228,1
DA:229,1
DA:230,1
DA:232,1
DA:235,1
DA:236,1
DA:237,1
DA:241,1
DA:244,1
DA:245,1
DA:246,1
DA:249,1
DA:250,1
DA:251,1
DA:252,1
DA:253,1
DA:256,1
DA:257,1
DA:260,1
DA:261,1
DA:262,1
DA:266,1
DA:267,1
DA:270,1
DA:271,1
DA:272,1
DA:275,1
DA:276,1
DA:279,1
DA:280,1
DA:281,1
DA:283,1
DA:286,1
DA:287,1
DA:290,1
DA:291,1
DA:294,1
DA:295,1
DA:296,1
DA:299,1
DA:300,1
DA:301,1
DA:302,1
DA:303,1
DA:305,1
DA:306,1
DA:307,1
DA:308,1
DA:309,1
DA:310,1
DA:311,1
DA:312,1
DA:315,1
DA:316,1
DA:317,1
DA:318,1
DA:319,1
DA:321,1
DA:322,1
DA:323,1
DA:324,1
DA:325,1
DA:326,1
DA:329,1
DA:330,1
DA:331,1
DA:332,1
DA:333,1
DA:335,1
DA:336,1
DA:337,1
DA:338,1
DA:339,1
DA:340,1
DA:343,1
DA:344,1
DA:345,1
DA:346,1
DA:347,1
DA:349,1
DA:350,1
DA:351,1
DA:352,1
DA:354,1
DA:355,1
DA:356,1
DA:357,1
DA:358,1
DA:359,1
DA:360,1
DA:361,1
DA:362,1
BRF:0
BRH:0
LF:230
LH:213
end_of_record